ARM GAS  C:\Users\Ian\AppData\Local\Temp\cc8kZCjf.s 			page 1


   1              		.syntax unified
   2              		.cpu cortex-m3
   3              		.fpu softvfp
   4              		.eabi_attribute 20, 1
   5              		.eabi_attribute 21, 1
   6              		.eabi_attribute 23, 3
   7              		.eabi_attribute 24, 1
   8              		.eabi_attribute 25, 1
   9              		.eabi_attribute 26, 1
  10              		.eabi_attribute 30, 1
  11              		.eabi_attribute 34, 1
  12              		.eabi_attribute 18, 4
  13              		.thumb
  14              		.file	"CyFlash.c"
  15              		.text
  16              	.Ltext0:
  17              		.cfi_sections	.debug_frame
  18              		.section	.text.CySetTempInt,"ax",%progbits
  19              		.align	2
  20              		.thumb
  21              		.thumb_func
  22              		.type	CySetTempInt, %function
  23              	CySetTempInt:
  24              	.LFB2:
  25              		.file 1 ".\\Generated_Source\\PSoC5\\CyFlash.c"
   1:.\Generated_Source\PSoC5/CyFlash.c **** /*******************************************************************************
   2:.\Generated_Source\PSoC5/CyFlash.c **** * File Name: CyFlash.c
   3:.\Generated_Source\PSoC5/CyFlash.c **** * Version 4.11
   4:.\Generated_Source\PSoC5/CyFlash.c **** *
   5:.\Generated_Source\PSoC5/CyFlash.c **** *  Description:
   6:.\Generated_Source\PSoC5/CyFlash.c **** *   Provides an API for the FLASH/EEPROM.
   7:.\Generated_Source\PSoC5/CyFlash.c **** *
   8:.\Generated_Source\PSoC5/CyFlash.c **** *  Note:
   9:.\Generated_Source\PSoC5/CyFlash.c **** *   This code is endian agnostic.
  10:.\Generated_Source\PSoC5/CyFlash.c **** *
  11:.\Generated_Source\PSoC5/CyFlash.c **** *  Note:
  12:.\Generated_Source\PSoC5/CyFlash.c **** *   Documentation of the API's in this file is located in the
  13:.\Generated_Source\PSoC5/CyFlash.c **** *   System Reference Guide provided with PSoC Creator.
  14:.\Generated_Source\PSoC5/CyFlash.c **** *
  15:.\Generated_Source\PSoC5/CyFlash.c **** ********************************************************************************
  16:.\Generated_Source\PSoC5/CyFlash.c **** * Copyright 2008-2014, Cypress Semiconductor Corporation. All rights reserved.
  17:.\Generated_Source\PSoC5/CyFlash.c **** * You may use this file only in accordance with the license, terms, conditions,
  18:.\Generated_Source\PSoC5/CyFlash.c **** * disclaimers, and limitations in the end user license agreement accompanying
  19:.\Generated_Source\PSoC5/CyFlash.c **** * the software package with which this file was provided.
  20:.\Generated_Source\PSoC5/CyFlash.c **** *******************************************************************************/
  21:.\Generated_Source\PSoC5/CyFlash.c **** 
  22:.\Generated_Source\PSoC5/CyFlash.c **** #include "CyFlash.h"
  23:.\Generated_Source\PSoC5/CyFlash.c **** 
  24:.\Generated_Source\PSoC5/CyFlash.c **** 
  25:.\Generated_Source\PSoC5/CyFlash.c **** /*******************************************************************************
  26:.\Generated_Source\PSoC5/CyFlash.c **** * Holds the die temperature, updated by CySetTemp(). Used for flash writing.
  27:.\Generated_Source\PSoC5/CyFlash.c **** * The first byte is the sign of the temperature (0 = negative, 1 = positive).
  28:.\Generated_Source\PSoC5/CyFlash.c **** * The second byte is the magnitude.
  29:.\Generated_Source\PSoC5/CyFlash.c **** *******************************************************************************/
  30:.\Generated_Source\PSoC5/CyFlash.c **** uint8 dieTemperature[CY_FLASH_DIE_TEMP_DATA_SIZE];
  31:.\Generated_Source\PSoC5/CyFlash.c **** 
  32:.\Generated_Source\PSoC5/CyFlash.c **** #if(CYDEV_ECC_ENABLE == 0)
ARM GAS  C:\Users\Ian\AppData\Local\Temp\cc8kZCjf.s 			page 2


  33:.\Generated_Source\PSoC5/CyFlash.c ****     static uint8 * rowBuffer = 0;
  34:.\Generated_Source\PSoC5/CyFlash.c **** #endif  /* (CYDEV_ECC_ENABLE == 0) */
  35:.\Generated_Source\PSoC5/CyFlash.c **** 
  36:.\Generated_Source\PSoC5/CyFlash.c **** 
  37:.\Generated_Source\PSoC5/CyFlash.c **** static cystatus CySetTempInt(void);
  38:.\Generated_Source\PSoC5/CyFlash.c **** 
  39:.\Generated_Source\PSoC5/CyFlash.c **** 
  40:.\Generated_Source\PSoC5/CyFlash.c **** /*******************************************************************************
  41:.\Generated_Source\PSoC5/CyFlash.c **** * Function Name: CyFlash_Start
  42:.\Generated_Source\PSoC5/CyFlash.c **** ********************************************************************************
  43:.\Generated_Source\PSoC5/CyFlash.c **** *
  44:.\Generated_Source\PSoC5/CyFlash.c **** * Summary:
  45:.\Generated_Source\PSoC5/CyFlash.c **** *  Enable the Flash.
  46:.\Generated_Source\PSoC5/CyFlash.c **** *
  47:.\Generated_Source\PSoC5/CyFlash.c **** * Parameters:
  48:.\Generated_Source\PSoC5/CyFlash.c **** *  None
  49:.\Generated_Source\PSoC5/CyFlash.c **** *
  50:.\Generated_Source\PSoC5/CyFlash.c **** * Return:
  51:.\Generated_Source\PSoC5/CyFlash.c **** *  None
  52:.\Generated_Source\PSoC5/CyFlash.c **** *
  53:.\Generated_Source\PSoC5/CyFlash.c **** *******************************************************************************/
  54:.\Generated_Source\PSoC5/CyFlash.c **** void CyFlash_Start(void) 
  55:.\Generated_Source\PSoC5/CyFlash.c **** {
  56:.\Generated_Source\PSoC5/CyFlash.c ****     /* Active Power Mode */
  57:.\Generated_Source\PSoC5/CyFlash.c ****     *CY_FLASH_PM_ACT_EEFLASH_PTR |= CY_FLASH_PM_FLASH_MASK;
  58:.\Generated_Source\PSoC5/CyFlash.c **** 
  59:.\Generated_Source\PSoC5/CyFlash.c ****     /* Standby Power Mode */
  60:.\Generated_Source\PSoC5/CyFlash.c ****     *CY_FLASH_PM_ALTACT_EEFLASH_PTR |= CY_FLASH_PM_FLASH_MASK;
  61:.\Generated_Source\PSoC5/CyFlash.c **** 
  62:.\Generated_Source\PSoC5/CyFlash.c ****     CyDelayUs(CY_FLASH_EE_STARTUP_DELAY);
  63:.\Generated_Source\PSoC5/CyFlash.c **** }
  64:.\Generated_Source\PSoC5/CyFlash.c **** 
  65:.\Generated_Source\PSoC5/CyFlash.c **** 
  66:.\Generated_Source\PSoC5/CyFlash.c **** /*******************************************************************************
  67:.\Generated_Source\PSoC5/CyFlash.c **** * Function Name: CyFlash_Stop
  68:.\Generated_Source\PSoC5/CyFlash.c **** ********************************************************************************
  69:.\Generated_Source\PSoC5/CyFlash.c **** *
  70:.\Generated_Source\PSoC5/CyFlash.c **** * Summary:
  71:.\Generated_Source\PSoC5/CyFlash.c **** *  Disable the Flash.
  72:.\Generated_Source\PSoC5/CyFlash.c **** *
  73:.\Generated_Source\PSoC5/CyFlash.c **** * Parameters:
  74:.\Generated_Source\PSoC5/CyFlash.c **** *  None
  75:.\Generated_Source\PSoC5/CyFlash.c **** *
  76:.\Generated_Source\PSoC5/CyFlash.c **** * Return:
  77:.\Generated_Source\PSoC5/CyFlash.c **** *  None
  78:.\Generated_Source\PSoC5/CyFlash.c **** *
  79:.\Generated_Source\PSoC5/CyFlash.c **** * Side Effects:
  80:.\Generated_Source\PSoC5/CyFlash.c **** *  This setting is ignored as long as the CPU is currently running.  This will
  81:.\Generated_Source\PSoC5/CyFlash.c **** *  only take effect when the CPU is later disabled.
  82:.\Generated_Source\PSoC5/CyFlash.c **** *
  83:.\Generated_Source\PSoC5/CyFlash.c **** *******************************************************************************/
  84:.\Generated_Source\PSoC5/CyFlash.c **** void CyFlash_Stop(void) 
  85:.\Generated_Source\PSoC5/CyFlash.c **** {
  86:.\Generated_Source\PSoC5/CyFlash.c ****     /* Active Power Mode */
  87:.\Generated_Source\PSoC5/CyFlash.c ****     *CY_FLASH_PM_ACT_EEFLASH_PTR &= ((uint8)(~CY_FLASH_PM_FLASH_MASK));
  88:.\Generated_Source\PSoC5/CyFlash.c **** 
  89:.\Generated_Source\PSoC5/CyFlash.c ****     /* Standby Power Mode */
ARM GAS  C:\Users\Ian\AppData\Local\Temp\cc8kZCjf.s 			page 3


  90:.\Generated_Source\PSoC5/CyFlash.c ****     *CY_FLASH_PM_ALTACT_EEFLASH_PTR &= ((uint8)(~CY_FLASH_PM_FLASH_MASK));
  91:.\Generated_Source\PSoC5/CyFlash.c **** }
  92:.\Generated_Source\PSoC5/CyFlash.c **** 
  93:.\Generated_Source\PSoC5/CyFlash.c **** 
  94:.\Generated_Source\PSoC5/CyFlash.c **** /*******************************************************************************
  95:.\Generated_Source\PSoC5/CyFlash.c **** * Function Name: CySetTempInt
  96:.\Generated_Source\PSoC5/CyFlash.c **** ********************************************************************************
  97:.\Generated_Source\PSoC5/CyFlash.c **** *
  98:.\Generated_Source\PSoC5/CyFlash.c **** * Summary:
  99:.\Generated_Source\PSoC5/CyFlash.c **** *  Sends a command to the SPC to read the die temperature. Sets a global value
 100:.\Generated_Source\PSoC5/CyFlash.c **** *  used by the Write function. This function must be called once before
 101:.\Generated_Source\PSoC5/CyFlash.c **** *  executing a series of Flash writing functions.
 102:.\Generated_Source\PSoC5/CyFlash.c **** *
 103:.\Generated_Source\PSoC5/CyFlash.c **** * Parameters:
 104:.\Generated_Source\PSoC5/CyFlash.c **** *  None
 105:.\Generated_Source\PSoC5/CyFlash.c **** *
 106:.\Generated_Source\PSoC5/CyFlash.c **** * Return:
 107:.\Generated_Source\PSoC5/CyFlash.c **** *  status:
 108:.\Generated_Source\PSoC5/CyFlash.c **** *   CYRET_SUCCESS - if successful
 109:.\Generated_Source\PSoC5/CyFlash.c **** *   CYRET_LOCKED  - if Flash writing already in use
 110:.\Generated_Source\PSoC5/CyFlash.c **** *   CYRET_UNKNOWN - if there was an SPC error
 111:.\Generated_Source\PSoC5/CyFlash.c **** *
 112:.\Generated_Source\PSoC5/CyFlash.c **** *******************************************************************************/
 113:.\Generated_Source\PSoC5/CyFlash.c **** static cystatus CySetTempInt(void) 
 114:.\Generated_Source\PSoC5/CyFlash.c **** {
  26              		.loc 1 114 0
  27              		.cfi_startproc
  28              		@ args = 0, pretend = 0, frame = 0
  29              		@ frame_needed = 0, uses_anonymous_args = 0
  30 0000 10B5     		push	{r4, lr}
  31              		.cfi_def_cfa_offset 8
  32              		.cfi_offset 4, -8
  33              		.cfi_offset 14, -4
 115:.\Generated_Source\PSoC5/CyFlash.c ****     cystatus status;
 116:.\Generated_Source\PSoC5/CyFlash.c **** 
 117:.\Generated_Source\PSoC5/CyFlash.c ****     /* Make sure SPC is powered */
 118:.\Generated_Source\PSoC5/CyFlash.c ****     CySpcStart();
  34              		.loc 1 118 0
  35 0002 FFF7FEFF 		bl	CySpcStart
  36              	.LVL0:
 119:.\Generated_Source\PSoC5/CyFlash.c **** 
 120:.\Generated_Source\PSoC5/CyFlash.c ****     /* Plan for failure. */
 121:.\Generated_Source\PSoC5/CyFlash.c ****     status = CYRET_UNKNOWN;
 122:.\Generated_Source\PSoC5/CyFlash.c **** 
 123:.\Generated_Source\PSoC5/CyFlash.c ****     if(CySpcLock() == CYRET_SUCCESS)
  37              		.loc 1 123 0
  38 0006 FFF7FEFF 		bl	CySpcLock
  39              	.LVL1:
  40 000a 10BB     		cbnz	r0, .L8
 124:.\Generated_Source\PSoC5/CyFlash.c ****     {
 125:.\Generated_Source\PSoC5/CyFlash.c ****         /* Write the command. */
 126:.\Generated_Source\PSoC5/CyFlash.c ****         if(CYRET_STARTED == CySpcGetTemp(CY_TEMP_NUMBER_OF_SAMPLES))
  41              		.loc 1 126 0
  42 000c 0120     		movs	r0, #1
  43 000e FFF7FEFF 		bl	CySpcGetTemp
  44              	.LVL2:
  45 0012 0728     		cmp	r0, #7
ARM GAS  C:\Users\Ian\AppData\Local\Temp\cc8kZCjf.s 			page 4


  46 0014 18D1     		bne	.L9
  47              	.L7:
 127:.\Generated_Source\PSoC5/CyFlash.c ****         {
 128:.\Generated_Source\PSoC5/CyFlash.c ****             do
 129:.\Generated_Source\PSoC5/CyFlash.c ****             {
 130:.\Generated_Source\PSoC5/CyFlash.c ****                 if(CySpcReadData(dieTemperature, CY_FLASH_DIE_TEMP_DATA_SIZE) == CY_FLASH_DIE_TEMP_
  48              		.loc 1 130 0
  49 0016 1048     		ldr	r0, .L12
  50 0018 0221     		movs	r1, #2
  51 001a FFF7FEFF 		bl	CySpcReadData
  52              	.LVL3:
  53 001e 0228     		cmp	r0, #2
  54 0020 0AD1     		bne	.L10
  55 0022 02E0     		b	.L4
  56              	.L6:
 131:.\Generated_Source\PSoC5/CyFlash.c ****                 {
 132:.\Generated_Source\PSoC5/CyFlash.c ****                     status = CYRET_SUCCESS;
 133:.\Generated_Source\PSoC5/CyFlash.c **** 
 134:.\Generated_Source\PSoC5/CyFlash.c ****                     while(CY_SPC_BUSY)
 135:.\Generated_Source\PSoC5/CyFlash.c ****                     {
 136:.\Generated_Source\PSoC5/CyFlash.c ****                         /* Spin until idle. */
 137:.\Generated_Source\PSoC5/CyFlash.c ****                         CyDelayUs(1u);
  57              		.loc 1 137 0
  58 0024 0120     		movs	r0, #1
  59 0026 FFF7FEFF 		bl	CyDelayUs
  60              	.LVL4:
  61              	.L4:
 134:.\Generated_Source\PSoC5/CyFlash.c ****                     {
  62              		.loc 1 134 0
  63 002a 0C4B     		ldr	r3, .L12+4
  64 002c 1B78     		ldrb	r3, [r3]	@ zero_extendqisi2
  65 002e 13F0020F 		tst	r3, #2
  66 0032 F7D0     		beq	.L6
 132:.\Generated_Source\PSoC5/CyFlash.c **** 
  67              		.loc 1 132 0
  68 0034 0024     		movs	r4, #0
  69 0036 09E0     		b	.L3
  70              	.L10:
 138:.\Generated_Source\PSoC5/CyFlash.c ****                     }
 139:.\Generated_Source\PSoC5/CyFlash.c ****                     break;
 140:.\Generated_Source\PSoC5/CyFlash.c ****                 }
 141:.\Generated_Source\PSoC5/CyFlash.c **** 
 142:.\Generated_Source\PSoC5/CyFlash.c ****             } while(CY_SPC_BUSY);
  71              		.loc 1 142 0
  72 0038 084B     		ldr	r3, .L12+4
  73 003a 1B78     		ldrb	r3, [r3]	@ zero_extendqisi2
  74 003c 13F0020F 		tst	r3, #2
  75 0040 E9D0     		beq	.L7
 121:.\Generated_Source\PSoC5/CyFlash.c **** 
  76              		.loc 1 121 0
  77 0042 4FF0FF34 		mov	r4, #-1
  78 0046 01E0     		b	.L3
  79              	.L9:
  80 0048 4FF0FF34 		mov	r4, #-1
  81              	.L3:
  82              	.LVL5:
 143:.\Generated_Source\PSoC5/CyFlash.c ****         }
ARM GAS  C:\Users\Ian\AppData\Local\Temp\cc8kZCjf.s 			page 5


 144:.\Generated_Source\PSoC5/CyFlash.c **** 
 145:.\Generated_Source\PSoC5/CyFlash.c ****         CySpcUnlock();
  83              		.loc 1 145 0
  84 004c FFF7FEFF 		bl	CySpcUnlock
  85              	.LVL6:
  86 0050 00E0     		b	.L2
  87              	.LVL7:
  88              	.L8:
 146:.\Generated_Source\PSoC5/CyFlash.c ****     }
 147:.\Generated_Source\PSoC5/CyFlash.c ****     else
 148:.\Generated_Source\PSoC5/CyFlash.c ****     {
 149:.\Generated_Source\PSoC5/CyFlash.c ****         status = CYRET_LOCKED;
  89              		.loc 1 149 0
  90 0052 0424     		movs	r4, #4
  91              	.LVL8:
  92              	.L2:
 150:.\Generated_Source\PSoC5/CyFlash.c ****     }
 151:.\Generated_Source\PSoC5/CyFlash.c **** 
 152:.\Generated_Source\PSoC5/CyFlash.c ****     return (status);
 153:.\Generated_Source\PSoC5/CyFlash.c **** }
  93              		.loc 1 153 0
  94 0054 2046     		mov	r0, r4
  95 0056 10BD     		pop	{r4, pc}
  96              	.LVL9:
  97              	.L13:
  98              		.align	2
  99              	.L12:
 100 0058 00000000 		.word	dieTemperature
 101 005c 22470040 		.word	1073760034
 102              		.cfi_endproc
 103              	.LFE2:
 104              		.size	CySetTempInt, .-CySetTempInt
 105              		.section	.text.CyFlash_Start,"ax",%progbits
 106              		.align	2
 107              		.global	CyFlash_Start
 108              		.thumb
 109              		.thumb_func
 110              		.type	CyFlash_Start, %function
 111              	CyFlash_Start:
 112              	.LFB0:
  55:.\Generated_Source\PSoC5/CyFlash.c ****     /* Active Power Mode */
 113              		.loc 1 55 0
 114              		.cfi_startproc
 115              		@ args = 0, pretend = 0, frame = 0
 116              		@ frame_needed = 0, uses_anonymous_args = 0
 117 0000 08B5     		push	{r3, lr}
 118              		.cfi_def_cfa_offset 8
 119              		.cfi_offset 3, -8
 120              		.cfi_offset 14, -4
  57:.\Generated_Source\PSoC5/CyFlash.c **** 
 121              		.loc 1 57 0
 122 0002 074A     		ldr	r2, .L16
 123 0004 1378     		ldrb	r3, [r2]	@ zero_extendqisi2
 124 0006 43F00103 		orr	r3, r3, #1
 125 000a 1370     		strb	r3, [r2]
  60:.\Generated_Source\PSoC5/CyFlash.c **** 
 126              		.loc 1 60 0
ARM GAS  C:\Users\Ian\AppData\Local\Temp\cc8kZCjf.s 			page 6


 127 000c 1032     		adds	r2, r2, #16
 128 000e 1378     		ldrb	r3, [r2]	@ zero_extendqisi2
 129 0010 43F00103 		orr	r3, r3, #1
 130 0014 1370     		strb	r3, [r2]
  62:.\Generated_Source\PSoC5/CyFlash.c **** }
 131              		.loc 1 62 0
 132 0016 0520     		movs	r0, #5
 133 0018 FFF7FEFF 		bl	CyDelayUs
 134              	.LVL10:
 135 001c 08BD     		pop	{r3, pc}
 136              	.L17:
 137 001e 00BF     		.align	2
 138              	.L16:
 139 0020 AC430040 		.word	1073759148
 140              		.cfi_endproc
 141              	.LFE0:
 142              		.size	CyFlash_Start, .-CyFlash_Start
 143              		.section	.text.CyFlash_Stop,"ax",%progbits
 144              		.align	2
 145              		.global	CyFlash_Stop
 146              		.thumb
 147              		.thumb_func
 148              		.type	CyFlash_Stop, %function
 149              	CyFlash_Stop:
 150              	.LFB1:
  85:.\Generated_Source\PSoC5/CyFlash.c ****     /* Active Power Mode */
 151              		.loc 1 85 0
 152              		.cfi_startproc
 153              		@ args = 0, pretend = 0, frame = 0
 154              		@ frame_needed = 0, uses_anonymous_args = 0
 155              		@ link register save eliminated.
  87:.\Generated_Source\PSoC5/CyFlash.c **** 
 156              		.loc 1 87 0
 157 0000 054A     		ldr	r2, .L19
 158 0002 1378     		ldrb	r3, [r2]	@ zero_extendqisi2
 159 0004 03F0FE03 		and	r3, r3, #254
 160 0008 1370     		strb	r3, [r2]
  90:.\Generated_Source\PSoC5/CyFlash.c **** }
 161              		.loc 1 90 0
 162 000a 1032     		adds	r2, r2, #16
 163 000c 1378     		ldrb	r3, [r2]	@ zero_extendqisi2
 164 000e 03F0FE03 		and	r3, r3, #254
 165 0012 1370     		strb	r3, [r2]
 166 0014 7047     		bx	lr
 167              	.L20:
 168 0016 00BF     		.align	2
 169              	.L19:
 170 0018 AC430040 		.word	1073759148
 171              		.cfi_endproc
 172              	.LFE1:
 173              		.size	CyFlash_Stop, .-CyFlash_Stop
 174              		.section	.text.CySetTemp,"ax",%progbits
 175              		.align	2
 176              		.global	CySetTemp
 177              		.thumb
 178              		.thumb_func
 179              		.type	CySetTemp, %function
ARM GAS  C:\Users\Ian\AppData\Local\Temp\cc8kZCjf.s 			page 7


 180              	CySetTemp:
 181              	.LFB3:
 154:.\Generated_Source\PSoC5/CyFlash.c **** 
 155:.\Generated_Source\PSoC5/CyFlash.c **** 
 156:.\Generated_Source\PSoC5/CyFlash.c **** /*******************************************************************************
 157:.\Generated_Source\PSoC5/CyFlash.c **** * Function Name: CySetTemp
 158:.\Generated_Source\PSoC5/CyFlash.c **** ********************************************************************************
 159:.\Generated_Source\PSoC5/CyFlash.c **** *
 160:.\Generated_Source\PSoC5/CyFlash.c **** * Summary:
 161:.\Generated_Source\PSoC5/CyFlash.c **** *  This is a wraparound for CySetTempInt(). It is used to return the second
 162:.\Generated_Source\PSoC5/CyFlash.c **** *  successful read of the temperature value.
 163:.\Generated_Source\PSoC5/CyFlash.c **** *
 164:.\Generated_Source\PSoC5/CyFlash.c **** * Parameters:
 165:.\Generated_Source\PSoC5/CyFlash.c **** *  None
 166:.\Generated_Source\PSoC5/CyFlash.c **** *
 167:.\Generated_Source\PSoC5/CyFlash.c **** * Return:
 168:.\Generated_Source\PSoC5/CyFlash.c **** *  status:
 169:.\Generated_Source\PSoC5/CyFlash.c **** *   CYRET_SUCCESS if successful.
 170:.\Generated_Source\PSoC5/CyFlash.c **** *   CYRET_LOCKED  if Flash writing already in use
 171:.\Generated_Source\PSoC5/CyFlash.c **** *   CYRET_UNKNOWN if there was an SPC error.
 172:.\Generated_Source\PSoC5/CyFlash.c **** *
 173:.\Generated_Source\PSoC5/CyFlash.c **** *  uint8 dieTemperature[2]:
 174:.\Generated_Source\PSoC5/CyFlash.c **** *   Holds the die temperature for the flash writing algorithm. The first byte is
 175:.\Generated_Source\PSoC5/CyFlash.c **** *   the sign of the temperature (0 = negative, 1 = positive). The second byte is
 176:.\Generated_Source\PSoC5/CyFlash.c **** *   the magnitude.
 177:.\Generated_Source\PSoC5/CyFlash.c **** *
 178:.\Generated_Source\PSoC5/CyFlash.c **** *******************************************************************************/
 179:.\Generated_Source\PSoC5/CyFlash.c **** cystatus CySetTemp(void) 
 180:.\Generated_Source\PSoC5/CyFlash.c **** {
 182              		.loc 1 180 0
 183              		.cfi_startproc
 184              		@ args = 0, pretend = 0, frame = 0
 185              		@ frame_needed = 0, uses_anonymous_args = 0
 186 0000 08B5     		push	{r3, lr}
 187              		.cfi_def_cfa_offset 8
 188              		.cfi_offset 3, -8
 189              		.cfi_offset 14, -4
 181:.\Generated_Source\PSoC5/CyFlash.c ****     cystatus status = CySetTempInt();
 190              		.loc 1 181 0
 191 0002 FFF7FEFF 		bl	CySetTempInt
 192              	.LVL11:
 182:.\Generated_Source\PSoC5/CyFlash.c **** 
 183:.\Generated_Source\PSoC5/CyFlash.c ****     if(status == CYRET_SUCCESS)
 193              		.loc 1 183 0
 194 0006 0346     		mov	r3, r0
 195 0008 10B9     		cbnz	r0, .L22
 184:.\Generated_Source\PSoC5/CyFlash.c ****     {
 185:.\Generated_Source\PSoC5/CyFlash.c ****         status = CySetTempInt();
 196              		.loc 1 185 0
 197 000a FFF7FEFF 		bl	CySetTempInt
 198              	.LVL12:
 199 000e 0346     		mov	r3, r0
 200              	.LVL13:
 201              	.L22:
 186:.\Generated_Source\PSoC5/CyFlash.c ****     }
 187:.\Generated_Source\PSoC5/CyFlash.c **** 
 188:.\Generated_Source\PSoC5/CyFlash.c ****     return (status);
ARM GAS  C:\Users\Ian\AppData\Local\Temp\cc8kZCjf.s 			page 8


 189:.\Generated_Source\PSoC5/CyFlash.c **** }
 202              		.loc 1 189 0
 203 0010 1846     		mov	r0, r3
 204 0012 08BD     		pop	{r3, pc}
 205              		.cfi_endproc
 206              	.LFE3:
 207              		.size	CySetTemp, .-CySetTemp
 208              		.section	.text.CySetFlashEEBuffer,"ax",%progbits
 209              		.align	2
 210              		.global	CySetFlashEEBuffer
 211              		.thumb
 212              		.thumb_func
 213              		.type	CySetFlashEEBuffer, %function
 214              	CySetFlashEEBuffer:
 215              	.LFB4:
 190:.\Generated_Source\PSoC5/CyFlash.c **** 
 191:.\Generated_Source\PSoC5/CyFlash.c **** 
 192:.\Generated_Source\PSoC5/CyFlash.c **** /*******************************************************************************
 193:.\Generated_Source\PSoC5/CyFlash.c **** * Function Name: CySetFlashEEBuffer
 194:.\Generated_Source\PSoC5/CyFlash.c **** ********************************************************************************
 195:.\Generated_Source\PSoC5/CyFlash.c **** *
 196:.\Generated_Source\PSoC5/CyFlash.c **** * Summary:
 197:.\Generated_Source\PSoC5/CyFlash.c **** *  Sets the user supplied temporary buffer to store SPC data while performing
 198:.\Generated_Source\PSoC5/CyFlash.c **** *  Flash and EEPROM commands. This buffer is only necessary when the Flash ECC is
 199:.\Generated_Source\PSoC5/CyFlash.c **** *  disabled.
 200:.\Generated_Source\PSoC5/CyFlash.c **** *
 201:.\Generated_Source\PSoC5/CyFlash.c **** * Parameters:
 202:.\Generated_Source\PSoC5/CyFlash.c **** *  buffer:
 203:.\Generated_Source\PSoC5/CyFlash.c **** *   The address of a block of memory to store temporary memory. The size of the block
 204:.\Generated_Source\PSoC5/CyFlash.c **** *   of memory is CYDEV_FLS_ROW_SIZE + CYDEV_ECC_ROW_SIZE.
 205:.\Generated_Source\PSoC5/CyFlash.c **** *
 206:.\Generated_Source\PSoC5/CyFlash.c **** * Return:
 207:.\Generated_Source\PSoC5/CyFlash.c **** *  status:
 208:.\Generated_Source\PSoC5/CyFlash.c **** *   CYRET_SUCCESS if successful.
 209:.\Generated_Source\PSoC5/CyFlash.c **** *   CYRET_BAD_PARAM if the buffer is NULL
 210:.\Generated_Source\PSoC5/CyFlash.c **** *
 211:.\Generated_Source\PSoC5/CyFlash.c **** *******************************************************************************/
 212:.\Generated_Source\PSoC5/CyFlash.c **** cystatus CySetFlashEEBuffer(uint8 * buffer) 
 213:.\Generated_Source\PSoC5/CyFlash.c **** {
 216              		.loc 1 213 0
 217              		.cfi_startproc
 218              		@ args = 0, pretend = 0, frame = 0
 219              		@ frame_needed = 0, uses_anonymous_args = 0
 220              	.LVL14:
 221 0000 10B5     		push	{r4, lr}
 222              		.cfi_def_cfa_offset 8
 223              		.cfi_offset 4, -8
 224              		.cfi_offset 14, -4
 225 0002 0446     		mov	r4, r0
 226              	.LVL15:
 214:.\Generated_Source\PSoC5/CyFlash.c ****     cystatus status = CYRET_SUCCESS;
 215:.\Generated_Source\PSoC5/CyFlash.c **** 
 216:.\Generated_Source\PSoC5/CyFlash.c ****     CySpcStart();
 227              		.loc 1 216 0
 228 0004 FFF7FEFF 		bl	CySpcStart
 229              	.LVL16:
 217:.\Generated_Source\PSoC5/CyFlash.c **** 
ARM GAS  C:\Users\Ian\AppData\Local\Temp\cc8kZCjf.s 			page 9


 218:.\Generated_Source\PSoC5/CyFlash.c ****     #if(CYDEV_ECC_ENABLE == 0)
 219:.\Generated_Source\PSoC5/CyFlash.c **** 
 220:.\Generated_Source\PSoC5/CyFlash.c ****         if(NULL == buffer)
 230              		.loc 1 220 0
 231 0008 44B1     		cbz	r4, .L26
 221:.\Generated_Source\PSoC5/CyFlash.c ****         {
 222:.\Generated_Source\PSoC5/CyFlash.c ****             rowBuffer = rowBuffer;
 223:.\Generated_Source\PSoC5/CyFlash.c ****             status = CYRET_BAD_PARAM;
 224:.\Generated_Source\PSoC5/CyFlash.c ****         }
 225:.\Generated_Source\PSoC5/CyFlash.c ****         else if(CySpcLock() != CYRET_SUCCESS)
 232              		.loc 1 225 0
 233 000a FFF7FEFF 		bl	CySpcLock
 234              	.LVL17:
 235 000e 38B9     		cbnz	r0, .L27
 226:.\Generated_Source\PSoC5/CyFlash.c ****         {
 227:.\Generated_Source\PSoC5/CyFlash.c ****             rowBuffer = rowBuffer;
 228:.\Generated_Source\PSoC5/CyFlash.c ****             status = CYRET_LOCKED;
 229:.\Generated_Source\PSoC5/CyFlash.c ****         }
 230:.\Generated_Source\PSoC5/CyFlash.c ****         else
 231:.\Generated_Source\PSoC5/CyFlash.c ****         {
 232:.\Generated_Source\PSoC5/CyFlash.c ****             rowBuffer = buffer;
 236              		.loc 1 232 0
 237 0010 044B     		ldr	r3, .L29
 238 0012 1C60     		str	r4, [r3]
 233:.\Generated_Source\PSoC5/CyFlash.c ****             CySpcUnlock();
 239              		.loc 1 233 0
 240 0014 FFF7FEFF 		bl	CySpcUnlock
 241              	.LVL18:
 214:.\Generated_Source\PSoC5/CyFlash.c **** 
 242              		.loc 1 214 0
 243 0018 0020     		movs	r0, #0
 244 001a 10BD     		pop	{r4, pc}
 245              	.LVL19:
 246              	.L26:
 223:.\Generated_Source\PSoC5/CyFlash.c ****         }
 247              		.loc 1 223 0
 248 001c 0120     		movs	r0, #1
 249 001e 10BD     		pop	{r4, pc}
 250              	.LVL20:
 251              	.L27:
 228:.\Generated_Source\PSoC5/CyFlash.c ****         }
 252              		.loc 1 228 0
 253 0020 0420     		movs	r0, #4
 254              	.LVL21:
 234:.\Generated_Source\PSoC5/CyFlash.c ****         }
 235:.\Generated_Source\PSoC5/CyFlash.c **** 
 236:.\Generated_Source\PSoC5/CyFlash.c ****     #else
 237:.\Generated_Source\PSoC5/CyFlash.c **** 
 238:.\Generated_Source\PSoC5/CyFlash.c ****         /* To suppress warning */
 239:.\Generated_Source\PSoC5/CyFlash.c ****         buffer = buffer;
 240:.\Generated_Source\PSoC5/CyFlash.c **** 
 241:.\Generated_Source\PSoC5/CyFlash.c ****     #endif  /* (CYDEV_ECC_ENABLE == 0u) */
 242:.\Generated_Source\PSoC5/CyFlash.c **** 
 243:.\Generated_Source\PSoC5/CyFlash.c ****     return(status);
 244:.\Generated_Source\PSoC5/CyFlash.c **** }
 255              		.loc 1 244 0
 256 0022 10BD     		pop	{r4, pc}
ARM GAS  C:\Users\Ian\AppData\Local\Temp\cc8kZCjf.s 			page 10


 257              	.LVL22:
 258              	.L30:
 259              		.align	2
 260              	.L29:
 261 0024 00000000 		.word	.LANCHOR0
 262              		.cfi_endproc
 263              	.LFE4:
 264              		.size	CySetFlashEEBuffer, .-CySetFlashEEBuffer
 265              		.section	.text.CyWriteRowFull,"ax",%progbits
 266              		.align	2
 267              		.global	CyWriteRowFull
 268              		.thumb
 269              		.thumb_func
 270              		.type	CyWriteRowFull, %function
 271              	CyWriteRowFull:
 272              	.LFB6:
 245:.\Generated_Source\PSoC5/CyFlash.c **** 
 246:.\Generated_Source\PSoC5/CyFlash.c **** 
 247:.\Generated_Source\PSoC5/CyFlash.c **** #if(CYDEV_ECC_ENABLE == 1)
 248:.\Generated_Source\PSoC5/CyFlash.c **** 
 249:.\Generated_Source\PSoC5/CyFlash.c ****     /*******************************************************************************
 250:.\Generated_Source\PSoC5/CyFlash.c ****     * Function Name: CyWriteRowData
 251:.\Generated_Source\PSoC5/CyFlash.c ****     ********************************************************************************
 252:.\Generated_Source\PSoC5/CyFlash.c ****     *
 253:.\Generated_Source\PSoC5/CyFlash.c ****     * Summary:
 254:.\Generated_Source\PSoC5/CyFlash.c ****     *  Sends a command to the SPC to load and program a row of data in
 255:.\Generated_Source\PSoC5/CyFlash.c ****     *  Flash or EEPROM.
 256:.\Generated_Source\PSoC5/CyFlash.c ****     *
 257:.\Generated_Source\PSoC5/CyFlash.c ****     * Parameters:
 258:.\Generated_Source\PSoC5/CyFlash.c ****     *  arrayID:    ID of the array to write.
 259:.\Generated_Source\PSoC5/CyFlash.c ****     *   The type of write, Flash or EEPROM, is determined from the array ID.
 260:.\Generated_Source\PSoC5/CyFlash.c ****     *   The arrays in the part are sequential starting at the first ID for the
 261:.\Generated_Source\PSoC5/CyFlash.c ****     *   specific memory type. The array ID for the Flash memory lasts from 0x00 to
 262:.\Generated_Source\PSoC5/CyFlash.c ****     *   0x3F and for the EEPROM memory it lasts from 0x40 to 0x7F.
 263:.\Generated_Source\PSoC5/CyFlash.c ****     *  rowAddress: rowAddress of flash row to program.
 264:.\Generated_Source\PSoC5/CyFlash.c ****     *  rowData:    Array of bytes to write.
 265:.\Generated_Source\PSoC5/CyFlash.c ****     *
 266:.\Generated_Source\PSoC5/CyFlash.c ****     * Return:
 267:.\Generated_Source\PSoC5/CyFlash.c ****     *  status:
 268:.\Generated_Source\PSoC5/CyFlash.c ****     *   CYRET_SUCCESS if successful.
 269:.\Generated_Source\PSoC5/CyFlash.c ****     *   CYRET_LOCKED if the SPC is already in use.
 270:.\Generated_Source\PSoC5/CyFlash.c ****     *   CYRET_CANCELED if command not accepted
 271:.\Generated_Source\PSoC5/CyFlash.c ****     *   CYRET_UNKNOWN if there was an SPC error.
 272:.\Generated_Source\PSoC5/CyFlash.c ****     *
 273:.\Generated_Source\PSoC5/CyFlash.c ****     *******************************************************************************/
 274:.\Generated_Source\PSoC5/CyFlash.c ****     cystatus CyWriteRowData(uint8 arrayId, uint16 rowAddress, const uint8 * rowData) 
 275:.\Generated_Source\PSoC5/CyFlash.c ****     {
 276:.\Generated_Source\PSoC5/CyFlash.c ****         uint16 rowSize;
 277:.\Generated_Source\PSoC5/CyFlash.c ****         cystatus status;
 278:.\Generated_Source\PSoC5/CyFlash.c **** 
 279:.\Generated_Source\PSoC5/CyFlash.c ****         rowSize = (arrayId > CY_SPC_LAST_FLASH_ARRAYID) ? CYDEV_EEPROM_ROW_SIZE : CYDEV_FLS_ROW_SIZ
 280:.\Generated_Source\PSoC5/CyFlash.c ****         status = CyWriteRowFull(arrayId, rowAddress, rowData, rowSize);
 281:.\Generated_Source\PSoC5/CyFlash.c **** 
 282:.\Generated_Source\PSoC5/CyFlash.c ****         return(status);
 283:.\Generated_Source\PSoC5/CyFlash.c ****     }
 284:.\Generated_Source\PSoC5/CyFlash.c **** 
 285:.\Generated_Source\PSoC5/CyFlash.c **** #else
ARM GAS  C:\Users\Ian\AppData\Local\Temp\cc8kZCjf.s 			page 11


 286:.\Generated_Source\PSoC5/CyFlash.c **** 
 287:.\Generated_Source\PSoC5/CyFlash.c ****     /*******************************************************************************
 288:.\Generated_Source\PSoC5/CyFlash.c ****     * Function Name: CyWriteRowData
 289:.\Generated_Source\PSoC5/CyFlash.c ****     ********************************************************************************
 290:.\Generated_Source\PSoC5/CyFlash.c ****     *
 291:.\Generated_Source\PSoC5/CyFlash.c ****     * Summary:
 292:.\Generated_Source\PSoC5/CyFlash.c ****     *   Sends a command to the SPC to load and program a row of data in
 293:.\Generated_Source\PSoC5/CyFlash.c ****     *   Flash or EEPROM.
 294:.\Generated_Source\PSoC5/CyFlash.c ****     *
 295:.\Generated_Source\PSoC5/CyFlash.c ****     * Parameters:
 296:.\Generated_Source\PSoC5/CyFlash.c ****     *  arrayID      : ID of the array to write.
 297:.\Generated_Source\PSoC5/CyFlash.c ****     *   The type of write, Flash or EEPROM, is determined from the array ID.
 298:.\Generated_Source\PSoC5/CyFlash.c ****     *   The arrays in the part are sequential starting at the first ID for the
 299:.\Generated_Source\PSoC5/CyFlash.c ****     *   specific memory type. The array ID for the Flash memory lasts from 0x00 to
 300:.\Generated_Source\PSoC5/CyFlash.c ****     *   0x3F and for the EEPROM memory it lasts from 0x40 to 0x7F.
 301:.\Generated_Source\PSoC5/CyFlash.c ****     *  rowAddress   : rowAddress of flash row to program.
 302:.\Generated_Source\PSoC5/CyFlash.c ****     *  rowData      : Array of bytes to write.
 303:.\Generated_Source\PSoC5/CyFlash.c ****     *
 304:.\Generated_Source\PSoC5/CyFlash.c ****     * Return:
 305:.\Generated_Source\PSoC5/CyFlash.c ****     *  status:
 306:.\Generated_Source\PSoC5/CyFlash.c ****     *   CYRET_SUCCESS if successful.
 307:.\Generated_Source\PSoC5/CyFlash.c ****     *   CYRET_LOCKED if the SPC is already in use.
 308:.\Generated_Source\PSoC5/CyFlash.c ****     *   CYRET_CANCELED if command not accepted
 309:.\Generated_Source\PSoC5/CyFlash.c ****     *   CYRET_UNKNOWN if there was an SPC error.
 310:.\Generated_Source\PSoC5/CyFlash.c ****     *
 311:.\Generated_Source\PSoC5/CyFlash.c ****     *******************************************************************************/
 312:.\Generated_Source\PSoC5/CyFlash.c ****     cystatus CyWriteRowData(uint8 arrayId, uint16 rowAddress, const uint8 * rowData) 
 313:.\Generated_Source\PSoC5/CyFlash.c ****     {
 314:.\Generated_Source\PSoC5/CyFlash.c ****         uint8 i;
 315:.\Generated_Source\PSoC5/CyFlash.c ****         uint32 offset;
 316:.\Generated_Source\PSoC5/CyFlash.c ****         uint16 rowSize;
 317:.\Generated_Source\PSoC5/CyFlash.c ****         cystatus status;
 318:.\Generated_Source\PSoC5/CyFlash.c **** 
 319:.\Generated_Source\PSoC5/CyFlash.c ****         /* Check whether rowBuffer pointer has been initialized by CySetFlashEEBuffer() */
 320:.\Generated_Source\PSoC5/CyFlash.c ****         if(NULL != rowBuffer)
 321:.\Generated_Source\PSoC5/CyFlash.c ****         {
 322:.\Generated_Source\PSoC5/CyFlash.c ****             if(arrayId > CY_SPC_LAST_FLASH_ARRAYID)
 323:.\Generated_Source\PSoC5/CyFlash.c ****             {
 324:.\Generated_Source\PSoC5/CyFlash.c ****                 rowSize = CYDEV_EEPROM_ROW_SIZE;
 325:.\Generated_Source\PSoC5/CyFlash.c ****             }
 326:.\Generated_Source\PSoC5/CyFlash.c ****             else
 327:.\Generated_Source\PSoC5/CyFlash.c ****             {
 328:.\Generated_Source\PSoC5/CyFlash.c ****                 rowSize = CYDEV_FLS_ROW_SIZE + CYDEV_ECC_ROW_SIZE;
 329:.\Generated_Source\PSoC5/CyFlash.c **** 
 330:.\Generated_Source\PSoC5/CyFlash.c ****                 /* Save ECC area. */
 331:.\Generated_Source\PSoC5/CyFlash.c ****                 offset = CYDEV_ECC_BASE +
 332:.\Generated_Source\PSoC5/CyFlash.c ****                         ((uint32)arrayId * CYDEV_ECC_SECTOR_SIZE) +
 333:.\Generated_Source\PSoC5/CyFlash.c ****                         ((uint32)rowAddress * CYDEV_ECC_ROW_SIZE);
 334:.\Generated_Source\PSoC5/CyFlash.c **** 
 335:.\Generated_Source\PSoC5/CyFlash.c ****                 for(i = 0u; i < CYDEV_ECC_ROW_SIZE; i++)
 336:.\Generated_Source\PSoC5/CyFlash.c ****                 {
 337:.\Generated_Source\PSoC5/CyFlash.c ****                     *(rowBuffer + CYDEV_FLS_ROW_SIZE + i) = CY_GET_XTND_REG8((void CYFAR *)(offset 
 338:.\Generated_Source\PSoC5/CyFlash.c ****                 }
 339:.\Generated_Source\PSoC5/CyFlash.c ****             }
 340:.\Generated_Source\PSoC5/CyFlash.c **** 
 341:.\Generated_Source\PSoC5/CyFlash.c ****             /* Copy rowdata to temporary buffer. */
 342:.\Generated_Source\PSoC5/CyFlash.c ****         #if(CY_PSOC3)
ARM GAS  C:\Users\Ian\AppData\Local\Temp\cc8kZCjf.s 			page 12


 343:.\Generated_Source\PSoC5/CyFlash.c ****             (void) memcpy((void *) rowBuffer, (void *)((uint32) rowData), (int16) CYDEV_FLS_ROW_SIZ
 344:.\Generated_Source\PSoC5/CyFlash.c ****         #else
 345:.\Generated_Source\PSoC5/CyFlash.c ****             (void) memcpy((void *) rowBuffer, (const void *) rowData, CYDEV_FLS_ROW_SIZE);
 346:.\Generated_Source\PSoC5/CyFlash.c ****         #endif  /* (CY_PSOC3) */
 347:.\Generated_Source\PSoC5/CyFlash.c **** 
 348:.\Generated_Source\PSoC5/CyFlash.c ****             status = CyWriteRowFull(arrayId, rowAddress, rowBuffer, rowSize);
 349:.\Generated_Source\PSoC5/CyFlash.c ****         }
 350:.\Generated_Source\PSoC5/CyFlash.c ****         else
 351:.\Generated_Source\PSoC5/CyFlash.c ****         {
 352:.\Generated_Source\PSoC5/CyFlash.c ****             status = CYRET_UNKNOWN;
 353:.\Generated_Source\PSoC5/CyFlash.c ****         }
 354:.\Generated_Source\PSoC5/CyFlash.c **** 
 355:.\Generated_Source\PSoC5/CyFlash.c ****         return(status);
 356:.\Generated_Source\PSoC5/CyFlash.c ****     }
 357:.\Generated_Source\PSoC5/CyFlash.c **** 
 358:.\Generated_Source\PSoC5/CyFlash.c **** #endif /* (CYDEV_ECC_ENABLE == 0u) */
 359:.\Generated_Source\PSoC5/CyFlash.c **** 
 360:.\Generated_Source\PSoC5/CyFlash.c **** 
 361:.\Generated_Source\PSoC5/CyFlash.c **** #if ((CYDEV_ECC_ENABLE == 0u) && (CYDEV_CONFIGURATION_ECC == 0u))
 362:.\Generated_Source\PSoC5/CyFlash.c **** 
 363:.\Generated_Source\PSoC5/CyFlash.c ****     /*******************************************************************************
 364:.\Generated_Source\PSoC5/CyFlash.c ****     * Function Name: CyWriteRowConfig
 365:.\Generated_Source\PSoC5/CyFlash.c ****     ********************************************************************************
 366:.\Generated_Source\PSoC5/CyFlash.c ****     *
 367:.\Generated_Source\PSoC5/CyFlash.c ****     * Summary:
 368:.\Generated_Source\PSoC5/CyFlash.c ****     *  Sends a command to the SPC to load and program a row of config data in the Flash.
 369:.\Generated_Source\PSoC5/CyFlash.c ****     *  This function is only valid for Flash array IDs (not for EEPROM).
 370:.\Generated_Source\PSoC5/CyFlash.c ****     *
 371:.\Generated_Source\PSoC5/CyFlash.c ****     * Parameters:
 372:.\Generated_Source\PSoC5/CyFlash.c ****     *  arrayId:      ID of the array to write
 373:.\Generated_Source\PSoC5/CyFlash.c ****     *   The arrays in the part are sequential starting at the first ID for the
 374:.\Generated_Source\PSoC5/CyFlash.c ****     *   specific memory type. The array ID for the Flash memory lasts
 375:.\Generated_Source\PSoC5/CyFlash.c ****     *   from 0x00 to 0x3F.
 376:.\Generated_Source\PSoC5/CyFlash.c ****     *  rowAddress:   The address of the sector to erase.
 377:.\Generated_Source\PSoC5/CyFlash.c ****     *  rowECC:       The array of bytes to write.
 378:.\Generated_Source\PSoC5/CyFlash.c ****     *
 379:.\Generated_Source\PSoC5/CyFlash.c ****     * Return:
 380:.\Generated_Source\PSoC5/CyFlash.c ****     *  status:
 381:.\Generated_Source\PSoC5/CyFlash.c ****     *   CYRET_SUCCESS if successful.
 382:.\Generated_Source\PSoC5/CyFlash.c ****     *   CYRET_LOCKED if the SPC is already in use.
 383:.\Generated_Source\PSoC5/CyFlash.c ****     *   CYRET_CANCELED if command not accepted
 384:.\Generated_Source\PSoC5/CyFlash.c ****     *   CYRET_UNKNOWN if there was an SPC error.
 385:.\Generated_Source\PSoC5/CyFlash.c ****     *
 386:.\Generated_Source\PSoC5/CyFlash.c ****     *******************************************************************************/
 387:.\Generated_Source\PSoC5/CyFlash.c ****     cystatus CyWriteRowConfig(uint8 arrayId, uint16 rowAddress, const uint8 * rowECC)\
 388:.\Generated_Source\PSoC5/CyFlash.c ****     
 389:.\Generated_Source\PSoC5/CyFlash.c ****     {
 390:.\Generated_Source\PSoC5/CyFlash.c ****         uint32 offset;
 391:.\Generated_Source\PSoC5/CyFlash.c ****         uint16 i;
 392:.\Generated_Source\PSoC5/CyFlash.c ****         cystatus status;
 393:.\Generated_Source\PSoC5/CyFlash.c **** 
 394:.\Generated_Source\PSoC5/CyFlash.c ****         /* Check whether rowBuffer pointer has been initialized by CySetFlashEEBuffer() */
 395:.\Generated_Source\PSoC5/CyFlash.c ****         if(NULL != rowBuffer)
 396:.\Generated_Source\PSoC5/CyFlash.c ****         {
 397:.\Generated_Source\PSoC5/CyFlash.c ****             /* Read existing flash data. */
 398:.\Generated_Source\PSoC5/CyFlash.c ****             offset = ((uint32)arrayId * CYDEV_FLS_SECTOR_SIZE) +
 399:.\Generated_Source\PSoC5/CyFlash.c ****                      ((uint32)rowAddress * CYDEV_FLS_ROW_SIZE);
ARM GAS  C:\Users\Ian\AppData\Local\Temp\cc8kZCjf.s 			page 13


 400:.\Generated_Source\PSoC5/CyFlash.c **** 
 401:.\Generated_Source\PSoC5/CyFlash.c ****             #if (CYDEV_FLS_BASE != 0u)
 402:.\Generated_Source\PSoC5/CyFlash.c ****                 offset += CYDEV_FLS_BASE;
 403:.\Generated_Source\PSoC5/CyFlash.c ****             #endif  /* (CYDEV_FLS_BASE != 0u) */
 404:.\Generated_Source\PSoC5/CyFlash.c **** 
 405:.\Generated_Source\PSoC5/CyFlash.c ****             for (i = 0u; i < CYDEV_FLS_ROW_SIZE; i++)
 406:.\Generated_Source\PSoC5/CyFlash.c ****             {
 407:.\Generated_Source\PSoC5/CyFlash.c ****                 rowBuffer[i] = CY_GET_XTND_REG8((void CYFAR *)(offset + i));
 408:.\Generated_Source\PSoC5/CyFlash.c ****             }
 409:.\Generated_Source\PSoC5/CyFlash.c **** 
 410:.\Generated_Source\PSoC5/CyFlash.c ****             #if(CY_PSOC3)
 411:.\Generated_Source\PSoC5/CyFlash.c ****                 (void) memcpy((void *)&rowBuffer[CYDEV_FLS_ROW_SIZE],
 412:.\Generated_Source\PSoC5/CyFlash.c ****                               (void *)(uint32)rowECC,
 413:.\Generated_Source\PSoC5/CyFlash.c ****                               (int16)CYDEV_ECC_ROW_SIZE);
 414:.\Generated_Source\PSoC5/CyFlash.c ****             #else
 415:.\Generated_Source\PSoC5/CyFlash.c ****                 (void) memcpy((void *)&rowBuffer[CYDEV_FLS_ROW_SIZE],
 416:.\Generated_Source\PSoC5/CyFlash.c ****                               (const void *)rowECC,
 417:.\Generated_Source\PSoC5/CyFlash.c ****                               CYDEV_ECC_ROW_SIZE);
 418:.\Generated_Source\PSoC5/CyFlash.c ****             #endif  /* (CY_PSOC3) */
 419:.\Generated_Source\PSoC5/CyFlash.c **** 
 420:.\Generated_Source\PSoC5/CyFlash.c ****             status = CyWriteRowFull(arrayId, rowAddress, rowBuffer, CYDEV_FLS_ROW_SIZE + CYDEV_ECC_
 421:.\Generated_Source\PSoC5/CyFlash.c ****         }
 422:.\Generated_Source\PSoC5/CyFlash.c ****         else
 423:.\Generated_Source\PSoC5/CyFlash.c ****         {
 424:.\Generated_Source\PSoC5/CyFlash.c ****             status = CYRET_UNKNOWN;
 425:.\Generated_Source\PSoC5/CyFlash.c ****         }
 426:.\Generated_Source\PSoC5/CyFlash.c **** 
 427:.\Generated_Source\PSoC5/CyFlash.c ****         return (status);
 428:.\Generated_Source\PSoC5/CyFlash.c ****     }
 429:.\Generated_Source\PSoC5/CyFlash.c **** 
 430:.\Generated_Source\PSoC5/CyFlash.c **** #endif  /* ((CYDEV_ECC_ENABLE == 0u) && (CYDEV_CONFIGURATION_ECC == 0u)) */
 431:.\Generated_Source\PSoC5/CyFlash.c **** 
 432:.\Generated_Source\PSoC5/CyFlash.c **** 
 433:.\Generated_Source\PSoC5/CyFlash.c **** 
 434:.\Generated_Source\PSoC5/CyFlash.c **** /*******************************************************************************
 435:.\Generated_Source\PSoC5/CyFlash.c **** * Function Name: CyWriteRowFull
 436:.\Generated_Source\PSoC5/CyFlash.c **** ********************************************************************************
 437:.\Generated_Source\PSoC5/CyFlash.c **** * Summary:
 438:.\Generated_Source\PSoC5/CyFlash.c **** *  Sends a command to the SPC to load and program a row of data in the Flash.
 439:.\Generated_Source\PSoC5/CyFlash.c **** *  rowData array is expected to contain Flash and ECC data if needed.
 440:.\Generated_Source\PSoC5/CyFlash.c **** *
 441:.\Generated_Source\PSoC5/CyFlash.c **** * Parameters:
 442:.\Generated_Source\PSoC5/CyFlash.c **** *  arrayId:    FLASH or EEPROM array id.
 443:.\Generated_Source\PSoC5/CyFlash.c **** *  rowData:    Pointer to a row of data to write.
 444:.\Generated_Source\PSoC5/CyFlash.c **** *  rowNumber:  Zero based number of the row.
 445:.\Generated_Source\PSoC5/CyFlash.c **** *  rowSize:    Size of the row.
 446:.\Generated_Source\PSoC5/CyFlash.c **** *
 447:.\Generated_Source\PSoC5/CyFlash.c **** * Return:
 448:.\Generated_Source\PSoC5/CyFlash.c **** *  CYRET_SUCCESS if successful.
 449:.\Generated_Source\PSoC5/CyFlash.c **** *  CYRET_LOCKED if the SPC is already in use.
 450:.\Generated_Source\PSoC5/CyFlash.c **** *  CYRET_CANCELED if command not accepted
 451:.\Generated_Source\PSoC5/CyFlash.c **** *  CYRET_UNKNOWN if there was an SPC error.
 452:.\Generated_Source\PSoC5/CyFlash.c **** *
 453:.\Generated_Source\PSoC5/CyFlash.c **** *******************************************************************************/
 454:.\Generated_Source\PSoC5/CyFlash.c **** cystatus CyWriteRowFull(uint8 arrayId, uint16 rowNumber, const uint8* rowData, uint16 rowSize) \
 455:.\Generated_Source\PSoC5/CyFlash.c ****         
 456:.\Generated_Source\PSoC5/CyFlash.c **** {
ARM GAS  C:\Users\Ian\AppData\Local\Temp\cc8kZCjf.s 			page 14


 273              		.loc 1 456 0
 274              		.cfi_startproc
 275              		@ args = 0, pretend = 0, frame = 0
 276              		@ frame_needed = 0, uses_anonymous_args = 0
 277              	.LVL23:
 278 0000 F8B5     		push	{r3, r4, r5, r6, r7, lr}
 279              		.cfi_def_cfa_offset 24
 280              		.cfi_offset 3, -24
 281              		.cfi_offset 4, -20
 282              		.cfi_offset 5, -16
 283              		.cfi_offset 6, -12
 284              		.cfi_offset 7, -8
 285              		.cfi_offset 14, -4
 286 0002 0546     		mov	r5, r0
 287 0004 0F46     		mov	r7, r1
 288 0006 1646     		mov	r6, r2
 289 0008 1C46     		mov	r4, r3
 457:.\Generated_Source\PSoC5/CyFlash.c ****     cystatus status;
 458:.\Generated_Source\PSoC5/CyFlash.c **** 
 459:.\Generated_Source\PSoC5/CyFlash.c ****     if(CySpcLock() == CYRET_SUCCESS)
 290              		.loc 1 459 0
 291 000a FFF7FEFF 		bl	CySpcLock
 292              	.LVL24:
 293 000e 0028     		cmp	r0, #0
 294 0010 45D1     		bne	.L39
 460:.\Generated_Source\PSoC5/CyFlash.c ****     {
 461:.\Generated_Source\PSoC5/CyFlash.c ****         /* Load row data into SPC internal latch */
 462:.\Generated_Source\PSoC5/CyFlash.c ****         status = CySpcLoadRow(arrayId, rowData, rowSize);
 295              		.loc 1 462 0
 296 0012 2846     		mov	r0, r5
 297 0014 3146     		mov	r1, r6
 298 0016 2246     		mov	r2, r4
 299 0018 FFF7FEFF 		bl	CySpcLoadRow
 300              	.LVL25:
 301 001c 0446     		mov	r4, r0
 302              	.LVL26:
 463:.\Generated_Source\PSoC5/CyFlash.c **** 
 464:.\Generated_Source\PSoC5/CyFlash.c ****         if(CYRET_STARTED == status)
 303              		.loc 1 464 0
 304 001e 0728     		cmp	r0, #7
 305 0020 3AD1     		bne	.L34
 306 0022 02E0     		b	.L33
 307              	.LVL27:
 308              	.L35:
 465:.\Generated_Source\PSoC5/CyFlash.c ****         {
 466:.\Generated_Source\PSoC5/CyFlash.c ****             while(CY_SPC_BUSY)
 467:.\Generated_Source\PSoC5/CyFlash.c ****             {
 468:.\Generated_Source\PSoC5/CyFlash.c ****                 /* Wait for SPC to finish and get SPC status */
 469:.\Generated_Source\PSoC5/CyFlash.c ****                 CyDelayUs(1u);
 309              		.loc 1 469 0
 310 0024 0120     		movs	r0, #1
 311 0026 FFF7FEFF 		bl	CyDelayUs
 312              	.LVL28:
 313              	.L33:
 466:.\Generated_Source\PSoC5/CyFlash.c ****             {
 314              		.loc 1 466 0
 315 002a 1E4B     		ldr	r3, .L44
ARM GAS  C:\Users\Ian\AppData\Local\Temp\cc8kZCjf.s 			page 15


 316 002c 1B78     		ldrb	r3, [r3]	@ zero_extendqisi2
 317 002e 13F0020F 		tst	r3, #2
 318 0032 F7D0     		beq	.L35
 470:.\Generated_Source\PSoC5/CyFlash.c ****             }
 471:.\Generated_Source\PSoC5/CyFlash.c **** 
 472:.\Generated_Source\PSoC5/CyFlash.c ****             /* Hide SPC status */
 473:.\Generated_Source\PSoC5/CyFlash.c ****             if(CY_SPC_STATUS_SUCCESS == CY_SPC_READ_STATUS)
 319              		.loc 1 473 0
 320 0034 1B4B     		ldr	r3, .L44
 321 0036 1B78     		ldrb	r3, [r3]	@ zero_extendqisi2
 322 0038 13F0020F 		tst	r3, #2
 323 003c 06D0     		beq	.L40
 324              		.loc 1 473 0 is_stmt 0 discriminator 1
 325 003e 194B     		ldr	r3, .L44
 326 0040 1B78     		ldrb	r3, [r3]	@ zero_extendqisi2
 327 0042 9B08     		lsrs	r3, r3, #2
 328 0044 05D0     		beq	.L41
 474:.\Generated_Source\PSoC5/CyFlash.c ****             {
 475:.\Generated_Source\PSoC5/CyFlash.c ****                 status = CYRET_SUCCESS;
 476:.\Generated_Source\PSoC5/CyFlash.c ****             }
 477:.\Generated_Source\PSoC5/CyFlash.c ****             else
 478:.\Generated_Source\PSoC5/CyFlash.c ****             {
 479:.\Generated_Source\PSoC5/CyFlash.c ****                 status = CYRET_UNKNOWN;
 329              		.loc 1 479 0 is_stmt 1
 330 0046 4FF0FF34 		mov	r4, #-1
 331              	.LVL29:
 332 004a 03E0     		b	.L36
 333              	.LVL30:
 334              	.L40:
 335 004c 4FF0FF34 		mov	r4, #-1
 336              	.LVL31:
 337 0050 00E0     		b	.L36
 338              	.LVL32:
 339              	.L41:
 475:.\Generated_Source\PSoC5/CyFlash.c ****             }
 340              		.loc 1 475 0
 341 0052 0024     		movs	r4, #0
 342              	.LVL33:
 343              	.L36:
 480:.\Generated_Source\PSoC5/CyFlash.c ****             }
 481:.\Generated_Source\PSoC5/CyFlash.c **** 
 482:.\Generated_Source\PSoC5/CyFlash.c ****             if(CYRET_SUCCESS == status)
 344              		.loc 1 482 0
 345 0054 04BB     		cbnz	r4, .L34
 483:.\Generated_Source\PSoC5/CyFlash.c ****             {
 484:.\Generated_Source\PSoC5/CyFlash.c ****                 /* Erase and program flash with data from SPC interval latch */
 485:.\Generated_Source\PSoC5/CyFlash.c ****                 status = CySpcWriteRow(arrayId, rowNumber, dieTemperature[0u], dieTemperature[1u]);
 346              		.loc 1 485 0
 347 0056 144B     		ldr	r3, .L44+4
 348 0058 2846     		mov	r0, r5
 349 005a 3946     		mov	r1, r7
 350 005c 1A78     		ldrb	r2, [r3]	@ zero_extendqisi2
 351 005e 5B78     		ldrb	r3, [r3, #1]	@ zero_extendqisi2
 352 0060 FFF7FEFF 		bl	CySpcWriteRow
 353              	.LVL34:
 486:.\Generated_Source\PSoC5/CyFlash.c **** 
 487:.\Generated_Source\PSoC5/CyFlash.c ****                 if(CYRET_STARTED == status)
ARM GAS  C:\Users\Ian\AppData\Local\Temp\cc8kZCjf.s 			page 16


 354              		.loc 1 487 0
 355 0064 0728     		cmp	r0, #7
 356 0066 04D0     		beq	.L37
 485:.\Generated_Source\PSoC5/CyFlash.c **** 
 357              		.loc 1 485 0
 358 0068 0446     		mov	r4, r0
 359 006a 15E0     		b	.L34
 360              	.LVL35:
 361              	.L38:
 488:.\Generated_Source\PSoC5/CyFlash.c ****                 {
 489:.\Generated_Source\PSoC5/CyFlash.c ****                     while(CY_SPC_BUSY)
 490:.\Generated_Source\PSoC5/CyFlash.c ****                     {
 491:.\Generated_Source\PSoC5/CyFlash.c ****                         /* Wait for SPC to finish and get SPC status */
 492:.\Generated_Source\PSoC5/CyFlash.c ****                         CyDelayUs(1u);
 362              		.loc 1 492 0
 363 006c 0120     		movs	r0, #1
 364 006e FFF7FEFF 		bl	CyDelayUs
 365              	.LVL36:
 366              	.L37:
 489:.\Generated_Source\PSoC5/CyFlash.c ****                     {
 367              		.loc 1 489 0
 368 0072 0C4B     		ldr	r3, .L44
 369 0074 1B78     		ldrb	r3, [r3]	@ zero_extendqisi2
 370 0076 13F0020F 		tst	r3, #2
 371 007a F7D0     		beq	.L38
 493:.\Generated_Source\PSoC5/CyFlash.c ****                     }
 494:.\Generated_Source\PSoC5/CyFlash.c **** 
 495:.\Generated_Source\PSoC5/CyFlash.c ****                     /* Hide SPC status */
 496:.\Generated_Source\PSoC5/CyFlash.c ****                     if(CY_SPC_STATUS_SUCCESS == CY_SPC_READ_STATUS)
 372              		.loc 1 496 0
 373 007c 094B     		ldr	r3, .L44
 374 007e 1B78     		ldrb	r3, [r3]	@ zero_extendqisi2
 375 0080 13F0020F 		tst	r3, #2
 376 0084 06D0     		beq	.L42
 377              		.loc 1 496 0 is_stmt 0 discriminator 1
 378 0086 074B     		ldr	r3, .L44
 379 0088 1B78     		ldrb	r3, [r3]	@ zero_extendqisi2
 380 008a 9B08     		lsrs	r3, r3, #2
 381 008c 04D0     		beq	.L34
 497:.\Generated_Source\PSoC5/CyFlash.c ****                     {
 498:.\Generated_Source\PSoC5/CyFlash.c ****                         status = CYRET_SUCCESS;
 499:.\Generated_Source\PSoC5/CyFlash.c ****                     }
 500:.\Generated_Source\PSoC5/CyFlash.c ****                     else
 501:.\Generated_Source\PSoC5/CyFlash.c ****                     {
 502:.\Generated_Source\PSoC5/CyFlash.c ****                         status = CYRET_UNKNOWN;
 382              		.loc 1 502 0 is_stmt 1
 383 008e 4FF0FF34 		mov	r4, #-1
 384 0092 01E0     		b	.L34
 385              	.L42:
 386 0094 4FF0FF34 		mov	r4, #-1
 387              	.L34:
 388              	.LVL37:
 503:.\Generated_Source\PSoC5/CyFlash.c ****                     }
 504:.\Generated_Source\PSoC5/CyFlash.c ****                 }
 505:.\Generated_Source\PSoC5/CyFlash.c ****             }
 506:.\Generated_Source\PSoC5/CyFlash.c **** 
 507:.\Generated_Source\PSoC5/CyFlash.c ****         }
ARM GAS  C:\Users\Ian\AppData\Local\Temp\cc8kZCjf.s 			page 17


 508:.\Generated_Source\PSoC5/CyFlash.c **** 
 509:.\Generated_Source\PSoC5/CyFlash.c ****         CySpcUnlock();
 389              		.loc 1 509 0
 390 0098 FFF7FEFF 		bl	CySpcUnlock
 391              	.LVL38:
 392 009c 00E0     		b	.L32
 393              	.LVL39:
 394              	.L39:
 510:.\Generated_Source\PSoC5/CyFlash.c ****     }
 511:.\Generated_Source\PSoC5/CyFlash.c ****     else
 512:.\Generated_Source\PSoC5/CyFlash.c ****     {
 513:.\Generated_Source\PSoC5/CyFlash.c ****         status = CYRET_LOCKED;
 395              		.loc 1 513 0
 396 009e 0424     		movs	r4, #4
 397              	.L32:
 398              	.LVL40:
 514:.\Generated_Source\PSoC5/CyFlash.c ****     }
 515:.\Generated_Source\PSoC5/CyFlash.c **** 
 516:.\Generated_Source\PSoC5/CyFlash.c ****     return(status);
 517:.\Generated_Source\PSoC5/CyFlash.c **** }
 399              		.loc 1 517 0
 400 00a0 2046     		mov	r0, r4
 401 00a2 F8BD     		pop	{r3, r4, r5, r6, r7, pc}
 402              	.LVL41:
 403              	.L45:
 404              		.align	2
 405              	.L44:
 406 00a4 22470040 		.word	1073760034
 407 00a8 00000000 		.word	dieTemperature
 408              		.cfi_endproc
 409              	.LFE6:
 410              		.size	CyWriteRowFull, .-CyWriteRowFull
 411              		.section	.text.CyWriteRowData,"ax",%progbits
 412              		.align	2
 413              		.global	CyWriteRowData
 414              		.thumb
 415              		.thumb_func
 416              		.type	CyWriteRowData, %function
 417              	CyWriteRowData:
 418              	.LFB5:
 313:.\Generated_Source\PSoC5/CyFlash.c ****         uint8 i;
 419              		.loc 1 313 0
 420              		.cfi_startproc
 421              		@ args = 0, pretend = 0, frame = 0
 422              		@ frame_needed = 0, uses_anonymous_args = 0
 423              	.LVL42:
 424 0000 F8B5     		push	{r3, r4, r5, r6, r7, lr}
 425              		.cfi_def_cfa_offset 24
 426              		.cfi_offset 3, -24
 427              		.cfi_offset 4, -20
 428              		.cfi_offset 5, -16
 429              		.cfi_offset 6, -12
 430              		.cfi_offset 7, -8
 431              		.cfi_offset 14, -4
 320:.\Generated_Source\PSoC5/CyFlash.c ****         {
 432              		.loc 1 320 0
 433 0002 154B     		ldr	r3, .L54
ARM GAS  C:\Users\Ian\AppData\Local\Temp\cc8kZCjf.s 			page 18


 434 0004 1E68     		ldr	r6, [r3]
 435 0006 1EB3     		cbz	r6, .L51
 322:.\Generated_Source\PSoC5/CyFlash.c ****             {
 436              		.loc 1 322 0
 437 0008 3F28     		cmp	r0, #63
 438 000a 11D8     		bhi	.L52
 439              	.LVL43:
 332:.\Generated_Source\PSoC5/CyFlash.c ****                         ((uint32)rowAddress * CYDEV_ECC_ROW_SIZE);
 440              		.loc 1 332 0
 441 000c 00F51037 		add	r7, r0, #147456
 442 0010 01EB0727 		add	r7, r1, r7, lsl #8
 331:.\Generated_Source\PSoC5/CyFlash.c ****                         ((uint32)arrayId * CYDEV_ECC_SECTOR_SIZE) +
 443              		.loc 1 331 0
 444 0014 7F01     		lsls	r7, r7, #5
 445              	.LVL44:
 335:.\Generated_Source\PSoC5/CyFlash.c ****                 {
 446              		.loc 1 335 0
 447 0016 0023     		movs	r3, #0
 448 0018 05E0     		b	.L49
 449              	.LVL45:
 450              	.L50:
 337:.\Generated_Source\PSoC5/CyFlash.c ****                 }
 451              		.loc 1 337 0 discriminator 3
 452 001a 03F58074 		add	r4, r3, #256
 453 001e FD5C     		ldrb	r5, [r7, r3]	@ zero_extendqisi2
 454 0020 3555     		strb	r5, [r6, r4]
 335:.\Generated_Source\PSoC5/CyFlash.c ****                 {
 455              		.loc 1 335 0 discriminator 3
 456 0022 0133     		adds	r3, r3, #1
 457              	.LVL46:
 458 0024 DBB2     		uxtb	r3, r3
 459              	.LVL47:
 460              	.L49:
 335:.\Generated_Source\PSoC5/CyFlash.c ****                 {
 461              		.loc 1 335 0 is_stmt 0 discriminator 1
 462 0026 1F2B     		cmp	r3, #31
 463 0028 F7D9     		bls	.L50
 328:.\Generated_Source\PSoC5/CyFlash.c **** 
 464              		.loc 1 328 0 is_stmt 1
 465 002a 4FF49077 		mov	r7, #288
 466              	.LVL48:
 467 002e 00E0     		b	.L48
 468              	.LVL49:
 469              	.L52:
 324:.\Generated_Source\PSoC5/CyFlash.c ****             }
 470              		.loc 1 324 0
 471 0030 1027     		movs	r7, #16
 472              	.L48:
 473 0032 0D46     		mov	r5, r1
 474 0034 0446     		mov	r4, r0
 475              	.LVL50:
 345:.\Generated_Source\PSoC5/CyFlash.c ****         #endif  /* (CY_PSOC3) */
 476              		.loc 1 345 0
 477 0036 3046     		mov	r0, r6
 478              	.LVL51:
 479 0038 1146     		mov	r1, r2
 480              	.LVL52:
ARM GAS  C:\Users\Ian\AppData\Local\Temp\cc8kZCjf.s 			page 19


 481 003a 4FF48072 		mov	r2, #256
 482              	.LVL53:
 483 003e FFF7FEFF 		bl	memcpy
 484              	.LVL54:
 348:.\Generated_Source\PSoC5/CyFlash.c ****         }
 485              		.loc 1 348 0
 486 0042 2046     		mov	r0, r4
 487 0044 2946     		mov	r1, r5
 488 0046 3246     		mov	r2, r6
 489 0048 3B46     		mov	r3, r7
 490 004a FFF7FEFF 		bl	CyWriteRowFull
 491              	.LVL55:
 492 004e F8BD     		pop	{r3, r4, r5, r6, r7, pc}
 493              	.LVL56:
 494              	.L51:
 352:.\Generated_Source\PSoC5/CyFlash.c ****         }
 495              		.loc 1 352 0
 496 0050 4FF0FF30 		mov	r0, #-1
 497              	.LVL57:
 356:.\Generated_Source\PSoC5/CyFlash.c **** 
 498              		.loc 1 356 0
 499 0054 F8BD     		pop	{r3, r4, r5, r6, r7, pc}
 500              	.L55:
 501 0056 00BF     		.align	2
 502              	.L54:
 503 0058 00000000 		.word	.LANCHOR0
 504              		.cfi_endproc
 505              	.LFE5:
 506              		.size	CyWriteRowData, .-CyWriteRowData
 507              		.section	.text.CyFlash_SetWaitCycles,"ax",%progbits
 508              		.align	2
 509              		.global	CyFlash_SetWaitCycles
 510              		.thumb
 511              		.thumb_func
 512              		.type	CyFlash_SetWaitCycles, %function
 513              	CyFlash_SetWaitCycles:
 514              	.LFB7:
 518:.\Generated_Source\PSoC5/CyFlash.c **** 
 519:.\Generated_Source\PSoC5/CyFlash.c **** 
 520:.\Generated_Source\PSoC5/CyFlash.c **** /*******************************************************************************
 521:.\Generated_Source\PSoC5/CyFlash.c **** * Function Name: CyFlash_SetWaitCycles
 522:.\Generated_Source\PSoC5/CyFlash.c **** ********************************************************************************
 523:.\Generated_Source\PSoC5/CyFlash.c **** *
 524:.\Generated_Source\PSoC5/CyFlash.c **** * Summary:
 525:.\Generated_Source\PSoC5/CyFlash.c **** *  Sets the number of clock cycles the cache will wait before it samples data
 526:.\Generated_Source\PSoC5/CyFlash.c **** *  coming back from the Flash. This function must be called before increasing the CPU
 527:.\Generated_Source\PSoC5/CyFlash.c **** *  clock frequency. It can optionally be called after lowering the CPU clock
 528:.\Generated_Source\PSoC5/CyFlash.c **** *  frequency in order to improve the CPU performance.
 529:.\Generated_Source\PSoC5/CyFlash.c **** *
 530:.\Generated_Source\PSoC5/CyFlash.c **** * Parameters:
 531:.\Generated_Source\PSoC5/CyFlash.c **** *  uint8 freq:
 532:.\Generated_Source\PSoC5/CyFlash.c **** *   Frequency of operation in Megahertz.
 533:.\Generated_Source\PSoC5/CyFlash.c **** *
 534:.\Generated_Source\PSoC5/CyFlash.c **** * Return:
 535:.\Generated_Source\PSoC5/CyFlash.c **** *  None
 536:.\Generated_Source\PSoC5/CyFlash.c **** *
 537:.\Generated_Source\PSoC5/CyFlash.c **** *******************************************************************************/
ARM GAS  C:\Users\Ian\AppData\Local\Temp\cc8kZCjf.s 			page 20


 538:.\Generated_Source\PSoC5/CyFlash.c **** void CyFlash_SetWaitCycles(uint8 freq) 
 539:.\Generated_Source\PSoC5/CyFlash.c **** {
 515              		.loc 1 539 0
 516              		.cfi_startproc
 517              		@ args = 0, pretend = 0, frame = 0
 518              		@ frame_needed = 0, uses_anonymous_args = 0
 519              	.LVL58:
 520 0000 10B5     		push	{r4, lr}
 521              		.cfi_def_cfa_offset 8
 522              		.cfi_offset 4, -8
 523              		.cfi_offset 14, -4
 524 0002 0446     		mov	r4, r0
 540:.\Generated_Source\PSoC5/CyFlash.c ****     uint8 interruptState;
 541:.\Generated_Source\PSoC5/CyFlash.c **** 
 542:.\Generated_Source\PSoC5/CyFlash.c ****     /* Save current global interrupt enable and disable it */
 543:.\Generated_Source\PSoC5/CyFlash.c ****     interruptState = CyEnterCriticalSection();
 525              		.loc 1 543 0
 526 0004 FFF7FEFF 		bl	CyEnterCriticalSection
 527              	.LVL59:
 544:.\Generated_Source\PSoC5/CyFlash.c **** 
 545:.\Generated_Source\PSoC5/CyFlash.c ****     /***************************************************************************
 546:.\Generated_Source\PSoC5/CyFlash.c ****     * The number of clock cycles the cache will wait before it samples data
 547:.\Generated_Source\PSoC5/CyFlash.c ****     * coming back from the Flash must be equal or greater to to the CPU frequency
 548:.\Generated_Source\PSoC5/CyFlash.c ****     * outlined in clock cycles.
 549:.\Generated_Source\PSoC5/CyFlash.c ****     ***************************************************************************/
 550:.\Generated_Source\PSoC5/CyFlash.c **** 
 551:.\Generated_Source\PSoC5/CyFlash.c ****     #if (CY_PSOC3)
 552:.\Generated_Source\PSoC5/CyFlash.c **** 
 553:.\Generated_Source\PSoC5/CyFlash.c ****         if (freq <= 22u)
 554:.\Generated_Source\PSoC5/CyFlash.c ****         {
 555:.\Generated_Source\PSoC5/CyFlash.c ****             *CY_FLASH_CONTROL_PTR = ((*CY_FLASH_CONTROL_PTR & ((uint8)(~CY_FLASH_CYCLES_MASK))) |
 556:.\Generated_Source\PSoC5/CyFlash.c ****                 ((uint8)(CY_FLASH_LESSER_OR_EQUAL_22MHz << CY_FLASH_CYCLES_MASK_SHIFT)));
 557:.\Generated_Source\PSoC5/CyFlash.c ****         }
 558:.\Generated_Source\PSoC5/CyFlash.c ****         else if (freq <= 44u)
 559:.\Generated_Source\PSoC5/CyFlash.c ****         {
 560:.\Generated_Source\PSoC5/CyFlash.c ****             *CY_FLASH_CONTROL_PTR = ((*CY_FLASH_CONTROL_PTR & ((uint8)(~CY_FLASH_CYCLES_MASK))) |
 561:.\Generated_Source\PSoC5/CyFlash.c ****                 ((uint8)(CY_FLASH_LESSER_OR_EQUAL_44MHz << CY_FLASH_CYCLES_MASK_SHIFT)));
 562:.\Generated_Source\PSoC5/CyFlash.c ****         }
 563:.\Generated_Source\PSoC5/CyFlash.c ****         else
 564:.\Generated_Source\PSoC5/CyFlash.c ****         {
 565:.\Generated_Source\PSoC5/CyFlash.c ****             *CY_FLASH_CONTROL_PTR = ((*CY_FLASH_CONTROL_PTR & ((uint8)(~CY_FLASH_CYCLES_MASK))) |
 566:.\Generated_Source\PSoC5/CyFlash.c ****                 ((uint8)(CY_FLASH_GREATER_44MHz << CY_FLASH_CYCLES_MASK_SHIFT)));
 567:.\Generated_Source\PSoC5/CyFlash.c ****         }
 568:.\Generated_Source\PSoC5/CyFlash.c **** 
 569:.\Generated_Source\PSoC5/CyFlash.c ****     #endif  /* (CY_PSOC3) */
 570:.\Generated_Source\PSoC5/CyFlash.c **** 
 571:.\Generated_Source\PSoC5/CyFlash.c **** 
 572:.\Generated_Source\PSoC5/CyFlash.c ****     #if (CY_PSOC5)
 573:.\Generated_Source\PSoC5/CyFlash.c **** 
 574:.\Generated_Source\PSoC5/CyFlash.c ****         if (freq <= 16u)
 528              		.loc 1 574 0
 529 0008 102C     		cmp	r4, #16
 530 000a 07D8     		bhi	.L57
 575:.\Generated_Source\PSoC5/CyFlash.c ****         {
 576:.\Generated_Source\PSoC5/CyFlash.c ****             *CY_FLASH_CONTROL_PTR = ((*CY_FLASH_CONTROL_PTR & ((uint8)(~CY_FLASH_CYCLES_MASK))) |
 531              		.loc 1 576 0
 532 000c 104A     		ldr	r2, .L62
ARM GAS  C:\Users\Ian\AppData\Local\Temp\cc8kZCjf.s 			page 21


 533 000e 1378     		ldrb	r3, [r2]	@ zero_extendqisi2
 534 0010 03F03F03 		and	r3, r3, #63
 535 0014 43F04003 		orr	r3, r3, #64
 536 0018 1370     		strb	r3, [r2]
 537 001a 16E0     		b	.L58
 538              	.L57:
 577:.\Generated_Source\PSoC5/CyFlash.c ****                 ((uint8)(CY_FLASH_LESSER_OR_EQUAL_16MHz << CY_FLASH_CYCLES_MASK_SHIFT)));
 578:.\Generated_Source\PSoC5/CyFlash.c ****         }
 579:.\Generated_Source\PSoC5/CyFlash.c ****         else if (freq <= 33u)
 539              		.loc 1 579 0
 540 001c 212C     		cmp	r4, #33
 541 001e 07D8     		bhi	.L59
 580:.\Generated_Source\PSoC5/CyFlash.c ****         {
 581:.\Generated_Source\PSoC5/CyFlash.c ****             *CY_FLASH_CONTROL_PTR = ((*CY_FLASH_CONTROL_PTR & ((uint8)(~CY_FLASH_CYCLES_MASK))) |
 542              		.loc 1 581 0
 543 0020 0B4A     		ldr	r2, .L62
 544 0022 1378     		ldrb	r3, [r2]	@ zero_extendqisi2
 545 0024 03F03F03 		and	r3, r3, #63
 546 0028 43F08003 		orr	r3, r3, #128
 547 002c 1370     		strb	r3, [r2]
 548 002e 0CE0     		b	.L58
 549              	.L59:
 582:.\Generated_Source\PSoC5/CyFlash.c ****                 ((uint8)(CY_FLASH_LESSER_OR_EQUAL_33MHz << CY_FLASH_CYCLES_MASK_SHIFT)));
 583:.\Generated_Source\PSoC5/CyFlash.c ****         }
 584:.\Generated_Source\PSoC5/CyFlash.c ****         else if (freq <= 50u)
 550              		.loc 1 584 0
 551 0030 322C     		cmp	r4, #50
 552 0032 05D8     		bhi	.L60
 585:.\Generated_Source\PSoC5/CyFlash.c ****         {
 586:.\Generated_Source\PSoC5/CyFlash.c ****             *CY_FLASH_CONTROL_PTR = ((*CY_FLASH_CONTROL_PTR & ((uint8)(~CY_FLASH_CYCLES_MASK))) |
 553              		.loc 1 586 0
 554 0034 064A     		ldr	r2, .L62
 555 0036 1378     		ldrb	r3, [r2]	@ zero_extendqisi2
 556 0038 43F0C003 		orr	r3, r3, #192
 557 003c 1370     		strb	r3, [r2]
 558 003e 04E0     		b	.L58
 559              	.L60:
 587:.\Generated_Source\PSoC5/CyFlash.c ****                 ((uint8)(CY_FLASH_LESSER_OR_EQUAL_50MHz << CY_FLASH_CYCLES_MASK_SHIFT)));
 588:.\Generated_Source\PSoC5/CyFlash.c ****         }
 589:.\Generated_Source\PSoC5/CyFlash.c ****         else
 590:.\Generated_Source\PSoC5/CyFlash.c ****         {
 591:.\Generated_Source\PSoC5/CyFlash.c ****             *CY_FLASH_CONTROL_PTR = ((*CY_FLASH_CONTROL_PTR & ((uint8)(~CY_FLASH_CYCLES_MASK))) |
 560              		.loc 1 591 0
 561 0040 034A     		ldr	r2, .L62
 562 0042 1378     		ldrb	r3, [r2]	@ zero_extendqisi2
 563 0044 03F03F03 		and	r3, r3, #63
 564 0048 1370     		strb	r3, [r2]
 565              	.L58:
 592:.\Generated_Source\PSoC5/CyFlash.c ****                 ((uint8)(CY_FLASH_GREATER_51MHz << CY_FLASH_CYCLES_MASK_SHIFT)));
 593:.\Generated_Source\PSoC5/CyFlash.c ****         }
 594:.\Generated_Source\PSoC5/CyFlash.c **** 
 595:.\Generated_Source\PSoC5/CyFlash.c ****     #endif  /* (CY_PSOC5) */
 596:.\Generated_Source\PSoC5/CyFlash.c **** 
 597:.\Generated_Source\PSoC5/CyFlash.c ****     /* Restore global interrupt enable state */
 598:.\Generated_Source\PSoC5/CyFlash.c ****     CyExitCriticalSection(interruptState);
 566              		.loc 1 598 0
 567 004a FFF7FEFF 		bl	CyExitCriticalSection
ARM GAS  C:\Users\Ian\AppData\Local\Temp\cc8kZCjf.s 			page 22


 568              	.LVL60:
 569 004e 10BD     		pop	{r4, pc}
 570              	.L63:
 571              		.align	2
 572              	.L62:
 573 0050 00480040 		.word	1073760256
 574              		.cfi_endproc
 575              	.LFE7:
 576              		.size	CyFlash_SetWaitCycles, .-CyFlash_SetWaitCycles
 577              		.section	.text.CyEEPROM_Start,"ax",%progbits
 578              		.align	2
 579              		.global	CyEEPROM_Start
 580              		.thumb
 581              		.thumb_func
 582              		.type	CyEEPROM_Start, %function
 583              	CyEEPROM_Start:
 584              	.LFB8:
 599:.\Generated_Source\PSoC5/CyFlash.c **** }
 600:.\Generated_Source\PSoC5/CyFlash.c **** 
 601:.\Generated_Source\PSoC5/CyFlash.c **** 
 602:.\Generated_Source\PSoC5/CyFlash.c **** /*******************************************************************************
 603:.\Generated_Source\PSoC5/CyFlash.c **** * Function Name: CyEEPROM_Start
 604:.\Generated_Source\PSoC5/CyFlash.c **** ********************************************************************************
 605:.\Generated_Source\PSoC5/CyFlash.c **** *
 606:.\Generated_Source\PSoC5/CyFlash.c **** * Summary:
 607:.\Generated_Source\PSoC5/CyFlash.c **** *  Enable the EEPROM.
 608:.\Generated_Source\PSoC5/CyFlash.c **** *
 609:.\Generated_Source\PSoC5/CyFlash.c **** * Parameters:
 610:.\Generated_Source\PSoC5/CyFlash.c **** *  None
 611:.\Generated_Source\PSoC5/CyFlash.c **** *
 612:.\Generated_Source\PSoC5/CyFlash.c **** * Return:
 613:.\Generated_Source\PSoC5/CyFlash.c **** *  None
 614:.\Generated_Source\PSoC5/CyFlash.c **** *
 615:.\Generated_Source\PSoC5/CyFlash.c **** *******************************************************************************/
 616:.\Generated_Source\PSoC5/CyFlash.c **** void CyEEPROM_Start(void) 
 617:.\Generated_Source\PSoC5/CyFlash.c **** {
 585              		.loc 1 617 0
 586              		.cfi_startproc
 587              		@ args = 0, pretend = 0, frame = 0
 588              		@ frame_needed = 0, uses_anonymous_args = 0
 589              		@ link register save eliminated.
 618:.\Generated_Source\PSoC5/CyFlash.c ****     /* Active Power Mode */
 619:.\Generated_Source\PSoC5/CyFlash.c ****     *CY_FLASH_PM_ACT_EEFLASH_PTR |= CY_FLASH_PM_EE_MASK;
 590              		.loc 1 619 0
 591 0000 054A     		ldr	r2, .L65
 592 0002 1378     		ldrb	r3, [r2]	@ zero_extendqisi2
 593 0004 43F01003 		orr	r3, r3, #16
 594 0008 1370     		strb	r3, [r2]
 620:.\Generated_Source\PSoC5/CyFlash.c **** 
 621:.\Generated_Source\PSoC5/CyFlash.c ****     /* Standby Power Mode */
 622:.\Generated_Source\PSoC5/CyFlash.c ****     *CY_FLASH_PM_ALTACT_EEFLASH_PTR |= CY_FLASH_PM_EE_MASK;
 595              		.loc 1 622 0
 596 000a 1032     		adds	r2, r2, #16
 597 000c 1378     		ldrb	r3, [r2]	@ zero_extendqisi2
 598 000e 43F01003 		orr	r3, r3, #16
 599 0012 1370     		strb	r3, [r2]
 600 0014 7047     		bx	lr
ARM GAS  C:\Users\Ian\AppData\Local\Temp\cc8kZCjf.s 			page 23


 601              	.L66:
 602 0016 00BF     		.align	2
 603              	.L65:
 604 0018 AC430040 		.word	1073759148
 605              		.cfi_endproc
 606              	.LFE8:
 607              		.size	CyEEPROM_Start, .-CyEEPROM_Start
 608              		.section	.text.CyEEPROM_Stop,"ax",%progbits
 609              		.align	2
 610              		.global	CyEEPROM_Stop
 611              		.thumb
 612              		.thumb_func
 613              		.type	CyEEPROM_Stop, %function
 614              	CyEEPROM_Stop:
 615              	.LFB9:
 623:.\Generated_Source\PSoC5/CyFlash.c **** }
 624:.\Generated_Source\PSoC5/CyFlash.c **** 
 625:.\Generated_Source\PSoC5/CyFlash.c **** 
 626:.\Generated_Source\PSoC5/CyFlash.c **** /*******************************************************************************
 627:.\Generated_Source\PSoC5/CyFlash.c **** * Function Name: CyEEPROM_Stop
 628:.\Generated_Source\PSoC5/CyFlash.c **** ********************************************************************************
 629:.\Generated_Source\PSoC5/CyFlash.c **** *
 630:.\Generated_Source\PSoC5/CyFlash.c **** * Summary:
 631:.\Generated_Source\PSoC5/CyFlash.c **** *  Disable the EEPROM.
 632:.\Generated_Source\PSoC5/CyFlash.c **** *
 633:.\Generated_Source\PSoC5/CyFlash.c **** * Parameters:
 634:.\Generated_Source\PSoC5/CyFlash.c **** *  None
 635:.\Generated_Source\PSoC5/CyFlash.c **** *
 636:.\Generated_Source\PSoC5/CyFlash.c **** * Return:
 637:.\Generated_Source\PSoC5/CyFlash.c **** *  None
 638:.\Generated_Source\PSoC5/CyFlash.c **** *
 639:.\Generated_Source\PSoC5/CyFlash.c **** *******************************************************************************/
 640:.\Generated_Source\PSoC5/CyFlash.c **** void CyEEPROM_Stop (void) 
 641:.\Generated_Source\PSoC5/CyFlash.c **** {
 616              		.loc 1 641 0
 617              		.cfi_startproc
 618              		@ args = 0, pretend = 0, frame = 0
 619              		@ frame_needed = 0, uses_anonymous_args = 0
 620              		@ link register save eliminated.
 642:.\Generated_Source\PSoC5/CyFlash.c ****     /* Active Power Mode */
 643:.\Generated_Source\PSoC5/CyFlash.c ****     *CY_FLASH_PM_ACT_EEFLASH_PTR &= ((uint8)(~CY_FLASH_PM_EE_MASK));
 621              		.loc 1 643 0
 622 0000 054A     		ldr	r2, .L68
 623 0002 1378     		ldrb	r3, [r2]	@ zero_extendqisi2
 624 0004 03F0EF03 		and	r3, r3, #239
 625 0008 1370     		strb	r3, [r2]
 644:.\Generated_Source\PSoC5/CyFlash.c **** 
 645:.\Generated_Source\PSoC5/CyFlash.c ****     /* Standby Power Mode */
 646:.\Generated_Source\PSoC5/CyFlash.c ****     *CY_FLASH_PM_ALTACT_EEFLASH_PTR &= ((uint8)(~CY_FLASH_PM_EE_MASK));
 626              		.loc 1 646 0
 627 000a 1032     		adds	r2, r2, #16
 628 000c 1378     		ldrb	r3, [r2]	@ zero_extendqisi2
 629 000e 03F0EF03 		and	r3, r3, #239
 630 0012 1370     		strb	r3, [r2]
 631 0014 7047     		bx	lr
 632              	.L69:
 633 0016 00BF     		.align	2
ARM GAS  C:\Users\Ian\AppData\Local\Temp\cc8kZCjf.s 			page 24


 634              	.L68:
 635 0018 AC430040 		.word	1073759148
 636              		.cfi_endproc
 637              	.LFE9:
 638              		.size	CyEEPROM_Stop, .-CyEEPROM_Stop
 639              		.section	.text.CyEEPROM_ReadReserve,"ax",%progbits
 640              		.align	2
 641              		.global	CyEEPROM_ReadReserve
 642              		.thumb
 643              		.thumb_func
 644              		.type	CyEEPROM_ReadReserve, %function
 645              	CyEEPROM_ReadReserve:
 646              	.LFB10:
 647:.\Generated_Source\PSoC5/CyFlash.c **** }
 648:.\Generated_Source\PSoC5/CyFlash.c **** 
 649:.\Generated_Source\PSoC5/CyFlash.c **** 
 650:.\Generated_Source\PSoC5/CyFlash.c **** /*******************************************************************************
 651:.\Generated_Source\PSoC5/CyFlash.c **** * Function Name: CyEEPROM_ReadReserve
 652:.\Generated_Source\PSoC5/CyFlash.c **** ********************************************************************************
 653:.\Generated_Source\PSoC5/CyFlash.c **** *
 654:.\Generated_Source\PSoC5/CyFlash.c **** * Summary:
 655:.\Generated_Source\PSoC5/CyFlash.c **** *  Request access to the EEPROM for reading and wait until access is available.
 656:.\Generated_Source\PSoC5/CyFlash.c **** *
 657:.\Generated_Source\PSoC5/CyFlash.c **** * Parameters:
 658:.\Generated_Source\PSoC5/CyFlash.c **** *  None
 659:.\Generated_Source\PSoC5/CyFlash.c **** *
 660:.\Generated_Source\PSoC5/CyFlash.c **** * Return:
 661:.\Generated_Source\PSoC5/CyFlash.c **** *  None
 662:.\Generated_Source\PSoC5/CyFlash.c **** *
 663:.\Generated_Source\PSoC5/CyFlash.c **** *******************************************************************************/
 664:.\Generated_Source\PSoC5/CyFlash.c **** void CyEEPROM_ReadReserve(void) 
 665:.\Generated_Source\PSoC5/CyFlash.c **** {
 647              		.loc 1 665 0
 648              		.cfi_startproc
 649              		@ args = 0, pretend = 0, frame = 0
 650              		@ frame_needed = 0, uses_anonymous_args = 0
 651              		@ link register save eliminated.
 666:.\Generated_Source\PSoC5/CyFlash.c ****     /* Make request for PHUB to have access */
 667:.\Generated_Source\PSoC5/CyFlash.c ****     CY_FLASH_EE_SCR_REG |= CY_FLASH_EE_SCR_AHB_EE_REQ;
 652              		.loc 1 667 0
 653 0000 054A     		ldr	r2, .L72
 654 0002 1378     		ldrb	r3, [r2]	@ zero_extendqisi2
 655 0004 43F00103 		orr	r3, r3, #1
 656 0008 1370     		strb	r3, [r2]
 657              	.L71:
 668:.\Generated_Source\PSoC5/CyFlash.c **** 
 669:.\Generated_Source\PSoC5/CyFlash.c ****     while (0u == (CY_FLASH_EE_SCR_REG & CY_FLASH_EE_SCR_AHB_EE_ACK))
 658              		.loc 1 669 0 discriminator 1
 659 000a 034B     		ldr	r3, .L72
 660 000c 1B78     		ldrb	r3, [r3]	@ zero_extendqisi2
 661 000e 13F0020F 		tst	r3, #2
 662 0012 FAD0     		beq	.L71
 670:.\Generated_Source\PSoC5/CyFlash.c ****     {
 671:.\Generated_Source\PSoC5/CyFlash.c ****         /* Wait for acknowledgement from PHUB */
 672:.\Generated_Source\PSoC5/CyFlash.c ****     }
 673:.\Generated_Source\PSoC5/CyFlash.c **** }
 663              		.loc 1 673 0
ARM GAS  C:\Users\Ian\AppData\Local\Temp\cc8kZCjf.s 			page 25


 664 0014 7047     		bx	lr
 665              	.L73:
 666 0016 00BF     		.align	2
 667              	.L72:
 668 0018 02470040 		.word	1073760002
 669              		.cfi_endproc
 670              	.LFE10:
 671              		.size	CyEEPROM_ReadReserve, .-CyEEPROM_ReadReserve
 672              		.section	.text.CyEEPROM_ReadRelease,"ax",%progbits
 673              		.align	2
 674              		.global	CyEEPROM_ReadRelease
 675              		.thumb
 676              		.thumb_func
 677              		.type	CyEEPROM_ReadRelease, %function
 678              	CyEEPROM_ReadRelease:
 679              	.LFB11:
 674:.\Generated_Source\PSoC5/CyFlash.c **** 
 675:.\Generated_Source\PSoC5/CyFlash.c **** 
 676:.\Generated_Source\PSoC5/CyFlash.c **** /*******************************************************************************
 677:.\Generated_Source\PSoC5/CyFlash.c **** * Function Name: CyEEPROM_ReadRelease
 678:.\Generated_Source\PSoC5/CyFlash.c **** ********************************************************************************
 679:.\Generated_Source\PSoC5/CyFlash.c **** *
 680:.\Generated_Source\PSoC5/CyFlash.c **** * Summary:
 681:.\Generated_Source\PSoC5/CyFlash.c **** *  Release the read reservation of the EEPROM.
 682:.\Generated_Source\PSoC5/CyFlash.c **** *
 683:.\Generated_Source\PSoC5/CyFlash.c **** * Parameters:
 684:.\Generated_Source\PSoC5/CyFlash.c **** *  None
 685:.\Generated_Source\PSoC5/CyFlash.c **** *
 686:.\Generated_Source\PSoC5/CyFlash.c **** * Return:
 687:.\Generated_Source\PSoC5/CyFlash.c **** *  None
 688:.\Generated_Source\PSoC5/CyFlash.c **** *
 689:.\Generated_Source\PSoC5/CyFlash.c **** *******************************************************************************/
 690:.\Generated_Source\PSoC5/CyFlash.c **** void CyEEPROM_ReadRelease(void) 
 691:.\Generated_Source\PSoC5/CyFlash.c **** {
 680              		.loc 1 691 0
 681              		.cfi_startproc
 682              		@ args = 0, pretend = 0, frame = 0
 683              		@ frame_needed = 0, uses_anonymous_args = 0
 684              		@ link register save eliminated.
 692:.\Generated_Source\PSoC5/CyFlash.c ****     CY_FLASH_EE_SCR_REG &= (uint8)(~CY_FLASH_EE_SCR_AHB_EE_REQ);
 685              		.loc 1 692 0
 686 0000 024A     		ldr	r2, .L75
 687 0002 1378     		ldrb	r3, [r2]	@ zero_extendqisi2
 688 0004 03F0FE03 		and	r3, r3, #254
 689 0008 1370     		strb	r3, [r2]
 690 000a 7047     		bx	lr
 691              	.L76:
 692              		.align	2
 693              	.L75:
 694 000c 02470040 		.word	1073760002
 695              		.cfi_endproc
 696              	.LFE11:
 697              		.size	CyEEPROM_ReadRelease, .-CyEEPROM_ReadRelease
 698              		.comm	dieTemperature,2,4
 699              		.bss
 700              		.align	2
 701              		.set	.LANCHOR0,. + 0
ARM GAS  C:\Users\Ian\AppData\Local\Temp\cc8kZCjf.s 			page 26


 702              		.type	rowBuffer, %object
 703              		.size	rowBuffer, 4
 704              	rowBuffer:
 705 0000 00000000 		.space	4
 706              		.text
 707              	.Letext0:
 708              		.file 2 ".\\Generated_Source\\PSoC5\\cytypes.h"
 709              		.file 3 ".\\Generated_Source\\PSoC5\\CySpc.h"
 710              		.file 4 ".\\Generated_Source\\PSoC5\\CyLib.h"