ARM GAS  C:\Users\Ian\AppData\Local\Temp\ccrzCaTu.s 			page 1


   1              		.syntax unified
   2              		.cpu cortex-m3
   3              		.fpu softvfp
   4              		.eabi_attribute 20, 1
   5              		.eabi_attribute 21, 1
   6              		.eabi_attribute 23, 3
   7              		.eabi_attribute 24, 1
   8              		.eabi_attribute 25, 1
   9              		.eabi_attribute 26, 1
  10              		.eabi_attribute 30, 1
  11              		.eabi_attribute 34, 1
  12              		.eabi_attribute 18, 4
  13              		.thumb
  14              		.file	"USBFS_1_std.c"
  15              		.text
  16              	.Ltext0:
  17              		.cfi_sections	.debug_frame
  18              		.section	.text.USBFS_1_ConfigReg,"ax",%progbits
  19              		.align	2
  20              		.global	USBFS_1_ConfigReg
  21              		.thumb
  22              		.thumb_func
  23              		.type	USBFS_1_ConfigReg, %function
  24              	USBFS_1_ConfigReg:
  25              	.LFB1:
  26              		.file 1 ".\\Generated_Source\\PSoC5\\USBFS_1_std.c"
   1:.\Generated_Source\PSoC5/USBFS_1_std.c **** /*******************************************************************************
   2:.\Generated_Source\PSoC5/USBFS_1_std.c **** * File Name: USBFS_1_std.c
   3:.\Generated_Source\PSoC5/USBFS_1_std.c **** * Version 2.80
   4:.\Generated_Source\PSoC5/USBFS_1_std.c **** *
   5:.\Generated_Source\PSoC5/USBFS_1_std.c **** * Description:
   6:.\Generated_Source\PSoC5/USBFS_1_std.c **** *  USB Standard request handler.
   7:.\Generated_Source\PSoC5/USBFS_1_std.c **** *
   8:.\Generated_Source\PSoC5/USBFS_1_std.c **** * Note:
   9:.\Generated_Source\PSoC5/USBFS_1_std.c **** *
  10:.\Generated_Source\PSoC5/USBFS_1_std.c **** ********************************************************************************
  11:.\Generated_Source\PSoC5/USBFS_1_std.c **** * Copyright 2008-2014, Cypress Semiconductor Corporation.  All rights reserved.
  12:.\Generated_Source\PSoC5/USBFS_1_std.c **** * You may use this file only in accordance with the license, terms, conditions,
  13:.\Generated_Source\PSoC5/USBFS_1_std.c **** * disclaimers, and limitations in the end user license agreement accompanying
  14:.\Generated_Source\PSoC5/USBFS_1_std.c **** * the software package with which this file was provided.
  15:.\Generated_Source\PSoC5/USBFS_1_std.c **** *******************************************************************************/
  16:.\Generated_Source\PSoC5/USBFS_1_std.c **** 
  17:.\Generated_Source\PSoC5/USBFS_1_std.c **** #include "USBFS_1.h"
  18:.\Generated_Source\PSoC5/USBFS_1_std.c **** #include "USBFS_1_cdc.h"
  19:.\Generated_Source\PSoC5/USBFS_1_std.c **** #include "USBFS_1_pvt.h"
  20:.\Generated_Source\PSoC5/USBFS_1_std.c **** #if defined(USBFS_1_ENABLE_MIDI_STREAMING)
  21:.\Generated_Source\PSoC5/USBFS_1_std.c ****     #include "USBFS_1_midi.h"
  22:.\Generated_Source\PSoC5/USBFS_1_std.c **** #endif /*  USBFS_1_ENABLE_MIDI_STREAMING*/
  23:.\Generated_Source\PSoC5/USBFS_1_std.c **** 
  24:.\Generated_Source\PSoC5/USBFS_1_std.c **** 
  25:.\Generated_Source\PSoC5/USBFS_1_std.c **** /***************************************
  26:.\Generated_Source\PSoC5/USBFS_1_std.c **** *   Static data allocation
  27:.\Generated_Source\PSoC5/USBFS_1_std.c **** ***************************************/
  28:.\Generated_Source\PSoC5/USBFS_1_std.c **** 
  29:.\Generated_Source\PSoC5/USBFS_1_std.c **** #if defined(USBFS_1_ENABLE_FWSN_STRING)
  30:.\Generated_Source\PSoC5/USBFS_1_std.c ****     static volatile uint8 *USBFS_1_fwSerialNumberStringDescriptor;
  31:.\Generated_Source\PSoC5/USBFS_1_std.c ****     static volatile uint8 USBFS_1_snStringConfirm = USBFS_1_FALSE;
ARM GAS  C:\Users\Ian\AppData\Local\Temp\ccrzCaTu.s 			page 2


  32:.\Generated_Source\PSoC5/USBFS_1_std.c **** #endif  /* USBFS_1_ENABLE_FWSN_STRING */
  33:.\Generated_Source\PSoC5/USBFS_1_std.c **** 
  34:.\Generated_Source\PSoC5/USBFS_1_std.c **** #if defined(USBFS_1_ENABLE_FWSN_STRING)
  35:.\Generated_Source\PSoC5/USBFS_1_std.c **** 
  36:.\Generated_Source\PSoC5/USBFS_1_std.c ****     /*******************************************************************************
  37:.\Generated_Source\PSoC5/USBFS_1_std.c ****     * Function Name: USBFS_1_SerialNumString
  38:.\Generated_Source\PSoC5/USBFS_1_std.c ****     ********************************************************************************
  39:.\Generated_Source\PSoC5/USBFS_1_std.c ****     *
  40:.\Generated_Source\PSoC5/USBFS_1_std.c ****     * Summary:
  41:.\Generated_Source\PSoC5/USBFS_1_std.c ****     *  Application firmware may supply the source of the USB device descriptors
  42:.\Generated_Source\PSoC5/USBFS_1_std.c ****     *  serial number string during runtime.
  43:.\Generated_Source\PSoC5/USBFS_1_std.c ****     *
  44:.\Generated_Source\PSoC5/USBFS_1_std.c ****     * Parameters:
  45:.\Generated_Source\PSoC5/USBFS_1_std.c ****     *  snString:  pointer to string.
  46:.\Generated_Source\PSoC5/USBFS_1_std.c ****     *
  47:.\Generated_Source\PSoC5/USBFS_1_std.c ****     * Return:
  48:.\Generated_Source\PSoC5/USBFS_1_std.c ****     *  None.
  49:.\Generated_Source\PSoC5/USBFS_1_std.c ****     *
  50:.\Generated_Source\PSoC5/USBFS_1_std.c ****     * Reentrant:
  51:.\Generated_Source\PSoC5/USBFS_1_std.c ****     *  No.
  52:.\Generated_Source\PSoC5/USBFS_1_std.c ****     *
  53:.\Generated_Source\PSoC5/USBFS_1_std.c ****     *******************************************************************************/
  54:.\Generated_Source\PSoC5/USBFS_1_std.c ****     void  USBFS_1_SerialNumString(uint8 snString[]) 
  55:.\Generated_Source\PSoC5/USBFS_1_std.c ****     {
  56:.\Generated_Source\PSoC5/USBFS_1_std.c ****         USBFS_1_snStringConfirm = USBFS_1_FALSE;
  57:.\Generated_Source\PSoC5/USBFS_1_std.c ****         if(snString != NULL)
  58:.\Generated_Source\PSoC5/USBFS_1_std.c ****         {
  59:.\Generated_Source\PSoC5/USBFS_1_std.c ****             /* Check descriptor validation */
  60:.\Generated_Source\PSoC5/USBFS_1_std.c ****             if( (snString[0u] > 1u ) && (snString[1u] == USBFS_1_DESCR_STRING) )
  61:.\Generated_Source\PSoC5/USBFS_1_std.c ****             {
  62:.\Generated_Source\PSoC5/USBFS_1_std.c ****                 USBFS_1_fwSerialNumberStringDescriptor = snString;
  63:.\Generated_Source\PSoC5/USBFS_1_std.c ****                 USBFS_1_snStringConfirm = USBFS_1_TRUE;
  64:.\Generated_Source\PSoC5/USBFS_1_std.c ****             }
  65:.\Generated_Source\PSoC5/USBFS_1_std.c ****         }
  66:.\Generated_Source\PSoC5/USBFS_1_std.c ****     }
  67:.\Generated_Source\PSoC5/USBFS_1_std.c **** 
  68:.\Generated_Source\PSoC5/USBFS_1_std.c **** #endif  /* USBFS_1_ENABLE_FWSN_STRING */
  69:.\Generated_Source\PSoC5/USBFS_1_std.c **** 
  70:.\Generated_Source\PSoC5/USBFS_1_std.c **** 
  71:.\Generated_Source\PSoC5/USBFS_1_std.c **** /*******************************************************************************
  72:.\Generated_Source\PSoC5/USBFS_1_std.c **** * Function Name: USBFS_1_HandleStandardRqst
  73:.\Generated_Source\PSoC5/USBFS_1_std.c **** ********************************************************************************
  74:.\Generated_Source\PSoC5/USBFS_1_std.c **** *
  75:.\Generated_Source\PSoC5/USBFS_1_std.c **** * Summary:
  76:.\Generated_Source\PSoC5/USBFS_1_std.c **** *  This Routine dispatches standard requests
  77:.\Generated_Source\PSoC5/USBFS_1_std.c **** *
  78:.\Generated_Source\PSoC5/USBFS_1_std.c **** * Parameters:
  79:.\Generated_Source\PSoC5/USBFS_1_std.c **** *  None.
  80:.\Generated_Source\PSoC5/USBFS_1_std.c **** *
  81:.\Generated_Source\PSoC5/USBFS_1_std.c **** * Return:
  82:.\Generated_Source\PSoC5/USBFS_1_std.c **** *  TRUE if request handled.
  83:.\Generated_Source\PSoC5/USBFS_1_std.c **** *
  84:.\Generated_Source\PSoC5/USBFS_1_std.c **** * Reentrant:
  85:.\Generated_Source\PSoC5/USBFS_1_std.c **** *  No.
  86:.\Generated_Source\PSoC5/USBFS_1_std.c **** *
  87:.\Generated_Source\PSoC5/USBFS_1_std.c **** *******************************************************************************/
  88:.\Generated_Source\PSoC5/USBFS_1_std.c **** uint8 USBFS_1_HandleStandardRqst(void) 
ARM GAS  C:\Users\Ian\AppData\Local\Temp\ccrzCaTu.s 			page 3


  89:.\Generated_Source\PSoC5/USBFS_1_std.c **** {
  90:.\Generated_Source\PSoC5/USBFS_1_std.c ****     uint8 requestHandled = USBFS_1_FALSE;
  91:.\Generated_Source\PSoC5/USBFS_1_std.c ****     uint8 interfaceNumber;
  92:.\Generated_Source\PSoC5/USBFS_1_std.c ****     uint8 configurationN;
  93:.\Generated_Source\PSoC5/USBFS_1_std.c ****     #if defined(USBFS_1_ENABLE_STRINGS)
  94:.\Generated_Source\PSoC5/USBFS_1_std.c ****         volatile uint8 *pStr = 0u;
  95:.\Generated_Source\PSoC5/USBFS_1_std.c ****         #if defined(USBFS_1_ENABLE_DESCRIPTOR_STRINGS)
  96:.\Generated_Source\PSoC5/USBFS_1_std.c ****             uint8 nStr;
  97:.\Generated_Source\PSoC5/USBFS_1_std.c ****             uint8 descrLength;
  98:.\Generated_Source\PSoC5/USBFS_1_std.c ****         #endif /* USBFS_1_ENABLE_DESCRIPTOR_STRINGS */
  99:.\Generated_Source\PSoC5/USBFS_1_std.c ****     #endif /* USBFS_1_ENABLE_STRINGS */
 100:.\Generated_Source\PSoC5/USBFS_1_std.c ****     static volatile uint8 USBFS_1_tBuffer[USBFS_1_STATUS_LENGTH_MAX];
 101:.\Generated_Source\PSoC5/USBFS_1_std.c ****     const T_USBFS_1_LUT CYCODE *pTmp;
 102:.\Generated_Source\PSoC5/USBFS_1_std.c ****     USBFS_1_currentTD.count = 0u;
 103:.\Generated_Source\PSoC5/USBFS_1_std.c **** 
 104:.\Generated_Source\PSoC5/USBFS_1_std.c ****     if ((CY_GET_REG8(USBFS_1_bmRequestType) & USBFS_1_RQST_DIR_MASK) == USBFS_1_RQST_DIR_D2H)
 105:.\Generated_Source\PSoC5/USBFS_1_std.c ****     {
 106:.\Generated_Source\PSoC5/USBFS_1_std.c ****         /* Control Read */
 107:.\Generated_Source\PSoC5/USBFS_1_std.c ****         switch (CY_GET_REG8(USBFS_1_bRequest))
 108:.\Generated_Source\PSoC5/USBFS_1_std.c ****         {
 109:.\Generated_Source\PSoC5/USBFS_1_std.c ****             case USBFS_1_GET_DESCRIPTOR:
 110:.\Generated_Source\PSoC5/USBFS_1_std.c ****                 if (CY_GET_REG8(USBFS_1_wValueHi) == USBFS_1_DESCR_DEVICE)
 111:.\Generated_Source\PSoC5/USBFS_1_std.c ****                 {
 112:.\Generated_Source\PSoC5/USBFS_1_std.c ****                     pTmp = USBFS_1_GetDeviceTablePtr();
 113:.\Generated_Source\PSoC5/USBFS_1_std.c ****                     USBFS_1_currentTD.pData = (volatile uint8 *)pTmp->p_list;
 114:.\Generated_Source\PSoC5/USBFS_1_std.c ****                     USBFS_1_currentTD.count = USBFS_1_DEVICE_DESCR_LENGTH;
 115:.\Generated_Source\PSoC5/USBFS_1_std.c ****                     requestHandled  = USBFS_1_InitControlRead();
 116:.\Generated_Source\PSoC5/USBFS_1_std.c ****                 }
 117:.\Generated_Source\PSoC5/USBFS_1_std.c ****                 else if (CY_GET_REG8(USBFS_1_wValueHi) == USBFS_1_DESCR_CONFIG)
 118:.\Generated_Source\PSoC5/USBFS_1_std.c ****                 {
 119:.\Generated_Source\PSoC5/USBFS_1_std.c ****                     pTmp = USBFS_1_GetConfigTablePtr(CY_GET_REG8(USBFS_1_wValueLo));
 120:.\Generated_Source\PSoC5/USBFS_1_std.c ****                     if( pTmp != NULL )  /* Verify that requested descriptor exists */
 121:.\Generated_Source\PSoC5/USBFS_1_std.c ****                     {
 122:.\Generated_Source\PSoC5/USBFS_1_std.c ****                         USBFS_1_currentTD.pData = (volatile uint8 *)pTmp->p_list;
 123:.\Generated_Source\PSoC5/USBFS_1_std.c ****                         USBFS_1_currentTD.count = ((uint16)(USBFS_1_currentTD.pData)[ \
 124:.\Generated_Source\PSoC5/USBFS_1_std.c ****                                           USBFS_1_CONFIG_DESCR_TOTAL_LENGTH_HI] << 8u) | \
 125:.\Generated_Source\PSoC5/USBFS_1_std.c ****                                          (USBFS_1_currentTD.pData)[USBFS_1_CONFIG_DESCR_TOTAL_LENGT
 126:.\Generated_Source\PSoC5/USBFS_1_std.c ****                         requestHandled  = USBFS_1_InitControlRead();
 127:.\Generated_Source\PSoC5/USBFS_1_std.c ****                     }
 128:.\Generated_Source\PSoC5/USBFS_1_std.c ****                 }
 129:.\Generated_Source\PSoC5/USBFS_1_std.c ****                 #if defined(USBFS_1_ENABLE_STRINGS)
 130:.\Generated_Source\PSoC5/USBFS_1_std.c ****                 else if (CY_GET_REG8(USBFS_1_wValueHi) == USBFS_1_DESCR_STRING)
 131:.\Generated_Source\PSoC5/USBFS_1_std.c ****                 {
 132:.\Generated_Source\PSoC5/USBFS_1_std.c ****                     /* Descriptor Strings*/
 133:.\Generated_Source\PSoC5/USBFS_1_std.c ****                     #if defined(USBFS_1_ENABLE_DESCRIPTOR_STRINGS)
 134:.\Generated_Source\PSoC5/USBFS_1_std.c ****                         nStr = 0u;
 135:.\Generated_Source\PSoC5/USBFS_1_std.c ****                         pStr = (volatile uint8 *)&USBFS_1_STRING_DESCRIPTORS[0u];
 136:.\Generated_Source\PSoC5/USBFS_1_std.c ****                         while ( (CY_GET_REG8(USBFS_1_wValueLo) > nStr) && (*pStr != 0u) )
 137:.\Generated_Source\PSoC5/USBFS_1_std.c ****                         {
 138:.\Generated_Source\PSoC5/USBFS_1_std.c ****                             /* Read descriptor length from 1st byte */
 139:.\Generated_Source\PSoC5/USBFS_1_std.c ****                             descrLength = *pStr;
 140:.\Generated_Source\PSoC5/USBFS_1_std.c ****                             /* Move to next string descriptor */
 141:.\Generated_Source\PSoC5/USBFS_1_std.c ****                             pStr = &pStr[descrLength];
 142:.\Generated_Source\PSoC5/USBFS_1_std.c ****                             nStr++;
 143:.\Generated_Source\PSoC5/USBFS_1_std.c ****                         }
 144:.\Generated_Source\PSoC5/USBFS_1_std.c ****                     #endif /*  USBFS_1_ENABLE_DESCRIPTOR_STRINGS */
 145:.\Generated_Source\PSoC5/USBFS_1_std.c ****                     /* Microsoft OS String*/
ARM GAS  C:\Users\Ian\AppData\Local\Temp\ccrzCaTu.s 			page 4


 146:.\Generated_Source\PSoC5/USBFS_1_std.c ****                     #if defined(USBFS_1_ENABLE_MSOS_STRING)
 147:.\Generated_Source\PSoC5/USBFS_1_std.c ****                         if( CY_GET_REG8(USBFS_1_wValueLo) == USBFS_1_STRING_MSOS )
 148:.\Generated_Source\PSoC5/USBFS_1_std.c ****                         {
 149:.\Generated_Source\PSoC5/USBFS_1_std.c ****                             pStr = (volatile uint8 *)&USBFS_1_MSOS_DESCRIPTOR[0u];
 150:.\Generated_Source\PSoC5/USBFS_1_std.c ****                         }
 151:.\Generated_Source\PSoC5/USBFS_1_std.c ****                     #endif /*  USBFS_1_ENABLE_MSOS_STRING*/
 152:.\Generated_Source\PSoC5/USBFS_1_std.c ****                     /* SN string */
 153:.\Generated_Source\PSoC5/USBFS_1_std.c ****                     #if defined(USBFS_1_ENABLE_SN_STRING)
 154:.\Generated_Source\PSoC5/USBFS_1_std.c ****                         if( (CY_GET_REG8(USBFS_1_wValueLo) != 0u) &&
 155:.\Generated_Source\PSoC5/USBFS_1_std.c ****                             (CY_GET_REG8(USBFS_1_wValueLo) ==
 156:.\Generated_Source\PSoC5/USBFS_1_std.c ****                             USBFS_1_DEVICE0_DESCR[USBFS_1_DEVICE_DESCR_SN_SHIFT]) )
 157:.\Generated_Source\PSoC5/USBFS_1_std.c ****                         {
 158:.\Generated_Source\PSoC5/USBFS_1_std.c **** 
 159:.\Generated_Source\PSoC5/USBFS_1_std.c ****                             #if defined(USBFS_1_ENABLE_IDSN_STRING)
 160:.\Generated_Source\PSoC5/USBFS_1_std.c ****                                 /* Read DIE ID and generate string descriptor in RAM */
 161:.\Generated_Source\PSoC5/USBFS_1_std.c ****                                 USBFS_1_ReadDieID(USBFS_1_idSerialNumberStringDescriptor);
 162:.\Generated_Source\PSoC5/USBFS_1_std.c ****                                 pStr = USBFS_1_idSerialNumberStringDescriptor;
 163:.\Generated_Source\PSoC5/USBFS_1_std.c ****                             #elif defined(USBFS_1_ENABLE_FWSN_STRING)
 164:.\Generated_Source\PSoC5/USBFS_1_std.c ****                                 if(USBFS_1_snStringConfirm != USBFS_1_FALSE)
 165:.\Generated_Source\PSoC5/USBFS_1_std.c ****                                 {
 166:.\Generated_Source\PSoC5/USBFS_1_std.c ****                                     pStr = USBFS_1_fwSerialNumberStringDescriptor;
 167:.\Generated_Source\PSoC5/USBFS_1_std.c ****                                 }
 168:.\Generated_Source\PSoC5/USBFS_1_std.c ****                                 else
 169:.\Generated_Source\PSoC5/USBFS_1_std.c ****                                 {
 170:.\Generated_Source\PSoC5/USBFS_1_std.c ****                                     pStr = (volatile uint8 *)&USBFS_1_SN_STRING_DESCRIPTOR[0u];
 171:.\Generated_Source\PSoC5/USBFS_1_std.c ****                                 }
 172:.\Generated_Source\PSoC5/USBFS_1_std.c ****                             #else
 173:.\Generated_Source\PSoC5/USBFS_1_std.c ****                                 pStr = (volatile uint8 *)&USBFS_1_SN_STRING_DESCRIPTOR[0u];
 174:.\Generated_Source\PSoC5/USBFS_1_std.c ****                             #endif  /* defined(USBFS_1_ENABLE_IDSN_STRING) */
 175:.\Generated_Source\PSoC5/USBFS_1_std.c ****                         }
 176:.\Generated_Source\PSoC5/USBFS_1_std.c ****                     #endif    /*  USBFS_1_ENABLE_SN_STRING */
 177:.\Generated_Source\PSoC5/USBFS_1_std.c ****                     if (*pStr != 0u)
 178:.\Generated_Source\PSoC5/USBFS_1_std.c ****                     {
 179:.\Generated_Source\PSoC5/USBFS_1_std.c ****                         USBFS_1_currentTD.count = *pStr;
 180:.\Generated_Source\PSoC5/USBFS_1_std.c ****                         USBFS_1_currentTD.pData = pStr;
 181:.\Generated_Source\PSoC5/USBFS_1_std.c ****                         requestHandled  = USBFS_1_InitControlRead();
 182:.\Generated_Source\PSoC5/USBFS_1_std.c ****                     }
 183:.\Generated_Source\PSoC5/USBFS_1_std.c ****                 }
 184:.\Generated_Source\PSoC5/USBFS_1_std.c ****                 #endif /*  USBFS_1_ENABLE_STRINGS */
 185:.\Generated_Source\PSoC5/USBFS_1_std.c ****                 else
 186:.\Generated_Source\PSoC5/USBFS_1_std.c ****                 {
 187:.\Generated_Source\PSoC5/USBFS_1_std.c ****                     requestHandled = USBFS_1_DispatchClassRqst();
 188:.\Generated_Source\PSoC5/USBFS_1_std.c ****                 }
 189:.\Generated_Source\PSoC5/USBFS_1_std.c ****                 break;
 190:.\Generated_Source\PSoC5/USBFS_1_std.c ****             case USBFS_1_GET_STATUS:
 191:.\Generated_Source\PSoC5/USBFS_1_std.c ****                 switch ((CY_GET_REG8(USBFS_1_bmRequestType) & USBFS_1_RQST_RCPT_MASK))
 192:.\Generated_Source\PSoC5/USBFS_1_std.c ****                 {
 193:.\Generated_Source\PSoC5/USBFS_1_std.c ****                     case USBFS_1_RQST_RCPT_EP:
 194:.\Generated_Source\PSoC5/USBFS_1_std.c ****                         USBFS_1_currentTD.count = USBFS_1_EP_STATUS_LENGTH;
 195:.\Generated_Source\PSoC5/USBFS_1_std.c ****                         USBFS_1_tBuffer[0u] = USBFS_1_EP[ \
 196:.\Generated_Source\PSoC5/USBFS_1_std.c ****                                         CY_GET_REG8(USBFS_1_wIndexLo) & USBFS_1_DIR_UNUSED].hwEpSta
 197:.\Generated_Source\PSoC5/USBFS_1_std.c ****                         USBFS_1_tBuffer[1u] = 0u;
 198:.\Generated_Source\PSoC5/USBFS_1_std.c ****                         USBFS_1_currentTD.pData = &USBFS_1_tBuffer[0u];
 199:.\Generated_Source\PSoC5/USBFS_1_std.c ****                         requestHandled  = USBFS_1_InitControlRead();
 200:.\Generated_Source\PSoC5/USBFS_1_std.c ****                         break;
 201:.\Generated_Source\PSoC5/USBFS_1_std.c ****                     case USBFS_1_RQST_RCPT_DEV:
 202:.\Generated_Source\PSoC5/USBFS_1_std.c ****                         USBFS_1_currentTD.count = USBFS_1_DEVICE_STATUS_LENGTH;
ARM GAS  C:\Users\Ian\AppData\Local\Temp\ccrzCaTu.s 			page 5


 203:.\Generated_Source\PSoC5/USBFS_1_std.c ****                         USBFS_1_tBuffer[0u] = USBFS_1_deviceStatus;
 204:.\Generated_Source\PSoC5/USBFS_1_std.c ****                         USBFS_1_tBuffer[1u] = 0u;
 205:.\Generated_Source\PSoC5/USBFS_1_std.c ****                         USBFS_1_currentTD.pData = &USBFS_1_tBuffer[0u];
 206:.\Generated_Source\PSoC5/USBFS_1_std.c ****                         requestHandled  = USBFS_1_InitControlRead();
 207:.\Generated_Source\PSoC5/USBFS_1_std.c ****                         break;
 208:.\Generated_Source\PSoC5/USBFS_1_std.c ****                     default:    /* requestHandled is initialized as FALSE by default */
 209:.\Generated_Source\PSoC5/USBFS_1_std.c ****                         break;
 210:.\Generated_Source\PSoC5/USBFS_1_std.c ****                 }
 211:.\Generated_Source\PSoC5/USBFS_1_std.c ****                 break;
 212:.\Generated_Source\PSoC5/USBFS_1_std.c ****             case USBFS_1_GET_CONFIGURATION:
 213:.\Generated_Source\PSoC5/USBFS_1_std.c ****                 USBFS_1_currentTD.count = 1u;
 214:.\Generated_Source\PSoC5/USBFS_1_std.c ****                 USBFS_1_currentTD.pData = (volatile uint8 *)&USBFS_1_configuration;
 215:.\Generated_Source\PSoC5/USBFS_1_std.c ****                 requestHandled  = USBFS_1_InitControlRead();
 216:.\Generated_Source\PSoC5/USBFS_1_std.c ****                 break;
 217:.\Generated_Source\PSoC5/USBFS_1_std.c ****             case USBFS_1_GET_INTERFACE:
 218:.\Generated_Source\PSoC5/USBFS_1_std.c ****                 USBFS_1_currentTD.count = 1u;
 219:.\Generated_Source\PSoC5/USBFS_1_std.c ****                 USBFS_1_currentTD.pData = (volatile uint8 *)&USBFS_1_interfaceSetting[ \
 220:.\Generated_Source\PSoC5/USBFS_1_std.c ****                                                                             CY_GET_REG8(USBFS_1_wIn
 221:.\Generated_Source\PSoC5/USBFS_1_std.c ****                 requestHandled  = USBFS_1_InitControlRead();
 222:.\Generated_Source\PSoC5/USBFS_1_std.c ****                 break;
 223:.\Generated_Source\PSoC5/USBFS_1_std.c ****             default: /* requestHandled is initialized as FALSE by default */
 224:.\Generated_Source\PSoC5/USBFS_1_std.c ****                 break;
 225:.\Generated_Source\PSoC5/USBFS_1_std.c ****         }
 226:.\Generated_Source\PSoC5/USBFS_1_std.c ****     }
 227:.\Generated_Source\PSoC5/USBFS_1_std.c ****     else {
 228:.\Generated_Source\PSoC5/USBFS_1_std.c ****         /* Control Write */
 229:.\Generated_Source\PSoC5/USBFS_1_std.c ****         switch (CY_GET_REG8(USBFS_1_bRequest))
 230:.\Generated_Source\PSoC5/USBFS_1_std.c ****         {
 231:.\Generated_Source\PSoC5/USBFS_1_std.c ****             case USBFS_1_SET_ADDRESS:
 232:.\Generated_Source\PSoC5/USBFS_1_std.c ****                 USBFS_1_deviceAddress = CY_GET_REG8(USBFS_1_wValueLo);
 233:.\Generated_Source\PSoC5/USBFS_1_std.c ****                 requestHandled = USBFS_1_InitNoDataControlTransfer();
 234:.\Generated_Source\PSoC5/USBFS_1_std.c ****                 break;
 235:.\Generated_Source\PSoC5/USBFS_1_std.c ****             case USBFS_1_SET_CONFIGURATION:
 236:.\Generated_Source\PSoC5/USBFS_1_std.c ****                 configurationN = CY_GET_REG8(USBFS_1_wValueLo);
 237:.\Generated_Source\PSoC5/USBFS_1_std.c ****                 if(configurationN > 0u)
 238:.\Generated_Source\PSoC5/USBFS_1_std.c ****                 {   /* Verify that configuration descriptor exists */
 239:.\Generated_Source\PSoC5/USBFS_1_std.c ****                     pTmp = USBFS_1_GetConfigTablePtr(configurationN - 1u);
 240:.\Generated_Source\PSoC5/USBFS_1_std.c ****                 }
 241:.\Generated_Source\PSoC5/USBFS_1_std.c ****                 /* Responds with a Request Error when configuration number is invalid */
 242:.\Generated_Source\PSoC5/USBFS_1_std.c ****                 if (((configurationN > 0u) && (pTmp != NULL)) || (configurationN == 0u))
 243:.\Generated_Source\PSoC5/USBFS_1_std.c ****                 {
 244:.\Generated_Source\PSoC5/USBFS_1_std.c ****                     /* Set new configuration if it has been changed */
 245:.\Generated_Source\PSoC5/USBFS_1_std.c ****                     if(configurationN != USBFS_1_configuration)
 246:.\Generated_Source\PSoC5/USBFS_1_std.c ****                     {
 247:.\Generated_Source\PSoC5/USBFS_1_std.c ****                         USBFS_1_configuration = configurationN;
 248:.\Generated_Source\PSoC5/USBFS_1_std.c ****                         USBFS_1_configurationChanged = USBFS_1_TRUE;
 249:.\Generated_Source\PSoC5/USBFS_1_std.c ****                         USBFS_1_Config(USBFS_1_TRUE);
 250:.\Generated_Source\PSoC5/USBFS_1_std.c ****                     }
 251:.\Generated_Source\PSoC5/USBFS_1_std.c ****                     requestHandled = USBFS_1_InitNoDataControlTransfer();
 252:.\Generated_Source\PSoC5/USBFS_1_std.c ****                 }
 253:.\Generated_Source\PSoC5/USBFS_1_std.c ****                 break;
 254:.\Generated_Source\PSoC5/USBFS_1_std.c ****             case USBFS_1_SET_INTERFACE:
 255:.\Generated_Source\PSoC5/USBFS_1_std.c ****                 if (USBFS_1_ValidateAlternateSetting() != 0u)
 256:.\Generated_Source\PSoC5/USBFS_1_std.c ****                 {
 257:.\Generated_Source\PSoC5/USBFS_1_std.c ****                     interfaceNumber = CY_GET_REG8(USBFS_1_wIndexLo);
 258:.\Generated_Source\PSoC5/USBFS_1_std.c ****                     USBFS_1_interfaceNumber = interfaceNumber;
 259:.\Generated_Source\PSoC5/USBFS_1_std.c ****                     USBFS_1_configurationChanged = USBFS_1_TRUE;
ARM GAS  C:\Users\Ian\AppData\Local\Temp\ccrzCaTu.s 			page 6


 260:.\Generated_Source\PSoC5/USBFS_1_std.c ****                     #if ((USBFS_1_EP_MA == USBFS_1__MA_DYNAMIC) && \
 261:.\Generated_Source\PSoC5/USBFS_1_std.c ****                          (USBFS_1_EP_MM == USBFS_1__EP_MANUAL) )
 262:.\Generated_Source\PSoC5/USBFS_1_std.c ****                         USBFS_1_Config(USBFS_1_FALSE);
 263:.\Generated_Source\PSoC5/USBFS_1_std.c ****                     #else
 264:.\Generated_Source\PSoC5/USBFS_1_std.c ****                         USBFS_1_ConfigAltChanged();
 265:.\Generated_Source\PSoC5/USBFS_1_std.c ****                     #endif /*  (USBFS_1_EP_MA == USBFS_1__MA_DYNAMIC) */
 266:.\Generated_Source\PSoC5/USBFS_1_std.c ****                     /* Update handled Alt setting changes status */
 267:.\Generated_Source\PSoC5/USBFS_1_std.c ****                     USBFS_1_interfaceSetting_last[interfaceNumber] =
 268:.\Generated_Source\PSoC5/USBFS_1_std.c ****                          USBFS_1_interfaceSetting[interfaceNumber];
 269:.\Generated_Source\PSoC5/USBFS_1_std.c ****                     requestHandled = USBFS_1_InitNoDataControlTransfer();
 270:.\Generated_Source\PSoC5/USBFS_1_std.c ****                 }
 271:.\Generated_Source\PSoC5/USBFS_1_std.c ****                 break;
 272:.\Generated_Source\PSoC5/USBFS_1_std.c ****             case USBFS_1_CLEAR_FEATURE:
 273:.\Generated_Source\PSoC5/USBFS_1_std.c ****                 switch (CY_GET_REG8(USBFS_1_bmRequestType) & USBFS_1_RQST_RCPT_MASK)
 274:.\Generated_Source\PSoC5/USBFS_1_std.c ****                 {
 275:.\Generated_Source\PSoC5/USBFS_1_std.c ****                     case USBFS_1_RQST_RCPT_EP:
 276:.\Generated_Source\PSoC5/USBFS_1_std.c ****                         if (CY_GET_REG8(USBFS_1_wValueLo) == USBFS_1_ENDPOINT_HALT)
 277:.\Generated_Source\PSoC5/USBFS_1_std.c ****                         {
 278:.\Generated_Source\PSoC5/USBFS_1_std.c ****                             requestHandled = USBFS_1_ClearEndpointHalt();
 279:.\Generated_Source\PSoC5/USBFS_1_std.c ****                         }
 280:.\Generated_Source\PSoC5/USBFS_1_std.c ****                         break;
 281:.\Generated_Source\PSoC5/USBFS_1_std.c ****                     case USBFS_1_RQST_RCPT_DEV:
 282:.\Generated_Source\PSoC5/USBFS_1_std.c ****                         /* Clear device REMOTE_WAKEUP */
 283:.\Generated_Source\PSoC5/USBFS_1_std.c ****                         if (CY_GET_REG8(USBFS_1_wValueLo) == USBFS_1_DEVICE_REMOTE_WAKEUP)
 284:.\Generated_Source\PSoC5/USBFS_1_std.c ****                         {
 285:.\Generated_Source\PSoC5/USBFS_1_std.c ****                             USBFS_1_deviceStatus &= (uint8)~USBFS_1_DEVICE_STATUS_REMOTE_WAKEUP;
 286:.\Generated_Source\PSoC5/USBFS_1_std.c ****                             requestHandled = USBFS_1_InitNoDataControlTransfer();
 287:.\Generated_Source\PSoC5/USBFS_1_std.c ****                         }
 288:.\Generated_Source\PSoC5/USBFS_1_std.c ****                         break;
 289:.\Generated_Source\PSoC5/USBFS_1_std.c ****                     case USBFS_1_RQST_RCPT_IFC:
 290:.\Generated_Source\PSoC5/USBFS_1_std.c ****                         /* Validate interfaceNumber */
 291:.\Generated_Source\PSoC5/USBFS_1_std.c ****                         if (CY_GET_REG8(USBFS_1_wIndexLo) < USBFS_1_MAX_INTERFACES_NUMBER)
 292:.\Generated_Source\PSoC5/USBFS_1_std.c ****                         {
 293:.\Generated_Source\PSoC5/USBFS_1_std.c ****                             USBFS_1_interfaceStatus[CY_GET_REG8(USBFS_1_wIndexLo)] &=
 294:.\Generated_Source\PSoC5/USBFS_1_std.c ****                                                                 (uint8)~(CY_GET_REG8(USBFS_1_wValue
 295:.\Generated_Source\PSoC5/USBFS_1_std.c ****                             requestHandled = USBFS_1_InitNoDataControlTransfer();
 296:.\Generated_Source\PSoC5/USBFS_1_std.c ****                         }
 297:.\Generated_Source\PSoC5/USBFS_1_std.c ****                         break;
 298:.\Generated_Source\PSoC5/USBFS_1_std.c ****                     default:    /* requestHandled is initialized as FALSE by default */
 299:.\Generated_Source\PSoC5/USBFS_1_std.c ****                         break;
 300:.\Generated_Source\PSoC5/USBFS_1_std.c ****                 }
 301:.\Generated_Source\PSoC5/USBFS_1_std.c ****                 break;
 302:.\Generated_Source\PSoC5/USBFS_1_std.c ****             case USBFS_1_SET_FEATURE:
 303:.\Generated_Source\PSoC5/USBFS_1_std.c ****                 switch (CY_GET_REG8(USBFS_1_bmRequestType) & USBFS_1_RQST_RCPT_MASK)
 304:.\Generated_Source\PSoC5/USBFS_1_std.c ****                 {
 305:.\Generated_Source\PSoC5/USBFS_1_std.c ****                     case USBFS_1_RQST_RCPT_EP:
 306:.\Generated_Source\PSoC5/USBFS_1_std.c ****                         if (CY_GET_REG8(USBFS_1_wValueLo) == USBFS_1_ENDPOINT_HALT)
 307:.\Generated_Source\PSoC5/USBFS_1_std.c ****                         {
 308:.\Generated_Source\PSoC5/USBFS_1_std.c ****                             requestHandled = USBFS_1_SetEndpointHalt();
 309:.\Generated_Source\PSoC5/USBFS_1_std.c ****                         }
 310:.\Generated_Source\PSoC5/USBFS_1_std.c ****                         break;
 311:.\Generated_Source\PSoC5/USBFS_1_std.c ****                     case USBFS_1_RQST_RCPT_DEV:
 312:.\Generated_Source\PSoC5/USBFS_1_std.c ****                         /* Set device REMOTE_WAKEUP */
 313:.\Generated_Source\PSoC5/USBFS_1_std.c ****                         if (CY_GET_REG8(USBFS_1_wValueLo) == USBFS_1_DEVICE_REMOTE_WAKEUP)
 314:.\Generated_Source\PSoC5/USBFS_1_std.c ****                         {
 315:.\Generated_Source\PSoC5/USBFS_1_std.c ****                             USBFS_1_deviceStatus |= USBFS_1_DEVICE_STATUS_REMOTE_WAKEUP;
 316:.\Generated_Source\PSoC5/USBFS_1_std.c ****                             requestHandled = USBFS_1_InitNoDataControlTransfer();
ARM GAS  C:\Users\Ian\AppData\Local\Temp\ccrzCaTu.s 			page 7


 317:.\Generated_Source\PSoC5/USBFS_1_std.c ****                         }
 318:.\Generated_Source\PSoC5/USBFS_1_std.c ****                         break;
 319:.\Generated_Source\PSoC5/USBFS_1_std.c ****                     case USBFS_1_RQST_RCPT_IFC:
 320:.\Generated_Source\PSoC5/USBFS_1_std.c ****                         /* Validate interfaceNumber */
 321:.\Generated_Source\PSoC5/USBFS_1_std.c ****                         if (CY_GET_REG8(USBFS_1_wIndexLo) < USBFS_1_MAX_INTERFACES_NUMBER)
 322:.\Generated_Source\PSoC5/USBFS_1_std.c ****                         {
 323:.\Generated_Source\PSoC5/USBFS_1_std.c ****                             USBFS_1_interfaceStatus[CY_GET_REG8(USBFS_1_wIndexLo)] &=
 324:.\Generated_Source\PSoC5/USBFS_1_std.c ****                                                                 (uint8)~(CY_GET_REG8(USBFS_1_wValue
 325:.\Generated_Source\PSoC5/USBFS_1_std.c ****                             requestHandled = USBFS_1_InitNoDataControlTransfer();
 326:.\Generated_Source\PSoC5/USBFS_1_std.c ****                         }
 327:.\Generated_Source\PSoC5/USBFS_1_std.c ****                         break;
 328:.\Generated_Source\PSoC5/USBFS_1_std.c ****                     default:    /* requestHandled is initialized as FALSE by default */
 329:.\Generated_Source\PSoC5/USBFS_1_std.c ****                         break;
 330:.\Generated_Source\PSoC5/USBFS_1_std.c ****                 }
 331:.\Generated_Source\PSoC5/USBFS_1_std.c ****                 break;
 332:.\Generated_Source\PSoC5/USBFS_1_std.c ****             default:    /* requestHandled is initialized as FALSE by default */
 333:.\Generated_Source\PSoC5/USBFS_1_std.c ****                 break;
 334:.\Generated_Source\PSoC5/USBFS_1_std.c ****         }
 335:.\Generated_Source\PSoC5/USBFS_1_std.c ****     }
 336:.\Generated_Source\PSoC5/USBFS_1_std.c ****     return(requestHandled);
 337:.\Generated_Source\PSoC5/USBFS_1_std.c **** }
 338:.\Generated_Source\PSoC5/USBFS_1_std.c **** 
 339:.\Generated_Source\PSoC5/USBFS_1_std.c **** 
 340:.\Generated_Source\PSoC5/USBFS_1_std.c **** #if defined(USBFS_1_ENABLE_IDSN_STRING)
 341:.\Generated_Source\PSoC5/USBFS_1_std.c **** 
 342:.\Generated_Source\PSoC5/USBFS_1_std.c ****     /***************************************************************************
 343:.\Generated_Source\PSoC5/USBFS_1_std.c ****     * Function Name: USBFS_1_ReadDieID
 344:.\Generated_Source\PSoC5/USBFS_1_std.c ****     ****************************************************************************
 345:.\Generated_Source\PSoC5/USBFS_1_std.c ****     *
 346:.\Generated_Source\PSoC5/USBFS_1_std.c ****     * Summary:
 347:.\Generated_Source\PSoC5/USBFS_1_std.c ****     *  This routine read Die ID and generate Serial Number string descriptor.
 348:.\Generated_Source\PSoC5/USBFS_1_std.c ****     *
 349:.\Generated_Source\PSoC5/USBFS_1_std.c ****     * Parameters:
 350:.\Generated_Source\PSoC5/USBFS_1_std.c ****     *  descr:  pointer on string descriptor.
 351:.\Generated_Source\PSoC5/USBFS_1_std.c ****     *
 352:.\Generated_Source\PSoC5/USBFS_1_std.c ****     * Return:
 353:.\Generated_Source\PSoC5/USBFS_1_std.c ****     *  None.
 354:.\Generated_Source\PSoC5/USBFS_1_std.c ****     *
 355:.\Generated_Source\PSoC5/USBFS_1_std.c ****     * Reentrant:
 356:.\Generated_Source\PSoC5/USBFS_1_std.c ****     *  No.
 357:.\Generated_Source\PSoC5/USBFS_1_std.c ****     *
 358:.\Generated_Source\PSoC5/USBFS_1_std.c ****     ***************************************************************************/
 359:.\Generated_Source\PSoC5/USBFS_1_std.c ****     void USBFS_1_ReadDieID(uint8 descr[]) 
 360:.\Generated_Source\PSoC5/USBFS_1_std.c ****     {
 361:.\Generated_Source\PSoC5/USBFS_1_std.c ****         uint8 i;
 362:.\Generated_Source\PSoC5/USBFS_1_std.c ****         uint8 j = 0u;
 363:.\Generated_Source\PSoC5/USBFS_1_std.c ****         uint8 value;
 364:.\Generated_Source\PSoC5/USBFS_1_std.c ****         const char8 CYCODE hex[16u] = "0123456789ABCDEF";
 365:.\Generated_Source\PSoC5/USBFS_1_std.c **** 
 366:.\Generated_Source\PSoC5/USBFS_1_std.c ****         /* Check descriptor validation */
 367:.\Generated_Source\PSoC5/USBFS_1_std.c ****         if( descr != NULL)
 368:.\Generated_Source\PSoC5/USBFS_1_std.c ****         {
 369:.\Generated_Source\PSoC5/USBFS_1_std.c ****             descr[0u] = USBFS_1_IDSN_DESCR_LENGTH;
 370:.\Generated_Source\PSoC5/USBFS_1_std.c ****             descr[1u] = USBFS_1_DESCR_STRING;
 371:.\Generated_Source\PSoC5/USBFS_1_std.c **** 
 372:.\Generated_Source\PSoC5/USBFS_1_std.c ****             /* fill descriptor */
 373:.\Generated_Source\PSoC5/USBFS_1_std.c ****             for(i = 2u; i < USBFS_1_IDSN_DESCR_LENGTH; i += 4u)
ARM GAS  C:\Users\Ian\AppData\Local\Temp\ccrzCaTu.s 			page 8


 374:.\Generated_Source\PSoC5/USBFS_1_std.c ****             {
 375:.\Generated_Source\PSoC5/USBFS_1_std.c ****                 value = CY_GET_XTND_REG8((void CYFAR *)(USBFS_1_DIE_ID + j));
 376:.\Generated_Source\PSoC5/USBFS_1_std.c ****                 j++;
 377:.\Generated_Source\PSoC5/USBFS_1_std.c ****                 descr[i] = (uint8)hex[value >> 4u];
 378:.\Generated_Source\PSoC5/USBFS_1_std.c ****                 descr[i + 2u] = (uint8)hex[value & 0x0Fu];
 379:.\Generated_Source\PSoC5/USBFS_1_std.c ****             }
 380:.\Generated_Source\PSoC5/USBFS_1_std.c ****         }
 381:.\Generated_Source\PSoC5/USBFS_1_std.c ****     }
 382:.\Generated_Source\PSoC5/USBFS_1_std.c **** 
 383:.\Generated_Source\PSoC5/USBFS_1_std.c **** #endif /*  USBFS_1_ENABLE_IDSN_STRING */
 384:.\Generated_Source\PSoC5/USBFS_1_std.c **** 
 385:.\Generated_Source\PSoC5/USBFS_1_std.c **** 
 386:.\Generated_Source\PSoC5/USBFS_1_std.c **** /*******************************************************************************
 387:.\Generated_Source\PSoC5/USBFS_1_std.c **** * Function Name: USBFS_1_ConfigReg
 388:.\Generated_Source\PSoC5/USBFS_1_std.c **** ********************************************************************************
 389:.\Generated_Source\PSoC5/USBFS_1_std.c **** *
 390:.\Generated_Source\PSoC5/USBFS_1_std.c **** * Summary:
 391:.\Generated_Source\PSoC5/USBFS_1_std.c **** *  This routine configures hardware registers from the variables.
 392:.\Generated_Source\PSoC5/USBFS_1_std.c **** *  It is called from USBFS_1_Config() function and from RestoreConfig
 393:.\Generated_Source\PSoC5/USBFS_1_std.c **** *  after Wakeup.
 394:.\Generated_Source\PSoC5/USBFS_1_std.c **** *
 395:.\Generated_Source\PSoC5/USBFS_1_std.c **** * Parameters:
 396:.\Generated_Source\PSoC5/USBFS_1_std.c **** *  None.
 397:.\Generated_Source\PSoC5/USBFS_1_std.c **** *
 398:.\Generated_Source\PSoC5/USBFS_1_std.c **** * Return:
 399:.\Generated_Source\PSoC5/USBFS_1_std.c **** *  None.
 400:.\Generated_Source\PSoC5/USBFS_1_std.c **** *
 401:.\Generated_Source\PSoC5/USBFS_1_std.c **** *******************************************************************************/
 402:.\Generated_Source\PSoC5/USBFS_1_std.c **** void USBFS_1_ConfigReg(void) 
 403:.\Generated_Source\PSoC5/USBFS_1_std.c **** {
  27              		.loc 1 403 0
  28              		.cfi_startproc
  29              		@ args = 0, pretend = 0, frame = 0
  30              		@ frame_needed = 0, uses_anonymous_args = 0
  31 0000 F0B5     		push	{r4, r5, r6, r7, lr}
  32              		.cfi_def_cfa_offset 20
  33              		.cfi_offset 4, -20
  34              		.cfi_offset 5, -16
  35              		.cfi_offset 6, -12
  36              		.cfi_offset 7, -8
  37              		.cfi_offset 14, -4
  38              	.LVL0:
 404:.\Generated_Source\PSoC5/USBFS_1_std.c ****     uint8 ep;
 405:.\Generated_Source\PSoC5/USBFS_1_std.c ****     uint8 i;
 406:.\Generated_Source\PSoC5/USBFS_1_std.c ****     #if(USBFS_1_EP_MM == USBFS_1__EP_DMAAUTO)
 407:.\Generated_Source\PSoC5/USBFS_1_std.c ****         uint8 epType = 0u;
 408:.\Generated_Source\PSoC5/USBFS_1_std.c ****     #endif /*  USBFS_1_EP_MM == USBFS_1__EP_DMAAUTO */
 409:.\Generated_Source\PSoC5/USBFS_1_std.c **** 
 410:.\Generated_Source\PSoC5/USBFS_1_std.c ****     /* Set the endpoint buffer addresses */
 411:.\Generated_Source\PSoC5/USBFS_1_std.c ****     ep = USBFS_1_EP1;
 412:.\Generated_Source\PSoC5/USBFS_1_std.c ****     for (i = 0u; i < 0x80u; i+= 0x10u)
  39              		.loc 1 412 0
  40 0002 0024     		movs	r4, #0
 411:.\Generated_Source\PSoC5/USBFS_1_std.c ****     for (i = 0u; i < 0x80u; i+= 0x10u)
  41              		.loc 1 411 0
  42 0004 0120     		movs	r0, #1
  43              		.loc 1 412 0
ARM GAS  C:\Users\Ian\AppData\Local\Temp\ccrzCaTu.s 			page 9


  44 0006 52E0     		b	.L2
  45              	.LVL1:
  46              	.L6:
 413:.\Generated_Source\PSoC5/USBFS_1_std.c ****     {
 414:.\Generated_Source\PSoC5/USBFS_1_std.c ****         CY_SET_REG8((reg8 *)(USBFS_1_ARB_EP1_CFG_IND + i), USBFS_1_ARB_EPX_CFG_DEFAULT);
  47              		.loc 1 414 0
  48 0008 2546     		mov	r5, r4
  49 000a 04F18043 		add	r3, r4, #1073741824
  50 000e 03F5C143 		add	r3, r3, #24704
  51 0012 0C22     		movs	r2, #12
  52 0014 1A70     		strb	r2, [r3]
 415:.\Generated_Source\PSoC5/USBFS_1_std.c ****         #if(USBFS_1_EP_MM != USBFS_1__EP_MANUAL)
 416:.\Generated_Source\PSoC5/USBFS_1_std.c ****             /* Enable all Arbiter EP Interrupts : err, buf under, buf over, dma gnt(mode2 only), in
 417:.\Generated_Source\PSoC5/USBFS_1_std.c ****             CY_SET_REG8((reg8 *)(USBFS_1_ARB_EP1_INT_EN_IND + i), USBFS_1_ARB_EPX_INT_MASK);
 418:.\Generated_Source\PSoC5/USBFS_1_std.c ****         #endif   /*  USBFS_1_EP_MM != USBFS_1__EP_MANUAL */
 419:.\Generated_Source\PSoC5/USBFS_1_std.c **** 
 420:.\Generated_Source\PSoC5/USBFS_1_std.c ****         if(USBFS_1_EP[ep].epMode != USBFS_1_MODE_DISABLE)
  53              		.loc 1 420 0
  54 0016 0246     		mov	r2, r0
  55 0018 00EB4003 		add	r3, r0, r0, lsl #1
  56 001c 9B00     		lsls	r3, r3, #2
  57 001e 2749     		ldr	r1, .L8
  58 0020 0B44     		add	r3, r3, r1
  59 0022 5B79     		ldrb	r3, [r3, #5]	@ zero_extendqisi2
  60 0024 13F0FF0F 		tst	r3, #255
  61 0028 0FD0     		beq	.L3
 421:.\Generated_Source\PSoC5/USBFS_1_std.c ****         {
 422:.\Generated_Source\PSoC5/USBFS_1_std.c ****             if((USBFS_1_EP[ep].addr & USBFS_1_DIR_IN) != 0u )
  62              		.loc 1 422 0
  63 002a 00EB4003 		add	r3, r0, r0, lsl #1
  64 002e 9B00     		lsls	r3, r3, #2
  65 0030 0B44     		add	r3, r3, r1
  66 0032 1B79     		ldrb	r3, [r3, #4]	@ zero_extendqisi2
  67 0034 13F0800F 		tst	r3, #128
  68 0038 03D0     		beq	.L4
 423:.\Generated_Source\PSoC5/USBFS_1_std.c ****             {
 424:.\Generated_Source\PSoC5/USBFS_1_std.c ****                 CY_SET_REG8((reg8 *)(USBFS_1_SIE_EP1_CR0_IND + i), USBFS_1_MODE_NAK_IN);
  69              		.loc 1 424 0
  70 003a 0C21     		movs	r1, #12
  71 003c 204B     		ldr	r3, .L8+4
  72 003e E154     		strb	r1, [r4, r3]
  73 0040 06E0     		b	.L5
  74              	.L4:
 425:.\Generated_Source\PSoC5/USBFS_1_std.c ****             }
 426:.\Generated_Source\PSoC5/USBFS_1_std.c ****             else
 427:.\Generated_Source\PSoC5/USBFS_1_std.c ****             {
 428:.\Generated_Source\PSoC5/USBFS_1_std.c ****                 CY_SET_REG8((reg8 *)(USBFS_1_SIE_EP1_CR0_IND + i), USBFS_1_MODE_NAK_OUT);
  75              		.loc 1 428 0
  76 0042 0821     		movs	r1, #8
  77 0044 1E4B     		ldr	r3, .L8+4
  78 0046 E154     		strb	r1, [r4, r3]
  79 0048 02E0     		b	.L5
  80              	.L3:
 429:.\Generated_Source\PSoC5/USBFS_1_std.c ****                 /* Prepare EP type mask for automatic memory allocation */
 430:.\Generated_Source\PSoC5/USBFS_1_std.c ****                 #if(USBFS_1_EP_MM == USBFS_1__EP_DMAAUTO)
 431:.\Generated_Source\PSoC5/USBFS_1_std.c ****                     epType |= (uint8)(0x01u << (ep - USBFS_1_EP1));
 432:.\Generated_Source\PSoC5/USBFS_1_std.c ****                 #endif /*  USBFS_1_EP_MM == USBFS_1__EP_DMAAUTO */
ARM GAS  C:\Users\Ian\AppData\Local\Temp\ccrzCaTu.s 			page 10


 433:.\Generated_Source\PSoC5/USBFS_1_std.c ****             }
 434:.\Generated_Source\PSoC5/USBFS_1_std.c ****         }
 435:.\Generated_Source\PSoC5/USBFS_1_std.c ****         else
 436:.\Generated_Source\PSoC5/USBFS_1_std.c ****         {
 437:.\Generated_Source\PSoC5/USBFS_1_std.c ****             CY_SET_REG8((reg8 *)(USBFS_1_SIE_EP1_CR0_IND + i), USBFS_1_MODE_STALL_DATA_EP);
  81              		.loc 1 437 0
  82 004a 8021     		movs	r1, #128
  83 004c 1C4B     		ldr	r3, .L8+4
  84 004e E154     		strb	r1, [r4, r3]
  85              	.L5:
 438:.\Generated_Source\PSoC5/USBFS_1_std.c ****         }
 439:.\Generated_Source\PSoC5/USBFS_1_std.c **** 
 440:.\Generated_Source\PSoC5/USBFS_1_std.c ****         #if(USBFS_1_EP_MM != USBFS_1__EP_DMAAUTO)
 441:.\Generated_Source\PSoC5/USBFS_1_std.c ****             CY_SET_REG8((reg8 *)(USBFS_1_SIE_EP1_CNT0_IND + i),   USBFS_1_EP[ep].bufferSize >> 8u);
  86              		.loc 1 441 0 discriminator 2
  87 0050 1A4F     		ldr	r7, .L8
  88 0052 5300     		lsls	r3, r2, #1
  89 0054 9918     		adds	r1, r3, r2
  90 0056 8900     		lsls	r1, r1, #2
  91 0058 3944     		add	r1, r1, r7
  92 005a 0E89     		ldrh	r6, [r1, #8]
  93 005c C6F30726 		ubfx	r6, r6, #8, #8
  94 0060 DFF86CE0 		ldr	lr, .L8+20
  95 0064 05F80E60 		strb	r6, [r5, lr]
 442:.\Generated_Source\PSoC5/USBFS_1_std.c ****             CY_SET_REG8((reg8 *)(USBFS_1_SIE_EP1_CNT1_IND + i),   USBFS_1_EP[ep].bufferSize & 0xFFu
  96              		.loc 1 442 0 discriminator 2
  97 0068 0E89     		ldrh	r6, [r1, #8]
  98 006a F6B2     		uxtb	r6, r6
  99 006c 0EF1010E 		add	lr, lr, #1
 100 0070 05F80E60 		strb	r6, [r5, lr]
 443:.\Generated_Source\PSoC5/USBFS_1_std.c **** 
 444:.\Generated_Source\PSoC5/USBFS_1_std.c ****             CY_SET_REG8((reg8 *)(USBFS_1_ARB_RW1_RA_IND + i),     USBFS_1_EP[ep].buffOffset & 0xFFu
 101              		.loc 1 444 0 discriminator 2
 102 0074 CE88     		ldrh	r6, [r1, #6]
 103 0076 F6B2     		uxtb	r6, r6
 104 0078 0EF1790E 		add	lr, lr, #121
 105 007c 05F80E60 		strb	r6, [r5, lr]
 445:.\Generated_Source\PSoC5/USBFS_1_std.c ****             CY_SET_REG8((reg8 *)(USBFS_1_ARB_RW1_RA_MSB_IND + i), USBFS_1_EP[ep].buffOffset >> 8u);
 106              		.loc 1 445 0 discriminator 2
 107 0080 CE88     		ldrh	r6, [r1, #6]
 108 0082 C6F30726 		ubfx	r6, r6, #8, #8
 109 0086 0EF1010E 		add	lr, lr, #1
 110 008a 05F80E60 		strb	r6, [r5, lr]
 446:.\Generated_Source\PSoC5/USBFS_1_std.c ****             CY_SET_REG8((reg8 *)(USBFS_1_ARB_RW1_WA_IND + i),     USBFS_1_EP[ep].buffOffset & 0xFFu
 111              		.loc 1 446 0 discriminator 2
 112 008e C988     		ldrh	r1, [r1, #6]
 113 0090 C9B2     		uxtb	r1, r1
 114 0092 0C4E     		ldr	r6, .L8+8
 115 0094 A955     		strb	r1, [r5, r6]
 447:.\Generated_Source\PSoC5/USBFS_1_std.c ****             CY_SET_REG8((reg8 *)(USBFS_1_ARB_RW1_WA_MSB_IND + i), USBFS_1_EP[ep].buffOffset >> 8u);
 116              		.loc 1 447 0 discriminator 2
 117 0096 1344     		add	r3, r3, r2
 118 0098 9B00     		lsls	r3, r3, #2
 119 009a 3B44     		add	r3, r3, r7
 120 009c DB88     		ldrh	r3, [r3, #6]
 121 009e C3F30723 		ubfx	r3, r3, #8, #8
 122 00a2 094A     		ldr	r2, .L8+12
ARM GAS  C:\Users\Ian\AppData\Local\Temp\ccrzCaTu.s 			page 11


 123 00a4 AB54     		strb	r3, [r5, r2]
 448:.\Generated_Source\PSoC5/USBFS_1_std.c ****         #endif /*  USBFS_1_EP_MM != USBFS_1__EP_DMAAUTO */
 449:.\Generated_Source\PSoC5/USBFS_1_std.c **** 
 450:.\Generated_Source\PSoC5/USBFS_1_std.c ****         ep++;
 124              		.loc 1 450 0 discriminator 2
 125 00a6 0130     		adds	r0, r0, #1
 126              	.LVL2:
 127 00a8 C0B2     		uxtb	r0, r0
 128              	.LVL3:
 412:.\Generated_Source\PSoC5/USBFS_1_std.c ****     {
 129              		.loc 1 412 0 discriminator 2
 130 00aa 1034     		adds	r4, r4, #16
 131              	.LVL4:
 132 00ac E4B2     		uxtb	r4, r4
 133              	.LVL5:
 134              	.L2:
 412:.\Generated_Source\PSoC5/USBFS_1_std.c ****     {
 135              		.loc 1 412 0 is_stmt 0 discriminator 1
 136 00ae 14F0800F 		tst	r4, #128
 137 00b2 A9D0     		beq	.L6
 451:.\Generated_Source\PSoC5/USBFS_1_std.c ****     }
 452:.\Generated_Source\PSoC5/USBFS_1_std.c **** 
 453:.\Generated_Source\PSoC5/USBFS_1_std.c ****     #if(USBFS_1_EP_MM == USBFS_1__EP_DMAAUTO)
 454:.\Generated_Source\PSoC5/USBFS_1_std.c ****          /* BUF_SIZE depend on DMA_THRESS value: 55-32 bytes  44-16 bytes 33-8 bytes 22-4 bytes 11-
 455:.\Generated_Source\PSoC5/USBFS_1_std.c ****         USBFS_1_BUF_SIZE_REG = USBFS_1_DMA_BUF_SIZE;
 456:.\Generated_Source\PSoC5/USBFS_1_std.c ****         USBFS_1_DMA_THRES_REG = USBFS_1_DMA_BYTES_PER_BURST;   /* DMA burst threshold */
 457:.\Generated_Source\PSoC5/USBFS_1_std.c ****         USBFS_1_DMA_THRES_MSB_REG = 0u;
 458:.\Generated_Source\PSoC5/USBFS_1_std.c ****         USBFS_1_EP_ACTIVE_REG = USBFS_1_ARB_INT_MASK;
 459:.\Generated_Source\PSoC5/USBFS_1_std.c ****         USBFS_1_EP_TYPE_REG = epType;
 460:.\Generated_Source\PSoC5/USBFS_1_std.c ****         /* Cfg_cmp bit set to 1 once configuration is complete. */
 461:.\Generated_Source\PSoC5/USBFS_1_std.c ****         USBFS_1_ARB_CFG_REG = USBFS_1_ARB_CFG_AUTO_DMA | USBFS_1_ARB_CFG_AUTO_MEM |
 462:.\Generated_Source\PSoC5/USBFS_1_std.c ****                                        USBFS_1_ARB_CFG_CFG_CPM;
 463:.\Generated_Source\PSoC5/USBFS_1_std.c ****         /* Cfg_cmp bit set to 0 during configuration of PFSUSB Registers. */
 464:.\Generated_Source\PSoC5/USBFS_1_std.c ****         USBFS_1_ARB_CFG_REG = USBFS_1_ARB_CFG_AUTO_DMA | USBFS_1_ARB_CFG_AUTO_MEM;
 465:.\Generated_Source\PSoC5/USBFS_1_std.c ****     #endif /*  USBFS_1_EP_MM == USBFS_1__EP_DMAAUTO */
 466:.\Generated_Source\PSoC5/USBFS_1_std.c **** 
 467:.\Generated_Source\PSoC5/USBFS_1_std.c ****     CY_SET_REG8(USBFS_1_SIE_EP_INT_EN_PTR, 0xFFu);
 138              		.loc 1 467 0 is_stmt 1
 139 00b4 FF22     		movs	r2, #255
 140 00b6 054B     		ldr	r3, .L8+16
 141 00b8 1A70     		strb	r2, [r3]
 142 00ba F0BD     		pop	{r4, r5, r6, r7, pc}
 143              	.LVL6:
 144              	.L9:
 145              		.align	2
 146              	.L8:
 147 00bc 00000000 		.word	USBFS_1_EP
 148 00c0 0E600040 		.word	1073766414
 149 00c4 84600040 		.word	1073766532
 150 00c8 85600040 		.word	1073766533
 151 00cc 0A600040 		.word	1073766410
 152 00d0 0C600040 		.word	1073766412
 153              		.cfi_endproc
 154              	.LFE1:
 155              		.size	USBFS_1_ConfigReg, .-USBFS_1_ConfigReg
 156              		.section	.text.USBFS_1_GetConfigTablePtr,"ax",%progbits
 157              		.align	2
ARM GAS  C:\Users\Ian\AppData\Local\Temp\ccrzCaTu.s 			page 12


 158              		.global	USBFS_1_GetConfigTablePtr
 159              		.thumb
 160              		.thumb_func
 161              		.type	USBFS_1_GetConfigTablePtr, %function
 162              	USBFS_1_GetConfigTablePtr:
 163              	.LFB4:
 468:.\Generated_Source\PSoC5/USBFS_1_std.c **** }
 469:.\Generated_Source\PSoC5/USBFS_1_std.c **** 
 470:.\Generated_Source\PSoC5/USBFS_1_std.c **** 
 471:.\Generated_Source\PSoC5/USBFS_1_std.c **** /*******************************************************************************
 472:.\Generated_Source\PSoC5/USBFS_1_std.c **** * Function Name: USBFS_1_Config
 473:.\Generated_Source\PSoC5/USBFS_1_std.c **** ********************************************************************************
 474:.\Generated_Source\PSoC5/USBFS_1_std.c **** *
 475:.\Generated_Source\PSoC5/USBFS_1_std.c **** * Summary:
 476:.\Generated_Source\PSoC5/USBFS_1_std.c **** *  This routine configures endpoints for the entire configuration by scanning
 477:.\Generated_Source\PSoC5/USBFS_1_std.c **** *  the configuration descriptor.
 478:.\Generated_Source\PSoC5/USBFS_1_std.c **** *
 479:.\Generated_Source\PSoC5/USBFS_1_std.c **** * Parameters:
 480:.\Generated_Source\PSoC5/USBFS_1_std.c **** *  clearAltSetting: It configures the bAlternateSetting 0 for each interface.
 481:.\Generated_Source\PSoC5/USBFS_1_std.c **** *
 482:.\Generated_Source\PSoC5/USBFS_1_std.c **** * Return:
 483:.\Generated_Source\PSoC5/USBFS_1_std.c **** *  None.
 484:.\Generated_Source\PSoC5/USBFS_1_std.c **** *
 485:.\Generated_Source\PSoC5/USBFS_1_std.c **** * USBFS_1_interfaceClass - Initialized class array for each interface.
 486:.\Generated_Source\PSoC5/USBFS_1_std.c **** *   It is used for handling Class specific requests depend on interface class.
 487:.\Generated_Source\PSoC5/USBFS_1_std.c **** *   Different classes in multiple Alternate settings does not supported.
 488:.\Generated_Source\PSoC5/USBFS_1_std.c **** *
 489:.\Generated_Source\PSoC5/USBFS_1_std.c **** * Reentrant:
 490:.\Generated_Source\PSoC5/USBFS_1_std.c **** *  No.
 491:.\Generated_Source\PSoC5/USBFS_1_std.c **** *
 492:.\Generated_Source\PSoC5/USBFS_1_std.c **** *******************************************************************************/
 493:.\Generated_Source\PSoC5/USBFS_1_std.c **** void USBFS_1_Config(uint8 clearAltSetting) 
 494:.\Generated_Source\PSoC5/USBFS_1_std.c **** {
 495:.\Generated_Source\PSoC5/USBFS_1_std.c ****     uint8 ep;
 496:.\Generated_Source\PSoC5/USBFS_1_std.c ****     uint8 cur_ep;
 497:.\Generated_Source\PSoC5/USBFS_1_std.c ****     uint8 i;
 498:.\Generated_Source\PSoC5/USBFS_1_std.c ****     uint8 epType;
 499:.\Generated_Source\PSoC5/USBFS_1_std.c ****     const uint8 *pDescr;
 500:.\Generated_Source\PSoC5/USBFS_1_std.c ****     #if(USBFS_1_EP_MM != USBFS_1__EP_DMAAUTO)
 501:.\Generated_Source\PSoC5/USBFS_1_std.c ****         uint16 buffCount = 0u;
 502:.\Generated_Source\PSoC5/USBFS_1_std.c ****     #endif /*  USBFS_1_EP_MM != USBFS_1__EP_DMAAUTO */
 503:.\Generated_Source\PSoC5/USBFS_1_std.c **** 
 504:.\Generated_Source\PSoC5/USBFS_1_std.c ****     const T_USBFS_1_LUT CYCODE *pTmp;
 505:.\Generated_Source\PSoC5/USBFS_1_std.c ****     const T_USBFS_1_EP_SETTINGS_BLOCK CYCODE *pEP;
 506:.\Generated_Source\PSoC5/USBFS_1_std.c **** 
 507:.\Generated_Source\PSoC5/USBFS_1_std.c ****     /* Clear all of the endpoints */
 508:.\Generated_Source\PSoC5/USBFS_1_std.c ****     for (ep = 0u; ep < USBFS_1_MAX_EP; ep++)
 509:.\Generated_Source\PSoC5/USBFS_1_std.c ****     {
 510:.\Generated_Source\PSoC5/USBFS_1_std.c ****         USBFS_1_EP[ep].attrib = 0u;
 511:.\Generated_Source\PSoC5/USBFS_1_std.c ****         USBFS_1_EP[ep].hwEpState = 0u;
 512:.\Generated_Source\PSoC5/USBFS_1_std.c ****         USBFS_1_EP[ep].apiEpState = USBFS_1_NO_EVENT_PENDING;
 513:.\Generated_Source\PSoC5/USBFS_1_std.c ****         USBFS_1_EP[ep].epToggle = 0u;
 514:.\Generated_Source\PSoC5/USBFS_1_std.c ****         USBFS_1_EP[ep].epMode = USBFS_1_MODE_DISABLE;
 515:.\Generated_Source\PSoC5/USBFS_1_std.c ****         USBFS_1_EP[ep].bufferSize = 0u;
 516:.\Generated_Source\PSoC5/USBFS_1_std.c ****         USBFS_1_EP[ep].interface = 0u;
 517:.\Generated_Source\PSoC5/USBFS_1_std.c **** 
 518:.\Generated_Source\PSoC5/USBFS_1_std.c ****     }
ARM GAS  C:\Users\Ian\AppData\Local\Temp\ccrzCaTu.s 			page 13


 519:.\Generated_Source\PSoC5/USBFS_1_std.c **** 
 520:.\Generated_Source\PSoC5/USBFS_1_std.c ****     /* Clear Alternate settings for all interfaces */
 521:.\Generated_Source\PSoC5/USBFS_1_std.c ****     if(clearAltSetting != 0u)
 522:.\Generated_Source\PSoC5/USBFS_1_std.c ****     {
 523:.\Generated_Source\PSoC5/USBFS_1_std.c ****         for (i = 0u; i < USBFS_1_MAX_INTERFACES_NUMBER; i++)
 524:.\Generated_Source\PSoC5/USBFS_1_std.c ****         {
 525:.\Generated_Source\PSoC5/USBFS_1_std.c ****             USBFS_1_interfaceSetting[i] = 0x00u;
 526:.\Generated_Source\PSoC5/USBFS_1_std.c ****             USBFS_1_interfaceSetting_last[i] = 0x00u;
 527:.\Generated_Source\PSoC5/USBFS_1_std.c ****         }
 528:.\Generated_Source\PSoC5/USBFS_1_std.c ****     }
 529:.\Generated_Source\PSoC5/USBFS_1_std.c **** 
 530:.\Generated_Source\PSoC5/USBFS_1_std.c ****     /* Init Endpoints and Device Status if configured */
 531:.\Generated_Source\PSoC5/USBFS_1_std.c ****     if(USBFS_1_configuration > 0u)
 532:.\Generated_Source\PSoC5/USBFS_1_std.c ****     {
 533:.\Generated_Source\PSoC5/USBFS_1_std.c ****         pTmp = USBFS_1_GetConfigTablePtr(USBFS_1_configuration - 1u);
 534:.\Generated_Source\PSoC5/USBFS_1_std.c ****         /* Set Power status for current configuration */
 535:.\Generated_Source\PSoC5/USBFS_1_std.c ****         pDescr = (const uint8 *)pTmp->p_list;
 536:.\Generated_Source\PSoC5/USBFS_1_std.c ****         if((pDescr[USBFS_1_CONFIG_DESCR_ATTRIB] & USBFS_1_CONFIG_DESCR_ATTRIB_SELF_POWERED) != 0u)
 537:.\Generated_Source\PSoC5/USBFS_1_std.c ****         {
 538:.\Generated_Source\PSoC5/USBFS_1_std.c ****             USBFS_1_deviceStatus |=  USBFS_1_DEVICE_STATUS_SELF_POWERED;
 539:.\Generated_Source\PSoC5/USBFS_1_std.c ****         }
 540:.\Generated_Source\PSoC5/USBFS_1_std.c ****         else
 541:.\Generated_Source\PSoC5/USBFS_1_std.c ****         {
 542:.\Generated_Source\PSoC5/USBFS_1_std.c ****             USBFS_1_deviceStatus &=  (uint8)~USBFS_1_DEVICE_STATUS_SELF_POWERED;
 543:.\Generated_Source\PSoC5/USBFS_1_std.c ****         }
 544:.\Generated_Source\PSoC5/USBFS_1_std.c ****         /* Move to next element */
 545:.\Generated_Source\PSoC5/USBFS_1_std.c ****         pTmp = &pTmp[1u];
 546:.\Generated_Source\PSoC5/USBFS_1_std.c ****         ep = pTmp->c;  /* For this table, c is the number of endpoints configurations  */
 547:.\Generated_Source\PSoC5/USBFS_1_std.c **** 
 548:.\Generated_Source\PSoC5/USBFS_1_std.c ****         #if ((USBFS_1_EP_MA == USBFS_1__MA_DYNAMIC) && \
 549:.\Generated_Source\PSoC5/USBFS_1_std.c ****              (USBFS_1_EP_MM == USBFS_1__EP_MANUAL) )
 550:.\Generated_Source\PSoC5/USBFS_1_std.c ****             /* Configure for dynamic EP memory allocation */
 551:.\Generated_Source\PSoC5/USBFS_1_std.c ****             /* p_list points the endpoint setting table. */
 552:.\Generated_Source\PSoC5/USBFS_1_std.c ****             pEP = (T_USBFS_1_EP_SETTINGS_BLOCK *) pTmp->p_list;
 553:.\Generated_Source\PSoC5/USBFS_1_std.c ****             for (i = 0u; i < ep; i++)
 554:.\Generated_Source\PSoC5/USBFS_1_std.c ****             {
 555:.\Generated_Source\PSoC5/USBFS_1_std.c ****                 /* Compare current Alternate setting with EP Alt */
 556:.\Generated_Source\PSoC5/USBFS_1_std.c ****                 if(USBFS_1_interfaceSetting[pEP->interface] == pEP->altSetting)
 557:.\Generated_Source\PSoC5/USBFS_1_std.c ****                 {
 558:.\Generated_Source\PSoC5/USBFS_1_std.c ****                     cur_ep = pEP->addr & USBFS_1_DIR_UNUSED;
 559:.\Generated_Source\PSoC5/USBFS_1_std.c ****                     epType = pEP->attributes & USBFS_1_EP_TYPE_MASK;
 560:.\Generated_Source\PSoC5/USBFS_1_std.c ****                     if (pEP->addr & USBFS_1_DIR_IN)
 561:.\Generated_Source\PSoC5/USBFS_1_std.c ****                     {
 562:.\Generated_Source\PSoC5/USBFS_1_std.c ****                         /* IN Endpoint */
 563:.\Generated_Source\PSoC5/USBFS_1_std.c ****                         USBFS_1_EP[cur_ep].apiEpState = USBFS_1_EVENT_PENDING;
 564:.\Generated_Source\PSoC5/USBFS_1_std.c ****                         USBFS_1_EP[cur_ep].epMode = (epType == USBFS_1_EP_TYPE_ISOC) ?
 565:.\Generated_Source\PSoC5/USBFS_1_std.c ****                                                         USBFS_1_MODE_ISO_IN : USBFS_1_MODE_ACK_IN;
 566:.\Generated_Source\PSoC5/USBFS_1_std.c ****                         #if defined(USBFS_1_ENABLE_CDC_CLASS)
 567:.\Generated_Source\PSoC5/USBFS_1_std.c ****                             if(((pEP->bMisc == USBFS_1_CLASS_CDC_DATA) ||
 568:.\Generated_Source\PSoC5/USBFS_1_std.c ****                                 (pEP->bMisc == USBFS_1_CLASS_CDC)) &&
 569:.\Generated_Source\PSoC5/USBFS_1_std.c ****                                 (epType != USBFS_1_EP_TYPE_INT))
 570:.\Generated_Source\PSoC5/USBFS_1_std.c ****                             {
 571:.\Generated_Source\PSoC5/USBFS_1_std.c ****                                 USBFS_1_cdc_data_in_ep = cur_ep;
 572:.\Generated_Source\PSoC5/USBFS_1_std.c ****                             }
 573:.\Generated_Source\PSoC5/USBFS_1_std.c ****                         #endif  /*  USBFS_1_ENABLE_CDC_CLASS*/
 574:.\Generated_Source\PSoC5/USBFS_1_std.c ****                         #if ( defined(USBFS_1_ENABLE_MIDI_STREAMING) && \
 575:.\Generated_Source\PSoC5/USBFS_1_std.c ****                                              (USBFS_1_MIDI_IN_BUFF_SIZE > 0) )
ARM GAS  C:\Users\Ian\AppData\Local\Temp\ccrzCaTu.s 			page 14


 576:.\Generated_Source\PSoC5/USBFS_1_std.c ****                             if((pEP->bMisc == USBFS_1_CLASS_AUDIO) &&
 577:.\Generated_Source\PSoC5/USBFS_1_std.c ****                                (epType == USBFS_1_EP_TYPE_BULK))
 578:.\Generated_Source\PSoC5/USBFS_1_std.c ****                             {
 579:.\Generated_Source\PSoC5/USBFS_1_std.c ****                                 USBFS_1_midi_in_ep = cur_ep;
 580:.\Generated_Source\PSoC5/USBFS_1_std.c ****                             }
 581:.\Generated_Source\PSoC5/USBFS_1_std.c ****                         #endif  /*  USBFS_1_ENABLE_MIDI_STREAMING*/
 582:.\Generated_Source\PSoC5/USBFS_1_std.c ****                     }
 583:.\Generated_Source\PSoC5/USBFS_1_std.c ****                     else
 584:.\Generated_Source\PSoC5/USBFS_1_std.c ****                     {
 585:.\Generated_Source\PSoC5/USBFS_1_std.c ****                         /* OUT Endpoint */
 586:.\Generated_Source\PSoC5/USBFS_1_std.c ****                         USBFS_1_EP[cur_ep].apiEpState = USBFS_1_NO_EVENT_PENDING;
 587:.\Generated_Source\PSoC5/USBFS_1_std.c ****                         USBFS_1_EP[cur_ep].epMode = (epType == USBFS_1_EP_TYPE_ISOC) ?
 588:.\Generated_Source\PSoC5/USBFS_1_std.c ****                                                     USBFS_1_MODE_ISO_OUT : USBFS_1_MODE_ACK_OUT;
 589:.\Generated_Source\PSoC5/USBFS_1_std.c ****                         #if defined(USBFS_1_ENABLE_CDC_CLASS)
 590:.\Generated_Source\PSoC5/USBFS_1_std.c ****                             if(((pEP->bMisc == USBFS_1_CLASS_CDC_DATA) ||
 591:.\Generated_Source\PSoC5/USBFS_1_std.c ****                                 (pEP->bMisc == USBFS_1_CLASS_CDC)) &&
 592:.\Generated_Source\PSoC5/USBFS_1_std.c ****                                 (epType != USBFS_1_EP_TYPE_INT))
 593:.\Generated_Source\PSoC5/USBFS_1_std.c ****                             {
 594:.\Generated_Source\PSoC5/USBFS_1_std.c ****                                 USBFS_1_cdc_data_out_ep = cur_ep;
 595:.\Generated_Source\PSoC5/USBFS_1_std.c ****                             }
 596:.\Generated_Source\PSoC5/USBFS_1_std.c ****                         #endif  /*  USBFS_1_ENABLE_CDC_CLASS*/
 597:.\Generated_Source\PSoC5/USBFS_1_std.c ****                         #if ( defined(USBFS_1_ENABLE_MIDI_STREAMING) && \
 598:.\Generated_Source\PSoC5/USBFS_1_std.c ****                                      (USBFS_1_MIDI_OUT_BUFF_SIZE > 0) )
 599:.\Generated_Source\PSoC5/USBFS_1_std.c ****                             if((pEP->bMisc == USBFS_1_CLASS_AUDIO) &&
 600:.\Generated_Source\PSoC5/USBFS_1_std.c ****                                (epType == USBFS_1_EP_TYPE_BULK))
 601:.\Generated_Source\PSoC5/USBFS_1_std.c ****                             {
 602:.\Generated_Source\PSoC5/USBFS_1_std.c ****                                 USBFS_1_midi_out_ep = cur_ep;
 603:.\Generated_Source\PSoC5/USBFS_1_std.c ****                             }
 604:.\Generated_Source\PSoC5/USBFS_1_std.c ****                         #endif  /*  USBFS_1_ENABLE_MIDI_STREAMING*/
 605:.\Generated_Source\PSoC5/USBFS_1_std.c ****                     }
 606:.\Generated_Source\PSoC5/USBFS_1_std.c ****                     USBFS_1_EP[cur_ep].bufferSize = pEP->bufferSize;
 607:.\Generated_Source\PSoC5/USBFS_1_std.c ****                     USBFS_1_EP[cur_ep].addr = pEP->addr;
 608:.\Generated_Source\PSoC5/USBFS_1_std.c ****                     USBFS_1_EP[cur_ep].attrib = pEP->attributes;
 609:.\Generated_Source\PSoC5/USBFS_1_std.c ****                 }
 610:.\Generated_Source\PSoC5/USBFS_1_std.c ****                 pEP = &pEP[1u];
 611:.\Generated_Source\PSoC5/USBFS_1_std.c ****             }
 612:.\Generated_Source\PSoC5/USBFS_1_std.c ****         #else /* Configure for static EP memory allocation  */
 613:.\Generated_Source\PSoC5/USBFS_1_std.c ****             for (i = USBFS_1_EP1; i < USBFS_1_MAX_EP; i++)
 614:.\Generated_Source\PSoC5/USBFS_1_std.c ****             {
 615:.\Generated_Source\PSoC5/USBFS_1_std.c ****                 /* p_list points the endpoint setting table. */
 616:.\Generated_Source\PSoC5/USBFS_1_std.c ****                 pEP = (const T_USBFS_1_EP_SETTINGS_BLOCK CYCODE *) pTmp->p_list;
 617:.\Generated_Source\PSoC5/USBFS_1_std.c ****                 /* Find max length for each EP and select it (length could be different in differen
 618:.\Generated_Source\PSoC5/USBFS_1_std.c ****                 /* but other settings should be correct with regards to Interface alt Setting */
 619:.\Generated_Source\PSoC5/USBFS_1_std.c ****                 for (cur_ep = 0u; cur_ep < ep; cur_ep++)
 620:.\Generated_Source\PSoC5/USBFS_1_std.c ****                 {
 621:.\Generated_Source\PSoC5/USBFS_1_std.c ****                     /* EP count is equal to EP # in table and we found larger EP length than have b
 622:.\Generated_Source\PSoC5/USBFS_1_std.c ****                     if(i == (pEP->addr & USBFS_1_DIR_UNUSED))
 623:.\Generated_Source\PSoC5/USBFS_1_std.c ****                     {
 624:.\Generated_Source\PSoC5/USBFS_1_std.c ****                         if(USBFS_1_EP[i].bufferSize < pEP->bufferSize)
 625:.\Generated_Source\PSoC5/USBFS_1_std.c ****                         {
 626:.\Generated_Source\PSoC5/USBFS_1_std.c ****                             USBFS_1_EP[i].bufferSize = pEP->bufferSize;
 627:.\Generated_Source\PSoC5/USBFS_1_std.c ****                         }
 628:.\Generated_Source\PSoC5/USBFS_1_std.c ****                         /* Compare current Alternate setting with EP Alt*/
 629:.\Generated_Source\PSoC5/USBFS_1_std.c ****                         if(USBFS_1_interfaceSetting[pEP->interface] == pEP->altSetting)
 630:.\Generated_Source\PSoC5/USBFS_1_std.c ****                         {
 631:.\Generated_Source\PSoC5/USBFS_1_std.c ****                             epType = pEP->attributes & USBFS_1_EP_TYPE_MASK;
 632:.\Generated_Source\PSoC5/USBFS_1_std.c ****                             if ((pEP->addr & USBFS_1_DIR_IN) != 0u)
ARM GAS  C:\Users\Ian\AppData\Local\Temp\ccrzCaTu.s 			page 15


 633:.\Generated_Source\PSoC5/USBFS_1_std.c ****                             {
 634:.\Generated_Source\PSoC5/USBFS_1_std.c ****                                 /* IN Endpoint */
 635:.\Generated_Source\PSoC5/USBFS_1_std.c ****                                 USBFS_1_EP[i].apiEpState = USBFS_1_EVENT_PENDING;
 636:.\Generated_Source\PSoC5/USBFS_1_std.c ****                                 USBFS_1_EP[i].epMode = (epType == USBFS_1_EP_TYPE_ISOC) ?
 637:.\Generated_Source\PSoC5/USBFS_1_std.c ****                                                         USBFS_1_MODE_ISO_IN : USBFS_1_MODE_ACK_IN;
 638:.\Generated_Source\PSoC5/USBFS_1_std.c ****                                 /* Find and initialize CDC IN endpoint number */
 639:.\Generated_Source\PSoC5/USBFS_1_std.c ****                                 #if defined(USBFS_1_ENABLE_CDC_CLASS)
 640:.\Generated_Source\PSoC5/USBFS_1_std.c ****                                     if(((pEP->bMisc == USBFS_1_CLASS_CDC_DATA) ||
 641:.\Generated_Source\PSoC5/USBFS_1_std.c ****                                         (pEP->bMisc == USBFS_1_CLASS_CDC)) &&
 642:.\Generated_Source\PSoC5/USBFS_1_std.c ****                                         (epType != USBFS_1_EP_TYPE_INT))
 643:.\Generated_Source\PSoC5/USBFS_1_std.c ****                                     {
 644:.\Generated_Source\PSoC5/USBFS_1_std.c ****                                         USBFS_1_cdc_data_in_ep = i;
 645:.\Generated_Source\PSoC5/USBFS_1_std.c ****                                     }
 646:.\Generated_Source\PSoC5/USBFS_1_std.c ****                                 #endif  /*  USBFS_1_ENABLE_CDC_CLASS*/
 647:.\Generated_Source\PSoC5/USBFS_1_std.c ****                                 #if ( defined(USBFS_1_ENABLE_MIDI_STREAMING) && \
 648:.\Generated_Source\PSoC5/USBFS_1_std.c ****                                              (USBFS_1_MIDI_IN_BUFF_SIZE > 0) )
 649:.\Generated_Source\PSoC5/USBFS_1_std.c ****                                     if((pEP->bMisc == USBFS_1_CLASS_AUDIO) &&
 650:.\Generated_Source\PSoC5/USBFS_1_std.c ****                                        (epType == USBFS_1_EP_TYPE_BULK))
 651:.\Generated_Source\PSoC5/USBFS_1_std.c ****                                     {
 652:.\Generated_Source\PSoC5/USBFS_1_std.c ****                                         USBFS_1_midi_in_ep = i;
 653:.\Generated_Source\PSoC5/USBFS_1_std.c ****                                     }
 654:.\Generated_Source\PSoC5/USBFS_1_std.c ****                                 #endif  /*  USBFS_1_ENABLE_MIDI_STREAMING*/
 655:.\Generated_Source\PSoC5/USBFS_1_std.c ****                             }
 656:.\Generated_Source\PSoC5/USBFS_1_std.c ****                             else
 657:.\Generated_Source\PSoC5/USBFS_1_std.c ****                             {
 658:.\Generated_Source\PSoC5/USBFS_1_std.c ****                                 /* OUT Endpoint */
 659:.\Generated_Source\PSoC5/USBFS_1_std.c ****                                 USBFS_1_EP[i].apiEpState = USBFS_1_NO_EVENT_PENDING;
 660:.\Generated_Source\PSoC5/USBFS_1_std.c ****                                 USBFS_1_EP[i].epMode = (epType == USBFS_1_EP_TYPE_ISOC) ?
 661:.\Generated_Source\PSoC5/USBFS_1_std.c ****                                                     USBFS_1_MODE_ISO_OUT : USBFS_1_MODE_ACK_OUT;
 662:.\Generated_Source\PSoC5/USBFS_1_std.c ****                                 /* Find and initialize CDC IN endpoint number */
 663:.\Generated_Source\PSoC5/USBFS_1_std.c ****                                 #if defined(USBFS_1_ENABLE_CDC_CLASS)
 664:.\Generated_Source\PSoC5/USBFS_1_std.c ****                                     if(((pEP->bMisc == USBFS_1_CLASS_CDC_DATA) ||
 665:.\Generated_Source\PSoC5/USBFS_1_std.c ****                                         (pEP->bMisc == USBFS_1_CLASS_CDC)) &&
 666:.\Generated_Source\PSoC5/USBFS_1_std.c ****                                         (epType != USBFS_1_EP_TYPE_INT))
 667:.\Generated_Source\PSoC5/USBFS_1_std.c ****                                     {
 668:.\Generated_Source\PSoC5/USBFS_1_std.c ****                                         USBFS_1_cdc_data_out_ep = i;
 669:.\Generated_Source\PSoC5/USBFS_1_std.c ****                                     }
 670:.\Generated_Source\PSoC5/USBFS_1_std.c ****                                 #endif  /*  USBFS_1_ENABLE_CDC_CLASS*/
 671:.\Generated_Source\PSoC5/USBFS_1_std.c ****                                 #if ( defined(USBFS_1_ENABLE_MIDI_STREAMING) && \
 672:.\Generated_Source\PSoC5/USBFS_1_std.c ****                                              (USBFS_1_MIDI_OUT_BUFF_SIZE > 0) )
 673:.\Generated_Source\PSoC5/USBFS_1_std.c ****                                     if((pEP->bMisc == USBFS_1_CLASS_AUDIO) &&
 674:.\Generated_Source\PSoC5/USBFS_1_std.c ****                                        (epType == USBFS_1_EP_TYPE_BULK))
 675:.\Generated_Source\PSoC5/USBFS_1_std.c ****                                     {
 676:.\Generated_Source\PSoC5/USBFS_1_std.c ****                                         USBFS_1_midi_out_ep = i;
 677:.\Generated_Source\PSoC5/USBFS_1_std.c ****                                     }
 678:.\Generated_Source\PSoC5/USBFS_1_std.c ****                                 #endif  /*  USBFS_1_ENABLE_MIDI_STREAMING*/
 679:.\Generated_Source\PSoC5/USBFS_1_std.c ****                             }
 680:.\Generated_Source\PSoC5/USBFS_1_std.c ****                             USBFS_1_EP[i].addr = pEP->addr;
 681:.\Generated_Source\PSoC5/USBFS_1_std.c ****                             USBFS_1_EP[i].attrib = pEP->attributes;
 682:.\Generated_Source\PSoC5/USBFS_1_std.c **** 
 683:.\Generated_Source\PSoC5/USBFS_1_std.c ****                             #if(USBFS_1_EP_MM == USBFS_1__EP_DMAAUTO)
 684:.\Generated_Source\PSoC5/USBFS_1_std.c ****                                 break;      /* use first EP setting in Auto memory managment */
 685:.\Generated_Source\PSoC5/USBFS_1_std.c ****                             #endif /*  USBFS_1_EP_MM == USBFS_1__EP_DMAAUTO */
 686:.\Generated_Source\PSoC5/USBFS_1_std.c ****                         }
 687:.\Generated_Source\PSoC5/USBFS_1_std.c ****                     }
 688:.\Generated_Source\PSoC5/USBFS_1_std.c ****                     pEP = &pEP[1u];
 689:.\Generated_Source\PSoC5/USBFS_1_std.c ****                 }
ARM GAS  C:\Users\Ian\AppData\Local\Temp\ccrzCaTu.s 			page 16


 690:.\Generated_Source\PSoC5/USBFS_1_std.c ****             }
 691:.\Generated_Source\PSoC5/USBFS_1_std.c ****         #endif /*  (USBFS_1_EP_MA == USBFS_1__MA_DYNAMIC) */
 692:.\Generated_Source\PSoC5/USBFS_1_std.c **** 
 693:.\Generated_Source\PSoC5/USBFS_1_std.c ****         /* Init class array for each interface and interface number for each EP.
 694:.\Generated_Source\PSoC5/USBFS_1_std.c ****         *  It is used for handling Class specific requests directed to either an
 695:.\Generated_Source\PSoC5/USBFS_1_std.c ****         *  interface or the endpoint.
 696:.\Generated_Source\PSoC5/USBFS_1_std.c ****         */
 697:.\Generated_Source\PSoC5/USBFS_1_std.c ****         /* p_list points the endpoint setting table. */
 698:.\Generated_Source\PSoC5/USBFS_1_std.c ****         pEP = (const T_USBFS_1_EP_SETTINGS_BLOCK CYCODE *) pTmp->p_list;
 699:.\Generated_Source\PSoC5/USBFS_1_std.c ****         for (i = 0u; i < ep; i++)
 700:.\Generated_Source\PSoC5/USBFS_1_std.c ****         {
 701:.\Generated_Source\PSoC5/USBFS_1_std.c ****             /* Configure interface number for each EP*/
 702:.\Generated_Source\PSoC5/USBFS_1_std.c ****             USBFS_1_EP[pEP->addr & USBFS_1_DIR_UNUSED].interface = pEP->interface;
 703:.\Generated_Source\PSoC5/USBFS_1_std.c ****             pEP = &pEP[1u];
 704:.\Generated_Source\PSoC5/USBFS_1_std.c ****         }
 705:.\Generated_Source\PSoC5/USBFS_1_std.c ****         /* Init pointer on interface class table*/
 706:.\Generated_Source\PSoC5/USBFS_1_std.c ****         USBFS_1_interfaceClass = USBFS_1_GetInterfaceClassTablePtr();
 707:.\Generated_Source\PSoC5/USBFS_1_std.c ****         /* Set the endpoint buffer addresses */
 708:.\Generated_Source\PSoC5/USBFS_1_std.c **** 
 709:.\Generated_Source\PSoC5/USBFS_1_std.c ****         #if(USBFS_1_EP_MM != USBFS_1__EP_DMAAUTO)
 710:.\Generated_Source\PSoC5/USBFS_1_std.c ****             for (ep = USBFS_1_EP1; ep < USBFS_1_MAX_EP; ep++)
 711:.\Generated_Source\PSoC5/USBFS_1_std.c ****             {
 712:.\Generated_Source\PSoC5/USBFS_1_std.c ****                 USBFS_1_EP[ep].buffOffset = buffCount;
 713:.\Generated_Source\PSoC5/USBFS_1_std.c ****                  buffCount += USBFS_1_EP[ep].bufferSize;
 714:.\Generated_Source\PSoC5/USBFS_1_std.c ****             }
 715:.\Generated_Source\PSoC5/USBFS_1_std.c ****         #endif /*  USBFS_1_EP_MM != USBFS_1__EP_DMAAUTO */
 716:.\Generated_Source\PSoC5/USBFS_1_std.c **** 
 717:.\Generated_Source\PSoC5/USBFS_1_std.c ****         /* Configure hardware registers */
 718:.\Generated_Source\PSoC5/USBFS_1_std.c ****         USBFS_1_ConfigReg();
 719:.\Generated_Source\PSoC5/USBFS_1_std.c ****     } /* USBFS_1_configuration > 0 */
 720:.\Generated_Source\PSoC5/USBFS_1_std.c **** }
 721:.\Generated_Source\PSoC5/USBFS_1_std.c **** 
 722:.\Generated_Source\PSoC5/USBFS_1_std.c **** 
 723:.\Generated_Source\PSoC5/USBFS_1_std.c **** /*******************************************************************************
 724:.\Generated_Source\PSoC5/USBFS_1_std.c **** * Function Name: USBFS_1_ConfigAltChanged
 725:.\Generated_Source\PSoC5/USBFS_1_std.c **** ********************************************************************************
 726:.\Generated_Source\PSoC5/USBFS_1_std.c **** *
 727:.\Generated_Source\PSoC5/USBFS_1_std.c **** * Summary:
 728:.\Generated_Source\PSoC5/USBFS_1_std.c **** *  This routine update configuration for the required endpoints only.
 729:.\Generated_Source\PSoC5/USBFS_1_std.c **** *  It is called after SET_INTERFACE request when Static memory allocation used.
 730:.\Generated_Source\PSoC5/USBFS_1_std.c **** *
 731:.\Generated_Source\PSoC5/USBFS_1_std.c **** * Parameters:
 732:.\Generated_Source\PSoC5/USBFS_1_std.c **** *  None.
 733:.\Generated_Source\PSoC5/USBFS_1_std.c **** *
 734:.\Generated_Source\PSoC5/USBFS_1_std.c **** * Return:
 735:.\Generated_Source\PSoC5/USBFS_1_std.c **** *  None.
 736:.\Generated_Source\PSoC5/USBFS_1_std.c **** *
 737:.\Generated_Source\PSoC5/USBFS_1_std.c **** * Reentrant:
 738:.\Generated_Source\PSoC5/USBFS_1_std.c **** *  No.
 739:.\Generated_Source\PSoC5/USBFS_1_std.c **** *
 740:.\Generated_Source\PSoC5/USBFS_1_std.c **** *******************************************************************************/
 741:.\Generated_Source\PSoC5/USBFS_1_std.c **** void USBFS_1_ConfigAltChanged(void) 
 742:.\Generated_Source\PSoC5/USBFS_1_std.c **** {
 743:.\Generated_Source\PSoC5/USBFS_1_std.c ****     uint8 ep;
 744:.\Generated_Source\PSoC5/USBFS_1_std.c ****     uint8 cur_ep;
 745:.\Generated_Source\PSoC5/USBFS_1_std.c ****     uint8 i;
 746:.\Generated_Source\PSoC5/USBFS_1_std.c ****     uint8 epType;
ARM GAS  C:\Users\Ian\AppData\Local\Temp\ccrzCaTu.s 			page 17


 747:.\Generated_Source\PSoC5/USBFS_1_std.c ****     uint8 ri;
 748:.\Generated_Source\PSoC5/USBFS_1_std.c **** 
 749:.\Generated_Source\PSoC5/USBFS_1_std.c ****     const T_USBFS_1_LUT CYCODE *pTmp;
 750:.\Generated_Source\PSoC5/USBFS_1_std.c ****     const T_USBFS_1_EP_SETTINGS_BLOCK CYCODE *pEP;
 751:.\Generated_Source\PSoC5/USBFS_1_std.c **** 
 752:.\Generated_Source\PSoC5/USBFS_1_std.c **** 
 753:.\Generated_Source\PSoC5/USBFS_1_std.c ****     /* Init Endpoints and Device Status if configured */
 754:.\Generated_Source\PSoC5/USBFS_1_std.c ****     if(USBFS_1_configuration > 0u)
 755:.\Generated_Source\PSoC5/USBFS_1_std.c ****     {
 756:.\Generated_Source\PSoC5/USBFS_1_std.c ****         pTmp = USBFS_1_GetConfigTablePtr(USBFS_1_configuration - 1u);
 757:.\Generated_Source\PSoC5/USBFS_1_std.c ****         pTmp = &pTmp[1u];
 758:.\Generated_Source\PSoC5/USBFS_1_std.c ****         ep = pTmp->c;  /* For this table, c is the number of endpoints configurations  */
 759:.\Generated_Source\PSoC5/USBFS_1_std.c **** 
 760:.\Generated_Source\PSoC5/USBFS_1_std.c ****         /* Do not touch EP which doesn't need reconfiguration */
 761:.\Generated_Source\PSoC5/USBFS_1_std.c ****         /* When Alt setting changed, the only required endpoints need to be reconfigured */
 762:.\Generated_Source\PSoC5/USBFS_1_std.c ****         /* p_list points the endpoint setting table. */
 763:.\Generated_Source\PSoC5/USBFS_1_std.c ****         pEP = (const T_USBFS_1_EP_SETTINGS_BLOCK CYCODE *) pTmp->p_list;
 764:.\Generated_Source\PSoC5/USBFS_1_std.c ****         for (i = 0u; i < ep; i++)
 765:.\Generated_Source\PSoC5/USBFS_1_std.c ****         {
 766:.\Generated_Source\PSoC5/USBFS_1_std.c ****             /*If Alt setting changed and new is same with EP Alt */
 767:.\Generated_Source\PSoC5/USBFS_1_std.c ****             if((USBFS_1_interfaceSetting[pEP->interface] !=
 768:.\Generated_Source\PSoC5/USBFS_1_std.c ****                 USBFS_1_interfaceSetting_last[pEP->interface] ) &&
 769:.\Generated_Source\PSoC5/USBFS_1_std.c ****                (USBFS_1_interfaceSetting[pEP->interface] == pEP->altSetting) &&
 770:.\Generated_Source\PSoC5/USBFS_1_std.c ****                (pEP->interface == CY_GET_REG8(USBFS_1_wIndexLo)))
 771:.\Generated_Source\PSoC5/USBFS_1_std.c ****             {
 772:.\Generated_Source\PSoC5/USBFS_1_std.c ****                 cur_ep = pEP->addr & USBFS_1_DIR_UNUSED;
 773:.\Generated_Source\PSoC5/USBFS_1_std.c ****                 ri = ((cur_ep - USBFS_1_EP1) << USBFS_1_EPX_CNTX_ADDR_SHIFT);
 774:.\Generated_Source\PSoC5/USBFS_1_std.c ****                 epType = pEP->attributes & USBFS_1_EP_TYPE_MASK;
 775:.\Generated_Source\PSoC5/USBFS_1_std.c ****                 if ((pEP->addr & USBFS_1_DIR_IN) != 0u)
 776:.\Generated_Source\PSoC5/USBFS_1_std.c ****                 {
 777:.\Generated_Source\PSoC5/USBFS_1_std.c ****                     /* IN Endpoint */
 778:.\Generated_Source\PSoC5/USBFS_1_std.c ****                     USBFS_1_EP[cur_ep].apiEpState = USBFS_1_EVENT_PENDING;
 779:.\Generated_Source\PSoC5/USBFS_1_std.c ****                     USBFS_1_EP[cur_ep].epMode = (epType == USBFS_1_EP_TYPE_ISOC) ?
 780:.\Generated_Source\PSoC5/USBFS_1_std.c ****                                                 USBFS_1_MODE_ISO_IN : USBFS_1_MODE_ACK_IN;
 781:.\Generated_Source\PSoC5/USBFS_1_std.c ****                 }
 782:.\Generated_Source\PSoC5/USBFS_1_std.c ****                 else
 783:.\Generated_Source\PSoC5/USBFS_1_std.c ****                 {
 784:.\Generated_Source\PSoC5/USBFS_1_std.c ****                     /* OUT Endpoint */
 785:.\Generated_Source\PSoC5/USBFS_1_std.c ****                     USBFS_1_EP[cur_ep].apiEpState = USBFS_1_NO_EVENT_PENDING;
 786:.\Generated_Source\PSoC5/USBFS_1_std.c ****                     USBFS_1_EP[cur_ep].epMode = (epType == USBFS_1_EP_TYPE_ISOC) ?
 787:.\Generated_Source\PSoC5/USBFS_1_std.c ****                                                 USBFS_1_MODE_ISO_OUT : USBFS_1_MODE_ACK_OUT;
 788:.\Generated_Source\PSoC5/USBFS_1_std.c ****                 }
 789:.\Generated_Source\PSoC5/USBFS_1_std.c ****                  /* Change the SIE mode for the selected EP to NAK ALL */
 790:.\Generated_Source\PSoC5/USBFS_1_std.c ****                  CY_SET_REG8((reg8 *)(USBFS_1_SIE_EP1_CR0_IND + ri), USBFS_1_MODE_NAK_IN_OUT);
 791:.\Generated_Source\PSoC5/USBFS_1_std.c ****                 USBFS_1_EP[cur_ep].bufferSize = pEP->bufferSize;
 792:.\Generated_Source\PSoC5/USBFS_1_std.c ****                 USBFS_1_EP[cur_ep].addr = pEP->addr;
 793:.\Generated_Source\PSoC5/USBFS_1_std.c ****                 USBFS_1_EP[cur_ep].attrib = pEP->attributes;
 794:.\Generated_Source\PSoC5/USBFS_1_std.c **** 
 795:.\Generated_Source\PSoC5/USBFS_1_std.c ****                 /* Clear the data toggle */
 796:.\Generated_Source\PSoC5/USBFS_1_std.c ****                 USBFS_1_EP[cur_ep].epToggle = 0u;
 797:.\Generated_Source\PSoC5/USBFS_1_std.c **** 
 798:.\Generated_Source\PSoC5/USBFS_1_std.c ****                 /* Dynamic reconfiguration for mode 3 transfer */
 799:.\Generated_Source\PSoC5/USBFS_1_std.c ****             #if(USBFS_1_EP_MM == USBFS_1__EP_DMAAUTO)
 800:.\Generated_Source\PSoC5/USBFS_1_std.c ****                 /* In_data_rdy for selected EP should be set to 0 */
 801:.\Generated_Source\PSoC5/USBFS_1_std.c ****                 * (reg8 *)(USBFS_1_ARB_EP1_CFG_IND + ri) &= (uint8)~USBFS_1_ARB_EPX_CFG_IN_DATA_RDY
 802:.\Generated_Source\PSoC5/USBFS_1_std.c **** 
 803:.\Generated_Source\PSoC5/USBFS_1_std.c ****                 /* write the EP number for which reconfiguration is required */
ARM GAS  C:\Users\Ian\AppData\Local\Temp\ccrzCaTu.s 			page 18


 804:.\Generated_Source\PSoC5/USBFS_1_std.c ****                 USBFS_1_DYN_RECONFIG_REG = (cur_ep - USBFS_1_EP1) <<
 805:.\Generated_Source\PSoC5/USBFS_1_std.c ****                                                     USBFS_1_DYN_RECONFIG_EP_SHIFT;
 806:.\Generated_Source\PSoC5/USBFS_1_std.c ****                 /* Set the dyn_config_en bit in dynamic reconfiguration register */
 807:.\Generated_Source\PSoC5/USBFS_1_std.c ****                 USBFS_1_DYN_RECONFIG_REG |= USBFS_1_DYN_RECONFIG_ENABLE;
 808:.\Generated_Source\PSoC5/USBFS_1_std.c ****                 /* wait for the dyn_config_rdy bit to set by the block,
 809:.\Generated_Source\PSoC5/USBFS_1_std.c ****                 *  this bit will be set to 1 when block is ready for reconfiguration.
 810:.\Generated_Source\PSoC5/USBFS_1_std.c ****                 */
 811:.\Generated_Source\PSoC5/USBFS_1_std.c ****                 while((USBFS_1_DYN_RECONFIG_REG & USBFS_1_DYN_RECONFIG_RDY_STS) == 0u)
 812:.\Generated_Source\PSoC5/USBFS_1_std.c ****                 {
 813:.\Generated_Source\PSoC5/USBFS_1_std.c ****                     ;
 814:.\Generated_Source\PSoC5/USBFS_1_std.c ****                 }
 815:.\Generated_Source\PSoC5/USBFS_1_std.c ****                 /* Once dyn_config_rdy bit is set, FW can change the EP configuration. */
 816:.\Generated_Source\PSoC5/USBFS_1_std.c ****                 /* Change EP Type with new direction */
 817:.\Generated_Source\PSoC5/USBFS_1_std.c ****                 if((pEP->addr & USBFS_1_DIR_IN) == 0u)
 818:.\Generated_Source\PSoC5/USBFS_1_std.c ****                 {
 819:.\Generated_Source\PSoC5/USBFS_1_std.c ****                     USBFS_1_EP_TYPE_REG |= (uint8)(0x01u << (cur_ep - USBFS_1_EP1));
 820:.\Generated_Source\PSoC5/USBFS_1_std.c ****                 }
 821:.\Generated_Source\PSoC5/USBFS_1_std.c ****                 else
 822:.\Generated_Source\PSoC5/USBFS_1_std.c ****                 {
 823:.\Generated_Source\PSoC5/USBFS_1_std.c ****                     USBFS_1_EP_TYPE_REG &= (uint8)~(uint8)(0x01u << (cur_ep - USBFS_1_EP1));
 824:.\Generated_Source\PSoC5/USBFS_1_std.c ****                 }
 825:.\Generated_Source\PSoC5/USBFS_1_std.c ****                 /* dynamic reconfiguration enable bit cleared, pointers and control/status
 826:.\Generated_Source\PSoC5/USBFS_1_std.c ****                 *  signals for the selected EP is cleared/re-initialized on negative edge
 827:.\Generated_Source\PSoC5/USBFS_1_std.c ****                 *  of dynamic reconfiguration enable bit).
 828:.\Generated_Source\PSoC5/USBFS_1_std.c ****                 */
 829:.\Generated_Source\PSoC5/USBFS_1_std.c ****                 USBFS_1_DYN_RECONFIG_REG &= (uint8)~USBFS_1_DYN_RECONFIG_ENABLE;
 830:.\Generated_Source\PSoC5/USBFS_1_std.c ****                 /* The main loop has to re-enable DMA and OUT endpoint*/
 831:.\Generated_Source\PSoC5/USBFS_1_std.c ****             #else
 832:.\Generated_Source\PSoC5/USBFS_1_std.c ****                 CY_SET_REG8((reg8 *)(USBFS_1_SIE_EP1_CNT0_IND + ri),
 833:.\Generated_Source\PSoC5/USBFS_1_std.c ****                                                                 USBFS_1_EP[cur_ep].bufferSize >> 8u
 834:.\Generated_Source\PSoC5/USBFS_1_std.c ****                 CY_SET_REG8((reg8 *)(USBFS_1_SIE_EP1_CNT1_IND + ri),
 835:.\Generated_Source\PSoC5/USBFS_1_std.c ****                                                                 USBFS_1_EP[cur_ep].bufferSize & 0xF
 836:.\Generated_Source\PSoC5/USBFS_1_std.c ****                 CY_SET_REG8((reg8 *)(USBFS_1_ARB_RW1_RA_IND + ri),
 837:.\Generated_Source\PSoC5/USBFS_1_std.c ****                                                                 USBFS_1_EP[cur_ep].buffOffset & 0xF
 838:.\Generated_Source\PSoC5/USBFS_1_std.c ****                 CY_SET_REG8((reg8 *)(USBFS_1_ARB_RW1_RA_MSB_IND + ri),
 839:.\Generated_Source\PSoC5/USBFS_1_std.c ****                                                                 USBFS_1_EP[cur_ep].buffOffset >> 8u
 840:.\Generated_Source\PSoC5/USBFS_1_std.c ****                 CY_SET_REG8((reg8 *)(USBFS_1_ARB_RW1_WA_IND + ri),
 841:.\Generated_Source\PSoC5/USBFS_1_std.c ****                                                                 USBFS_1_EP[cur_ep].buffOffset & 0xF
 842:.\Generated_Source\PSoC5/USBFS_1_std.c ****                 CY_SET_REG8((reg8 *)(USBFS_1_ARB_RW1_WA_MSB_IND + ri),
 843:.\Generated_Source\PSoC5/USBFS_1_std.c ****                                                                 USBFS_1_EP[cur_ep].buffOffset >> 8u
 844:.\Generated_Source\PSoC5/USBFS_1_std.c ****             #endif /*  USBFS_1_EP_MM == USBFS_1__EP_DMAAUTO */
 845:.\Generated_Source\PSoC5/USBFS_1_std.c ****             }
 846:.\Generated_Source\PSoC5/USBFS_1_std.c ****             /* Get next EP element */
 847:.\Generated_Source\PSoC5/USBFS_1_std.c ****             pEP = &pEP[1u];
 848:.\Generated_Source\PSoC5/USBFS_1_std.c ****         }
 849:.\Generated_Source\PSoC5/USBFS_1_std.c ****     }   /* USBFS_1_configuration > 0 */
 850:.\Generated_Source\PSoC5/USBFS_1_std.c **** }
 851:.\Generated_Source\PSoC5/USBFS_1_std.c **** 
 852:.\Generated_Source\PSoC5/USBFS_1_std.c **** 
 853:.\Generated_Source\PSoC5/USBFS_1_std.c **** /*******************************************************************************
 854:.\Generated_Source\PSoC5/USBFS_1_std.c **** * Function Name: USBFS_1_GetConfigTablePtr
 855:.\Generated_Source\PSoC5/USBFS_1_std.c **** ********************************************************************************
 856:.\Generated_Source\PSoC5/USBFS_1_std.c **** *
 857:.\Generated_Source\PSoC5/USBFS_1_std.c **** * Summary:
 858:.\Generated_Source\PSoC5/USBFS_1_std.c **** *  This routine returns a pointer a configuration table entry
 859:.\Generated_Source\PSoC5/USBFS_1_std.c **** *
 860:.\Generated_Source\PSoC5/USBFS_1_std.c **** * Parameters:
ARM GAS  C:\Users\Ian\AppData\Local\Temp\ccrzCaTu.s 			page 19


 861:.\Generated_Source\PSoC5/USBFS_1_std.c **** *  confIndex:  Configuration Index
 862:.\Generated_Source\PSoC5/USBFS_1_std.c **** *
 863:.\Generated_Source\PSoC5/USBFS_1_std.c **** * Return:
 864:.\Generated_Source\PSoC5/USBFS_1_std.c **** *  Device Descriptor pointer or NULL when descriptor isn't exists.
 865:.\Generated_Source\PSoC5/USBFS_1_std.c **** *
 866:.\Generated_Source\PSoC5/USBFS_1_std.c **** *******************************************************************************/
 867:.\Generated_Source\PSoC5/USBFS_1_std.c **** const T_USBFS_1_LUT CYCODE *USBFS_1_GetConfigTablePtr(uint8 confIndex)
 868:.\Generated_Source\PSoC5/USBFS_1_std.c ****                                                         
 869:.\Generated_Source\PSoC5/USBFS_1_std.c **** {
 164              		.loc 1 869 0
 165              		.cfi_startproc
 166              		@ args = 0, pretend = 0, frame = 0
 167              		@ frame_needed = 0, uses_anonymous_args = 0
 168              		@ link register save eliminated.
 169              	.LVL7:
 870:.\Generated_Source\PSoC5/USBFS_1_std.c ****     /* Device Table */
 871:.\Generated_Source\PSoC5/USBFS_1_std.c ****     const T_USBFS_1_LUT CYCODE *pTmp;
 872:.\Generated_Source\PSoC5/USBFS_1_std.c **** 
 873:.\Generated_Source\PSoC5/USBFS_1_std.c ****     pTmp = (const T_USBFS_1_LUT CYCODE *) USBFS_1_TABLE[USBFS_1_device].p_list;
 170              		.loc 1 873 0
 171 0000 074B     		ldr	r3, .L13
 172 0002 1B78     		ldrb	r3, [r3]	@ zero_extendqisi2
 173 0004 074A     		ldr	r2, .L13+4
 174 0006 02EBC302 		add	r2, r2, r3, lsl #3
 175 000a 5368     		ldr	r3, [r2, #4]
 176              	.LVL8:
 874:.\Generated_Source\PSoC5/USBFS_1_std.c **** 
 875:.\Generated_Source\PSoC5/USBFS_1_std.c ****     /* The first entry points to the Device Descriptor,
 876:.\Generated_Source\PSoC5/USBFS_1_std.c ****     *  the rest configuration entries.
 877:.\Generated_Source\PSoC5/USBFS_1_std.c ****     *  Set pointer to the first Configuration Descriptor
 878:.\Generated_Source\PSoC5/USBFS_1_std.c ****     */
 879:.\Generated_Source\PSoC5/USBFS_1_std.c ****     pTmp = &pTmp[1u];
 880:.\Generated_Source\PSoC5/USBFS_1_std.c ****     /* For this table, c is the number of configuration descriptors  */
 881:.\Generated_Source\PSoC5/USBFS_1_std.c ****     if(confIndex >= pTmp->c)   /* Verify that required configuration descriptor exists */
 177              		.loc 1 881 0
 178 000c 1A7A     		ldrb	r2, [r3, #8]	@ zero_extendqisi2
 179 000e 8242     		cmp	r2, r0
 180 0010 03D9     		bls	.L12
 181 0012 03EBC003 		add	r3, r3, r0, lsl #3
 182              	.LVL9:
 882:.\Generated_Source\PSoC5/USBFS_1_std.c ****     {
 883:.\Generated_Source\PSoC5/USBFS_1_std.c ****         pTmp = (const T_USBFS_1_LUT CYCODE *) NULL;
 884:.\Generated_Source\PSoC5/USBFS_1_std.c ****     }
 885:.\Generated_Source\PSoC5/USBFS_1_std.c ****     else
 886:.\Generated_Source\PSoC5/USBFS_1_std.c ****     {
 887:.\Generated_Source\PSoC5/USBFS_1_std.c ****         pTmp = (const T_USBFS_1_LUT CYCODE *) pTmp[confIndex].p_list;
 183              		.loc 1 887 0
 184 0016 D868     		ldr	r0, [r3, #12]
 185              	.LVL10:
 186 0018 7047     		bx	lr
 187              	.LVL11:
 188              	.L12:
 883:.\Generated_Source\PSoC5/USBFS_1_std.c ****     }
 189              		.loc 1 883 0
 190 001a 0020     		movs	r0, #0
 191              	.LVL12:
 888:.\Generated_Source\PSoC5/USBFS_1_std.c ****     }
ARM GAS  C:\Users\Ian\AppData\Local\Temp\ccrzCaTu.s 			page 20


 889:.\Generated_Source\PSoC5/USBFS_1_std.c **** 
 890:.\Generated_Source\PSoC5/USBFS_1_std.c ****     return( pTmp );
 891:.\Generated_Source\PSoC5/USBFS_1_std.c **** }
 192              		.loc 1 891 0
 193 001c 7047     		bx	lr
 194              	.L14:
 195 001e 00BF     		.align	2
 196              	.L13:
 197 0020 00000000 		.word	USBFS_1_device
 198 0024 00000000 		.word	USBFS_1_TABLE
 199              		.cfi_endproc
 200              	.LFE4:
 201              		.size	USBFS_1_GetConfigTablePtr, .-USBFS_1_GetConfigTablePtr
 202              		.section	.text.USBFS_1_ConfigAltChanged,"ax",%progbits
 203              		.align	2
 204              		.global	USBFS_1_ConfigAltChanged
 205              		.thumb
 206              		.thumb_func
 207              		.type	USBFS_1_ConfigAltChanged, %function
 208              	USBFS_1_ConfigAltChanged:
 209              	.LFB3:
 742:.\Generated_Source\PSoC5/USBFS_1_std.c ****     uint8 ep;
 210              		.loc 1 742 0
 211              		.cfi_startproc
 212              		@ args = 0, pretend = 0, frame = 0
 213              		@ frame_needed = 0, uses_anonymous_args = 0
 214 0000 F8B5     		push	{r3, r4, r5, r6, r7, lr}
 215              		.cfi_def_cfa_offset 24
 216              		.cfi_offset 3, -24
 217              		.cfi_offset 4, -20
 218              		.cfi_offset 5, -16
 219              		.cfi_offset 6, -12
 220              		.cfi_offset 7, -8
 221              		.cfi_offset 14, -4
 754:.\Generated_Source\PSoC5/USBFS_1_std.c ****     {
 222              		.loc 1 754 0
 223 0002 4C4B     		ldr	r3, .L27
 224 0004 1B78     		ldrb	r3, [r3]	@ zero_extendqisi2
 225 0006 13F0FF0F 		tst	r3, #255
 226 000a 00F09280 		beq	.L15
 756:.\Generated_Source\PSoC5/USBFS_1_std.c ****         pTmp = &pTmp[1u];
 227              		.loc 1 756 0
 228 000e 494B     		ldr	r3, .L27
 229 0010 1878     		ldrb	r0, [r3]	@ zero_extendqisi2
 230 0012 0138     		subs	r0, r0, #1
 231 0014 C0B2     		uxtb	r0, r0
 232 0016 FFF7FEFF 		bl	USBFS_1_GetConfigTablePtr
 233              	.LVL13:
 758:.\Generated_Source\PSoC5/USBFS_1_std.c **** 
 234              		.loc 1 758 0
 235 001a 057A     		ldrb	r5, [r0, #8]	@ zero_extendqisi2
 236              	.LVL14:
 763:.\Generated_Source\PSoC5/USBFS_1_std.c ****         for (i = 0u; i < ep; i++)
 237              		.loc 1 763 0
 238 001c C068     		ldr	r0, [r0, #12]
 239              	.LVL15:
 764:.\Generated_Source\PSoC5/USBFS_1_std.c ****         {
ARM GAS  C:\Users\Ian\AppData\Local\Temp\ccrzCaTu.s 			page 21


 240              		.loc 1 764 0
 241 001e 0023     		movs	r3, #0
 242 0020 84E0     		b	.L17
 243              	.LVL16:
 244              	.L23:
 767:.\Generated_Source\PSoC5/USBFS_1_std.c ****                 USBFS_1_interfaceSetting_last[pEP->interface] ) &&
 245              		.loc 1 767 0
 246 0022 0178     		ldrb	r1, [r0]	@ zero_extendqisi2
 247 0024 444A     		ldr	r2, .L27+4
 248 0026 525C     		ldrb	r2, [r2, r1]	@ zero_extendqisi2
 768:.\Generated_Source\PSoC5/USBFS_1_std.c ****                (USBFS_1_interfaceSetting[pEP->interface] == pEP->altSetting) &&
 249              		.loc 1 768 0
 250 0028 444C     		ldr	r4, .L27+8
 251 002a 645C     		ldrb	r4, [r4, r1]	@ zero_extendqisi2
 252 002c D2B2     		uxtb	r2, r2
 767:.\Generated_Source\PSoC5/USBFS_1_std.c ****                 USBFS_1_interfaceSetting_last[pEP->interface] ) &&
 253              		.loc 1 767 0
 254 002e A242     		cmp	r2, r4
 255 0030 79D0     		beq	.L18
 769:.\Generated_Source\PSoC5/USBFS_1_std.c ****                (pEP->interface == CY_GET_REG8(USBFS_1_wIndexLo)))
 256              		.loc 1 769 0
 257 0032 414A     		ldr	r2, .L27+4
 258 0034 525C     		ldrb	r2, [r2, r1]	@ zero_extendqisi2
 259 0036 D2B2     		uxtb	r2, r2
 260 0038 4478     		ldrb	r4, [r0, #1]	@ zero_extendqisi2
 768:.\Generated_Source\PSoC5/USBFS_1_std.c ****                (USBFS_1_interfaceSetting[pEP->interface] == pEP->altSetting) &&
 261              		.loc 1 768 0
 262 003a A242     		cmp	r2, r4
 263 003c 73D1     		bne	.L18
 770:.\Generated_Source\PSoC5/USBFS_1_std.c ****             {
 264              		.loc 1 770 0
 265 003e 404A     		ldr	r2, .L27+12
 266 0040 1278     		ldrb	r2, [r2]	@ zero_extendqisi2
 267 0042 D2B2     		uxtb	r2, r2
 769:.\Generated_Source\PSoC5/USBFS_1_std.c ****                (pEP->interface == CY_GET_REG8(USBFS_1_wIndexLo)))
 268              		.loc 1 769 0
 269 0044 9142     		cmp	r1, r2
 270 0046 6ED1     		bne	.L18
 772:.\Generated_Source\PSoC5/USBFS_1_std.c ****                 ri = ((cur_ep - USBFS_1_EP1) << USBFS_1_EPX_CNTX_ADDR_SHIFT);
 271              		.loc 1 772 0
 272 0048 8478     		ldrb	r4, [r0, #2]	@ zero_extendqisi2
 273 004a 04F07F02 		and	r2, r4, #127
 274              	.LVL17:
 773:.\Generated_Source\PSoC5/USBFS_1_std.c ****                 epType = pEP->attributes & USBFS_1_EP_TYPE_MASK;
 275              		.loc 1 773 0
 276 004e 511E     		subs	r1, r2, #1
 277 0050 0901     		lsls	r1, r1, #4
 278 0052 C9B2     		uxtb	r1, r1
 279              	.LVL18:
 774:.\Generated_Source\PSoC5/USBFS_1_std.c ****                 if ((pEP->addr & USBFS_1_DIR_IN) != 0u)
 280              		.loc 1 774 0
 281 0054 C678     		ldrb	r6, [r0, #3]	@ zero_extendqisi2
 282 0056 06F00306 		and	r6, r6, #3
 283              	.LVL19:
 775:.\Generated_Source\PSoC5/USBFS_1_std.c ****                 {
 284              		.loc 1 775 0
 285 005a 14F0800F 		tst	r4, #128
ARM GAS  C:\Users\Ian\AppData\Local\Temp\ccrzCaTu.s 			page 22


 286 005e 12D0     		beq	.L19
 778:.\Generated_Source\PSoC5/USBFS_1_std.c ****                     USBFS_1_EP[cur_ep].epMode = (epType == USBFS_1_EP_TYPE_ISOC) ?
 287              		.loc 1 778 0
 288 0060 02EB4204 		add	r4, r2, r2, lsl #1
 289 0064 A400     		lsls	r4, r4, #2
 290 0066 374F     		ldr	r7, .L27+16
 291 0068 3C44     		add	r4, r4, r7
 292 006a 0127     		movs	r7, #1
 293 006c 6770     		strb	r7, [r4, #1]
 779:.\Generated_Source\PSoC5/USBFS_1_std.c ****                                                 USBFS_1_MODE_ISO_IN : USBFS_1_MODE_ACK_IN;
 294              		.loc 1 779 0
 295 006e BE42     		cmp	r6, r7
 296 0070 01D1     		bne	.L24
 297 0072 0726     		movs	r6, #7
 298              	.LVL20:
 299 0074 00E0     		b	.L20
 300              	.LVL21:
 301              	.L24:
 302 0076 0D26     		movs	r6, #13
 303              	.LVL22:
 304              	.L20:
 779:.\Generated_Source\PSoC5/USBFS_1_std.c ****                                                 USBFS_1_MODE_ISO_IN : USBFS_1_MODE_ACK_IN;
 305              		.loc 1 779 0 is_stmt 0 discriminator 4
 306 0078 02EB4204 		add	r4, r2, r2, lsl #1
 307 007c A400     		lsls	r4, r4, #2
 308 007e 314F     		ldr	r7, .L27+16
 309 0080 3C44     		add	r4, r4, r7
 310 0082 6671     		strb	r6, [r4, #5]
 311 0084 11E0     		b	.L21
 312              	.LVL23:
 313              	.L19:
 785:.\Generated_Source\PSoC5/USBFS_1_std.c ****                     USBFS_1_EP[cur_ep].epMode = (epType == USBFS_1_EP_TYPE_ISOC) ?
 314              		.loc 1 785 0 is_stmt 1
 315 0086 02EB4204 		add	r4, r2, r2, lsl #1
 316 008a A400     		lsls	r4, r4, #2
 317 008c 2D4F     		ldr	r7, .L27+16
 318 008e 3C44     		add	r4, r4, r7
 319 0090 0027     		movs	r7, #0
 320 0092 6770     		strb	r7, [r4, #1]
 786:.\Generated_Source\PSoC5/USBFS_1_std.c ****                                                 USBFS_1_MODE_ISO_OUT : USBFS_1_MODE_ACK_OUT;
 321              		.loc 1 786 0
 322 0094 012E     		cmp	r6, #1
 323 0096 01D1     		bne	.L25
 324 0098 0526     		movs	r6, #5
 325              	.LVL24:
 326 009a 00E0     		b	.L22
 327              	.LVL25:
 328              	.L25:
 329 009c 0926     		movs	r6, #9
 330              	.LVL26:
 331              	.L22:
 786:.\Generated_Source\PSoC5/USBFS_1_std.c ****                                                 USBFS_1_MODE_ISO_OUT : USBFS_1_MODE_ACK_OUT;
 332              		.loc 1 786 0 is_stmt 0 discriminator 4
 333 009e 02EB4204 		add	r4, r2, r2, lsl #1
 334 00a2 A400     		lsls	r4, r4, #2
 335 00a4 274F     		ldr	r7, .L27+16
 336 00a6 3C44     		add	r4, r4, r7
ARM GAS  C:\Users\Ian\AppData\Local\Temp\ccrzCaTu.s 			page 23


 337 00a8 6671     		strb	r6, [r4, #5]
 338              	.L21:
 790:.\Generated_Source\PSoC5/USBFS_1_std.c ****                 USBFS_1_EP[cur_ep].bufferSize = pEP->bufferSize;
 339              		.loc 1 790 0 is_stmt 1
 340 00aa 0126     		movs	r6, #1
 341 00ac 264C     		ldr	r4, .L27+20
 342 00ae 0E55     		strb	r6, [r1, r4]
 791:.\Generated_Source\PSoC5/USBFS_1_std.c ****                 USBFS_1_EP[cur_ep].addr = pEP->addr;
 343              		.loc 1 791 0
 344 00b0 B0F804C0 		ldrh	ip, [r0, #4]
 345 00b4 234F     		ldr	r7, .L27+16
 346 00b6 02FA06FE 		lsl	lr, r2, r6
 347 00ba 0EEB0206 		add	r6, lr, r2
 348 00be B600     		lsls	r6, r6, #2
 349 00c0 BC19     		adds	r4, r7, r6
 350 00c2 A4F808C0 		strh	ip, [r4, #8]	@ movhi
 792:.\Generated_Source\PSoC5/USBFS_1_std.c ****                 USBFS_1_EP[cur_ep].attrib = pEP->attributes;
 351              		.loc 1 792 0
 352 00c6 90F802C0 		ldrb	ip, [r0, #2]	@ zero_extendqisi2
 353 00ca 84F804C0 		strb	ip, [r4, #4]
 793:.\Generated_Source\PSoC5/USBFS_1_std.c **** 
 354              		.loc 1 793 0
 355 00ce 90F803C0 		ldrb	ip, [r0, #3]	@ zero_extendqisi2
 356 00d2 07F806C0 		strb	ip, [r7, r6]
 796:.\Generated_Source\PSoC5/USBFS_1_std.c **** 
 357              		.loc 1 796 0
 358 00d6 0026     		movs	r6, #0
 359 00d8 E670     		strb	r6, [r4, #3]
 832:.\Generated_Source\PSoC5/USBFS_1_std.c ****                                                                 USBFS_1_EP[cur_ep].bufferSize >> 8u
 360              		.loc 1 832 0
 361 00da 2689     		ldrh	r6, [r4, #8]
 362 00dc C6F30726 		ubfx	r6, r6, #8, #8
 363 00e0 DFF870C0 		ldr	ip, .L27+32
 364 00e4 01F80C60 		strb	r6, [r1, ip]
 834:.\Generated_Source\PSoC5/USBFS_1_std.c ****                                                                 USBFS_1_EP[cur_ep].bufferSize & 0xF
 365              		.loc 1 834 0
 366 00e8 2689     		ldrh	r6, [r4, #8]
 367 00ea F6B2     		uxtb	r6, r6
 368 00ec 0CF1010C 		add	ip, ip, #1
 369 00f0 01F80C60 		strb	r6, [r1, ip]
 836:.\Generated_Source\PSoC5/USBFS_1_std.c ****                                                                 USBFS_1_EP[cur_ep].buffOffset & 0xF
 370              		.loc 1 836 0
 371 00f4 E688     		ldrh	r6, [r4, #6]
 372 00f6 F6B2     		uxtb	r6, r6
 373 00f8 0CF1790C 		add	ip, ip, #121
 374 00fc 01F80C60 		strb	r6, [r1, ip]
 838:.\Generated_Source\PSoC5/USBFS_1_std.c ****                                                                 USBFS_1_EP[cur_ep].buffOffset >> 8u
 375              		.loc 1 838 0
 376 0100 E688     		ldrh	r6, [r4, #6]
 377 0102 C6F30726 		ubfx	r6, r6, #8, #8
 378 0106 0CF1010C 		add	ip, ip, #1
 379 010a 01F80C60 		strb	r6, [r1, ip]
 840:.\Generated_Source\PSoC5/USBFS_1_std.c ****                                                                 USBFS_1_EP[cur_ep].buffOffset & 0xF
 380              		.loc 1 840 0
 381 010e E488     		ldrh	r4, [r4, #6]
 382 0110 E4B2     		uxtb	r4, r4
 383 0112 0E4E     		ldr	r6, .L27+24
ARM GAS  C:\Users\Ian\AppData\Local\Temp\ccrzCaTu.s 			page 24


 384 0114 8C55     		strb	r4, [r1, r6]
 842:.\Generated_Source\PSoC5/USBFS_1_std.c ****                                                                 USBFS_1_EP[cur_ep].buffOffset >> 8u
 385              		.loc 1 842 0
 386 0116 7244     		add	r2, r2, lr
 387              	.LVL27:
 388 0118 9200     		lsls	r2, r2, #2
 389 011a 3A44     		add	r2, r2, r7
 390 011c D288     		ldrh	r2, [r2, #6]
 391 011e C2F30722 		ubfx	r2, r2, #8, #8
 392 0122 0B4C     		ldr	r4, .L27+28
 393 0124 0A55     		strb	r2, [r1, r4]
 394              	.LVL28:
 395              	.L18:
 847:.\Generated_Source\PSoC5/USBFS_1_std.c ****         }
 396              		.loc 1 847 0 discriminator 2
 397 0126 0830     		adds	r0, r0, #8
 398              	.LVL29:
 764:.\Generated_Source\PSoC5/USBFS_1_std.c ****         {
 399              		.loc 1 764 0 discriminator 2
 400 0128 0133     		adds	r3, r3, #1
 401              	.LVL30:
 402 012a DBB2     		uxtb	r3, r3
 403              	.LVL31:
 404              	.L17:
 764:.\Generated_Source\PSoC5/USBFS_1_std.c ****         {
 405              		.loc 1 764 0 is_stmt 0 discriminator 1
 406 012c AB42     		cmp	r3, r5
 407 012e FFF478AF 		bcc	.L23
 408              	.LVL32:
 409              	.L15:
 410 0132 F8BD     		pop	{r3, r4, r5, r6, r7, pc}
 411              	.L28:
 412              		.align	2
 413              	.L27:
 414 0134 00000000 		.word	USBFS_1_configuration
 415 0138 00000000 		.word	USBFS_1_interfaceSetting
 416 013c 00000000 		.word	USBFS_1_interfaceSetting_last
 417 0140 04600040 		.word	1073766404
 418 0144 00000000 		.word	USBFS_1_EP
 419 0148 0E600040 		.word	1073766414
 420 014c 84600040 		.word	1073766532
 421 0150 85600040 		.word	1073766533
 422 0154 0C600040 		.word	1073766412
 423              		.cfi_endproc
 424              	.LFE3:
 425              		.size	USBFS_1_ConfigAltChanged, .-USBFS_1_ConfigAltChanged
 426              		.section	.text.USBFS_1_GetDeviceTablePtr,"ax",%progbits
 427              		.align	2
 428              		.global	USBFS_1_GetDeviceTablePtr
 429              		.thumb
 430              		.thumb_func
 431              		.type	USBFS_1_GetDeviceTablePtr, %function
 432              	USBFS_1_GetDeviceTablePtr:
 433              	.LFB5:
 892:.\Generated_Source\PSoC5/USBFS_1_std.c **** 
 893:.\Generated_Source\PSoC5/USBFS_1_std.c **** 
 894:.\Generated_Source\PSoC5/USBFS_1_std.c **** /*******************************************************************************
ARM GAS  C:\Users\Ian\AppData\Local\Temp\ccrzCaTu.s 			page 25


 895:.\Generated_Source\PSoC5/USBFS_1_std.c **** * Function Name: USBFS_1_GetDeviceTablePtr
 896:.\Generated_Source\PSoC5/USBFS_1_std.c **** ********************************************************************************
 897:.\Generated_Source\PSoC5/USBFS_1_std.c **** *
 898:.\Generated_Source\PSoC5/USBFS_1_std.c **** * Summary:
 899:.\Generated_Source\PSoC5/USBFS_1_std.c **** *  This routine returns a pointer to the Device table
 900:.\Generated_Source\PSoC5/USBFS_1_std.c **** *
 901:.\Generated_Source\PSoC5/USBFS_1_std.c **** * Parameters:
 902:.\Generated_Source\PSoC5/USBFS_1_std.c **** *  None.
 903:.\Generated_Source\PSoC5/USBFS_1_std.c **** *
 904:.\Generated_Source\PSoC5/USBFS_1_std.c **** * Return:
 905:.\Generated_Source\PSoC5/USBFS_1_std.c **** *  Device Table pointer
 906:.\Generated_Source\PSoC5/USBFS_1_std.c **** *
 907:.\Generated_Source\PSoC5/USBFS_1_std.c **** *******************************************************************************/
 908:.\Generated_Source\PSoC5/USBFS_1_std.c **** const T_USBFS_1_LUT CYCODE *USBFS_1_GetDeviceTablePtr(void)
 909:.\Generated_Source\PSoC5/USBFS_1_std.c ****                                                             
 910:.\Generated_Source\PSoC5/USBFS_1_std.c **** {
 434              		.loc 1 910 0 is_stmt 1
 435              		.cfi_startproc
 436              		@ args = 0, pretend = 0, frame = 0
 437              		@ frame_needed = 0, uses_anonymous_args = 0
 438              		@ link register save eliminated.
 911:.\Generated_Source\PSoC5/USBFS_1_std.c ****     /* Device Table */
 912:.\Generated_Source\PSoC5/USBFS_1_std.c ****     return( (const T_USBFS_1_LUT CYCODE *) USBFS_1_TABLE[USBFS_1_device].p_list );
 439              		.loc 1 912 0
 440 0000 034B     		ldr	r3, .L30
 441 0002 1A78     		ldrb	r2, [r3]	@ zero_extendqisi2
 442 0004 034B     		ldr	r3, .L30+4
 443 0006 03EBC203 		add	r3, r3, r2, lsl #3
 913:.\Generated_Source\PSoC5/USBFS_1_std.c **** }
 444              		.loc 1 913 0
 445 000a 5868     		ldr	r0, [r3, #4]
 446 000c 7047     		bx	lr
 447              	.L31:
 448 000e 00BF     		.align	2
 449              	.L30:
 450 0010 00000000 		.word	USBFS_1_device
 451 0014 00000000 		.word	USBFS_1_TABLE
 452              		.cfi_endproc
 453              	.LFE5:
 454              		.size	USBFS_1_GetDeviceTablePtr, .-USBFS_1_GetDeviceTablePtr
 455              		.section	.text.USBFS_1_GetInterfaceClassTablePtr,"ax",%progbits
 456              		.align	2
 457              		.global	USBFS_1_GetInterfaceClassTablePtr
 458              		.thumb
 459              		.thumb_func
 460              		.type	USBFS_1_GetInterfaceClassTablePtr, %function
 461              	USBFS_1_GetInterfaceClassTablePtr:
 462              	.LFB6:
 914:.\Generated_Source\PSoC5/USBFS_1_std.c **** 
 915:.\Generated_Source\PSoC5/USBFS_1_std.c **** 
 916:.\Generated_Source\PSoC5/USBFS_1_std.c **** /*******************************************************************************
 917:.\Generated_Source\PSoC5/USBFS_1_std.c **** * Function Name: USB_GetInterfaceClassTablePtr
 918:.\Generated_Source\PSoC5/USBFS_1_std.c **** ********************************************************************************
 919:.\Generated_Source\PSoC5/USBFS_1_std.c **** *
 920:.\Generated_Source\PSoC5/USBFS_1_std.c **** * Summary:
 921:.\Generated_Source\PSoC5/USBFS_1_std.c **** *  This routine returns Interface Class table pointer, which contains
 922:.\Generated_Source\PSoC5/USBFS_1_std.c **** *  the relation between interface number and interface class.
ARM GAS  C:\Users\Ian\AppData\Local\Temp\ccrzCaTu.s 			page 26


 923:.\Generated_Source\PSoC5/USBFS_1_std.c **** *
 924:.\Generated_Source\PSoC5/USBFS_1_std.c **** * Parameters:
 925:.\Generated_Source\PSoC5/USBFS_1_std.c **** *  None.
 926:.\Generated_Source\PSoC5/USBFS_1_std.c **** *
 927:.\Generated_Source\PSoC5/USBFS_1_std.c **** * Return:
 928:.\Generated_Source\PSoC5/USBFS_1_std.c **** *  Interface Class table pointer.
 929:.\Generated_Source\PSoC5/USBFS_1_std.c **** *
 930:.\Generated_Source\PSoC5/USBFS_1_std.c **** *******************************************************************************/
 931:.\Generated_Source\PSoC5/USBFS_1_std.c **** const uint8 CYCODE *USBFS_1_GetInterfaceClassTablePtr(void)
 932:.\Generated_Source\PSoC5/USBFS_1_std.c ****                                                         
 933:.\Generated_Source\PSoC5/USBFS_1_std.c **** {
 463              		.loc 1 933 0
 464              		.cfi_startproc
 465              		@ args = 0, pretend = 0, frame = 0
 466              		@ frame_needed = 0, uses_anonymous_args = 0
 467 0000 08B5     		push	{r3, lr}
 468              		.cfi_def_cfa_offset 8
 469              		.cfi_offset 3, -8
 470              		.cfi_offset 14, -4
 934:.\Generated_Source\PSoC5/USBFS_1_std.c ****     const T_USBFS_1_LUT CYCODE *pTmp;
 935:.\Generated_Source\PSoC5/USBFS_1_std.c ****     const uint8 CYCODE *pInterfaceClass;
 936:.\Generated_Source\PSoC5/USBFS_1_std.c ****     uint8 currentInterfacesNum;
 937:.\Generated_Source\PSoC5/USBFS_1_std.c **** 
 938:.\Generated_Source\PSoC5/USBFS_1_std.c ****     pTmp = USBFS_1_GetConfigTablePtr(USBFS_1_configuration - 1u);
 471              		.loc 1 938 0
 472 0002 074B     		ldr	r3, .L36
 473 0004 1878     		ldrb	r0, [r3]	@ zero_extendqisi2
 474 0006 0138     		subs	r0, r0, #1
 475 0008 C0B2     		uxtb	r0, r0
 476 000a FFF7FEFF 		bl	USBFS_1_GetConfigTablePtr
 477              	.LVL33:
 939:.\Generated_Source\PSoC5/USBFS_1_std.c ****     if( pTmp != NULL )
 478              		.loc 1 939 0
 479 000e 28B1     		cbz	r0, .L34
 940:.\Generated_Source\PSoC5/USBFS_1_std.c ****     {
 941:.\Generated_Source\PSoC5/USBFS_1_std.c ****         currentInterfacesNum  = ((const uint8 *) pTmp->p_list)[USBFS_1_CONFIG_DESCR_NUM_INTERFACES]
 480              		.loc 1 941 0
 481 0010 4268     		ldr	r2, [r0, #4]
 482 0012 1279     		ldrb	r2, [r2, #4]	@ zero_extendqisi2
 483              	.LVL34:
 942:.\Generated_Source\PSoC5/USBFS_1_std.c ****         /* Third entry in the LUT starts the Interface Table pointers */
 943:.\Generated_Source\PSoC5/USBFS_1_std.c ****         /* The INTERFACE_CLASS table is located after all interfaces */
 944:.\Generated_Source\PSoC5/USBFS_1_std.c ****         pTmp = &pTmp[currentInterfacesNum + 2u];
 484              		.loc 1 944 0
 485 0014 00EBC203 		add	r3, r0, r2, lsl #3
 486              	.LVL35:
 945:.\Generated_Source\PSoC5/USBFS_1_std.c ****         pInterfaceClass = (const uint8 CYCODE *) pTmp->p_list;
 487              		.loc 1 945 0
 488 0018 5869     		ldr	r0, [r3, #20]
 489              	.LVL36:
 490 001a 08BD     		pop	{r3, pc}
 491              	.LVL37:
 492              	.L34:
 946:.\Generated_Source\PSoC5/USBFS_1_std.c ****     }
 947:.\Generated_Source\PSoC5/USBFS_1_std.c ****     else
 948:.\Generated_Source\PSoC5/USBFS_1_std.c ****     {
 949:.\Generated_Source\PSoC5/USBFS_1_std.c ****         pInterfaceClass = (const uint8 CYCODE *) NULL;
ARM GAS  C:\Users\Ian\AppData\Local\Temp\ccrzCaTu.s 			page 27


 493              		.loc 1 949 0
 494 001c 0020     		movs	r0, #0
 495              	.LVL38:
 950:.\Generated_Source\PSoC5/USBFS_1_std.c ****     }
 951:.\Generated_Source\PSoC5/USBFS_1_std.c **** 
 952:.\Generated_Source\PSoC5/USBFS_1_std.c ****     return( pInterfaceClass );
 953:.\Generated_Source\PSoC5/USBFS_1_std.c **** }
 496              		.loc 1 953 0
 497 001e 08BD     		pop	{r3, pc}
 498              	.L37:
 499              		.align	2
 500              	.L36:
 501 0020 00000000 		.word	USBFS_1_configuration
 502              		.cfi_endproc
 503              	.LFE6:
 504              		.size	USBFS_1_GetInterfaceClassTablePtr, .-USBFS_1_GetInterfaceClassTablePtr
 505              		.section	.text.USBFS_1_Config,"ax",%progbits
 506              		.align	2
 507              		.global	USBFS_1_Config
 508              		.thumb
 509              		.thumb_func
 510              		.type	USBFS_1_Config, %function
 511              	USBFS_1_Config:
 512              	.LFB2:
 494:.\Generated_Source\PSoC5/USBFS_1_std.c ****     uint8 ep;
 513              		.loc 1 494 0
 514              		.cfi_startproc
 515              		@ args = 0, pretend = 0, frame = 0
 516              		@ frame_needed = 0, uses_anonymous_args = 0
 517              	.LVL39:
 518 0000 F8B5     		push	{r3, r4, r5, r6, r7, lr}
 519              		.cfi_def_cfa_offset 24
 520              		.cfi_offset 3, -24
 521              		.cfi_offset 4, -20
 522              		.cfi_offset 5, -16
 523              		.cfi_offset 6, -12
 524              		.cfi_offset 7, -8
 525              		.cfi_offset 14, -4
 526              	.LVL40:
 508:.\Generated_Source\PSoC5/USBFS_1_std.c ****     {
 527              		.loc 1 508 0
 528 0002 0022     		movs	r2, #0
 529 0004 0EE0     		b	.L39
 530              	.LVL41:
 531              	.L40:
 510:.\Generated_Source\PSoC5/USBFS_1_std.c ****         USBFS_1_EP[ep].hwEpState = 0u;
 532              		.loc 1 510 0 discriminator 3
 533 0006 6B4E     		ldr	r6, .L65
 534 0008 5300     		lsls	r3, r2, #1
 535 000a 9D18     		adds	r5, r3, r2
 536 000c AD00     		lsls	r5, r5, #2
 537 000e 7419     		adds	r4, r6, r5
 538 0010 0021     		movs	r1, #0
 539 0012 7155     		strb	r1, [r6, r5]
 511:.\Generated_Source\PSoC5/USBFS_1_std.c ****         USBFS_1_EP[ep].apiEpState = USBFS_1_NO_EVENT_PENDING;
 540              		.loc 1 511 0 discriminator 3
 541 0014 A170     		strb	r1, [r4, #2]
ARM GAS  C:\Users\Ian\AppData\Local\Temp\ccrzCaTu.s 			page 28


 512:.\Generated_Source\PSoC5/USBFS_1_std.c ****         USBFS_1_EP[ep].epToggle = 0u;
 542              		.loc 1 512 0 discriminator 3
 543 0016 6170     		strb	r1, [r4, #1]
 513:.\Generated_Source\PSoC5/USBFS_1_std.c ****         USBFS_1_EP[ep].epMode = USBFS_1_MODE_DISABLE;
 544              		.loc 1 513 0 discriminator 3
 545 0018 E170     		strb	r1, [r4, #3]
 514:.\Generated_Source\PSoC5/USBFS_1_std.c ****         USBFS_1_EP[ep].bufferSize = 0u;
 546              		.loc 1 514 0 discriminator 3
 547 001a 6171     		strb	r1, [r4, #5]
 515:.\Generated_Source\PSoC5/USBFS_1_std.c ****         USBFS_1_EP[ep].interface = 0u;
 548              		.loc 1 515 0 discriminator 3
 549 001c 2181     		strh	r1, [r4, #8]	@ movhi
 516:.\Generated_Source\PSoC5/USBFS_1_std.c **** 
 550              		.loc 1 516 0 discriminator 3
 551 001e A172     		strb	r1, [r4, #10]
 508:.\Generated_Source\PSoC5/USBFS_1_std.c ****     {
 552              		.loc 1 508 0 discriminator 3
 553 0020 0132     		adds	r2, r2, #1
 554              	.LVL42:
 555 0022 D2B2     		uxtb	r2, r2
 556              	.LVL43:
 557              	.L39:
 508:.\Generated_Source\PSoC5/USBFS_1_std.c ****     {
 558              		.loc 1 508 0 is_stmt 0 discriminator 1
 559 0024 082A     		cmp	r2, #8
 560 0026 EED9     		bls	.L40
 521:.\Generated_Source\PSoC5/USBFS_1_std.c ****     {
 561              		.loc 1 521 0 is_stmt 1
 562 0028 40B9     		cbnz	r0, .L61
 563 002a 0AE0     		b	.L42
 564              	.LVL44:
 565              	.L43:
 525:.\Generated_Source\PSoC5/USBFS_1_std.c ****             USBFS_1_interfaceSetting_last[i] = 0x00u;
 566              		.loc 1 525 0 discriminator 3
 567 002c 0022     		movs	r2, #0
 568 002e 6249     		ldr	r1, .L65+4
 569 0030 CA54     		strb	r2, [r1, r3]
 526:.\Generated_Source\PSoC5/USBFS_1_std.c ****         }
 570              		.loc 1 526 0 discriminator 3
 571 0032 6249     		ldr	r1, .L65+8
 572 0034 CA54     		strb	r2, [r1, r3]
 523:.\Generated_Source\PSoC5/USBFS_1_std.c ****         {
 573              		.loc 1 523 0 discriminator 3
 574 0036 0133     		adds	r3, r3, #1
 575              	.LVL45:
 576 0038 DBB2     		uxtb	r3, r3
 577              	.LVL46:
 578 003a 00E0     		b	.L41
 579              	.LVL47:
 580              	.L61:
 581 003c 0023     		movs	r3, #0
 582              	.LVL48:
 583              	.L41:
 523:.\Generated_Source\PSoC5/USBFS_1_std.c ****         {
 584              		.loc 1 523 0 is_stmt 0 discriminator 1
 585 003e 002B     		cmp	r3, #0
 586 0040 F4D0     		beq	.L43
ARM GAS  C:\Users\Ian\AppData\Local\Temp\ccrzCaTu.s 			page 29


 587              	.LVL49:
 588              	.L42:
 531:.\Generated_Source\PSoC5/USBFS_1_std.c ****     {
 589              		.loc 1 531 0 is_stmt 1
 590 0042 5F4B     		ldr	r3, .L65+12
 591 0044 1B78     		ldrb	r3, [r3]	@ zero_extendqisi2
 592 0046 13F0FF0F 		tst	r3, #255
 593 004a 00F0B280 		beq	.L38
 533:.\Generated_Source\PSoC5/USBFS_1_std.c ****         /* Set Power status for current configuration */
 594              		.loc 1 533 0
 595 004e 5C4B     		ldr	r3, .L65+12
 596 0050 1878     		ldrb	r0, [r3]	@ zero_extendqisi2
 597              	.LVL50:
 598 0052 0138     		subs	r0, r0, #1
 599 0054 C0B2     		uxtb	r0, r0
 600 0056 FFF7FEFF 		bl	USBFS_1_GetConfigTablePtr
 601              	.LVL51:
 535:.\Generated_Source\PSoC5/USBFS_1_std.c ****         if((pDescr[USBFS_1_CONFIG_DESCR_ATTRIB] & USBFS_1_CONFIG_DESCR_ATTRIB_SELF_POWERED) != 0u)
 602              		.loc 1 535 0
 603 005a 4368     		ldr	r3, [r0, #4]
 604              	.LVL52:
 536:.\Generated_Source\PSoC5/USBFS_1_std.c ****         {
 605              		.loc 1 536 0
 606 005c DB79     		ldrb	r3, [r3, #7]	@ zero_extendqisi2
 607              	.LVL53:
 608 005e 13F0400F 		tst	r3, #64
 609 0062 05D0     		beq	.L45
 538:.\Generated_Source\PSoC5/USBFS_1_std.c ****         }
 610              		.loc 1 538 0
 611 0064 574A     		ldr	r2, .L65+16
 612 0066 1378     		ldrb	r3, [r2]	@ zero_extendqisi2
 613 0068 43F00103 		orr	r3, r3, #1
 614 006c 1370     		strb	r3, [r2]
 615 006e 04E0     		b	.L46
 616              	.L45:
 542:.\Generated_Source\PSoC5/USBFS_1_std.c ****         }
 617              		.loc 1 542 0
 618 0070 544A     		ldr	r2, .L65+16
 619 0072 1378     		ldrb	r3, [r2]	@ zero_extendqisi2
 620 0074 03F0FE03 		and	r3, r3, #254
 621 0078 1370     		strb	r3, [r2]
 622              	.L46:
 623              	.LVL54:
 546:.\Generated_Source\PSoC5/USBFS_1_std.c **** 
 624              		.loc 1 546 0
 625 007a 057A     		ldrb	r5, [r0, #8]	@ zero_extendqisi2
 626              	.LVL55:
 613:.\Generated_Source\PSoC5/USBFS_1_std.c ****             {
 627              		.loc 1 613 0
 628 007c 0124     		movs	r4, #1
 629 007e 6EE0     		b	.L47
 630              	.LVL56:
 631              	.L56:
 616:.\Generated_Source\PSoC5/USBFS_1_std.c ****                 /* Find max length for each EP and select it (length could be different in differen
 632              		.loc 1 616 0
 633 0080 C168     		ldr	r1, [r0, #12]
 634              	.LVL57:
ARM GAS  C:\Users\Ian\AppData\Local\Temp\ccrzCaTu.s 			page 30


 619:.\Generated_Source\PSoC5/USBFS_1_std.c ****                 {
 635              		.loc 1 619 0
 636 0082 0023     		movs	r3, #0
 637 0084 67E0     		b	.L48
 638              	.LVL58:
 639              	.L55:
 622:.\Generated_Source\PSoC5/USBFS_1_std.c ****                     {
 640              		.loc 1 622 0
 641 0086 8A78     		ldrb	r2, [r1, #2]	@ zero_extendqisi2
 642 0088 02F07F02 		and	r2, r2, #127
 643 008c 9442     		cmp	r4, r2
 644 008e 5FD1     		bne	.L49
 624:.\Generated_Source\PSoC5/USBFS_1_std.c ****                         {
 645              		.loc 1 624 0
 646 0090 2646     		mov	r6, r4
 647 0092 04EB4402 		add	r2, r4, r4, lsl #1
 648 0096 9200     		lsls	r2, r2, #2
 649 0098 464F     		ldr	r7, .L65
 650 009a 3A44     		add	r2, r2, r7
 651 009c 1289     		ldrh	r2, [r2, #8]
 652 009e 92B2     		uxth	r2, r2
 653 00a0 8F88     		ldrh	r7, [r1, #4]
 654 00a2 BA42     		cmp	r2, r7
 655 00a4 06D2     		bcs	.L50
 626:.\Generated_Source\PSoC5/USBFS_1_std.c ****                         }
 656              		.loc 1 626 0
 657 00a6 04EB4402 		add	r2, r4, r4, lsl #1
 658 00aa 9200     		lsls	r2, r2, #2
 659 00ac DFF804E1 		ldr	lr, .L65
 660 00b0 7244     		add	r2, r2, lr
 661 00b2 1781     		strh	r7, [r2, #8]	@ movhi
 662              	.L50:
 629:.\Generated_Source\PSoC5/USBFS_1_std.c ****                         {
 663              		.loc 1 629 0
 664 00b4 0A78     		ldrb	r2, [r1]	@ zero_extendqisi2
 665 00b6 404F     		ldr	r7, .L65+4
 666 00b8 BA5C     		ldrb	r2, [r7, r2]	@ zero_extendqisi2
 667 00ba D2B2     		uxtb	r2, r2
 668 00bc 4F78     		ldrb	r7, [r1, #1]	@ zero_extendqisi2
 669 00be BA42     		cmp	r2, r7
 670 00c0 46D1     		bne	.L49
 631:.\Generated_Source\PSoC5/USBFS_1_std.c ****                             if ((pEP->addr & USBFS_1_DIR_IN) != 0u)
 671              		.loc 1 631 0
 672 00c2 CF78     		ldrb	r7, [r1, #3]	@ zero_extendqisi2
 673 00c4 07F00307 		and	r7, r7, #3
 674              	.LVL59:
 632:.\Generated_Source\PSoC5/USBFS_1_std.c ****                             {
 675              		.loc 1 632 0
 676 00c8 91F90220 		ldrsb	r2, [r1, #2]
 677 00cc 002A     		cmp	r2, #0
 678 00ce 18DA     		bge	.L51
 635:.\Generated_Source\PSoC5/USBFS_1_std.c ****                                 USBFS_1_EP[i].epMode = (epType == USBFS_1_EP_TYPE_ISOC) ?
 679              		.loc 1 635 0
 680 00d0 06EB4602 		add	r2, r6, r6, lsl #1
 681 00d4 9200     		lsls	r2, r2, #2
 682 00d6 DFF8DCE0 		ldr	lr, .L65
 683 00da 7244     		add	r2, r2, lr
ARM GAS  C:\Users\Ian\AppData\Local\Temp\ccrzCaTu.s 			page 31


 684 00dc 4FF0010E 		mov	lr, #1
 685 00e0 82F801E0 		strb	lr, [r2, #1]
 636:.\Generated_Source\PSoC5/USBFS_1_std.c ****                                                         USBFS_1_MODE_ISO_IN : USBFS_1_MODE_ACK_IN;
 686              		.loc 1 636 0
 687 00e4 7745     		cmp	r7, lr
 688 00e6 02D1     		bne	.L62
 689 00e8 4FF0070E 		mov	lr, #7
 690 00ec 01E0     		b	.L52
 691              	.L62:
 692 00ee 4FF00D0E 		mov	lr, #13
 693              	.L52:
 636:.\Generated_Source\PSoC5/USBFS_1_std.c ****                                                         USBFS_1_MODE_ISO_IN : USBFS_1_MODE_ACK_IN;
 694              		.loc 1 636 0 is_stmt 0 discriminator 4
 695 00f2 06EB4602 		add	r2, r6, r6, lsl #1
 696 00f6 9200     		lsls	r2, r2, #2
 697 00f8 2E4F     		ldr	r7, .L65
 698              	.LVL60:
 699 00fa 3A44     		add	r2, r2, r7
 700 00fc 82F805E0 		strb	lr, [r2, #5]
 701 0100 17E0     		b	.L53
 702              	.LVL61:
 703              	.L51:
 659:.\Generated_Source\PSoC5/USBFS_1_std.c ****                                 USBFS_1_EP[i].epMode = (epType == USBFS_1_EP_TYPE_ISOC) ?
 704              		.loc 1 659 0 is_stmt 1
 705 0102 06EB4602 		add	r2, r6, r6, lsl #1
 706 0106 9200     		lsls	r2, r2, #2
 707 0108 DFF8A8E0 		ldr	lr, .L65
 708 010c 7244     		add	r2, r2, lr
 709 010e 4FF0000E 		mov	lr, #0
 710 0112 82F801E0 		strb	lr, [r2, #1]
 660:.\Generated_Source\PSoC5/USBFS_1_std.c ****                                                     USBFS_1_MODE_ISO_OUT : USBFS_1_MODE_ACK_OUT;
 711              		.loc 1 660 0
 712 0116 012F     		cmp	r7, #1
 713 0118 02D1     		bne	.L63
 714 011a 4FF0050E 		mov	lr, #5
 715 011e 01E0     		b	.L54
 716              	.L63:
 717 0120 4FF0090E 		mov	lr, #9
 718              	.L54:
 660:.\Generated_Source\PSoC5/USBFS_1_std.c ****                                                     USBFS_1_MODE_ISO_OUT : USBFS_1_MODE_ACK_OUT;
 719              		.loc 1 660 0 is_stmt 0 discriminator 4
 720 0124 06EB4602 		add	r2, r6, r6, lsl #1
 721 0128 9200     		lsls	r2, r2, #2
 722 012a 224F     		ldr	r7, .L65
 723              	.LVL62:
 724 012c 3A44     		add	r2, r2, r7
 725 012e 82F805E0 		strb	lr, [r2, #5]
 726              	.L53:
 680:.\Generated_Source\PSoC5/USBFS_1_std.c ****                             USBFS_1_EP[i].attrib = pEP->attributes;
 727              		.loc 1 680 0 is_stmt 1
 728 0132 91F802C0 		ldrb	ip, [r1, #2]	@ zero_extendqisi2
 729 0136 1F4F     		ldr	r7, .L65
 730 0138 4FEA460E 		lsl	lr, r6, #1
 731 013c 0EEB0602 		add	r2, lr, r6
 732 0140 9200     		lsls	r2, r2, #2
 733 0142 3A44     		add	r2, r2, r7
 734 0144 82F804C0 		strb	ip, [r2, #4]
ARM GAS  C:\Users\Ian\AppData\Local\Temp\ccrzCaTu.s 			page 32


 681:.\Generated_Source\PSoC5/USBFS_1_std.c **** 
 735              		.loc 1 681 0
 736 0148 CA78     		ldrb	r2, [r1, #3]	@ zero_extendqisi2
 737 014a 7644     		add	r6, r6, lr
 738 014c B600     		lsls	r6, r6, #2
 739 014e BA55     		strb	r2, [r7, r6]
 740              	.L49:
 688:.\Generated_Source\PSoC5/USBFS_1_std.c ****                 }
 741              		.loc 1 688 0 discriminator 2
 742 0150 0831     		adds	r1, r1, #8
 743              	.LVL63:
 619:.\Generated_Source\PSoC5/USBFS_1_std.c ****                 {
 744              		.loc 1 619 0 discriminator 2
 745 0152 0133     		adds	r3, r3, #1
 746              	.LVL64:
 747 0154 DBB2     		uxtb	r3, r3
 748              	.LVL65:
 749              	.L48:
 619:.\Generated_Source\PSoC5/USBFS_1_std.c ****                 {
 750              		.loc 1 619 0 is_stmt 0 discriminator 1
 751 0156 AB42     		cmp	r3, r5
 752 0158 95D3     		bcc	.L55
 613:.\Generated_Source\PSoC5/USBFS_1_std.c ****             {
 753              		.loc 1 613 0 is_stmt 1 discriminator 2
 754 015a 0134     		adds	r4, r4, #1
 755              	.LVL66:
 756 015c E4B2     		uxtb	r4, r4
 757              	.LVL67:
 758              	.L47:
 613:.\Generated_Source\PSoC5/USBFS_1_std.c ****             {
 759              		.loc 1 613 0 is_stmt 0 discriminator 1
 760 015e 082C     		cmp	r4, #8
 761 0160 8ED9     		bls	.L56
 698:.\Generated_Source\PSoC5/USBFS_1_std.c ****         for (i = 0u; i < ep; i++)
 762              		.loc 1 698 0 is_stmt 1
 763 0162 C068     		ldr	r0, [r0, #12]
 764              	.LVL68:
 699:.\Generated_Source\PSoC5/USBFS_1_std.c ****         {
 765              		.loc 1 699 0
 766 0164 0022     		movs	r2, #0
 767 0166 0CE0     		b	.L57
 768              	.LVL69:
 769              	.L58:
 702:.\Generated_Source\PSoC5/USBFS_1_std.c ****             pEP = &pEP[1u];
 770              		.loc 1 702 0 discriminator 3
 771 0168 8378     		ldrb	r3, [r0, #2]	@ zero_extendqisi2
 772 016a 03F07F03 		and	r3, r3, #127
 773 016e 10F8084B 		ldrb	r4, [r0], #8	@ zero_extendqisi2
 774              	.LVL70:
 775 0172 03EB4303 		add	r3, r3, r3, lsl #1
 776 0176 9B00     		lsls	r3, r3, #2
 777 0178 1349     		ldr	r1, .L65+20
 778 017a 0B44     		add	r3, r3, r1
 779 017c 9C70     		strb	r4, [r3, #2]
 780              	.LVL71:
 699:.\Generated_Source\PSoC5/USBFS_1_std.c ****         {
 781              		.loc 1 699 0 discriminator 3
ARM GAS  C:\Users\Ian\AppData\Local\Temp\ccrzCaTu.s 			page 33


 782 017e 0132     		adds	r2, r2, #1
 783              	.LVL72:
 784 0180 D2B2     		uxtb	r2, r2
 785              	.LVL73:
 786              	.L57:
 699:.\Generated_Source\PSoC5/USBFS_1_std.c ****         {
 787              		.loc 1 699 0 is_stmt 0 discriminator 1
 788 0182 AA42     		cmp	r2, r5
 789 0184 F0D3     		bcc	.L58
 706:.\Generated_Source\PSoC5/USBFS_1_std.c ****         /* Set the endpoint buffer addresses */
 790              		.loc 1 706 0 is_stmt 1
 791 0186 FFF7FEFF 		bl	USBFS_1_GetInterfaceClassTablePtr
 792              	.LVL74:
 793 018a 104B     		ldr	r3, .L65+24
 794 018c 1860     		str	r0, [r3]
 795              	.LVL75:
 501:.\Generated_Source\PSoC5/USBFS_1_std.c ****     #endif /*  USBFS_1_EP_MM != USBFS_1__EP_DMAAUTO */
 796              		.loc 1 501 0
 797 018e 0020     		movs	r0, #0
 710:.\Generated_Source\PSoC5/USBFS_1_std.c ****             {
 798              		.loc 1 710 0
 799 0190 0122     		movs	r2, #1
 800 0192 0AE0     		b	.L59
 801              	.LVL76:
 802              	.L60:
 712:.\Generated_Source\PSoC5/USBFS_1_std.c ****                  buffCount += USBFS_1_EP[ep].bufferSize;
 803              		.loc 1 712 0 discriminator 3
 804 0194 074C     		ldr	r4, .L65
 805 0196 5300     		lsls	r3, r2, #1
 806 0198 9918     		adds	r1, r3, r2
 807 019a 8900     		lsls	r1, r1, #2
 808 019c 2144     		add	r1, r1, r4
 809 019e C880     		strh	r0, [r1, #6]	@ movhi
 713:.\Generated_Source\PSoC5/USBFS_1_std.c ****             }
 810              		.loc 1 713 0 discriminator 3
 811 01a0 0B89     		ldrh	r3, [r1, #8]
 812 01a2 1844     		add	r0, r0, r3
 813              	.LVL77:
 814 01a4 80B2     		uxth	r0, r0
 815              	.LVL78:
 710:.\Generated_Source\PSoC5/USBFS_1_std.c ****             {
 816              		.loc 1 710 0 discriminator 3
 817 01a6 0132     		adds	r2, r2, #1
 818              	.LVL79:
 819 01a8 D2B2     		uxtb	r2, r2
 820              	.LVL80:
 821              	.L59:
 710:.\Generated_Source\PSoC5/USBFS_1_std.c ****             {
 822              		.loc 1 710 0 is_stmt 0 discriminator 1
 823 01aa 082A     		cmp	r2, #8
 824 01ac F2D9     		bls	.L60
 718:.\Generated_Source\PSoC5/USBFS_1_std.c ****     } /* USBFS_1_configuration > 0 */
 825              		.loc 1 718 0 is_stmt 1
 826 01ae FFF7FEFF 		bl	USBFS_1_ConfigReg
 827              	.LVL81:
 828              	.L38:
 829 01b2 F8BD     		pop	{r3, r4, r5, r6, r7, pc}
ARM GAS  C:\Users\Ian\AppData\Local\Temp\ccrzCaTu.s 			page 34


 830              	.L66:
 831              		.align	2
 832              	.L65:
 833 01b4 00000000 		.word	USBFS_1_EP
 834 01b8 00000000 		.word	USBFS_1_interfaceSetting
 835 01bc 00000000 		.word	USBFS_1_interfaceSetting_last
 836 01c0 00000000 		.word	USBFS_1_configuration
 837 01c4 00000000 		.word	USBFS_1_deviceStatus
 838 01c8 08000000 		.word	USBFS_1_EP+8
 839 01cc 00000000 		.word	USBFS_1_interfaceClass
 840              		.cfi_endproc
 841              	.LFE2:
 842              		.size	USBFS_1_Config, .-USBFS_1_Config
 843              		.section	.text.USBFS_1_TerminateEP,"ax",%progbits
 844              		.align	2
 845              		.global	USBFS_1_TerminateEP
 846              		.thumb
 847              		.thumb_func
 848              		.type	USBFS_1_TerminateEP, %function
 849              	USBFS_1_TerminateEP:
 850              	.LFB7:
 954:.\Generated_Source\PSoC5/USBFS_1_std.c **** 
 955:.\Generated_Source\PSoC5/USBFS_1_std.c **** 
 956:.\Generated_Source\PSoC5/USBFS_1_std.c **** /*******************************************************************************
 957:.\Generated_Source\PSoC5/USBFS_1_std.c **** * Function Name: USBFS_1_TerminateEP
 958:.\Generated_Source\PSoC5/USBFS_1_std.c **** ********************************************************************************
 959:.\Generated_Source\PSoC5/USBFS_1_std.c **** *
 960:.\Generated_Source\PSoC5/USBFS_1_std.c **** * Summary:
 961:.\Generated_Source\PSoC5/USBFS_1_std.c **** *  This function terminates the specified USBFS endpoint.
 962:.\Generated_Source\PSoC5/USBFS_1_std.c **** *  This function should be used before endpoint reconfiguration.
 963:.\Generated_Source\PSoC5/USBFS_1_std.c **** *
 964:.\Generated_Source\PSoC5/USBFS_1_std.c **** * Parameters:
 965:.\Generated_Source\PSoC5/USBFS_1_std.c **** *  Endpoint number.
 966:.\Generated_Source\PSoC5/USBFS_1_std.c **** *
 967:.\Generated_Source\PSoC5/USBFS_1_std.c **** * Return:
 968:.\Generated_Source\PSoC5/USBFS_1_std.c **** *  None.
 969:.\Generated_Source\PSoC5/USBFS_1_std.c **** *
 970:.\Generated_Source\PSoC5/USBFS_1_std.c **** * Reentrant:
 971:.\Generated_Source\PSoC5/USBFS_1_std.c **** *  No.
 972:.\Generated_Source\PSoC5/USBFS_1_std.c **** *
 973:.\Generated_Source\PSoC5/USBFS_1_std.c **** *******************************************************************************/
 974:.\Generated_Source\PSoC5/USBFS_1_std.c **** void USBFS_1_TerminateEP(uint8 ep) 
 975:.\Generated_Source\PSoC5/USBFS_1_std.c **** {
 851              		.loc 1 975 0
 852              		.cfi_startproc
 853              		@ args = 0, pretend = 0, frame = 0
 854              		@ frame_needed = 0, uses_anonymous_args = 0
 855              		@ link register save eliminated.
 856              	.LVL82:
 976:.\Generated_Source\PSoC5/USBFS_1_std.c ****     uint8 ri;
 977:.\Generated_Source\PSoC5/USBFS_1_std.c **** 
 978:.\Generated_Source\PSoC5/USBFS_1_std.c ****     ep &= USBFS_1_DIR_UNUSED;
 857              		.loc 1 978 0
 858 0000 00F07F00 		and	r0, r0, #127
 859              	.LVL83:
 979:.\Generated_Source\PSoC5/USBFS_1_std.c ****     ri = ((ep - USBFS_1_EP1) << USBFS_1_EPX_CNTX_ADDR_SHIFT);
 860              		.loc 1 979 0
ARM GAS  C:\Users\Ian\AppData\Local\Temp\ccrzCaTu.s 			page 35


 861 0004 431E     		subs	r3, r0, #1
 862 0006 DBB2     		uxtb	r3, r3
 863 0008 1A01     		lsls	r2, r3, #4
 864 000a D1B2     		uxtb	r1, r2
 865              	.LVL84:
 980:.\Generated_Source\PSoC5/USBFS_1_std.c **** 
 981:.\Generated_Source\PSoC5/USBFS_1_std.c ****     if ((ep > USBFS_1_EP0) && (ep < USBFS_1_MAX_EP))
 866              		.loc 1 981 0
 867 000c 072B     		cmp	r3, #7
 868 000e 19D8     		bhi	.L72
 975:.\Generated_Source\PSoC5/USBFS_1_std.c ****     uint8 ri;
 869              		.loc 1 975 0
 870 0010 30B4     		push	{r4, r5}
 871              		.cfi_def_cfa_offset 8
 872              		.cfi_offset 4, -8
 873              		.cfi_offset 5, -4
 982:.\Generated_Source\PSoC5/USBFS_1_std.c ****     {
 983:.\Generated_Source\PSoC5/USBFS_1_std.c ****         /* Set the endpoint Halt */
 984:.\Generated_Source\PSoC5/USBFS_1_std.c ****         USBFS_1_EP[ep].hwEpState |= (USBFS_1_ENDPOINT_STATUS_HALT);
 874              		.loc 1 984 0
 875 0012 0D4C     		ldr	r4, .L73
 876 0014 4500     		lsls	r5, r0, #1
 877 0016 2B18     		adds	r3, r5, r0
 878 0018 9B00     		lsls	r3, r3, #2
 879 001a 2344     		add	r3, r3, r4
 880 001c 9A78     		ldrb	r2, [r3, #2]	@ zero_extendqisi2
 881 001e 42F00102 		orr	r2, r2, #1
 882 0022 9A70     		strb	r2, [r3, #2]
 985:.\Generated_Source\PSoC5/USBFS_1_std.c **** 
 986:.\Generated_Source\PSoC5/USBFS_1_std.c ****         /* Clear the data toggle */
 987:.\Generated_Source\PSoC5/USBFS_1_std.c ****         USBFS_1_EP[ep].epToggle = 0u;
 883              		.loc 1 987 0
 884 0024 0022     		movs	r2, #0
 885 0026 DA70     		strb	r2, [r3, #3]
 988:.\Generated_Source\PSoC5/USBFS_1_std.c ****         USBFS_1_EP[ep].apiEpState = USBFS_1_NO_EVENT_ALLOWED;
 886              		.loc 1 988 0
 887 0028 0222     		movs	r2, #2
 888 002a 5A70     		strb	r2, [r3, #1]
 989:.\Generated_Source\PSoC5/USBFS_1_std.c **** 
 990:.\Generated_Source\PSoC5/USBFS_1_std.c ****         if ((USBFS_1_EP[ep].addr & USBFS_1_DIR_IN) != 0u)
 889              		.loc 1 990 0
 890 002c 1B79     		ldrb	r3, [r3, #4]	@ zero_extendqisi2
 891 002e 13F0800F 		tst	r3, #128
 892 0032 03D0     		beq	.L69
 991:.\Generated_Source\PSoC5/USBFS_1_std.c ****         {
 992:.\Generated_Source\PSoC5/USBFS_1_std.c ****             /* IN Endpoint */
 993:.\Generated_Source\PSoC5/USBFS_1_std.c ****             CY_SET_REG8((reg8 *)(USBFS_1_SIE_EP1_CR0_IND + ri), USBFS_1_MODE_NAK_IN);
 893              		.loc 1 993 0
 894 0034 0C22     		movs	r2, #12
 895 0036 054B     		ldr	r3, .L73+4
 896 0038 CA54     		strb	r2, [r1, r3]
 897 003a 02E0     		b	.L67
 898              	.L69:
 994:.\Generated_Source\PSoC5/USBFS_1_std.c ****         }
 995:.\Generated_Source\PSoC5/USBFS_1_std.c ****         else
 996:.\Generated_Source\PSoC5/USBFS_1_std.c ****         {
 997:.\Generated_Source\PSoC5/USBFS_1_std.c ****             /* OUT Endpoint */
ARM GAS  C:\Users\Ian\AppData\Local\Temp\ccrzCaTu.s 			page 36


 998:.\Generated_Source\PSoC5/USBFS_1_std.c ****             CY_SET_REG8((reg8 *)(USBFS_1_SIE_EP1_CR0_IND + ri), USBFS_1_MODE_NAK_OUT);
 899              		.loc 1 998 0
 900 003c 0822     		movs	r2, #8
 901 003e 034B     		ldr	r3, .L73+4
 902 0040 CA54     		strb	r2, [r1, r3]
 903              	.L67:
 999:.\Generated_Source\PSoC5/USBFS_1_std.c ****         }
1000:.\Generated_Source\PSoC5/USBFS_1_std.c ****     }
1001:.\Generated_Source\PSoC5/USBFS_1_std.c **** }
 904              		.loc 1 1001 0
 905 0042 30BC     		pop	{r4, r5}
 906              		.cfi_restore 5
 907              		.cfi_restore 4
 908              		.cfi_def_cfa_offset 0
 909              	.L72:
 910 0044 7047     		bx	lr
 911              	.L74:
 912 0046 00BF     		.align	2
 913              	.L73:
 914 0048 00000000 		.word	USBFS_1_EP
 915 004c 0E600040 		.word	1073766414
 916              		.cfi_endproc
 917              	.LFE7:
 918              		.size	USBFS_1_TerminateEP, .-USBFS_1_TerminateEP
 919              		.section	.text.USBFS_1_SetEndpointHalt,"ax",%progbits
 920              		.align	2
 921              		.global	USBFS_1_SetEndpointHalt
 922              		.thumb
 923              		.thumb_func
 924              		.type	USBFS_1_SetEndpointHalt, %function
 925              	USBFS_1_SetEndpointHalt:
 926              	.LFB8:
1002:.\Generated_Source\PSoC5/USBFS_1_std.c **** 
1003:.\Generated_Source\PSoC5/USBFS_1_std.c **** 
1004:.\Generated_Source\PSoC5/USBFS_1_std.c **** /*******************************************************************************
1005:.\Generated_Source\PSoC5/USBFS_1_std.c **** * Function Name: USBFS_1_SetEndpointHalt
1006:.\Generated_Source\PSoC5/USBFS_1_std.c **** ********************************************************************************
1007:.\Generated_Source\PSoC5/USBFS_1_std.c **** *
1008:.\Generated_Source\PSoC5/USBFS_1_std.c **** * Summary:
1009:.\Generated_Source\PSoC5/USBFS_1_std.c **** *  This routine handles set endpoint halt.
1010:.\Generated_Source\PSoC5/USBFS_1_std.c **** *
1011:.\Generated_Source\PSoC5/USBFS_1_std.c **** * Parameters:
1012:.\Generated_Source\PSoC5/USBFS_1_std.c **** *  None.
1013:.\Generated_Source\PSoC5/USBFS_1_std.c **** *
1014:.\Generated_Source\PSoC5/USBFS_1_std.c **** * Return:
1015:.\Generated_Source\PSoC5/USBFS_1_std.c **** *  requestHandled.
1016:.\Generated_Source\PSoC5/USBFS_1_std.c **** *
1017:.\Generated_Source\PSoC5/USBFS_1_std.c **** * Reentrant:
1018:.\Generated_Source\PSoC5/USBFS_1_std.c **** *  No.
1019:.\Generated_Source\PSoC5/USBFS_1_std.c **** *
1020:.\Generated_Source\PSoC5/USBFS_1_std.c **** *******************************************************************************/
1021:.\Generated_Source\PSoC5/USBFS_1_std.c **** uint8 USBFS_1_SetEndpointHalt(void) 
1022:.\Generated_Source\PSoC5/USBFS_1_std.c **** {
 927              		.loc 1 1022 0
 928              		.cfi_startproc
 929              		@ args = 0, pretend = 0, frame = 0
 930              		@ frame_needed = 0, uses_anonymous_args = 0
ARM GAS  C:\Users\Ian\AppData\Local\Temp\ccrzCaTu.s 			page 37


 931 0000 38B5     		push	{r3, r4, r5, lr}
 932              		.cfi_def_cfa_offset 16
 933              		.cfi_offset 3, -16
 934              		.cfi_offset 4, -12
 935              		.cfi_offset 5, -8
 936              		.cfi_offset 14, -4
 937              	.LVL85:
1023:.\Generated_Source\PSoC5/USBFS_1_std.c ****     uint8 ep;
1024:.\Generated_Source\PSoC5/USBFS_1_std.c ****     uint8 ri;
1025:.\Generated_Source\PSoC5/USBFS_1_std.c ****     uint8 requestHandled = USBFS_1_FALSE;
1026:.\Generated_Source\PSoC5/USBFS_1_std.c **** 
1027:.\Generated_Source\PSoC5/USBFS_1_std.c ****     /* Set endpoint halt */
1028:.\Generated_Source\PSoC5/USBFS_1_std.c ****     ep = CY_GET_REG8(USBFS_1_wIndexLo) & USBFS_1_DIR_UNUSED;
 938              		.loc 1 1028 0
 939 0002 144B     		ldr	r3, .L81
 940 0004 1B78     		ldrb	r3, [r3]	@ zero_extendqisi2
 941 0006 03F07F03 		and	r3, r3, #127
 942              	.LVL86:
1029:.\Generated_Source\PSoC5/USBFS_1_std.c ****     ri = ((ep - USBFS_1_EP1) << USBFS_1_EPX_CNTX_ADDR_SHIFT);
 943              		.loc 1 1029 0
 944 000a 5A1E     		subs	r2, r3, #1
 945 000c D2B2     		uxtb	r2, r2
 946 000e 1101     		lsls	r1, r2, #4
 947 0010 C8B2     		uxtb	r0, r1
 948              	.LVL87:
1030:.\Generated_Source\PSoC5/USBFS_1_std.c **** 
1031:.\Generated_Source\PSoC5/USBFS_1_std.c ****     if ((ep > USBFS_1_EP0) && (ep < USBFS_1_MAX_EP))
 949              		.loc 1 1031 0
 950 0012 072A     		cmp	r2, #7
 951 0014 1CD8     		bhi	.L79
1032:.\Generated_Source\PSoC5/USBFS_1_std.c ****     {
1033:.\Generated_Source\PSoC5/USBFS_1_std.c ****         /* Set the endpoint Halt */
1034:.\Generated_Source\PSoC5/USBFS_1_std.c ****         USBFS_1_EP[ep].hwEpState |= (USBFS_1_ENDPOINT_STATUS_HALT);
 952              		.loc 1 1034 0
 953 0016 104C     		ldr	r4, .L81+4
 954 0018 5D00     		lsls	r5, r3, #1
 955 001a EA18     		adds	r2, r5, r3
 956 001c 9200     		lsls	r2, r2, #2
 957 001e 2244     		add	r2, r2, r4
 958 0020 9178     		ldrb	r1, [r2, #2]	@ zero_extendqisi2
 959 0022 41F00101 		orr	r1, r1, #1
 960 0026 9170     		strb	r1, [r2, #2]
1035:.\Generated_Source\PSoC5/USBFS_1_std.c **** 
1036:.\Generated_Source\PSoC5/USBFS_1_std.c ****         /* Clear the data toggle */
1037:.\Generated_Source\PSoC5/USBFS_1_std.c ****         USBFS_1_EP[ep].epToggle = 0u;
 961              		.loc 1 1037 0
 962 0028 0021     		movs	r1, #0
 963 002a D170     		strb	r1, [r2, #3]
1038:.\Generated_Source\PSoC5/USBFS_1_std.c ****         USBFS_1_EP[ep].apiEpState |= USBFS_1_NO_EVENT_ALLOWED;
 964              		.loc 1 1038 0
 965 002c 5178     		ldrb	r1, [r2, #1]	@ zero_extendqisi2
 966 002e 41F00201 		orr	r1, r1, #2
 967 0032 5170     		strb	r1, [r2, #1]
1039:.\Generated_Source\PSoC5/USBFS_1_std.c **** 
1040:.\Generated_Source\PSoC5/USBFS_1_std.c ****         if ((USBFS_1_EP[ep].addr & USBFS_1_DIR_IN) != 0u)
 968              		.loc 1 1040 0
 969 0034 1379     		ldrb	r3, [r2, #4]	@ zero_extendqisi2
ARM GAS  C:\Users\Ian\AppData\Local\Temp\ccrzCaTu.s 			page 38


 970              	.LVL88:
 971 0036 13F0800F 		tst	r3, #128
 972 003a 03D0     		beq	.L77
1041:.\Generated_Source\PSoC5/USBFS_1_std.c ****         {
1042:.\Generated_Source\PSoC5/USBFS_1_std.c ****             /* IN Endpoint */
1043:.\Generated_Source\PSoC5/USBFS_1_std.c ****             CY_SET_REG8((reg8 *)(USBFS_1_SIE_EP1_CR0_IND + ri), USBFS_1_MODE_STALL_DATA_EP |
 973              		.loc 1 1043 0
 974 003c 8D22     		movs	r2, #141
 975 003e 074B     		ldr	r3, .L81+8
 976 0040 C254     		strb	r2, [r0, r3]
 977 0042 02E0     		b	.L78
 978              	.L77:
1044:.\Generated_Source\PSoC5/USBFS_1_std.c ****                                                                USBFS_1_MODE_ACK_IN);
1045:.\Generated_Source\PSoC5/USBFS_1_std.c ****         }
1046:.\Generated_Source\PSoC5/USBFS_1_std.c ****         else
1047:.\Generated_Source\PSoC5/USBFS_1_std.c ****         {
1048:.\Generated_Source\PSoC5/USBFS_1_std.c ****             /* OUT Endpoint */
1049:.\Generated_Source\PSoC5/USBFS_1_std.c ****             CY_SET_REG8((reg8 *)(USBFS_1_SIE_EP1_CR0_IND + ri), USBFS_1_MODE_STALL_DATA_EP |
 979              		.loc 1 1049 0
 980 0044 8922     		movs	r2, #137
 981 0046 054B     		ldr	r3, .L81+8
 982 0048 C254     		strb	r2, [r0, r3]
 983              	.L78:
1050:.\Generated_Source\PSoC5/USBFS_1_std.c ****                                                                USBFS_1_MODE_ACK_OUT);
1051:.\Generated_Source\PSoC5/USBFS_1_std.c ****         }
1052:.\Generated_Source\PSoC5/USBFS_1_std.c ****         requestHandled = USBFS_1_InitNoDataControlTransfer();
 984              		.loc 1 1052 0
 985 004a FFF7FEFF 		bl	USBFS_1_InitNoDataControlTransfer
 986              	.LVL89:
 987 004e 38BD     		pop	{r3, r4, r5, pc}
 988              	.LVL90:
 989              	.L79:
1025:.\Generated_Source\PSoC5/USBFS_1_std.c **** 
 990              		.loc 1 1025 0
 991 0050 0020     		movs	r0, #0
 992              	.LVL91:
1053:.\Generated_Source\PSoC5/USBFS_1_std.c ****     }
1054:.\Generated_Source\PSoC5/USBFS_1_std.c **** 
1055:.\Generated_Source\PSoC5/USBFS_1_std.c ****     return(requestHandled);
1056:.\Generated_Source\PSoC5/USBFS_1_std.c **** }
 993              		.loc 1 1056 0
 994 0052 38BD     		pop	{r3, r4, r5, pc}
 995              	.LVL92:
 996              	.L82:
 997              		.align	2
 998              	.L81:
 999 0054 04600040 		.word	1073766404
 1000 0058 00000000 		.word	USBFS_1_EP
 1001 005c 0E600040 		.word	1073766414
 1002              		.cfi_endproc
 1003              	.LFE8:
 1004              		.size	USBFS_1_SetEndpointHalt, .-USBFS_1_SetEndpointHalt
 1005              		.section	.text.USBFS_1_ClearEndpointHalt,"ax",%progbits
 1006              		.align	2
 1007              		.global	USBFS_1_ClearEndpointHalt
 1008              		.thumb
 1009              		.thumb_func
ARM GAS  C:\Users\Ian\AppData\Local\Temp\ccrzCaTu.s 			page 39


 1010              		.type	USBFS_1_ClearEndpointHalt, %function
 1011              	USBFS_1_ClearEndpointHalt:
 1012              	.LFB9:
1057:.\Generated_Source\PSoC5/USBFS_1_std.c **** 
1058:.\Generated_Source\PSoC5/USBFS_1_std.c **** 
1059:.\Generated_Source\PSoC5/USBFS_1_std.c **** /*******************************************************************************
1060:.\Generated_Source\PSoC5/USBFS_1_std.c **** * Function Name: USBFS_1_ClearEndpointHalt
1061:.\Generated_Source\PSoC5/USBFS_1_std.c **** ********************************************************************************
1062:.\Generated_Source\PSoC5/USBFS_1_std.c **** *
1063:.\Generated_Source\PSoC5/USBFS_1_std.c **** * Summary:
1064:.\Generated_Source\PSoC5/USBFS_1_std.c **** *  This routine handles clear endpoint halt.
1065:.\Generated_Source\PSoC5/USBFS_1_std.c **** *
1066:.\Generated_Source\PSoC5/USBFS_1_std.c **** * Parameters:
1067:.\Generated_Source\PSoC5/USBFS_1_std.c **** *  None.
1068:.\Generated_Source\PSoC5/USBFS_1_std.c **** *
1069:.\Generated_Source\PSoC5/USBFS_1_std.c **** * Return:
1070:.\Generated_Source\PSoC5/USBFS_1_std.c **** *  requestHandled.
1071:.\Generated_Source\PSoC5/USBFS_1_std.c **** *
1072:.\Generated_Source\PSoC5/USBFS_1_std.c **** * Reentrant:
1073:.\Generated_Source\PSoC5/USBFS_1_std.c **** *  No.
1074:.\Generated_Source\PSoC5/USBFS_1_std.c **** *
1075:.\Generated_Source\PSoC5/USBFS_1_std.c **** *******************************************************************************/
1076:.\Generated_Source\PSoC5/USBFS_1_std.c **** uint8 USBFS_1_ClearEndpointHalt(void) 
1077:.\Generated_Source\PSoC5/USBFS_1_std.c **** {
 1013              		.loc 1 1077 0
 1014              		.cfi_startproc
 1015              		@ args = 0, pretend = 0, frame = 0
 1016              		@ frame_needed = 0, uses_anonymous_args = 0
 1017              	.LVL93:
1078:.\Generated_Source\PSoC5/USBFS_1_std.c ****     uint8 ep;
1079:.\Generated_Source\PSoC5/USBFS_1_std.c ****     uint8 ri;
1080:.\Generated_Source\PSoC5/USBFS_1_std.c ****     uint8 requestHandled = USBFS_1_FALSE;
1081:.\Generated_Source\PSoC5/USBFS_1_std.c **** 
1082:.\Generated_Source\PSoC5/USBFS_1_std.c ****     /* Clear endpoint halt */
1083:.\Generated_Source\PSoC5/USBFS_1_std.c ****     ep = CY_GET_REG8(USBFS_1_wIndexLo) & USBFS_1_DIR_UNUSED;
 1018              		.loc 1 1083 0
 1019 0000 244B     		ldr	r3, .L92
 1020 0002 1B78     		ldrb	r3, [r3]	@ zero_extendqisi2
 1021 0004 03F07F03 		and	r3, r3, #127
 1022              	.LVL94:
1084:.\Generated_Source\PSoC5/USBFS_1_std.c ****     ri = ((ep - USBFS_1_EP1) << USBFS_1_EPX_CNTX_ADDR_SHIFT);
 1023              		.loc 1 1084 0
 1024 0008 5A1E     		subs	r2, r3, #1
 1025 000a D2B2     		uxtb	r2, r2
 1026 000c 1101     		lsls	r1, r2, #4
 1027 000e C9B2     		uxtb	r1, r1
 1028              	.LVL95:
1085:.\Generated_Source\PSoC5/USBFS_1_std.c **** 
1086:.\Generated_Source\PSoC5/USBFS_1_std.c ****     if ((ep > USBFS_1_EP0) && (ep < USBFS_1_MAX_EP))
 1029              		.loc 1 1086 0
 1030 0010 072A     		cmp	r2, #7
 1031 0012 3CD8     		bhi	.L89
1077:.\Generated_Source\PSoC5/USBFS_1_std.c ****     uint8 ep;
 1032              		.loc 1 1077 0
 1033 0014 10B5     		push	{r4, lr}
 1034              		.cfi_def_cfa_offset 8
 1035              		.cfi_offset 4, -8
ARM GAS  C:\Users\Ian\AppData\Local\Temp\ccrzCaTu.s 			page 40


 1036              		.cfi_offset 14, -4
1087:.\Generated_Source\PSoC5/USBFS_1_std.c ****     {
1088:.\Generated_Source\PSoC5/USBFS_1_std.c ****         /* Clear the endpoint Halt */
1089:.\Generated_Source\PSoC5/USBFS_1_std.c ****         USBFS_1_EP[ep].hwEpState &= (uint8)~(USBFS_1_ENDPOINT_STATUS_HALT);
 1037              		.loc 1 1089 0
 1038 0016 5A00     		lsls	r2, r3, #1
 1039 0018 1A44     		add	r2, r2, r3
 1040 001a 9200     		lsls	r2, r2, #2
 1041 001c 1E48     		ldr	r0, .L92+4
 1042 001e 0244     		add	r2, r2, r0
 1043 0020 9078     		ldrb	r0, [r2, #2]	@ zero_extendqisi2
 1044 0022 00F0FE00 		and	r0, r0, #254
 1045 0026 9070     		strb	r0, [r2, #2]
1090:.\Generated_Source\PSoC5/USBFS_1_std.c **** 
1091:.\Generated_Source\PSoC5/USBFS_1_std.c ****         /* Clear the data toggle */
1092:.\Generated_Source\PSoC5/USBFS_1_std.c ****         USBFS_1_EP[ep].epToggle = 0u;
 1046              		.loc 1 1092 0
 1047 0028 0020     		movs	r0, #0
 1048 002a D070     		strb	r0, [r2, #3]
1093:.\Generated_Source\PSoC5/USBFS_1_std.c ****         /* Clear toggle bit for already armed packet */
1094:.\Generated_Source\PSoC5/USBFS_1_std.c ****         CY_SET_REG8((reg8 *)(USBFS_1_SIE_EP1_CNT0_IND + ri), CY_GET_REG8(
 1049              		.loc 1 1094 0
 1050 002c 1B4C     		ldr	r4, .L92+8
 1051 002e 085D     		ldrb	r0, [r1, r4]	@ zero_extendqisi2
 1052 0030 00F07F00 		and	r0, r0, #127
 1053 0034 0855     		strb	r0, [r1, r4]
1095:.\Generated_Source\PSoC5/USBFS_1_std.c ****                     (reg8 *)(USBFS_1_SIE_EP1_CNT0_IND + ri)) & (uint8)~USBFS_1_EPX_CNT_DATA_TOGGLE)
1096:.\Generated_Source\PSoC5/USBFS_1_std.c ****         /* Return API State as it was defined before */
1097:.\Generated_Source\PSoC5/USBFS_1_std.c ****         USBFS_1_EP[ep].apiEpState &= (uint8)~USBFS_1_NO_EVENT_ALLOWED;
 1054              		.loc 1 1097 0
 1055 0036 5078     		ldrb	r0, [r2, #1]	@ zero_extendqisi2
 1056 0038 00F0FD00 		and	r0, r0, #253
 1057 003c 5070     		strb	r0, [r2, #1]
1098:.\Generated_Source\PSoC5/USBFS_1_std.c **** 
1099:.\Generated_Source\PSoC5/USBFS_1_std.c ****         if ((USBFS_1_EP[ep].addr & USBFS_1_DIR_IN) != 0u)
 1058              		.loc 1 1099 0
 1059 003e 1279     		ldrb	r2, [r2, #4]	@ zero_extendqisi2
 1060 0040 12F0800F 		tst	r2, #128
 1061 0044 10D0     		beq	.L85
1100:.\Generated_Source\PSoC5/USBFS_1_std.c ****         {
1101:.\Generated_Source\PSoC5/USBFS_1_std.c ****             /* IN Endpoint */
1102:.\Generated_Source\PSoC5/USBFS_1_std.c ****             if(USBFS_1_EP[ep].apiEpState == USBFS_1_IN_BUFFER_EMPTY)
 1062              		.loc 1 1102 0
 1063 0046 03EB4303 		add	r3, r3, r3, lsl #1
 1064              	.LVL96:
 1065 004a 9B00     		lsls	r3, r3, #2
 1066 004c 124A     		ldr	r2, .L92+4
 1067 004e 1344     		add	r3, r3, r2
 1068 0050 5B78     		ldrb	r3, [r3, #1]	@ zero_extendqisi2
 1069 0052 DBB2     		uxtb	r3, r3
 1070 0054 012B     		cmp	r3, #1
 1071 0056 03D1     		bne	.L86
1103:.\Generated_Source\PSoC5/USBFS_1_std.c ****             {       /* Wait for next packet from application */
1104:.\Generated_Source\PSoC5/USBFS_1_std.c ****                 CY_SET_REG8((reg8 *)(USBFS_1_SIE_EP1_CR0_IND + ri), USBFS_1_MODE_NAK_IN);
 1072              		.loc 1 1104 0
 1073 0058 0C22     		movs	r2, #12
 1074 005a 114B     		ldr	r3, .L92+12
ARM GAS  C:\Users\Ian\AppData\Local\Temp\ccrzCaTu.s 			page 41


 1075 005c CA54     		strb	r2, [r1, r3]
 1076 005e 13E0     		b	.L87
 1077              	.L86:
1105:.\Generated_Source\PSoC5/USBFS_1_std.c ****             }
1106:.\Generated_Source\PSoC5/USBFS_1_std.c ****             else    /* Continue armed transfer */
1107:.\Generated_Source\PSoC5/USBFS_1_std.c ****             {
1108:.\Generated_Source\PSoC5/USBFS_1_std.c ****                 CY_SET_REG8((reg8 *)(USBFS_1_SIE_EP1_CR0_IND + ri), USBFS_1_MODE_ACK_IN);
 1078              		.loc 1 1108 0
 1079 0060 0D22     		movs	r2, #13
 1080 0062 0F4B     		ldr	r3, .L92+12
 1081 0064 CA54     		strb	r2, [r1, r3]
 1082 0066 0FE0     		b	.L87
 1083              	.LVL97:
 1084              	.L85:
1109:.\Generated_Source\PSoC5/USBFS_1_std.c ****             }
1110:.\Generated_Source\PSoC5/USBFS_1_std.c ****         }
1111:.\Generated_Source\PSoC5/USBFS_1_std.c ****         else
1112:.\Generated_Source\PSoC5/USBFS_1_std.c ****         {
1113:.\Generated_Source\PSoC5/USBFS_1_std.c ****             /* OUT Endpoint */
1114:.\Generated_Source\PSoC5/USBFS_1_std.c ****             if(USBFS_1_EP[ep].apiEpState == USBFS_1_OUT_BUFFER_FULL)
 1085              		.loc 1 1114 0
 1086 0068 03EB4303 		add	r3, r3, r3, lsl #1
 1087              	.LVL98:
 1088 006c 9B00     		lsls	r3, r3, #2
 1089 006e 0A4A     		ldr	r2, .L92+4
 1090 0070 1344     		add	r3, r3, r2
 1091 0072 5B78     		ldrb	r3, [r3, #1]	@ zero_extendqisi2
 1092 0074 DBB2     		uxtb	r3, r3
 1093 0076 012B     		cmp	r3, #1
 1094 0078 03D1     		bne	.L88
1115:.\Generated_Source\PSoC5/USBFS_1_std.c ****             {       /* Allow application to read full buffer */
1116:.\Generated_Source\PSoC5/USBFS_1_std.c ****                 CY_SET_REG8((reg8 *)(USBFS_1_SIE_EP1_CR0_IND + ri), USBFS_1_MODE_NAK_OUT);
 1095              		.loc 1 1116 0
 1096 007a 0822     		movs	r2, #8
 1097 007c 084B     		ldr	r3, .L92+12
 1098 007e CA54     		strb	r2, [r1, r3]
 1099 0080 02E0     		b	.L87
 1100              	.L88:
1117:.\Generated_Source\PSoC5/USBFS_1_std.c ****             }
1118:.\Generated_Source\PSoC5/USBFS_1_std.c ****             else    /* Mark endpoint as empty, so it will be reloaded */
1119:.\Generated_Source\PSoC5/USBFS_1_std.c ****             {
1120:.\Generated_Source\PSoC5/USBFS_1_std.c ****                 CY_SET_REG8((reg8 *)(USBFS_1_SIE_EP1_CR0_IND + ri), USBFS_1_MODE_ACK_OUT);
 1101              		.loc 1 1120 0
 1102 0082 0922     		movs	r2, #9
 1103 0084 064B     		ldr	r3, .L92+12
 1104 0086 CA54     		strb	r2, [r1, r3]
 1105              	.L87:
1121:.\Generated_Source\PSoC5/USBFS_1_std.c ****             }
1122:.\Generated_Source\PSoC5/USBFS_1_std.c ****         }
1123:.\Generated_Source\PSoC5/USBFS_1_std.c ****         requestHandled = USBFS_1_InitNoDataControlTransfer();
 1106              		.loc 1 1123 0
 1107 0088 FFF7FEFF 		bl	USBFS_1_InitNoDataControlTransfer
 1108              	.LVL99:
 1109 008c 10BD     		pop	{r4, pc}
 1110              	.LVL100:
 1111              	.L89:
 1112              		.cfi_def_cfa_offset 0
ARM GAS  C:\Users\Ian\AppData\Local\Temp\ccrzCaTu.s 			page 42


 1113              		.cfi_restore 4
 1114              		.cfi_restore 14
1080:.\Generated_Source\PSoC5/USBFS_1_std.c **** 
 1115              		.loc 1 1080 0
 1116 008e 0020     		movs	r0, #0
 1117 0090 7047     		bx	lr
 1118              	.L93:
 1119 0092 00BF     		.align	2
 1120              	.L92:
 1121 0094 04600040 		.word	1073766404
 1122 0098 00000000 		.word	USBFS_1_EP
 1123 009c 0C600040 		.word	1073766412
 1124 00a0 0E600040 		.word	1073766414
 1125              		.cfi_endproc
 1126              	.LFE9:
 1127              		.size	USBFS_1_ClearEndpointHalt, .-USBFS_1_ClearEndpointHalt
 1128              		.section	.text.USBFS_1_ValidateAlternateSetting,"ax",%progbits
 1129              		.align	2
 1130              		.global	USBFS_1_ValidateAlternateSetting
 1131              		.thumb
 1132              		.thumb_func
 1133              		.type	USBFS_1_ValidateAlternateSetting, %function
 1134              	USBFS_1_ValidateAlternateSetting:
 1135              	.LFB10:
1124:.\Generated_Source\PSoC5/USBFS_1_std.c ****     }
1125:.\Generated_Source\PSoC5/USBFS_1_std.c **** 
1126:.\Generated_Source\PSoC5/USBFS_1_std.c ****     return(requestHandled);
1127:.\Generated_Source\PSoC5/USBFS_1_std.c **** }
1128:.\Generated_Source\PSoC5/USBFS_1_std.c **** 
1129:.\Generated_Source\PSoC5/USBFS_1_std.c **** 
1130:.\Generated_Source\PSoC5/USBFS_1_std.c **** /*******************************************************************************
1131:.\Generated_Source\PSoC5/USBFS_1_std.c **** * Function Name: USBFS_1_ValidateAlternateSetting
1132:.\Generated_Source\PSoC5/USBFS_1_std.c **** ********************************************************************************
1133:.\Generated_Source\PSoC5/USBFS_1_std.c **** *
1134:.\Generated_Source\PSoC5/USBFS_1_std.c **** * Summary:
1135:.\Generated_Source\PSoC5/USBFS_1_std.c **** *  Validates (and records) a SET INTERFACE request.
1136:.\Generated_Source\PSoC5/USBFS_1_std.c **** *
1137:.\Generated_Source\PSoC5/USBFS_1_std.c **** * Parameters:
1138:.\Generated_Source\PSoC5/USBFS_1_std.c **** *  None.
1139:.\Generated_Source\PSoC5/USBFS_1_std.c **** *
1140:.\Generated_Source\PSoC5/USBFS_1_std.c **** * Return:
1141:.\Generated_Source\PSoC5/USBFS_1_std.c **** *  requestHandled.
1142:.\Generated_Source\PSoC5/USBFS_1_std.c **** *
1143:.\Generated_Source\PSoC5/USBFS_1_std.c **** * Reentrant:
1144:.\Generated_Source\PSoC5/USBFS_1_std.c **** *  No.
1145:.\Generated_Source\PSoC5/USBFS_1_std.c **** *
1146:.\Generated_Source\PSoC5/USBFS_1_std.c **** *******************************************************************************/
1147:.\Generated_Source\PSoC5/USBFS_1_std.c **** uint8 USBFS_1_ValidateAlternateSetting(void) 
1148:.\Generated_Source\PSoC5/USBFS_1_std.c **** {
 1136              		.loc 1 1148 0
 1137              		.cfi_startproc
 1138              		@ args = 0, pretend = 0, frame = 0
 1139              		@ frame_needed = 0, uses_anonymous_args = 0
 1140 0000 10B5     		push	{r4, lr}
 1141              		.cfi_def_cfa_offset 8
 1142              		.cfi_offset 4, -8
 1143              		.cfi_offset 14, -4
ARM GAS  C:\Users\Ian\AppData\Local\Temp\ccrzCaTu.s 			page 43


 1144              	.LVL101:
1149:.\Generated_Source\PSoC5/USBFS_1_std.c ****     uint8 requestHandled = USBFS_1_TRUE;
1150:.\Generated_Source\PSoC5/USBFS_1_std.c ****     uint8 interfaceNum;
1151:.\Generated_Source\PSoC5/USBFS_1_std.c ****     const T_USBFS_1_LUT CYCODE *pTmp;
1152:.\Generated_Source\PSoC5/USBFS_1_std.c ****     uint8 currentInterfacesNum;
1153:.\Generated_Source\PSoC5/USBFS_1_std.c **** 
1154:.\Generated_Source\PSoC5/USBFS_1_std.c ****     interfaceNum = CY_GET_REG8(USBFS_1_wIndexLo);
 1145              		.loc 1 1154 0
 1146 0002 0E4B     		ldr	r3, .L99
 1147 0004 1C78     		ldrb	r4, [r3]	@ zero_extendqisi2
 1148 0006 E4B2     		uxtb	r4, r4
 1149              	.LVL102:
1155:.\Generated_Source\PSoC5/USBFS_1_std.c ****     /* Validate interface setting, stall if invalid. */
1156:.\Generated_Source\PSoC5/USBFS_1_std.c ****     pTmp = USBFS_1_GetConfigTablePtr(USBFS_1_configuration - 1u);
 1150              		.loc 1 1156 0
 1151 0008 0D4B     		ldr	r3, .L99+4
 1152 000a 1878     		ldrb	r0, [r3]	@ zero_extendqisi2
 1153 000c 0138     		subs	r0, r0, #1
 1154 000e C0B2     		uxtb	r0, r0
 1155 0010 FFF7FEFF 		bl	USBFS_1_GetConfigTablePtr
 1156              	.LVL103:
1157:.\Generated_Source\PSoC5/USBFS_1_std.c ****     currentInterfacesNum  = ((const uint8 *) pTmp->p_list)[USBFS_1_CONFIG_DESCR_NUM_INTERFACES];
 1157              		.loc 1 1157 0
 1158 0014 4368     		ldr	r3, [r0, #4]
 1159 0016 1B79     		ldrb	r3, [r3, #4]	@ zero_extendqisi2
 1160              	.LVL104:
1158:.\Generated_Source\PSoC5/USBFS_1_std.c **** 
1159:.\Generated_Source\PSoC5/USBFS_1_std.c ****     if((interfaceNum >= currentInterfacesNum) || (interfaceNum >= USBFS_1_MAX_INTERFACES_NUMBER))
 1161              		.loc 1 1159 0
 1162 0018 9C42     		cmp	r4, r3
 1163 001a 0BD2     		bcs	.L96
 1164              		.loc 1 1159 0 is_stmt 0 discriminator 1
 1165 001c 64B9     		cbnz	r4, .L97
1160:.\Generated_Source\PSoC5/USBFS_1_std.c ****     {   /* Wrong interface number */
1161:.\Generated_Source\PSoC5/USBFS_1_std.c ****         requestHandled = USBFS_1_FALSE;
1162:.\Generated_Source\PSoC5/USBFS_1_std.c ****     }
1163:.\Generated_Source\PSoC5/USBFS_1_std.c ****     else
1164:.\Generated_Source\PSoC5/USBFS_1_std.c ****     {
1165:.\Generated_Source\PSoC5/USBFS_1_std.c ****         /* Save current Alt setting to find out the difference in Config() function */
1166:.\Generated_Source\PSoC5/USBFS_1_std.c ****         USBFS_1_interfaceSetting_last[interfaceNum] = USBFS_1_interfaceSetting[interfaceNum];
 1166              		.loc 1 1166 0 is_stmt 1
 1167 001e 094A     		ldr	r2, .L99+8
 1168 0020 135D     		ldrb	r3, [r2, r4]	@ zero_extendqisi2
 1169              	.LVL105:
 1170 0022 DBB2     		uxtb	r3, r3
 1171 0024 0849     		ldr	r1, .L99+12
 1172 0026 0B55     		strb	r3, [r1, r4]
1167:.\Generated_Source\PSoC5/USBFS_1_std.c ****         USBFS_1_interfaceSetting[interfaceNum] = CY_GET_REG8(USBFS_1_wValueLo);
 1173              		.loc 1 1167 0
 1174 0028 084B     		ldr	r3, .L99+16
 1175 002a 1B78     		ldrb	r3, [r3]	@ zero_extendqisi2
 1176 002c DBB2     		uxtb	r3, r3
 1177 002e 1355     		strb	r3, [r2, r4]
1149:.\Generated_Source\PSoC5/USBFS_1_std.c ****     uint8 interfaceNum;
 1178              		.loc 1 1149 0
 1179 0030 0120     		movs	r0, #1
 1180              	.LVL106:
ARM GAS  C:\Users\Ian\AppData\Local\Temp\ccrzCaTu.s 			page 44


 1181 0032 10BD     		pop	{r4, pc}
 1182              	.LVL107:
 1183              	.L96:
1161:.\Generated_Source\PSoC5/USBFS_1_std.c ****     }
 1184              		.loc 1 1161 0
 1185 0034 0020     		movs	r0, #0
 1186              	.LVL108:
 1187 0036 10BD     		pop	{r4, pc}
 1188              	.LVL109:
 1189              	.L97:
 1190 0038 0020     		movs	r0, #0
 1191              	.LVL110:
1168:.\Generated_Source\PSoC5/USBFS_1_std.c ****     }
1169:.\Generated_Source\PSoC5/USBFS_1_std.c **** 
1170:.\Generated_Source\PSoC5/USBFS_1_std.c ****     return (requestHandled);
1171:.\Generated_Source\PSoC5/USBFS_1_std.c **** }
 1192              		.loc 1 1171 0
 1193 003a 10BD     		pop	{r4, pc}
 1194              	.LVL111:
 1195              	.L100:
 1196              		.align	2
 1197              	.L99:
 1198 003c 04600040 		.word	1073766404
 1199 0040 00000000 		.word	USBFS_1_configuration
 1200 0044 00000000 		.word	USBFS_1_interfaceSetting
 1201 0048 00000000 		.word	USBFS_1_interfaceSetting_last
 1202 004c 02600040 		.word	1073766402
 1203              		.cfi_endproc
 1204              	.LFE10:
 1205              		.size	USBFS_1_ValidateAlternateSetting, .-USBFS_1_ValidateAlternateSetting
 1206              		.section	.text.USBFS_1_HandleStandardRqst,"ax",%progbits
 1207              		.align	2
 1208              		.global	USBFS_1_HandleStandardRqst
 1209              		.thumb
 1210              		.thumb_func
 1211              		.type	USBFS_1_HandleStandardRqst, %function
 1212              	USBFS_1_HandleStandardRqst:
 1213              	.LFB0:
  89:.\Generated_Source\PSoC5/USBFS_1_std.c ****     uint8 requestHandled = USBFS_1_FALSE;
 1214              		.loc 1 89 0
 1215              		.cfi_startproc
 1216              		@ args = 0, pretend = 0, frame = 0
 1217              		@ frame_needed = 0, uses_anonymous_args = 0
 1218 0000 10B5     		push	{r4, lr}
 1219              		.cfi_def_cfa_offset 8
 1220              		.cfi_offset 4, -8
 1221              		.cfi_offset 14, -4
 1222              	.LVL112:
 102:.\Generated_Source\PSoC5/USBFS_1_std.c **** 
 1223              		.loc 1 102 0
 1224 0002 0022     		movs	r2, #0
 1225 0004 964B     		ldr	r3, .L154
 1226 0006 1A80     		strh	r2, [r3]	@ movhi
 104:.\Generated_Source\PSoC5/USBFS_1_std.c ****     {
 1227              		.loc 1 104 0
 1228 0008 964B     		ldr	r3, .L154+4
 1229 000a 1B78     		ldrb	r3, [r3]	@ zero_extendqisi2
ARM GAS  C:\Users\Ian\AppData\Local\Temp\ccrzCaTu.s 			page 45


 1230 000c 13F0800F 		tst	r3, #128
 1231 0010 00F0A180 		beq	.L102
 107:.\Generated_Source\PSoC5/USBFS_1_std.c ****         {
 1232              		.loc 1 107 0
 1233 0014 944B     		ldr	r3, .L154+8
 1234 0016 1B78     		ldrb	r3, [r3]	@ zero_extendqisi2
 1235 0018 DBB2     		uxtb	r3, r3
 1236 001a 0A2B     		cmp	r3, #10
 1237 001c 00F27581 		bhi	.L133
 1238 0020 DFE813F0 		tbh	[pc, r3, lsl #1]
 1239              	.L105:
 1240 0024 5B00     		.2byte	(.L104-.L105)/2
 1241 0026 7301     		.2byte	(.L133-.L105)/2
 1242 0028 7301     		.2byte	(.L133-.L105)/2
 1243 002a 7301     		.2byte	(.L133-.L105)/2
 1244 002c 7301     		.2byte	(.L133-.L105)/2
 1245 002e 7301     		.2byte	(.L133-.L105)/2
 1246 0030 0B00     		.2byte	(.L106-.L105)/2
 1247 0032 7301     		.2byte	(.L133-.L105)/2
 1248 0034 8600     		.2byte	(.L107-.L105)/2
 1249 0036 7301     		.2byte	(.L133-.L105)/2
 1250 0038 8E00     		.2byte	(.L108-.L105)/2
 1251              		.p2align 1
 1252              	.L106:
 110:.\Generated_Source\PSoC5/USBFS_1_std.c ****                 {
 1253              		.loc 1 110 0
 1254 003a 8C4B     		ldr	r3, .L154+12
 1255 003c 1B78     		ldrb	r3, [r3]	@ zero_extendqisi2
 1256 003e DBB2     		uxtb	r3, r3
 1257 0040 012B     		cmp	r3, #1
 1258 0042 09D1     		bne	.L109
 112:.\Generated_Source\PSoC5/USBFS_1_std.c ****                     USBFS_1_currentTD.pData = (volatile uint8 *)pTmp->p_list;
 1259              		.loc 1 112 0
 1260 0044 FFF7FEFF 		bl	USBFS_1_GetDeviceTablePtr
 1261              	.LVL113:
 113:.\Generated_Source\PSoC5/USBFS_1_std.c ****                     USBFS_1_currentTD.count = USBFS_1_DEVICE_DESCR_LENGTH;
 1262              		.loc 1 113 0
 1263 0048 4268     		ldr	r2, [r0, #4]
 1264 004a 854B     		ldr	r3, .L154
 1265 004c 5A60     		str	r2, [r3, #4]
 114:.\Generated_Source\PSoC5/USBFS_1_std.c ****                     requestHandled  = USBFS_1_InitControlRead();
 1266              		.loc 1 114 0
 1267 004e 1222     		movs	r2, #18
 1268 0050 1A80     		strh	r2, [r3]	@ movhi
 115:.\Generated_Source\PSoC5/USBFS_1_std.c ****                 }
 1269              		.loc 1 115 0
 1270 0052 FFF7FEFF 		bl	USBFS_1_InitControlRead
 1271              	.LVL114:
 1272 0056 10BD     		pop	{r4, pc}
 1273              	.LVL115:
 1274              	.L109:
 117:.\Generated_Source\PSoC5/USBFS_1_std.c ****                 {
 1275              		.loc 1 117 0
 1276 0058 844B     		ldr	r3, .L154+12
 1277 005a 1B78     		ldrb	r3, [r3]	@ zero_extendqisi2
 1278 005c DBB2     		uxtb	r3, r3
 1279 005e 022B     		cmp	r3, #2
ARM GAS  C:\Users\Ian\AppData\Local\Temp\ccrzCaTu.s 			page 46


 1280 0060 16D1     		bne	.L110
 119:.\Generated_Source\PSoC5/USBFS_1_std.c ****                     if( pTmp != NULL )  /* Verify that requested descriptor exists */
 1281              		.loc 1 119 0
 1282 0062 03F18043 		add	r3, r3, #1073741824
 1283 0066 03F5C043 		add	r3, r3, #24576
 1284 006a 1878     		ldrb	r0, [r3]	@ zero_extendqisi2
 1285 006c FFF7FEFF 		bl	USBFS_1_GetConfigTablePtr
 1286              	.LVL116:
 120:.\Generated_Source\PSoC5/USBFS_1_std.c ****                     {
 1287              		.loc 1 120 0
 1288 0070 0028     		cmp	r0, #0
 1289 0072 00F04C81 		beq	.L134
 122:.\Generated_Source\PSoC5/USBFS_1_std.c ****                         USBFS_1_currentTD.count = ((uint16)(USBFS_1_currentTD.pData)[ \
 1290              		.loc 1 122 0
 1291 0076 4268     		ldr	r2, [r0, #4]
 1292 0078 794B     		ldr	r3, .L154
 1293 007a 5A60     		str	r2, [r3, #4]
 123:.\Generated_Source\PSoC5/USBFS_1_std.c ****                                           USBFS_1_CONFIG_DESCR_TOTAL_LENGTH_HI] << 8u) | \
 1294              		.loc 1 123 0
 1295 007c 5A68     		ldr	r2, [r3, #4]
 1296 007e D178     		ldrb	r1, [r2, #3]	@ zero_extendqisi2
 125:.\Generated_Source\PSoC5/USBFS_1_std.c ****                         requestHandled  = USBFS_1_InitControlRead();
 1297              		.loc 1 125 0
 1298 0080 5A68     		ldr	r2, [r3, #4]
 1299 0082 9278     		ldrb	r2, [r2, #2]	@ zero_extendqisi2
 123:.\Generated_Source\PSoC5/USBFS_1_std.c ****                                           USBFS_1_CONFIG_DESCR_TOTAL_LENGTH_HI] << 8u) | \
 1300              		.loc 1 123 0
 1301 0084 42EA0122 		orr	r2, r2, r1, lsl #8
 1302 0088 1A80     		strh	r2, [r3]	@ movhi
 126:.\Generated_Source\PSoC5/USBFS_1_std.c ****                     }
 1303              		.loc 1 126 0
 1304 008a FFF7FEFF 		bl	USBFS_1_InitControlRead
 1305              	.LVL117:
 1306 008e 10BD     		pop	{r4, pc}
 1307              	.LVL118:
 1308              	.L110:
 130:.\Generated_Source\PSoC5/USBFS_1_std.c ****                 {
 1309              		.loc 1 130 0
 1310 0090 764B     		ldr	r3, .L154+12
 1311 0092 1B78     		ldrb	r3, [r3]	@ zero_extendqisi2
 1312 0094 DBB2     		uxtb	r3, r3
 1313 0096 032B     		cmp	r3, #3
 1314 0098 05D0     		beq	.L135
 1315 009a 1BE0     		b	.L149
 1316              	.LVL119:
 1317              	.L114:
 139:.\Generated_Source\PSoC5/USBFS_1_std.c ****                             /* Move to next string descriptor */
 1318              		.loc 1 139 0
 1319 009c 0A78     		ldrb	r2, [r1]	@ zero_extendqisi2
 1320              	.LVL120:
 141:.\Generated_Source\PSoC5/USBFS_1_std.c ****                             nStr++;
 1321              		.loc 1 141 0
 1322 009e 1144     		add	r1, r1, r2
 1323              	.LVL121:
 142:.\Generated_Source\PSoC5/USBFS_1_std.c ****                         }
 1324              		.loc 1 142 0
 1325 00a0 0133     		adds	r3, r3, #1
ARM GAS  C:\Users\Ian\AppData\Local\Temp\ccrzCaTu.s 			page 47


 1326              	.LVL122:
 1327 00a2 DBB2     		uxtb	r3, r3
 1328              	.LVL123:
 1329 00a4 01E0     		b	.L111
 1330              	.LVL124:
 1331              	.L135:
 1332 00a6 0023     		movs	r3, #0
 1333 00a8 7149     		ldr	r1, .L154+16
 1334              	.LVL125:
 1335              	.L111:
 136:.\Generated_Source\PSoC5/USBFS_1_std.c ****                         {
 1336              		.loc 1 136 0
 1337 00aa 724A     		ldr	r2, .L154+20
 1338 00ac 1278     		ldrb	r2, [r2]	@ zero_extendqisi2
 1339 00ae D2B2     		uxtb	r2, r2
 1340 00b0 9A42     		cmp	r2, r3
 1341 00b2 03D9     		bls	.L113
 136:.\Generated_Source\PSoC5/USBFS_1_std.c ****                         {
 1342              		.loc 1 136 0 is_stmt 0 discriminator 1
 1343 00b4 0A78     		ldrb	r2, [r1]	@ zero_extendqisi2
 1344 00b6 12F0FF0F 		tst	r2, #255
 1345 00ba EFD1     		bne	.L114
 1346              	.L113:
 177:.\Generated_Source\PSoC5/USBFS_1_std.c ****                     {
 1347              		.loc 1 177 0 is_stmt 1
 1348 00bc 0B78     		ldrb	r3, [r1]	@ zero_extendqisi2
 1349              	.LVL126:
 1350 00be 13F0FF0F 		tst	r3, #255
 1351 00c2 00F02681 		beq	.L136
 179:.\Generated_Source\PSoC5/USBFS_1_std.c ****                         USBFS_1_currentTD.pData = pStr;
 1352              		.loc 1 179 0
 1353 00c6 0B78     		ldrb	r3, [r1]	@ zero_extendqisi2
 1354 00c8 654A     		ldr	r2, .L154
 1355 00ca 1380     		strh	r3, [r2]	@ movhi
 180:.\Generated_Source\PSoC5/USBFS_1_std.c ****                         requestHandled  = USBFS_1_InitControlRead();
 1356              		.loc 1 180 0
 1357 00cc 5160     		str	r1, [r2, #4]
 181:.\Generated_Source\PSoC5/USBFS_1_std.c ****                     }
 1358              		.loc 1 181 0
 1359 00ce FFF7FEFF 		bl	USBFS_1_InitControlRead
 1360              	.LVL127:
 1361 00d2 10BD     		pop	{r4, pc}
 1362              	.LVL128:
 1363              	.L149:
 187:.\Generated_Source\PSoC5/USBFS_1_std.c ****                 }
 1364              		.loc 1 187 0
 1365 00d4 FFF7FEFF 		bl	USBFS_1_DispatchClassRqst
 1366              	.LVL129:
 1367 00d8 10BD     		pop	{r4, pc}
 1368              	.LVL130:
 1369              	.L104:
 191:.\Generated_Source\PSoC5/USBFS_1_std.c ****                 {
 1370              		.loc 1 191 0
 1371 00da 624B     		ldr	r3, .L154+4
 1372 00dc 1B78     		ldrb	r3, [r3]	@ zero_extendqisi2
 1373 00de 13F00303 		ands	r3, r3, #3
 1374 00e2 17D0     		beq	.L115
ARM GAS  C:\Users\Ian\AppData\Local\Temp\ccrzCaTu.s 			page 48


 1375 00e4 022B     		cmp	r3, #2
 1376 00e6 40F01681 		bne	.L150
 194:.\Generated_Source\PSoC5/USBFS_1_std.c ****                         USBFS_1_tBuffer[0u] = USBFS_1_EP[ \
 1377              		.loc 1 194 0
 1378 00ea 5D49     		ldr	r1, .L154
 1379 00ec 0B80     		strh	r3, [r1]	@ movhi
 196:.\Generated_Source\PSoC5/USBFS_1_std.c ****                         USBFS_1_tBuffer[1u] = 0u;
 1380              		.loc 1 196 0
 1381 00ee 624B     		ldr	r3, .L154+24
 1382 00f0 1B78     		ldrb	r3, [r3]	@ zero_extendqisi2
 1383 00f2 03F07F03 		and	r3, r3, #127
 1384 00f6 03EB4303 		add	r3, r3, r3, lsl #1
 1385 00fa 9B00     		lsls	r3, r3, #2
 1386 00fc 5F4A     		ldr	r2, .L154+28
 1387 00fe 1344     		add	r3, r3, r2
 1388 0100 9A78     		ldrb	r2, [r3, #2]	@ zero_extendqisi2
 1389 0102 D2B2     		uxtb	r2, r2
 195:.\Generated_Source\PSoC5/USBFS_1_std.c ****                                         CY_GET_REG8(USBFS_1_wIndexLo) & USBFS_1_DIR_UNUSED].hwEpSta
 1390              		.loc 1 195 0
 1391 0104 5E4B     		ldr	r3, .L154+32
 1392 0106 1A70     		strb	r2, [r3]
 197:.\Generated_Source\PSoC5/USBFS_1_std.c ****                         USBFS_1_currentTD.pData = &USBFS_1_tBuffer[0u];
 1393              		.loc 1 197 0
 1394 0108 0022     		movs	r2, #0
 1395 010a 5A70     		strb	r2, [r3, #1]
 198:.\Generated_Source\PSoC5/USBFS_1_std.c ****                         requestHandled  = USBFS_1_InitControlRead();
 1396              		.loc 1 198 0
 1397 010c 4B60     		str	r3, [r1, #4]
 199:.\Generated_Source\PSoC5/USBFS_1_std.c ****                         break;
 1398              		.loc 1 199 0
 1399 010e FFF7FEFF 		bl	USBFS_1_InitControlRead
 1400              	.LVL131:
 200:.\Generated_Source\PSoC5/USBFS_1_std.c ****                     case USBFS_1_RQST_RCPT_DEV:
 1401              		.loc 1 200 0
 1402 0112 10BD     		pop	{r4, pc}
 1403              	.LVL132:
 1404              	.L115:
 202:.\Generated_Source\PSoC5/USBFS_1_std.c ****                         USBFS_1_tBuffer[0u] = USBFS_1_deviceStatus;
 1405              		.loc 1 202 0
 1406 0114 5249     		ldr	r1, .L154
 1407 0116 0223     		movs	r3, #2
 1408 0118 0B80     		strh	r3, [r1]	@ movhi
 203:.\Generated_Source\PSoC5/USBFS_1_std.c ****                         USBFS_1_tBuffer[1u] = 0u;
 1409              		.loc 1 203 0
 1410 011a 5A4B     		ldr	r3, .L154+36
 1411 011c 1A78     		ldrb	r2, [r3]	@ zero_extendqisi2
 1412 011e D2B2     		uxtb	r2, r2
 1413 0120 574B     		ldr	r3, .L154+32
 1414 0122 1A70     		strb	r2, [r3]
 204:.\Generated_Source\PSoC5/USBFS_1_std.c ****                         USBFS_1_currentTD.pData = &USBFS_1_tBuffer[0u];
 1415              		.loc 1 204 0
 1416 0124 0022     		movs	r2, #0
 1417 0126 5A70     		strb	r2, [r3, #1]
 205:.\Generated_Source\PSoC5/USBFS_1_std.c ****                         requestHandled  = USBFS_1_InitControlRead();
 1418              		.loc 1 205 0
 1419 0128 4B60     		str	r3, [r1, #4]
 206:.\Generated_Source\PSoC5/USBFS_1_std.c ****                         break;
ARM GAS  C:\Users\Ian\AppData\Local\Temp\ccrzCaTu.s 			page 49


 1420              		.loc 1 206 0
 1421 012a FFF7FEFF 		bl	USBFS_1_InitControlRead
 1422              	.LVL133:
 207:.\Generated_Source\PSoC5/USBFS_1_std.c ****                     default:    /* requestHandled is initialized as FALSE by default */
 1423              		.loc 1 207 0
 1424 012e 10BD     		pop	{r4, pc}
 1425              	.LVL134:
 1426              	.L107:
 213:.\Generated_Source\PSoC5/USBFS_1_std.c ****                 USBFS_1_currentTD.pData = (volatile uint8 *)&USBFS_1_configuration;
 1427              		.loc 1 213 0
 1428 0130 4B4B     		ldr	r3, .L154
 1429 0132 0122     		movs	r2, #1
 1430 0134 1A80     		strh	r2, [r3]	@ movhi
 214:.\Generated_Source\PSoC5/USBFS_1_std.c ****                 requestHandled  = USBFS_1_InitControlRead();
 1431              		.loc 1 214 0
 1432 0136 544A     		ldr	r2, .L154+40
 1433 0138 5A60     		str	r2, [r3, #4]
 215:.\Generated_Source\PSoC5/USBFS_1_std.c ****                 break;
 1434              		.loc 1 215 0
 1435 013a FFF7FEFF 		bl	USBFS_1_InitControlRead
 1436              	.LVL135:
 216:.\Generated_Source\PSoC5/USBFS_1_std.c ****             case USBFS_1_GET_INTERFACE:
 1437              		.loc 1 216 0
 1438 013e 10BD     		pop	{r4, pc}
 1439              	.LVL136:
 1440              	.L108:
 218:.\Generated_Source\PSoC5/USBFS_1_std.c ****                 USBFS_1_currentTD.pData = (volatile uint8 *)&USBFS_1_interfaceSetting[ \
 1441              		.loc 1 218 0
 1442 0140 474A     		ldr	r2, .L154
 1443 0142 0123     		movs	r3, #1
 1444 0144 1380     		strh	r3, [r2]	@ movhi
 220:.\Generated_Source\PSoC5/USBFS_1_std.c ****                 requestHandled  = USBFS_1_InitControlRead();
 1445              		.loc 1 220 0
 1446 0146 4C4B     		ldr	r3, .L154+24
 1447 0148 1B78     		ldrb	r3, [r3]	@ zero_extendqisi2
 219:.\Generated_Source\PSoC5/USBFS_1_std.c ****                                                                             CY_GET_REG8(USBFS_1_wIn
 1448              		.loc 1 219 0
 1449 014a 5049     		ldr	r1, .L154+44
 1450 014c 0B44     		add	r3, r3, r1
 1451 014e 5360     		str	r3, [r2, #4]
 221:.\Generated_Source\PSoC5/USBFS_1_std.c ****                 break;
 1452              		.loc 1 221 0
 1453 0150 FFF7FEFF 		bl	USBFS_1_InitControlRead
 1454              	.LVL137:
 222:.\Generated_Source\PSoC5/USBFS_1_std.c ****             default: /* requestHandled is initialized as FALSE by default */
 1455              		.loc 1 222 0
 1456 0154 10BD     		pop	{r4, pc}
 1457              	.LVL138:
 1458              	.L102:
 229:.\Generated_Source\PSoC5/USBFS_1_std.c ****         {
 1459              		.loc 1 229 0
 1460 0156 444B     		ldr	r3, .L154+8
 1461 0158 1B78     		ldrb	r3, [r3]	@ zero_extendqisi2
 1462 015a 013B     		subs	r3, r3, #1
 1463 015c 0A2B     		cmp	r3, #10
 1464 015e 00F2DC80 		bhi	.L138
 1465 0162 DFE813F0 		tbh	[pc, r3, lsl #1]
ARM GAS  C:\Users\Ian\AppData\Local\Temp\ccrzCaTu.s 			page 50


 1466              	.L118:
 1467 0166 4700     		.2byte	(.L117-.L118)/2
 1468 0168 DA00     		.2byte	(.L138-.L118)/2
 1469 016a 9F00     		.2byte	(.L119-.L118)/2
 1470 016c DA00     		.2byte	(.L138-.L118)/2
 1471 016e 0B00     		.2byte	(.L120-.L118)/2
 1472 0170 DA00     		.2byte	(.L138-.L118)/2
 1473 0172 DA00     		.2byte	(.L138-.L118)/2
 1474 0174 DA00     		.2byte	(.L138-.L118)/2
 1475 0176 1300     		.2byte	(.L121-.L118)/2
 1476 0178 DA00     		.2byte	(.L138-.L118)/2
 1477 017a 3000     		.2byte	(.L122-.L118)/2
 1478              		.p2align 1
 1479              	.L120:
 232:.\Generated_Source\PSoC5/USBFS_1_std.c ****                 requestHandled = USBFS_1_InitNoDataControlTransfer();
 1480              		.loc 1 232 0
 1481 017c 3D4B     		ldr	r3, .L154+20
 1482 017e 1B78     		ldrb	r3, [r3]	@ zero_extendqisi2
 1483 0180 DBB2     		uxtb	r3, r3
 1484 0182 434A     		ldr	r2, .L154+48
 1485 0184 1370     		strb	r3, [r2]
 233:.\Generated_Source\PSoC5/USBFS_1_std.c ****                 break;
 1486              		.loc 1 233 0
 1487 0186 FFF7FEFF 		bl	USBFS_1_InitNoDataControlTransfer
 1488              	.LVL139:
 234:.\Generated_Source\PSoC5/USBFS_1_std.c ****             case USBFS_1_SET_CONFIGURATION:
 1489              		.loc 1 234 0
 1490 018a 10BD     		pop	{r4, pc}
 1491              	.LVL140:
 1492              	.L121:
 236:.\Generated_Source\PSoC5/USBFS_1_std.c ****                 if(configurationN > 0u)
 1493              		.loc 1 236 0
 1494 018c 394B     		ldr	r3, .L154+20
 1495 018e 1B78     		ldrb	r3, [r3]	@ zero_extendqisi2
 1496              	.LVL141:
 237:.\Generated_Source\PSoC5/USBFS_1_std.c ****                 {   /* Verify that configuration descriptor exists */
 1497              		.loc 1 237 0
 1498 0190 03F0FF04 		and	r4, r3, #255
 1499 0194 1BB1     		cbz	r3, .L123
 239:.\Generated_Source\PSoC5/USBFS_1_std.c ****                 }
 1500              		.loc 1 239 0
 1501 0196 601E     		subs	r0, r4, #1
 1502 0198 C0B2     		uxtb	r0, r0
 1503 019a FFF7FEFF 		bl	USBFS_1_GetConfigTablePtr
 1504              	.LVL142:
 1505              	.L123:
 242:.\Generated_Source\PSoC5/USBFS_1_std.c ****                 {
 1506              		.loc 1 242 0
 1507 019e 04B1     		cbz	r4, .L124
 242:.\Generated_Source\PSoC5/USBFS_1_std.c ****                 {
 1508              		.loc 1 242 0 is_stmt 0 discriminator 1
 1509 01a0 10B9     		cbnz	r0, .L125
 1510              	.L124:
 242:.\Generated_Source\PSoC5/USBFS_1_std.c ****                 {
 1511              		.loc 1 242 0 discriminator 3
 1512 01a2 002C     		cmp	r4, #0
 1513 01a4 40F0BB80 		bne	.L139
ARM GAS  C:\Users\Ian\AppData\Local\Temp\ccrzCaTu.s 			page 51


 1514              	.L125:
 245:.\Generated_Source\PSoC5/USBFS_1_std.c ****                     {
 1515              		.loc 1 245 0 is_stmt 1
 1516 01a8 374B     		ldr	r3, .L154+40
 1517 01aa 1B78     		ldrb	r3, [r3]	@ zero_extendqisi2
 1518 01ac DBB2     		uxtb	r3, r3
 1519 01ae 9C42     		cmp	r4, r3
 1520 01b0 06D0     		beq	.L126
 247:.\Generated_Source\PSoC5/USBFS_1_std.c ****                         USBFS_1_configurationChanged = USBFS_1_TRUE;
 1521              		.loc 1 247 0
 1522 01b2 354B     		ldr	r3, .L154+40
 1523 01b4 1C70     		strb	r4, [r3]
 248:.\Generated_Source\PSoC5/USBFS_1_std.c ****                         USBFS_1_Config(USBFS_1_TRUE);
 1524              		.loc 1 248 0
 1525 01b6 0120     		movs	r0, #1
 1526              	.LVL143:
 1527 01b8 364B     		ldr	r3, .L154+52
 1528 01ba 1870     		strb	r0, [r3]
 249:.\Generated_Source\PSoC5/USBFS_1_std.c ****                     }
 1529              		.loc 1 249 0
 1530 01bc FFF7FEFF 		bl	USBFS_1_Config
 1531              	.LVL144:
 1532              	.L126:
 251:.\Generated_Source\PSoC5/USBFS_1_std.c ****                 }
 1533              		.loc 1 251 0
 1534 01c0 FFF7FEFF 		bl	USBFS_1_InitNoDataControlTransfer
 1535              	.LVL145:
 1536 01c4 10BD     		pop	{r4, pc}
 1537              	.LVL146:
 1538              	.L122:
 255:.\Generated_Source\PSoC5/USBFS_1_std.c ****                 {
 1539              		.loc 1 255 0
 1540 01c6 FFF7FEFF 		bl	USBFS_1_ValidateAlternateSetting
 1541              	.LVL147:
 1542 01ca 0028     		cmp	r0, #0
 1543 01cc 00F0A980 		beq	.L140
 257:.\Generated_Source\PSoC5/USBFS_1_std.c ****                     USBFS_1_interfaceNumber = interfaceNumber;
 1544              		.loc 1 257 0
 1545 01d0 294B     		ldr	r3, .L154+24
 1546 01d2 1C78     		ldrb	r4, [r3]	@ zero_extendqisi2
 1547 01d4 E4B2     		uxtb	r4, r4
 1548              	.LVL148:
 258:.\Generated_Source\PSoC5/USBFS_1_std.c ****                     USBFS_1_configurationChanged = USBFS_1_TRUE;
 1549              		.loc 1 258 0
 1550 01d6 304B     		ldr	r3, .L154+56
 1551 01d8 1C70     		strb	r4, [r3]
 259:.\Generated_Source\PSoC5/USBFS_1_std.c ****                     #if ((USBFS_1_EP_MA == USBFS_1__MA_DYNAMIC) && \
 1552              		.loc 1 259 0
 1553 01da 0122     		movs	r2, #1
 1554 01dc 2D4B     		ldr	r3, .L154+52
 1555 01de 1A70     		strb	r2, [r3]
 264:.\Generated_Source\PSoC5/USBFS_1_std.c ****                     #endif /*  (USBFS_1_EP_MA == USBFS_1__MA_DYNAMIC) */
 1556              		.loc 1 264 0
 1557 01e0 FFF7FEFF 		bl	USBFS_1_ConfigAltChanged
 1558              	.LVL149:
 268:.\Generated_Source\PSoC5/USBFS_1_std.c ****                     requestHandled = USBFS_1_InitNoDataControlTransfer();
 1559              		.loc 1 268 0
ARM GAS  C:\Users\Ian\AppData\Local\Temp\ccrzCaTu.s 			page 52


 1560 01e4 294B     		ldr	r3, .L154+44
 1561 01e6 1B5D     		ldrb	r3, [r3, r4]	@ zero_extendqisi2
 1562 01e8 DBB2     		uxtb	r3, r3
 267:.\Generated_Source\PSoC5/USBFS_1_std.c ****                          USBFS_1_interfaceSetting[interfaceNumber];
 1563              		.loc 1 267 0
 1564 01ea 2C4A     		ldr	r2, .L154+60
 1565 01ec 1355     		strb	r3, [r2, r4]
 269:.\Generated_Source\PSoC5/USBFS_1_std.c ****                 }
 1566              		.loc 1 269 0
 1567 01ee FFF7FEFF 		bl	USBFS_1_InitNoDataControlTransfer
 1568              	.LVL150:
 1569 01f2 10BD     		pop	{r4, pc}
 1570              	.LVL151:
 1571              	.L117:
 273:.\Generated_Source\PSoC5/USBFS_1_std.c ****                 {
 1572              		.loc 1 273 0
 1573 01f4 1B4B     		ldr	r3, .L154+4
 1574 01f6 1B78     		ldrb	r3, [r3]	@ zero_extendqisi2
 1575 01f8 03F00303 		and	r3, r3, #3
 1576 01fc 012B     		cmp	r3, #1
 1577 01fe 1DD0     		beq	.L127
 1578 0200 73B1     		cbz	r3, .L128
 1579 0202 022B     		cmp	r3, #2
 1580 0204 40F08F80 		bne	.L151
 276:.\Generated_Source\PSoC5/USBFS_1_std.c ****                         {
 1581              		.loc 1 276 0
 1582 0208 03F18043 		add	r3, r3, #1073741824
 1583 020c 03F5C043 		add	r3, r3, #24576
 1584 0210 1B78     		ldrb	r3, [r3]	@ zero_extendqisi2
 1585 0212 13F0FF0F 		tst	r3, #255
 1586 0216 40F08880 		bne	.L142
 278:.\Generated_Source\PSoC5/USBFS_1_std.c ****                         }
 1587              		.loc 1 278 0
 1588 021a FFF7FEFF 		bl	USBFS_1_ClearEndpointHalt
 1589              	.LVL152:
 1590 021e 10BD     		pop	{r4, pc}
 1591              	.LVL153:
 1592              	.L128:
 283:.\Generated_Source\PSoC5/USBFS_1_std.c ****                         {
 1593              		.loc 1 283 0
 1594 0220 144B     		ldr	r3, .L154+20
 1595 0222 1B78     		ldrb	r3, [r3]	@ zero_extendqisi2
 1596 0224 DBB2     		uxtb	r3, r3
 1597 0226 012B     		cmp	r3, #1
 1598 0228 40F08180 		bne	.L143
 285:.\Generated_Source\PSoC5/USBFS_1_std.c ****                             requestHandled = USBFS_1_InitNoDataControlTransfer();
 1599              		.loc 1 285 0
 1600 022c 154A     		ldr	r2, .L154+36
 1601 022e 1378     		ldrb	r3, [r2]	@ zero_extendqisi2
 1602 0230 03F0FD03 		and	r3, r3, #253
 1603 0234 1370     		strb	r3, [r2]
 286:.\Generated_Source\PSoC5/USBFS_1_std.c ****                         }
 1604              		.loc 1 286 0
 1605 0236 FFF7FEFF 		bl	USBFS_1_InitNoDataControlTransfer
 1606              	.LVL154:
 1607 023a 10BD     		pop	{r4, pc}
 1608              	.LVL155:
ARM GAS  C:\Users\Ian\AppData\Local\Temp\ccrzCaTu.s 			page 53


 1609              	.L127:
 291:.\Generated_Source\PSoC5/USBFS_1_std.c ****                         {
 1610              		.loc 1 291 0
 1611 023c 0E4B     		ldr	r3, .L154+24
 1612 023e 1B78     		ldrb	r3, [r3]	@ zero_extendqisi2
 1613 0240 13F0FF0F 		tst	r3, #255
 1614 0244 75D1     		bne	.L144
 294:.\Generated_Source\PSoC5/USBFS_1_std.c ****                             requestHandled = USBFS_1_InitNoDataControlTransfer();
 1615              		.loc 1 294 0
 1616 0246 0B4B     		ldr	r3, .L154+20
 1617 0248 1878     		ldrb	r0, [r3]	@ zero_extendqisi2
 293:.\Generated_Source\PSoC5/USBFS_1_std.c ****                                                                 (uint8)~(CY_GET_REG8(USBFS_1_wValue
 1618              		.loc 1 293 0
 1619 024a 0233     		adds	r3, r3, #2
 1620 024c 1B78     		ldrb	r3, [r3]	@ zero_extendqisi2
 1621 024e DBB2     		uxtb	r3, r3
 1622 0250 1349     		ldr	r1, .L154+64
 1623 0252 CA5C     		ldrb	r2, [r1, r3]	@ zero_extendqisi2
 1624 0254 22EA0002 		bic	r2, r2, r0
 1625 0258 CA54     		strb	r2, [r1, r3]
 295:.\Generated_Source\PSoC5/USBFS_1_std.c ****                         }
 1626              		.loc 1 295 0
 1627 025a FFF7FEFF 		bl	USBFS_1_InitNoDataControlTransfer
 1628              	.LVL156:
 1629 025e 10BD     		pop	{r4, pc}
 1630              	.L155:
 1631              		.align	2
 1632              	.L154:
 1633 0260 00000000 		.word	USBFS_1_currentTD
 1634 0264 00600040 		.word	1073766400
 1635 0268 01600040 		.word	1073766401
 1636 026c 03600040 		.word	1073766403
 1637 0270 00000000 		.word	USBFS_1_STRING_DESCRIPTORS
 1638 0274 02600040 		.word	1073766402
 1639 0278 04600040 		.word	1073766404
 1640 027c 00000000 		.word	USBFS_1_EP
 1641 0280 00000000 		.word	.LANCHOR0
 1642 0284 00000000 		.word	USBFS_1_deviceStatus
 1643 0288 00000000 		.word	USBFS_1_configuration
 1644 028c 00000000 		.word	USBFS_1_interfaceSetting
 1645 0290 00000000 		.word	USBFS_1_deviceAddress
 1646 0294 00000000 		.word	USBFS_1_configurationChanged
 1647 0298 00000000 		.word	USBFS_1_interfaceNumber
 1648 029c 00000000 		.word	USBFS_1_interfaceSetting_last
 1649 02a0 00000000 		.word	USBFS_1_interfaceStatus
 1650              	.LVL157:
 1651              	.L119:
 303:.\Generated_Source\PSoC5/USBFS_1_std.c ****                 {
 1652              		.loc 1 303 0
 1653 02a4 284B     		ldr	r3, .L156
 1654 02a6 1B78     		ldrb	r3, [r3]	@ zero_extendqisi2
 1655 02a8 03F00303 		and	r3, r3, #3
 1656 02ac 012B     		cmp	r3, #1
 1657 02ae 1AD0     		beq	.L130
 1658 02b0 63B1     		cbz	r3, .L131
 1659 02b2 022B     		cmp	r3, #2
 1660 02b4 3FD1     		bne	.L152
ARM GAS  C:\Users\Ian\AppData\Local\Temp\ccrzCaTu.s 			page 54


 306:.\Generated_Source\PSoC5/USBFS_1_std.c ****                         {
 1661              		.loc 1 306 0
 1662 02b6 03F18043 		add	r3, r3, #1073741824
 1663 02ba 03F5C043 		add	r3, r3, #24576
 1664 02be 1B78     		ldrb	r3, [r3]	@ zero_extendqisi2
 1665 02c0 13F0FF0F 		tst	r3, #255
 1666 02c4 39D1     		bne	.L146
 308:.\Generated_Source\PSoC5/USBFS_1_std.c ****                         }
 1667              		.loc 1 308 0
 1668 02c6 FFF7FEFF 		bl	USBFS_1_SetEndpointHalt
 1669              	.LVL158:
 1670 02ca 10BD     		pop	{r4, pc}
 1671              	.LVL159:
 1672              	.L131:
 313:.\Generated_Source\PSoC5/USBFS_1_std.c ****                         {
 1673              		.loc 1 313 0
 1674 02cc 1F4B     		ldr	r3, .L156+4
 1675 02ce 1B78     		ldrb	r3, [r3]	@ zero_extendqisi2
 1676 02d0 DBB2     		uxtb	r3, r3
 1677 02d2 012B     		cmp	r3, #1
 1678 02d4 33D1     		bne	.L147
 315:.\Generated_Source\PSoC5/USBFS_1_std.c ****                             requestHandled = USBFS_1_InitNoDataControlTransfer();
 1679              		.loc 1 315 0
 1680 02d6 1E4A     		ldr	r2, .L156+8
 1681 02d8 1378     		ldrb	r3, [r2]	@ zero_extendqisi2
 1682 02da 43F00203 		orr	r3, r3, #2
 1683 02de 1370     		strb	r3, [r2]
 316:.\Generated_Source\PSoC5/USBFS_1_std.c ****                         }
 1684              		.loc 1 316 0
 1685 02e0 FFF7FEFF 		bl	USBFS_1_InitNoDataControlTransfer
 1686              	.LVL160:
 1687 02e4 10BD     		pop	{r4, pc}
 1688              	.LVL161:
 1689              	.L130:
 321:.\Generated_Source\PSoC5/USBFS_1_std.c ****                         {
 1690              		.loc 1 321 0
 1691 02e6 1B4B     		ldr	r3, .L156+12
 1692 02e8 1B78     		ldrb	r3, [r3]	@ zero_extendqisi2
 1693 02ea 13F0FF0F 		tst	r3, #255
 1694 02ee 28D1     		bne	.L148
 324:.\Generated_Source\PSoC5/USBFS_1_std.c ****                             requestHandled = USBFS_1_InitNoDataControlTransfer();
 1695              		.loc 1 324 0
 1696 02f0 164B     		ldr	r3, .L156+4
 1697 02f2 1878     		ldrb	r0, [r3]	@ zero_extendqisi2
 323:.\Generated_Source\PSoC5/USBFS_1_std.c ****                                                                 (uint8)~(CY_GET_REG8(USBFS_1_wValue
 1698              		.loc 1 323 0
 1699 02f4 0233     		adds	r3, r3, #2
 1700 02f6 1B78     		ldrb	r3, [r3]	@ zero_extendqisi2
 1701 02f8 DBB2     		uxtb	r3, r3
 1702 02fa 1749     		ldr	r1, .L156+16
 1703 02fc CA5C     		ldrb	r2, [r1, r3]	@ zero_extendqisi2
 1704 02fe 22EA0002 		bic	r2, r2, r0
 1705 0302 CA54     		strb	r2, [r1, r3]
 325:.\Generated_Source\PSoC5/USBFS_1_std.c ****                         }
 1706              		.loc 1 325 0
 1707 0304 FFF7FEFF 		bl	USBFS_1_InitNoDataControlTransfer
 1708              	.LVL162:
ARM GAS  C:\Users\Ian\AppData\Local\Temp\ccrzCaTu.s 			page 55


 1709 0308 10BD     		pop	{r4, pc}
 1710              	.LVL163:
 1711              	.L133:
  90:.\Generated_Source\PSoC5/USBFS_1_std.c ****     uint8 interfaceNumber;
 1712              		.loc 1 90 0
 1713 030a 0020     		movs	r0, #0
 1714 030c 10BD     		pop	{r4, pc}
 1715              	.LVL164:
 1716              	.L134:
 1717 030e 0020     		movs	r0, #0
 1718              	.LVL165:
 1719 0310 10BD     		pop	{r4, pc}
 1720              	.LVL166:
 1721              	.L136:
 1722 0312 0020     		movs	r0, #0
 1723 0314 10BD     		pop	{r4, pc}
 1724              	.LVL167:
 1725              	.L150:
 1726 0316 0020     		movs	r0, #0
 1727 0318 10BD     		pop	{r4, pc}
 1728              	.L138:
 1729 031a 0020     		movs	r0, #0
 1730 031c 10BD     		pop	{r4, pc}
 1731              	.LVL168:
 1732              	.L139:
 1733 031e 0020     		movs	r0, #0
 1734              	.LVL169:
 1735 0320 10BD     		pop	{r4, pc}
 1736              	.L140:
 1737 0322 0020     		movs	r0, #0
 1738 0324 10BD     		pop	{r4, pc}
 1739              	.L151:
 1740 0326 0020     		movs	r0, #0
 1741 0328 10BD     		pop	{r4, pc}
 1742              	.L142:
 1743 032a 0020     		movs	r0, #0
 1744 032c 10BD     		pop	{r4, pc}
 1745              	.L143:
 1746 032e 0020     		movs	r0, #0
 1747 0330 10BD     		pop	{r4, pc}
 1748              	.L144:
 1749 0332 0020     		movs	r0, #0
 1750 0334 10BD     		pop	{r4, pc}
 1751              	.L152:
 1752 0336 0020     		movs	r0, #0
 1753 0338 10BD     		pop	{r4, pc}
 1754              	.L146:
 1755 033a 0020     		movs	r0, #0
 1756 033c 10BD     		pop	{r4, pc}
 1757              	.L147:
 1758 033e 0020     		movs	r0, #0
 1759 0340 10BD     		pop	{r4, pc}
 1760              	.L148:
 1761 0342 0020     		movs	r0, #0
 1762              	.LVL170:
 337:.\Generated_Source\PSoC5/USBFS_1_std.c **** 
 1763              		.loc 1 337 0
ARM GAS  C:\Users\Ian\AppData\Local\Temp\ccrzCaTu.s 			page 56


 1764 0344 10BD     		pop	{r4, pc}
 1765              	.L157:
 1766 0346 00BF     		.align	2
 1767              	.L156:
 1768 0348 00600040 		.word	1073766400
 1769 034c 02600040 		.word	1073766402
 1770 0350 00000000 		.word	USBFS_1_deviceStatus
 1771 0354 04600040 		.word	1073766404
 1772 0358 00000000 		.word	USBFS_1_interfaceStatus
 1773              		.cfi_endproc
 1774              	.LFE0:
 1775              		.size	USBFS_1_HandleStandardRqst, .-USBFS_1_HandleStandardRqst
 1776              		.bss
 1777              		.align	2
 1778              		.set	.LANCHOR0,. + 0
 1779              		.type	USBFS_1_tBuffer.4996, %object
 1780              		.size	USBFS_1_tBuffer.4996, 2
 1781              	USBFS_1_tBuffer.4996:
 1782 0000 0000     		.space	2
 1783 0002 0000     		.text
 1784              	.Letext0:
 1785              		.file 2 ".\\Generated_Source\\PSoC5\\cytypes.h"
 1786              		.file 3 ".\\Generated_Source\\PSoC5\\USBFS_1.h"
 1787              		.file 4 ".\\Generated_Source\\PSoC5\\USBFS_1_pvt.h"
 1788              		.section	.debug_info,"",%progbits
 1789              	.Ldebug_info0:
 1790 0000 56080000 		.4byte	0x856
 1791 0004 0400     		.2byte	0x4
 1792 0006 00000000 		.4byte	.Ldebug_abbrev0
 1793 000a 04       		.byte	0x4
 1794 000b 01       		.uleb128 0x1
 1795 000c 23050000 		.4byte	.LASF83
 1796 0010 01       		.byte	0x1
 1797 0011 2D020000 		.4byte	.LASF84
 1798 0015 B7050000 		.4byte	.LASF85
 1799 0019 00000000 		.4byte	.Ldebug_ranges0+0
 1800 001d 00000000 		.4byte	0
 1801 0021 00000000 		.4byte	.Ldebug_line0
 1802 0025 02       		.uleb128 0x2
 1803 0026 01       		.byte	0x1
 1804 0027 06       		.byte	0x6
 1805 0028 ED000000 		.4byte	.LASF0
 1806 002c 02       		.uleb128 0x2
 1807 002d 01       		.byte	0x1
 1808 002e 08       		.byte	0x8
 1809 002f 07040000 		.4byte	.LASF1
 1810 0033 02       		.uleb128 0x2
 1811 0034 02       		.byte	0x2
 1812 0035 05       		.byte	0x5
 1813 0036 15040000 		.4byte	.LASF2
 1814 003a 02       		.uleb128 0x2
 1815 003b 02       		.byte	0x2
 1816 003c 07       		.byte	0x7
 1817 003d B5020000 		.4byte	.LASF3
 1818 0041 02       		.uleb128 0x2
 1819 0042 04       		.byte	0x4
 1820 0043 05       		.byte	0x5
ARM GAS  C:\Users\Ian\AppData\Local\Temp\ccrzCaTu.s 			page 57


 1821 0044 32010000 		.4byte	.LASF4
 1822 0048 02       		.uleb128 0x2
 1823 0049 04       		.byte	0x4
 1824 004a 07       		.byte	0x7
 1825 004b 54020000 		.4byte	.LASF5
 1826 004f 02       		.uleb128 0x2
 1827 0050 08       		.byte	0x8
 1828 0051 05       		.byte	0x5
 1829 0052 DF000000 		.4byte	.LASF6
 1830 0056 02       		.uleb128 0x2
 1831 0057 08       		.byte	0x8
 1832 0058 07       		.byte	0x7
 1833 0059 9A000000 		.4byte	.LASF7
 1834 005d 03       		.uleb128 0x3
 1835 005e 04       		.byte	0x4
 1836 005f 05       		.byte	0x5
 1837 0060 696E7400 		.ascii	"int\000"
 1838 0064 02       		.uleb128 0x2
 1839 0065 04       		.byte	0x4
 1840 0066 07       		.byte	0x7
 1841 0067 0A020000 		.4byte	.LASF8
 1842 006b 04       		.uleb128 0x4
 1843 006c 5F010000 		.4byte	.LASF9
 1844 0070 02       		.byte	0x2
 1845 0071 5B       		.byte	0x5b
 1846 0072 2C000000 		.4byte	0x2c
 1847 0076 04       		.uleb128 0x4
 1848 0077 13000000 		.4byte	.LASF10
 1849 007b 02       		.byte	0x2
 1850 007c 5C       		.byte	0x5c
 1851 007d 3A000000 		.4byte	0x3a
 1852 0081 02       		.uleb128 0x2
 1853 0082 04       		.byte	0x4
 1854 0083 04       		.byte	0x4
 1855 0084 AA030000 		.4byte	.LASF11
 1856 0088 02       		.uleb128 0x2
 1857 0089 08       		.byte	0x8
 1858 008a 04       		.byte	0x4
 1859 008b A7010000 		.4byte	.LASF12
 1860 008f 02       		.uleb128 0x2
 1861 0090 01       		.byte	0x1
 1862 0091 08       		.byte	0x8
 1863 0092 A1040000 		.4byte	.LASF13
 1864 0096 04       		.uleb128 0x4
 1865 0097 02040000 		.4byte	.LASF14
 1866 009b 02       		.byte	0x2
 1867 009c F0       		.byte	0xf0
 1868 009d A1000000 		.4byte	0xa1
 1869 00a1 05       		.uleb128 0x5
 1870 00a2 6B000000 		.4byte	0x6b
 1871 00a6 02       		.uleb128 0x2
 1872 00a7 04       		.byte	0x4
 1873 00a8 07       		.byte	0x7
 1874 00a9 53030000 		.4byte	.LASF15
 1875 00ad 06       		.uleb128 0x6
 1876 00ae 0C       		.byte	0xc
 1877 00af 03       		.byte	0x3
ARM GAS  C:\Users\Ian\AppData\Local\Temp\ccrzCaTu.s 			page 58


 1878 00b0 76       		.byte	0x76
 1879 00b1 22010000 		.4byte	0x122
 1880 00b5 07       		.uleb128 0x7
 1881 00b6 72030000 		.4byte	.LASF16
 1882 00ba 03       		.byte	0x3
 1883 00bb 78       		.byte	0x78
 1884 00bc 6B000000 		.4byte	0x6b
 1885 00c0 00       		.byte	0
 1886 00c1 07       		.uleb128 0x7
 1887 00c2 B0030000 		.4byte	.LASF17
 1888 00c6 03       		.byte	0x3
 1889 00c7 79       		.byte	0x79
 1890 00c8 6B000000 		.4byte	0x6b
 1891 00cc 01       		.byte	0x1
 1892 00cd 07       		.uleb128 0x7
 1893 00ce 2F030000 		.4byte	.LASF18
 1894 00d2 03       		.byte	0x3
 1895 00d3 7A       		.byte	0x7a
 1896 00d4 6B000000 		.4byte	0x6b
 1897 00d8 02       		.byte	0x2
 1898 00d9 07       		.uleb128 0x7
 1899 00da 65010000 		.4byte	.LASF19
 1900 00de 03       		.byte	0x3
 1901 00df 7B       		.byte	0x7b
 1902 00e0 6B000000 		.4byte	0x6b
 1903 00e4 03       		.byte	0x3
 1904 00e5 07       		.uleb128 0x7
 1905 00e6 B1000000 		.4byte	.LASF20
 1906 00ea 03       		.byte	0x3
 1907 00eb 7C       		.byte	0x7c
 1908 00ec 6B000000 		.4byte	0x6b
 1909 00f0 04       		.byte	0x4
 1910 00f1 07       		.uleb128 0x7
 1911 00f2 E4010000 		.4byte	.LASF21
 1912 00f6 03       		.byte	0x3
 1913 00f7 7D       		.byte	0x7d
 1914 00f8 6B000000 		.4byte	0x6b
 1915 00fc 05       		.byte	0x5
 1916 00fd 07       		.uleb128 0x7
 1917 00fe E8040000 		.4byte	.LASF22
 1918 0102 03       		.byte	0x3
 1919 0103 7E       		.byte	0x7e
 1920 0104 76000000 		.4byte	0x76
 1921 0108 06       		.byte	0x6
 1922 0109 07       		.uleb128 0x7
 1923 010a B4040000 		.4byte	.LASF23
 1924 010e 03       		.byte	0x3
 1925 010f 7F       		.byte	0x7f
 1926 0110 76000000 		.4byte	0x76
 1927 0114 08       		.byte	0x8
 1928 0115 07       		.uleb128 0x7
 1929 0116 25030000 		.4byte	.LASF24
 1930 011a 03       		.byte	0x3
 1931 011b 80       		.byte	0x80
 1932 011c 6B000000 		.4byte	0x6b
 1933 0120 0A       		.byte	0xa
 1934 0121 00       		.byte	0
ARM GAS  C:\Users\Ian\AppData\Local\Temp\ccrzCaTu.s 			page 59


 1935 0122 04       		.uleb128 0x4
 1936 0123 CF020000 		.4byte	.LASF25
 1937 0127 03       		.byte	0x3
 1938 0128 81       		.byte	0x81
 1939 0129 AD000000 		.4byte	0xad
 1940 012d 06       		.uleb128 0x6
 1941 012e 08       		.byte	0x8
 1942 012f 03       		.byte	0x3
 1943 0130 83       		.byte	0x83
 1944 0131 7E010000 		.4byte	0x17e
 1945 0135 07       		.uleb128 0x7
 1946 0136 25030000 		.4byte	.LASF24
 1947 013a 03       		.byte	0x3
 1948 013b 85       		.byte	0x85
 1949 013c 6B000000 		.4byte	0x6b
 1950 0140 00       		.byte	0
 1951 0141 07       		.uleb128 0x7
 1952 0142 96040000 		.4byte	.LASF26
 1953 0146 03       		.byte	0x3
 1954 0147 86       		.byte	0x86
 1955 0148 6B000000 		.4byte	0x6b
 1956 014c 01       		.byte	0x1
 1957 014d 07       		.uleb128 0x7
 1958 014e B1000000 		.4byte	.LASF20
 1959 0152 03       		.byte	0x3
 1960 0153 87       		.byte	0x87
 1961 0154 6B000000 		.4byte	0x6b
 1962 0158 02       		.byte	0x2
 1963 0159 07       		.uleb128 0x7
 1964 015a 4D040000 		.4byte	.LASF27
 1965 015e 03       		.byte	0x3
 1966 015f 88       		.byte	0x88
 1967 0160 6B000000 		.4byte	0x6b
 1968 0164 03       		.byte	0x3
 1969 0165 07       		.uleb128 0x7
 1970 0166 B4040000 		.4byte	.LASF23
 1971 016a 03       		.byte	0x3
 1972 016b 89       		.byte	0x89
 1973 016c 76000000 		.4byte	0x76
 1974 0170 04       		.byte	0x4
 1975 0171 07       		.uleb128 0x7
 1976 0172 B1050000 		.4byte	.LASF28
 1977 0176 03       		.byte	0x3
 1978 0177 8A       		.byte	0x8a
 1979 0178 6B000000 		.4byte	0x6b
 1980 017c 06       		.byte	0x6
 1981 017d 00       		.byte	0
 1982 017e 04       		.uleb128 0x4
 1983 017f 1A000000 		.4byte	.LASF29
 1984 0183 03       		.byte	0x3
 1985 0184 8B       		.byte	0x8b
 1986 0185 2D010000 		.4byte	0x12d
 1987 0189 06       		.uleb128 0x6
 1988 018a 04       		.byte	0x4
 1989 018b 03       		.byte	0x3
 1990 018c 8D       		.byte	0x8d
 1991 018d AA010000 		.4byte	0x1aa
ARM GAS  C:\Users\Ian\AppData\Local\Temp\ccrzCaTu.s 			page 60


 1992 0191 07       		.uleb128 0x7
 1993 0192 1C050000 		.4byte	.LASF30
 1994 0196 03       		.byte	0x3
 1995 0197 8F       		.byte	0x8f
 1996 0198 6B000000 		.4byte	0x6b
 1997 019c 00       		.byte	0
 1998 019d 07       		.uleb128 0x7
 1999 019e 09050000 		.4byte	.LASF31
 2000 01a2 03       		.byte	0x3
 2001 01a3 90       		.byte	0x90
 2002 01a4 76000000 		.4byte	0x76
 2003 01a8 02       		.byte	0x2
 2004 01a9 00       		.byte	0
 2005 01aa 04       		.uleb128 0x4
 2006 01ab 66020000 		.4byte	.LASF32
 2007 01af 03       		.byte	0x3
 2008 01b0 91       		.byte	0x91
 2009 01b1 89010000 		.4byte	0x189
 2010 01b5 06       		.uleb128 0x6
 2011 01b6 0C       		.byte	0xc
 2012 01b7 03       		.byte	0x3
 2013 01b8 93       		.byte	0x93
 2014 01b9 E2010000 		.4byte	0x1e2
 2015 01bd 07       		.uleb128 0x7
 2016 01be 0D000000 		.4byte	.LASF33
 2017 01c2 03       		.byte	0x3
 2018 01c3 95       		.byte	0x95
 2019 01c4 76000000 		.4byte	0x76
 2020 01c8 00       		.byte	0
 2021 01c9 07       		.uleb128 0x7
 2022 01ca DE010000 		.4byte	.LASF34
 2023 01ce 03       		.byte	0x3
 2024 01cf 96       		.byte	0x96
 2025 01d0 E2010000 		.4byte	0x1e2
 2026 01d4 04       		.byte	0x4
 2027 01d5 07       		.uleb128 0x7
 2028 01d6 00000000 		.4byte	.LASF35
 2029 01da 03       		.byte	0x3
 2030 01db 97       		.byte	0x97
 2031 01dc E8010000 		.4byte	0x1e8
 2032 01e0 08       		.byte	0x8
 2033 01e1 00       		.byte	0
 2034 01e2 08       		.uleb128 0x8
 2035 01e3 04       		.byte	0x4
 2036 01e4 A1000000 		.4byte	0xa1
 2037 01e8 08       		.uleb128 0x8
 2038 01e9 04       		.byte	0x4
 2039 01ea AA010000 		.4byte	0x1aa
 2040 01ee 04       		.uleb128 0x4
 2041 01ef E6020000 		.4byte	.LASF36
 2042 01f3 03       		.byte	0x3
 2043 01f4 98       		.byte	0x98
 2044 01f5 B5010000 		.4byte	0x1b5
 2045 01f9 06       		.uleb128 0x6
 2046 01fa 08       		.byte	0x8
 2047 01fb 03       		.byte	0x3
 2048 01fc 9B       		.byte	0x9b
ARM GAS  C:\Users\Ian\AppData\Local\Temp\ccrzCaTu.s 			page 61


 2049 01fd 18020000 		.4byte	0x218
 2050 0201 09       		.uleb128 0x9
 2051 0202 6300     		.ascii	"c\000"
 2052 0204 03       		.byte	0x3
 2053 0205 9D       		.byte	0x9d
 2054 0206 6B000000 		.4byte	0x6b
 2055 020a 00       		.byte	0
 2056 020b 07       		.uleb128 0x7
 2057 020c 61030000 		.4byte	.LASF37
 2058 0210 03       		.byte	0x3
 2059 0211 9E       		.byte	0x9e
 2060 0212 18020000 		.4byte	0x218
 2061 0216 04       		.byte	0x4
 2062 0217 00       		.byte	0
 2063 0218 08       		.uleb128 0x8
 2064 0219 04       		.byte	0x4
 2065 021a 1E020000 		.4byte	0x21e
 2066 021e 0A       		.uleb128 0xa
 2067 021f 04       		.uleb128 0x4
 2068 0220 A6040000 		.4byte	.LASF38
 2069 0224 03       		.byte	0x3
 2070 0225 9F       		.byte	0x9f
 2071 0226 F9010000 		.4byte	0x1f9
 2072 022a 0B       		.uleb128 0xb
 2073 022b 7E000000 		.4byte	.LASF40
 2074 022f 01       		.byte	0x1
 2075 0230 9201     		.2byte	0x192
 2076 0232 00000000 		.4byte	.LFB1
 2077 0236 D4000000 		.4byte	.LFE1-.LFB1
 2078 023a 01       		.uleb128 0x1
 2079 023b 9C       		.byte	0x9c
 2080 023c 5E020000 		.4byte	0x25e
 2081 0240 0C       		.uleb128 0xc
 2082 0241 657000   		.ascii	"ep\000"
 2083 0244 01       		.byte	0x1
 2084 0245 9401     		.2byte	0x194
 2085 0247 6B000000 		.4byte	0x6b
 2086 024b 00000000 		.4byte	.LLST0
 2087 024f 0C       		.uleb128 0xc
 2088 0250 6900     		.ascii	"i\000"
 2089 0252 01       		.byte	0x1
 2090 0253 9501     		.2byte	0x195
 2091 0255 6B000000 		.4byte	0x6b
 2092 0259 2A000000 		.4byte	.LLST1
 2093 025d 00       		.byte	0
 2094 025e 0D       		.uleb128 0xd
 2095 025f 39030000 		.4byte	.LASF44
 2096 0263 01       		.byte	0x1
 2097 0264 6303     		.2byte	0x363
 2098 0266 99020000 		.4byte	0x299
 2099 026a 00000000 		.4byte	.LFB4
 2100 026e 28000000 		.4byte	.LFE4-.LFB4
 2101 0272 01       		.uleb128 0x1
 2102 0273 9C       		.byte	0x9c
 2103 0274 99020000 		.4byte	0x299
 2104 0278 0E       		.uleb128 0xe
 2105 0279 90000000 		.4byte	.LASF49
ARM GAS  C:\Users\Ian\AppData\Local\Temp\ccrzCaTu.s 			page 62


 2106 027d 01       		.byte	0x1
 2107 027e 6303     		.2byte	0x363
 2108 0280 6B000000 		.4byte	0x6b
 2109 0284 54000000 		.4byte	.LLST2
 2110 0288 0F       		.uleb128 0xf
 2111 0289 5C030000 		.4byte	.LASF39
 2112 028d 01       		.byte	0x1
 2113 028e 6703     		.2byte	0x367
 2114 0290 99020000 		.4byte	0x299
 2115 0294 8E000000 		.4byte	.LLST3
 2116 0298 00       		.byte	0
 2117 0299 08       		.uleb128 0x8
 2118 029a 04       		.byte	0x4
 2119 029b 9F020000 		.4byte	0x29f
 2120 029f 10       		.uleb128 0x10
 2121 02a0 1F020000 		.4byte	0x21f
 2122 02a4 0B       		.uleb128 0xb
 2123 02a5 19010000 		.4byte	.LASF41
 2124 02a9 01       		.byte	0x1
 2125 02aa E502     		.2byte	0x2e5
 2126 02ac 00000000 		.4byte	.LFB3
 2127 02b0 58010000 		.4byte	.LFE3-.LFB3
 2128 02b4 01       		.uleb128 0x1
 2129 02b5 9C       		.byte	0x9c
 2130 02b6 30030000 		.4byte	0x330
 2131 02ba 0C       		.uleb128 0xc
 2132 02bb 657000   		.ascii	"ep\000"
 2133 02be 01       		.byte	0x1
 2134 02bf E702     		.2byte	0x2e7
 2135 02c1 6B000000 		.4byte	0x6b
 2136 02c5 C6000000 		.4byte	.LLST4
 2137 02c9 0F       		.uleb128 0xf
 2138 02ca 15050000 		.4byte	.LASF42
 2139 02ce 01       		.byte	0x1
 2140 02cf E802     		.2byte	0x2e8
 2141 02d1 6B000000 		.4byte	0x6b
 2142 02d5 D9000000 		.4byte	.LLST5
 2143 02d9 0C       		.uleb128 0xc
 2144 02da 6900     		.ascii	"i\000"
 2145 02dc 01       		.byte	0x1
 2146 02dd E902     		.2byte	0x2e9
 2147 02df 6B000000 		.4byte	0x6b
 2148 02e3 EC000000 		.4byte	.LLST6
 2149 02e7 0F       		.uleb128 0xf
 2150 02e8 EB010000 		.4byte	.LASF43
 2151 02ec 01       		.byte	0x1
 2152 02ed EA02     		.2byte	0x2ea
 2153 02ef 6B000000 		.4byte	0x6b
 2154 02f3 16010000 		.4byte	.LLST7
 2155 02f7 0C       		.uleb128 0xc
 2156 02f8 726900   		.ascii	"ri\000"
 2157 02fb 01       		.byte	0x1
 2158 02fc EB02     		.2byte	0x2eb
 2159 02fe 6B000000 		.4byte	0x6b
 2160 0302 4A010000 		.4byte	.LLST8
 2161 0306 0F       		.uleb128 0xf
 2162 0307 5C030000 		.4byte	.LASF39
ARM GAS  C:\Users\Ian\AppData\Local\Temp\ccrzCaTu.s 			page 63


 2163 030b 01       		.byte	0x1
 2164 030c ED02     		.2byte	0x2ed
 2165 030e 99020000 		.4byte	0x299
 2166 0312 5D010000 		.4byte	.LLST9
 2167 0316 0C       		.uleb128 0xc
 2168 0317 70455000 		.ascii	"pEP\000"
 2169 031b 01       		.byte	0x1
 2170 031c EE02     		.2byte	0x2ee
 2171 031e 30030000 		.4byte	0x330
 2172 0322 72010000 		.4byte	.LLST10
 2173 0326 11       		.uleb128 0x11
 2174 0327 1A000000 		.4byte	.LVL13
 2175 032b 5E020000 		.4byte	0x25e
 2176 032f 00       		.byte	0
 2177 0330 08       		.uleb128 0x8
 2178 0331 04       		.byte	0x4
 2179 0332 36030000 		.4byte	0x336
 2180 0336 10       		.uleb128 0x10
 2181 0337 7E010000 		.4byte	0x17e
 2182 033b 12       		.uleb128 0x12
 2183 033c BB030000 		.4byte	.LASF86
 2184 0340 01       		.byte	0x1
 2185 0341 8C03     		.2byte	0x38c
 2186 0343 99020000 		.4byte	0x299
 2187 0347 00000000 		.4byte	.LFB5
 2188 034b 18000000 		.4byte	.LFE5-.LFB5
 2189 034f 01       		.uleb128 0x1
 2190 0350 9C       		.byte	0x9c
 2191 0351 0D       		.uleb128 0xd
 2192 0352 03030000 		.4byte	.LASF45
 2193 0356 01       		.byte	0x1
 2194 0357 A303     		.2byte	0x3a3
 2195 0359 A5030000 		.4byte	0x3a5
 2196 035d 00000000 		.4byte	.LFB6
 2197 0361 24000000 		.4byte	.LFE6-.LFB6
 2198 0365 01       		.uleb128 0x1
 2199 0366 9C       		.byte	0x9c
 2200 0367 A5030000 		.4byte	0x3a5
 2201 036b 0F       		.uleb128 0xf
 2202 036c 5C030000 		.4byte	.LASF39
 2203 0370 01       		.byte	0x1
 2204 0371 A603     		.2byte	0x3a6
 2205 0373 99020000 		.4byte	0x299
 2206 0377 85010000 		.4byte	.LLST11
 2207 037b 0F       		.uleb128 0xf
 2208 037c F3020000 		.4byte	.LASF46
 2209 0380 01       		.byte	0x1
 2210 0381 A703     		.2byte	0x3a7
 2211 0383 A5030000 		.4byte	0x3a5
 2212 0387 B5010000 		.4byte	.LLST12
 2213 038b 0F       		.uleb128 0xf
 2214 038c 79030000 		.4byte	.LASF47
 2215 0390 01       		.byte	0x1
 2216 0391 A803     		.2byte	0x3a8
 2217 0393 6B000000 		.4byte	0x6b
 2218 0397 D3010000 		.4byte	.LLST13
 2219 039b 11       		.uleb128 0x11
ARM GAS  C:\Users\Ian\AppData\Local\Temp\ccrzCaTu.s 			page 64


 2220 039c 0E000000 		.4byte	.LVL33
 2221 03a0 5E020000 		.4byte	0x25e
 2222 03a4 00       		.byte	0
 2223 03a5 08       		.uleb128 0x8
 2224 03a6 04       		.byte	0x4
 2225 03a7 AB030000 		.4byte	0x3ab
 2226 03ab 10       		.uleb128 0x10
 2227 03ac 6B000000 		.4byte	0x6b
 2228 03b0 0B       		.uleb128 0xb
 2229 03b1 14060000 		.4byte	.LASF48
 2230 03b5 01       		.byte	0x1
 2231 03b6 ED01     		.2byte	0x1ed
 2232 03b8 00000000 		.4byte	.LFB2
 2233 03bc D0010000 		.4byte	.LFE2-.LFB2
 2234 03c0 01       		.uleb128 0x1
 2235 03c1 9C       		.byte	0x9c
 2236 03c2 6F040000 		.4byte	0x46f
 2237 03c6 0E       		.uleb128 0xe
 2238 03c7 F9000000 		.4byte	.LASF50
 2239 03cb 01       		.byte	0x1
 2240 03cc ED01     		.2byte	0x1ed
 2241 03ce 6B000000 		.4byte	0x6b
 2242 03d2 E6010000 		.4byte	.LLST14
 2243 03d6 0C       		.uleb128 0xc
 2244 03d7 657000   		.ascii	"ep\000"
 2245 03da 01       		.byte	0x1
 2246 03db EF01     		.2byte	0x1ef
 2247 03dd 6B000000 		.4byte	0x6b
 2248 03e1 07020000 		.4byte	.LLST15
 2249 03e5 0F       		.uleb128 0xf
 2250 03e6 15050000 		.4byte	.LASF42
 2251 03ea 01       		.byte	0x1
 2252 03eb F001     		.2byte	0x1f0
 2253 03ed 6B000000 		.4byte	0x6b
 2254 03f1 69020000 		.4byte	.LLST16
 2255 03f5 0C       		.uleb128 0xc
 2256 03f6 6900     		.ascii	"i\000"
 2257 03f8 01       		.byte	0x1
 2258 03f9 F101     		.2byte	0x1f1
 2259 03fb 6B000000 		.4byte	0x6b
 2260 03ff 93020000 		.4byte	.LLST17
 2261 0403 0F       		.uleb128 0xf
 2262 0404 EB010000 		.4byte	.LASF43
 2263 0408 01       		.byte	0x1
 2264 0409 F201     		.2byte	0x1f2
 2265 040b 6B000000 		.4byte	0x6b
 2266 040f 00030000 		.4byte	.LLST18
 2267 0413 0F       		.uleb128 0xf
 2268 0414 C8020000 		.4byte	.LASF51
 2269 0418 01       		.byte	0x1
 2270 0419 F301     		.2byte	0x1f3
 2271 041b A5030000 		.4byte	0x3a5
 2272 041f 1E030000 		.4byte	.LLST19
 2273 0423 0F       		.uleb128 0xf
 2274 0424 68030000 		.4byte	.LASF52
 2275 0428 01       		.byte	0x1
 2276 0429 F501     		.2byte	0x1f5
ARM GAS  C:\Users\Ian\AppData\Local\Temp\ccrzCaTu.s 			page 65


 2277 042b 76000000 		.4byte	0x76
 2278 042f 3D030000 		.4byte	.LLST20
 2279 0433 0F       		.uleb128 0xf
 2280 0434 5C030000 		.4byte	.LASF39
 2281 0438 01       		.byte	0x1
 2282 0439 F801     		.2byte	0x1f8
 2283 043b 99020000 		.4byte	0x299
 2284 043f 73030000 		.4byte	.LLST21
 2285 0443 0C       		.uleb128 0xc
 2286 0444 70455000 		.ascii	"pEP\000"
 2287 0448 01       		.byte	0x1
 2288 0449 F901     		.2byte	0x1f9
 2289 044b 30030000 		.4byte	0x330
 2290 044f 93030000 		.4byte	.LLST22
 2291 0453 11       		.uleb128 0x11
 2292 0454 5A000000 		.4byte	.LVL51
 2293 0458 5E020000 		.4byte	0x25e
 2294 045c 11       		.uleb128 0x11
 2295 045d 8A010000 		.4byte	.LVL74
 2296 0461 51030000 		.4byte	0x351
 2297 0465 11       		.uleb128 0x11
 2298 0466 B2010000 		.4byte	.LVL81
 2299 046a 2A020000 		.4byte	0x22a
 2300 046e 00       		.byte	0
 2301 046f 0B       		.uleb128 0xb
 2302 0470 39040000 		.4byte	.LASF53
 2303 0474 01       		.byte	0x1
 2304 0475 CE03     		.2byte	0x3ce
 2305 0477 00000000 		.4byte	.LFB7
 2306 047b 50000000 		.4byte	.LFE7-.LFB7
 2307 047f 01       		.uleb128 0x1
 2308 0480 9C       		.byte	0x9c
 2309 0481 A2040000 		.4byte	0x4a2
 2310 0485 13       		.uleb128 0x13
 2311 0486 657000   		.ascii	"ep\000"
 2312 0489 01       		.byte	0x1
 2313 048a CE03     		.2byte	0x3ce
 2314 048c 6B000000 		.4byte	0x6b
 2315 0490 C9030000 		.4byte	.LLST23
 2316 0494 14       		.uleb128 0x14
 2317 0495 726900   		.ascii	"ri\000"
 2318 0498 01       		.byte	0x1
 2319 0499 D003     		.2byte	0x3d0
 2320 049b 6B000000 		.4byte	0x6b
 2321 049f 01       		.uleb128 0x1
 2322 04a0 51       		.byte	0x51
 2323 04a1 00       		.byte	0
 2324 04a2 0D       		.uleb128 0xd
 2325 04a3 9D020000 		.4byte	.LASF54
 2326 04a7 01       		.byte	0x1
 2327 04a8 FD03     		.2byte	0x3fd
 2328 04aa 6B000000 		.4byte	0x6b
 2329 04ae 00000000 		.4byte	.LFB8
 2330 04b2 60000000 		.4byte	.LFE8-.LFB8
 2331 04b6 01       		.uleb128 0x1
 2332 04b7 9C       		.byte	0x9c
 2333 04b8 F4040000 		.4byte	0x4f4
ARM GAS  C:\Users\Ian\AppData\Local\Temp\ccrzCaTu.s 			page 66


 2334 04bc 0C       		.uleb128 0xc
 2335 04bd 657000   		.ascii	"ep\000"
 2336 04c0 01       		.byte	0x1
 2337 04c1 FF03     		.2byte	0x3ff
 2338 04c3 6B000000 		.4byte	0x6b
 2339 04c7 E7030000 		.4byte	.LLST24
 2340 04cb 0C       		.uleb128 0xc
 2341 04cc 726900   		.ascii	"ri\000"
 2342 04cf 01       		.byte	0x1
 2343 04d0 0004     		.2byte	0x400
 2344 04d2 6B000000 		.4byte	0x6b
 2345 04d6 05040000 		.4byte	.LLST25
 2346 04da 0F       		.uleb128 0xf
 2347 04db BF040000 		.4byte	.LASF55
 2348 04df 01       		.byte	0x1
 2349 04e0 0104     		.2byte	0x401
 2350 04e2 6B000000 		.4byte	0x6b
 2351 04e6 2E040000 		.4byte	.LLST26
 2352 04ea 11       		.uleb128 0x11
 2353 04eb 4E000000 		.4byte	.LVL89
 2354 04ef 38080000 		.4byte	0x838
 2355 04f3 00       		.byte	0
 2356 04f4 0D       		.uleb128 0xd
 2357 04f5 1F040000 		.4byte	.LASF56
 2358 04f9 01       		.byte	0x1
 2359 04fa 3404     		.2byte	0x434
 2360 04fc 6B000000 		.4byte	0x6b
 2361 0500 00000000 		.4byte	.LFB9
 2362 0504 A4000000 		.4byte	.LFE9-.LFB9
 2363 0508 01       		.uleb128 0x1
 2364 0509 9C       		.byte	0x9c
 2365 050a 46050000 		.4byte	0x546
 2366 050e 0C       		.uleb128 0xc
 2367 050f 657000   		.ascii	"ep\000"
 2368 0512 01       		.byte	0x1
 2369 0513 3604     		.2byte	0x436
 2370 0515 6B000000 		.4byte	0x6b
 2371 0519 64040000 		.4byte	.LLST27
 2372 051d 0C       		.uleb128 0xc
 2373 051e 726900   		.ascii	"ri\000"
 2374 0521 01       		.byte	0x1
 2375 0522 3704     		.2byte	0x437
 2376 0524 6B000000 		.4byte	0x6b
 2377 0528 8D040000 		.4byte	.LLST28
 2378 052c 0F       		.uleb128 0xf
 2379 052d BF040000 		.4byte	.LASF55
 2380 0531 01       		.byte	0x1
 2381 0532 3804     		.2byte	0x438
 2382 0534 6B000000 		.4byte	0x6b
 2383 0538 AB040000 		.4byte	.LLST29
 2384 053c 11       		.uleb128 0x11
 2385 053d 8C000000 		.4byte	.LVL99
 2386 0541 38080000 		.4byte	0x838
 2387 0545 00       		.byte	0
 2388 0546 0D       		.uleb128 0xd
 2389 0547 58040000 		.4byte	.LASF57
 2390 054b 01       		.byte	0x1
ARM GAS  C:\Users\Ian\AppData\Local\Temp\ccrzCaTu.s 			page 67


 2391 054c 7B04     		.2byte	0x47b
 2392 054e 6B000000 		.4byte	0x6b
 2393 0552 00000000 		.4byte	.LFB10
 2394 0556 50000000 		.4byte	.LFE10-.LFB10
 2395 055a 01       		.uleb128 0x1
 2396 055b 9C       		.byte	0x9c
 2397 055c AA050000 		.4byte	0x5aa
 2398 0560 0F       		.uleb128 0xf
 2399 0561 BF040000 		.4byte	.LASF55
 2400 0565 01       		.byte	0x1
 2401 0566 7D04     		.2byte	0x47d
 2402 0568 6B000000 		.4byte	0x6b
 2403 056c D6040000 		.4byte	.LLST30
 2404 0570 0F       		.uleb128 0xf
 2405 0571 9D030000 		.4byte	.LASF58
 2406 0575 01       		.byte	0x1
 2407 0576 7E04     		.2byte	0x47e
 2408 0578 6B000000 		.4byte	0x6b
 2409 057c F5040000 		.4byte	.LLST31
 2410 0580 0F       		.uleb128 0xf
 2411 0581 5C030000 		.4byte	.LASF39
 2412 0585 01       		.byte	0x1
 2413 0586 7F04     		.2byte	0x47f
 2414 0588 99020000 		.4byte	0x299
 2415 058c 08050000 		.4byte	.LLST32
 2416 0590 0F       		.uleb128 0xf
 2417 0591 79030000 		.4byte	.LASF47
 2418 0595 01       		.byte	0x1
 2419 0596 8004     		.2byte	0x480
 2420 0598 6B000000 		.4byte	0x6b
 2421 059c 31050000 		.4byte	.LLST33
 2422 05a0 11       		.uleb128 0x11
 2423 05a1 14000000 		.4byte	.LVL103
 2424 05a5 5E020000 		.4byte	0x25e
 2425 05a9 00       		.byte	0
 2426 05aa 15       		.uleb128 0x15
 2427 05ab C3010000 		.4byte	.LASF59
 2428 05af 01       		.byte	0x1
 2429 05b0 58       		.byte	0x58
 2430 05b1 6B000000 		.4byte	0x6b
 2431 05b5 00000000 		.4byte	.LFB0
 2432 05b9 5C030000 		.4byte	.LFE0-.LFB0
 2433 05bd 01       		.uleb128 0x1
 2434 05be 9C       		.byte	0x9c
 2435 05bf 22070000 		.4byte	0x722
 2436 05c3 16       		.uleb128 0x16
 2437 05c4 BF040000 		.4byte	.LASF55
 2438 05c8 01       		.byte	0x1
 2439 05c9 5A       		.byte	0x5a
 2440 05ca 6B000000 		.4byte	0x6b
 2441 05ce 5E050000 		.4byte	.LLST34
 2442 05d2 16       		.uleb128 0x16
 2443 05d3 B6000000 		.4byte	.LASF60
 2444 05d7 01       		.byte	0x1
 2445 05d8 5B       		.byte	0x5b
 2446 05d9 6B000000 		.4byte	0x6b
 2447 05dd 04070000 		.4byte	.LLST35
ARM GAS  C:\Users\Ian\AppData\Local\Temp\ccrzCaTu.s 			page 68


 2448 05e1 16       		.uleb128 0x16
 2449 05e2 D5030000 		.4byte	.LASF61
 2450 05e6 01       		.byte	0x1
 2451 05e7 5C       		.byte	0x5c
 2452 05e8 6B000000 		.4byte	0x6b
 2453 05ec 17070000 		.4byte	.LLST36
 2454 05f0 16       		.uleb128 0x16
 2455 05f1 FD030000 		.4byte	.LASF62
 2456 05f5 01       		.byte	0x1
 2457 05f6 5E       		.byte	0x5e
 2458 05f7 E2010000 		.4byte	0x1e2
 2459 05fb 2A070000 		.4byte	.LLST37
 2460 05ff 16       		.uleb128 0x16
 2461 0600 10050000 		.4byte	.LASF63
 2462 0604 01       		.byte	0x1
 2463 0605 60       		.byte	0x60
 2464 0606 6B000000 		.4byte	0x6b
 2465 060a 83070000 		.4byte	.LLST38
 2466 060e 16       		.uleb128 0x16
 2467 060f 53010000 		.4byte	.LASF64
 2468 0613 01       		.byte	0x1
 2469 0614 61       		.byte	0x61
 2470 0615 6B000000 		.4byte	0x6b
 2471 0619 AC070000 		.4byte	.LLST39
 2472 061d 17       		.uleb128 0x17
 2473 061e 09010000 		.4byte	.LASF65
 2474 0622 01       		.byte	0x1
 2475 0623 64       		.byte	0x64
 2476 0624 32070000 		.4byte	0x732
 2477 0628 05       		.uleb128 0x5
 2478 0629 03       		.byte	0x3
 2479 062a 00000000 		.4byte	USBFS_1_tBuffer.4996
 2480 062e 16       		.uleb128 0x16
 2481 062f 5C030000 		.4byte	.LASF39
 2482 0633 01       		.byte	0x1
 2483 0634 65       		.byte	0x65
 2484 0635 99020000 		.4byte	0x299
 2485 0639 BF070000 		.4byte	.LLST40
 2486 063d 11       		.uleb128 0x11
 2487 063e 48000000 		.4byte	.LVL113
 2488 0642 3B030000 		.4byte	0x33b
 2489 0646 11       		.uleb128 0x11
 2490 0647 56000000 		.4byte	.LVL114
 2491 064b 43080000 		.4byte	0x843
 2492 064f 11       		.uleb128 0x11
 2493 0650 70000000 		.4byte	.LVL116
 2494 0654 5E020000 		.4byte	0x25e
 2495 0658 11       		.uleb128 0x11
 2496 0659 8E000000 		.4byte	.LVL117
 2497 065d 43080000 		.4byte	0x843
 2498 0661 11       		.uleb128 0x11
 2499 0662 D2000000 		.4byte	.LVL127
 2500 0666 43080000 		.4byte	0x843
 2501 066a 11       		.uleb128 0x11
 2502 066b D8000000 		.4byte	.LVL129
 2503 066f 4E080000 		.4byte	0x84e
 2504 0673 11       		.uleb128 0x11
ARM GAS  C:\Users\Ian\AppData\Local\Temp\ccrzCaTu.s 			page 69


 2505 0674 12010000 		.4byte	.LVL131
 2506 0678 43080000 		.4byte	0x843
 2507 067c 11       		.uleb128 0x11
 2508 067d 2E010000 		.4byte	.LVL133
 2509 0681 43080000 		.4byte	0x843
 2510 0685 11       		.uleb128 0x11
 2511 0686 3E010000 		.4byte	.LVL135
 2512 068a 43080000 		.4byte	0x843
 2513 068e 11       		.uleb128 0x11
 2514 068f 54010000 		.4byte	.LVL137
 2515 0693 43080000 		.4byte	0x843
 2516 0697 11       		.uleb128 0x11
 2517 0698 8A010000 		.4byte	.LVL139
 2518 069c 38080000 		.4byte	0x838
 2519 06a0 18       		.uleb128 0x18
 2520 06a1 9E010000 		.4byte	.LVL142
 2521 06a5 5E020000 		.4byte	0x25e
 2522 06a9 B4060000 		.4byte	0x6b4
 2523 06ad 19       		.uleb128 0x19
 2524 06ae 01       		.uleb128 0x1
 2525 06af 50       		.byte	0x50
 2526 06b0 02       		.uleb128 0x2
 2527 06b1 74       		.byte	0x74
 2528 06b2 7F       		.sleb128 -1
 2529 06b3 00       		.byte	0
 2530 06b4 18       		.uleb128 0x18
 2531 06b5 C0010000 		.4byte	.LVL144
 2532 06b9 B0030000 		.4byte	0x3b0
 2533 06bd C7060000 		.4byte	0x6c7
 2534 06c1 19       		.uleb128 0x19
 2535 06c2 01       		.uleb128 0x1
 2536 06c3 50       		.byte	0x50
 2537 06c4 01       		.uleb128 0x1
 2538 06c5 31       		.byte	0x31
 2539 06c6 00       		.byte	0
 2540 06c7 11       		.uleb128 0x11
 2541 06c8 C4010000 		.4byte	.LVL145
 2542 06cc 38080000 		.4byte	0x838
 2543 06d0 11       		.uleb128 0x11
 2544 06d1 CA010000 		.4byte	.LVL147
 2545 06d5 46050000 		.4byte	0x546
 2546 06d9 11       		.uleb128 0x11
 2547 06da E4010000 		.4byte	.LVL149
 2548 06de A4020000 		.4byte	0x2a4
 2549 06e2 11       		.uleb128 0x11
 2550 06e3 F2010000 		.4byte	.LVL150
 2551 06e7 38080000 		.4byte	0x838
 2552 06eb 11       		.uleb128 0x11
 2553 06ec 1E020000 		.4byte	.LVL152
 2554 06f0 F4040000 		.4byte	0x4f4
 2555 06f4 11       		.uleb128 0x11
 2556 06f5 3A020000 		.4byte	.LVL154
 2557 06f9 38080000 		.4byte	0x838
 2558 06fd 11       		.uleb128 0x11
 2559 06fe 5E020000 		.4byte	.LVL156
 2560 0702 38080000 		.4byte	0x838
 2561 0706 11       		.uleb128 0x11
ARM GAS  C:\Users\Ian\AppData\Local\Temp\ccrzCaTu.s 			page 70


 2562 0707 CA020000 		.4byte	.LVL158
 2563 070b A2040000 		.4byte	0x4a2
 2564 070f 11       		.uleb128 0x11
 2565 0710 E4020000 		.4byte	.LVL160
 2566 0714 38080000 		.4byte	0x838
 2567 0718 11       		.uleb128 0x11
 2568 0719 08030000 		.4byte	.LVL162
 2569 071d 38080000 		.4byte	0x838
 2570 0721 00       		.byte	0
 2571 0722 1A       		.uleb128 0x1a
 2572 0723 6B000000 		.4byte	0x6b
 2573 0727 32070000 		.4byte	0x732
 2574 072b 1B       		.uleb128 0x1b
 2575 072c A6000000 		.4byte	0xa6
 2576 0730 01       		.byte	0x1
 2577 0731 00       		.byte	0
 2578 0732 05       		.uleb128 0x5
 2579 0733 22070000 		.4byte	0x722
 2580 0737 1C       		.uleb128 0x1c
 2581 0738 8E030000 		.4byte	.LASF66
 2582 073c 03       		.byte	0x3
 2583 073d 4802     		.2byte	0x248
 2584 073f A1000000 		.4byte	0xa1
 2585 0743 1C       		.uleb128 0x1c
 2586 0744 17020000 		.4byte	.LASF67
 2587 0748 03       		.byte	0x3
 2588 0749 4A02     		.2byte	0x24a
 2589 074b A1000000 		.4byte	0xa1
 2590 074f 1C       		.uleb128 0x1c
 2591 0750 79040000 		.4byte	.LASF68
 2592 0754 03       		.byte	0x3
 2593 0755 4B02     		.2byte	0x24b
 2594 0757 A1000000 		.4byte	0xa1
 2595 075b 1C       		.uleb128 0x1c
 2596 075c AE010000 		.4byte	.LASF69
 2597 0760 03       		.byte	0x3
 2598 0761 4C02     		.2byte	0x24c
 2599 0763 A1000000 		.4byte	0xa1
 2600 0767 1A       		.uleb128 0x1a
 2601 0768 1F020000 		.4byte	0x21f
 2602 076c 77070000 		.4byte	0x777
 2603 0770 1B       		.uleb128 0x1b
 2604 0771 A6000000 		.4byte	0xa6
 2605 0775 00       		.byte	0
 2606 0776 00       		.byte	0
 2607 0777 1D       		.uleb128 0x1d
 2608 0778 D1000000 		.4byte	.LASF70
 2609 077c 04       		.byte	0x4
 2610 077d 22       		.byte	0x22
 2611 077e 82070000 		.4byte	0x782
 2612 0782 10       		.uleb128 0x10
 2613 0783 67070000 		.4byte	0x767
 2614 0787 1A       		.uleb128 0x1a
 2615 0788 6B000000 		.4byte	0x6b
 2616 078c 97070000 		.4byte	0x797
 2617 0790 1B       		.uleb128 0x1b
 2618 0791 A6000000 		.4byte	0xa6
ARM GAS  C:\Users\Ian\AppData\Local\Temp\ccrzCaTu.s 			page 71


 2619 0795 1E       		.byte	0x1e
 2620 0796 00       		.byte	0
 2621 0797 1D       		.uleb128 0x1d
 2622 0798 82020000 		.4byte	.LASF71
 2623 079c 04       		.byte	0x4
 2624 079d 23       		.byte	0x23
 2625 079e A2070000 		.4byte	0x7a2
 2626 07a2 10       		.uleb128 0x10
 2627 07a3 87070000 		.4byte	0x787
 2628 07a7 1D       		.uleb128 0x1d
 2629 07a8 F2010000 		.4byte	.LASF72
 2630 07ac 04       		.byte	0x4
 2631 07ad 2C       		.byte	0x2c
 2632 07ae A1000000 		.4byte	0xa1
 2633 07b2 1A       		.uleb128 0x1a
 2634 07b3 6B000000 		.4byte	0x6b
 2635 07b7 C2070000 		.4byte	0x7c2
 2636 07bb 1B       		.uleb128 0x1b
 2637 07bc A6000000 		.4byte	0xa6
 2638 07c0 00       		.byte	0
 2639 07c1 00       		.byte	0
 2640 07c2 1D       		.uleb128 0x1d
 2641 07c3 E4030000 		.4byte	.LASF73
 2642 07c7 04       		.byte	0x4
 2643 07c8 2D       		.byte	0x2d
 2644 07c9 CD070000 		.4byte	0x7cd
 2645 07cd 05       		.uleb128 0x5
 2646 07ce B2070000 		.4byte	0x7b2
 2647 07d2 1D       		.uleb128 0x1d
 2648 07d3 48000000 		.4byte	.LASF74
 2649 07d7 04       		.byte	0x4
 2650 07d8 2E       		.byte	0x2e
 2651 07d9 DD070000 		.4byte	0x7dd
 2652 07dd 05       		.uleb128 0x5
 2653 07de B2070000 		.4byte	0x7b2
 2654 07e2 1D       		.uleb128 0x1d
 2655 07e3 F3040000 		.4byte	.LASF75
 2656 07e7 04       		.byte	0x4
 2657 07e8 2F       		.byte	0x2f
 2658 07e9 A1000000 		.4byte	0xa1
 2659 07ed 1D       		.uleb128 0x1d
 2660 07ee 66000000 		.4byte	.LASF76
 2661 07f2 04       		.byte	0x4
 2662 07f3 30       		.byte	0x30
 2663 07f4 F8070000 		.4byte	0x7f8
 2664 07f8 05       		.uleb128 0x5
 2665 07f9 B2070000 		.4byte	0x7b2
 2666 07fd 1D       		.uleb128 0x1d
 2667 07fe 6E010000 		.4byte	.LASF77
 2668 0802 04       		.byte	0x4
 2669 0803 31       		.byte	0x31
 2670 0804 A5030000 		.4byte	0x3a5
 2671 0808 1A       		.uleb128 0x1a
 2672 0809 22010000 		.4byte	0x122
 2673 080d 18080000 		.4byte	0x818
 2674 0811 1B       		.uleb128 0x1b
 2675 0812 A6000000 		.4byte	0xa6
ARM GAS  C:\Users\Ian\AppData\Local\Temp\ccrzCaTu.s 			page 72


 2676 0816 08       		.byte	0x8
 2677 0817 00       		.byte	0
 2678 0818 1D       		.uleb128 0x1d
 2679 0819 C6000000 		.4byte	.LASF78
 2680 081d 04       		.byte	0x4
 2681 081e 33       		.byte	0x33
 2682 081f 23080000 		.4byte	0x823
 2683 0823 05       		.uleb128 0x5
 2684 0824 08080000 		.4byte	0x808
 2685 0828 1D       		.uleb128 0x1d
 2686 0829 36000000 		.4byte	.LASF79
 2687 082d 04       		.byte	0x4
 2688 082e 34       		.byte	0x34
 2689 082f 33080000 		.4byte	0x833
 2690 0833 05       		.uleb128 0x5
 2691 0834 EE010000 		.4byte	0x1ee
 2692 0838 1E       		.uleb128 0x1e
 2693 0839 85010000 		.4byte	.LASF80
 2694 083d 04       		.byte	0x4
 2695 083e 5E       		.byte	0x5e
 2696 083f 6B000000 		.4byte	0x6b
 2697 0843 1E       		.uleb128 0x1e
 2698 0844 3B010000 		.4byte	.LASF81
 2699 0848 04       		.byte	0x4
 2700 0849 51       		.byte	0x51
 2701 084a 6B000000 		.4byte	0x6b
 2702 084e 1E       		.uleb128 0x1e
 2703 084f CE040000 		.4byte	.LASF82
 2704 0853 04       		.byte	0x4
 2705 0854 B3       		.byte	0xb3
 2706 0855 6B000000 		.4byte	0x6b
 2707 0859 00       		.byte	0
 2708              		.section	.debug_abbrev,"",%progbits
 2709              	.Ldebug_abbrev0:
 2710 0000 01       		.uleb128 0x1
 2711 0001 11       		.uleb128 0x11
 2712 0002 01       		.byte	0x1
 2713 0003 25       		.uleb128 0x25
 2714 0004 0E       		.uleb128 0xe
 2715 0005 13       		.uleb128 0x13
 2716 0006 0B       		.uleb128 0xb
 2717 0007 03       		.uleb128 0x3
 2718 0008 0E       		.uleb128 0xe
 2719 0009 1B       		.uleb128 0x1b
 2720 000a 0E       		.uleb128 0xe
 2721 000b 55       		.uleb128 0x55
 2722 000c 17       		.uleb128 0x17
 2723 000d 11       		.uleb128 0x11
 2724 000e 01       		.uleb128 0x1
 2725 000f 10       		.uleb128 0x10
 2726 0010 17       		.uleb128 0x17
 2727 0011 00       		.byte	0
 2728 0012 00       		.byte	0
 2729 0013 02       		.uleb128 0x2
 2730 0014 24       		.uleb128 0x24
 2731 0015 00       		.byte	0
 2732 0016 0B       		.uleb128 0xb
ARM GAS  C:\Users\Ian\AppData\Local\Temp\ccrzCaTu.s 			page 73


 2733 0017 0B       		.uleb128 0xb
 2734 0018 3E       		.uleb128 0x3e
 2735 0019 0B       		.uleb128 0xb
 2736 001a 03       		.uleb128 0x3
 2737 001b 0E       		.uleb128 0xe
 2738 001c 00       		.byte	0
 2739 001d 00       		.byte	0
 2740 001e 03       		.uleb128 0x3
 2741 001f 24       		.uleb128 0x24
 2742 0020 00       		.byte	0
 2743 0021 0B       		.uleb128 0xb
 2744 0022 0B       		.uleb128 0xb
 2745 0023 3E       		.uleb128 0x3e
 2746 0024 0B       		.uleb128 0xb
 2747 0025 03       		.uleb128 0x3
 2748 0026 08       		.uleb128 0x8
 2749 0027 00       		.byte	0
 2750 0028 00       		.byte	0
 2751 0029 04       		.uleb128 0x4
 2752 002a 16       		.uleb128 0x16
 2753 002b 00       		.byte	0
 2754 002c 03       		.uleb128 0x3
 2755 002d 0E       		.uleb128 0xe
 2756 002e 3A       		.uleb128 0x3a
 2757 002f 0B       		.uleb128 0xb
 2758 0030 3B       		.uleb128 0x3b
 2759 0031 0B       		.uleb128 0xb
 2760 0032 49       		.uleb128 0x49
 2761 0033 13       		.uleb128 0x13
 2762 0034 00       		.byte	0
 2763 0035 00       		.byte	0
 2764 0036 05       		.uleb128 0x5
 2765 0037 35       		.uleb128 0x35
 2766 0038 00       		.byte	0
 2767 0039 49       		.uleb128 0x49
 2768 003a 13       		.uleb128 0x13
 2769 003b 00       		.byte	0
 2770 003c 00       		.byte	0
 2771 003d 06       		.uleb128 0x6
 2772 003e 13       		.uleb128 0x13
 2773 003f 01       		.byte	0x1
 2774 0040 0B       		.uleb128 0xb
 2775 0041 0B       		.uleb128 0xb
 2776 0042 3A       		.uleb128 0x3a
 2777 0043 0B       		.uleb128 0xb
 2778 0044 3B       		.uleb128 0x3b
 2779 0045 0B       		.uleb128 0xb
 2780 0046 01       		.uleb128 0x1
 2781 0047 13       		.uleb128 0x13
 2782 0048 00       		.byte	0
 2783 0049 00       		.byte	0
 2784 004a 07       		.uleb128 0x7
 2785 004b 0D       		.uleb128 0xd
 2786 004c 00       		.byte	0
 2787 004d 03       		.uleb128 0x3
 2788 004e 0E       		.uleb128 0xe
 2789 004f 3A       		.uleb128 0x3a
ARM GAS  C:\Users\Ian\AppData\Local\Temp\ccrzCaTu.s 			page 74


 2790 0050 0B       		.uleb128 0xb
 2791 0051 3B       		.uleb128 0x3b
 2792 0052 0B       		.uleb128 0xb
 2793 0053 49       		.uleb128 0x49
 2794 0054 13       		.uleb128 0x13
 2795 0055 38       		.uleb128 0x38
 2796 0056 0B       		.uleb128 0xb
 2797 0057 00       		.byte	0
 2798 0058 00       		.byte	0
 2799 0059 08       		.uleb128 0x8
 2800 005a 0F       		.uleb128 0xf
 2801 005b 00       		.byte	0
 2802 005c 0B       		.uleb128 0xb
 2803 005d 0B       		.uleb128 0xb
 2804 005e 49       		.uleb128 0x49
 2805 005f 13       		.uleb128 0x13
 2806 0060 00       		.byte	0
 2807 0061 00       		.byte	0
 2808 0062 09       		.uleb128 0x9
 2809 0063 0D       		.uleb128 0xd
 2810 0064 00       		.byte	0
 2811 0065 03       		.uleb128 0x3
 2812 0066 08       		.uleb128 0x8
 2813 0067 3A       		.uleb128 0x3a
 2814 0068 0B       		.uleb128 0xb
 2815 0069 3B       		.uleb128 0x3b
 2816 006a 0B       		.uleb128 0xb
 2817 006b 49       		.uleb128 0x49
 2818 006c 13       		.uleb128 0x13
 2819 006d 38       		.uleb128 0x38
 2820 006e 0B       		.uleb128 0xb
 2821 006f 00       		.byte	0
 2822 0070 00       		.byte	0
 2823 0071 0A       		.uleb128 0xa
 2824 0072 26       		.uleb128 0x26
 2825 0073 00       		.byte	0
 2826 0074 00       		.byte	0
 2827 0075 00       		.byte	0
 2828 0076 0B       		.uleb128 0xb
 2829 0077 2E       		.uleb128 0x2e
 2830 0078 01       		.byte	0x1
 2831 0079 3F       		.uleb128 0x3f
 2832 007a 19       		.uleb128 0x19
 2833 007b 03       		.uleb128 0x3
 2834 007c 0E       		.uleb128 0xe
 2835 007d 3A       		.uleb128 0x3a
 2836 007e 0B       		.uleb128 0xb
 2837 007f 3B       		.uleb128 0x3b
 2838 0080 05       		.uleb128 0x5
 2839 0081 27       		.uleb128 0x27
 2840 0082 19       		.uleb128 0x19
 2841 0083 11       		.uleb128 0x11
 2842 0084 01       		.uleb128 0x1
 2843 0085 12       		.uleb128 0x12
 2844 0086 06       		.uleb128 0x6
 2845 0087 40       		.uleb128 0x40
 2846 0088 18       		.uleb128 0x18
ARM GAS  C:\Users\Ian\AppData\Local\Temp\ccrzCaTu.s 			page 75


 2847 0089 9742     		.uleb128 0x2117
 2848 008b 19       		.uleb128 0x19
 2849 008c 01       		.uleb128 0x1
 2850 008d 13       		.uleb128 0x13
 2851 008e 00       		.byte	0
 2852 008f 00       		.byte	0
 2853 0090 0C       		.uleb128 0xc
 2854 0091 34       		.uleb128 0x34
 2855 0092 00       		.byte	0
 2856 0093 03       		.uleb128 0x3
 2857 0094 08       		.uleb128 0x8
 2858 0095 3A       		.uleb128 0x3a
 2859 0096 0B       		.uleb128 0xb
 2860 0097 3B       		.uleb128 0x3b
 2861 0098 05       		.uleb128 0x5
 2862 0099 49       		.uleb128 0x49
 2863 009a 13       		.uleb128 0x13
 2864 009b 02       		.uleb128 0x2
 2865 009c 17       		.uleb128 0x17
 2866 009d 00       		.byte	0
 2867 009e 00       		.byte	0
 2868 009f 0D       		.uleb128 0xd
 2869 00a0 2E       		.uleb128 0x2e
 2870 00a1 01       		.byte	0x1
 2871 00a2 3F       		.uleb128 0x3f
 2872 00a3 19       		.uleb128 0x19
 2873 00a4 03       		.uleb128 0x3
 2874 00a5 0E       		.uleb128 0xe
 2875 00a6 3A       		.uleb128 0x3a
 2876 00a7 0B       		.uleb128 0xb
 2877 00a8 3B       		.uleb128 0x3b
 2878 00a9 05       		.uleb128 0x5
 2879 00aa 27       		.uleb128 0x27
 2880 00ab 19       		.uleb128 0x19
 2881 00ac 49       		.uleb128 0x49
 2882 00ad 13       		.uleb128 0x13
 2883 00ae 11       		.uleb128 0x11
 2884 00af 01       		.uleb128 0x1
 2885 00b0 12       		.uleb128 0x12
 2886 00b1 06       		.uleb128 0x6
 2887 00b2 40       		.uleb128 0x40
 2888 00b3 18       		.uleb128 0x18
 2889 00b4 9742     		.uleb128 0x2117
 2890 00b6 19       		.uleb128 0x19
 2891 00b7 01       		.uleb128 0x1
 2892 00b8 13       		.uleb128 0x13
 2893 00b9 00       		.byte	0
 2894 00ba 00       		.byte	0
 2895 00bb 0E       		.uleb128 0xe
 2896 00bc 05       		.uleb128 0x5
 2897 00bd 00       		.byte	0
 2898 00be 03       		.uleb128 0x3
 2899 00bf 0E       		.uleb128 0xe
 2900 00c0 3A       		.uleb128 0x3a
 2901 00c1 0B       		.uleb128 0xb
 2902 00c2 3B       		.uleb128 0x3b
 2903 00c3 05       		.uleb128 0x5
ARM GAS  C:\Users\Ian\AppData\Local\Temp\ccrzCaTu.s 			page 76


 2904 00c4 49       		.uleb128 0x49
 2905 00c5 13       		.uleb128 0x13
 2906 00c6 02       		.uleb128 0x2
 2907 00c7 17       		.uleb128 0x17
 2908 00c8 00       		.byte	0
 2909 00c9 00       		.byte	0
 2910 00ca 0F       		.uleb128 0xf
 2911 00cb 34       		.uleb128 0x34
 2912 00cc 00       		.byte	0
 2913 00cd 03       		.uleb128 0x3
 2914 00ce 0E       		.uleb128 0xe
 2915 00cf 3A       		.uleb128 0x3a
 2916 00d0 0B       		.uleb128 0xb
 2917 00d1 3B       		.uleb128 0x3b
 2918 00d2 05       		.uleb128 0x5
 2919 00d3 49       		.uleb128 0x49
 2920 00d4 13       		.uleb128 0x13
 2921 00d5 02       		.uleb128 0x2
 2922 00d6 17       		.uleb128 0x17
 2923 00d7 00       		.byte	0
 2924 00d8 00       		.byte	0
 2925 00d9 10       		.uleb128 0x10
 2926 00da 26       		.uleb128 0x26
 2927 00db 00       		.byte	0
 2928 00dc 49       		.uleb128 0x49
 2929 00dd 13       		.uleb128 0x13
 2930 00de 00       		.byte	0
 2931 00df 00       		.byte	0
 2932 00e0 11       		.uleb128 0x11
 2933 00e1 898201   		.uleb128 0x4109
 2934 00e4 00       		.byte	0
 2935 00e5 11       		.uleb128 0x11
 2936 00e6 01       		.uleb128 0x1
 2937 00e7 31       		.uleb128 0x31
 2938 00e8 13       		.uleb128 0x13
 2939 00e9 00       		.byte	0
 2940 00ea 00       		.byte	0
 2941 00eb 12       		.uleb128 0x12
 2942 00ec 2E       		.uleb128 0x2e
 2943 00ed 00       		.byte	0
 2944 00ee 3F       		.uleb128 0x3f
 2945 00ef 19       		.uleb128 0x19
 2946 00f0 03       		.uleb128 0x3
 2947 00f1 0E       		.uleb128 0xe
 2948 00f2 3A       		.uleb128 0x3a
 2949 00f3 0B       		.uleb128 0xb
 2950 00f4 3B       		.uleb128 0x3b
 2951 00f5 05       		.uleb128 0x5
 2952 00f6 27       		.uleb128 0x27
 2953 00f7 19       		.uleb128 0x19
 2954 00f8 49       		.uleb128 0x49
 2955 00f9 13       		.uleb128 0x13
 2956 00fa 11       		.uleb128 0x11
 2957 00fb 01       		.uleb128 0x1
 2958 00fc 12       		.uleb128 0x12
 2959 00fd 06       		.uleb128 0x6
 2960 00fe 40       		.uleb128 0x40
ARM GAS  C:\Users\Ian\AppData\Local\Temp\ccrzCaTu.s 			page 77


 2961 00ff 18       		.uleb128 0x18
 2962 0100 9742     		.uleb128 0x2117
 2963 0102 19       		.uleb128 0x19
 2964 0103 00       		.byte	0
 2965 0104 00       		.byte	0
 2966 0105 13       		.uleb128 0x13
 2967 0106 05       		.uleb128 0x5
 2968 0107 00       		.byte	0
 2969 0108 03       		.uleb128 0x3
 2970 0109 08       		.uleb128 0x8
 2971 010a 3A       		.uleb128 0x3a
 2972 010b 0B       		.uleb128 0xb
 2973 010c 3B       		.uleb128 0x3b
 2974 010d 05       		.uleb128 0x5
 2975 010e 49       		.uleb128 0x49
 2976 010f 13       		.uleb128 0x13
 2977 0110 02       		.uleb128 0x2
 2978 0111 17       		.uleb128 0x17
 2979 0112 00       		.byte	0
 2980 0113 00       		.byte	0
 2981 0114 14       		.uleb128 0x14
 2982 0115 34       		.uleb128 0x34
 2983 0116 00       		.byte	0
 2984 0117 03       		.uleb128 0x3
 2985 0118 08       		.uleb128 0x8
 2986 0119 3A       		.uleb128 0x3a
 2987 011a 0B       		.uleb128 0xb
 2988 011b 3B       		.uleb128 0x3b
 2989 011c 05       		.uleb128 0x5
 2990 011d 49       		.uleb128 0x49
 2991 011e 13       		.uleb128 0x13
 2992 011f 02       		.uleb128 0x2
 2993 0120 18       		.uleb128 0x18
 2994 0121 00       		.byte	0
 2995 0122 00       		.byte	0
 2996 0123 15       		.uleb128 0x15
 2997 0124 2E       		.uleb128 0x2e
 2998 0125 01       		.byte	0x1
 2999 0126 3F       		.uleb128 0x3f
 3000 0127 19       		.uleb128 0x19
 3001 0128 03       		.uleb128 0x3
 3002 0129 0E       		.uleb128 0xe
 3003 012a 3A       		.uleb128 0x3a
 3004 012b 0B       		.uleb128 0xb
 3005 012c 3B       		.uleb128 0x3b
 3006 012d 0B       		.uleb128 0xb
 3007 012e 27       		.uleb128 0x27
 3008 012f 19       		.uleb128 0x19
 3009 0130 49       		.uleb128 0x49
 3010 0131 13       		.uleb128 0x13
 3011 0132 11       		.uleb128 0x11
 3012 0133 01       		.uleb128 0x1
 3013 0134 12       		.uleb128 0x12
 3014 0135 06       		.uleb128 0x6
 3015 0136 40       		.uleb128 0x40
 3016 0137 18       		.uleb128 0x18
 3017 0138 9742     		.uleb128 0x2117
ARM GAS  C:\Users\Ian\AppData\Local\Temp\ccrzCaTu.s 			page 78


 3018 013a 19       		.uleb128 0x19
 3019 013b 01       		.uleb128 0x1
 3020 013c 13       		.uleb128 0x13
 3021 013d 00       		.byte	0
 3022 013e 00       		.byte	0
 3023 013f 16       		.uleb128 0x16
 3024 0140 34       		.uleb128 0x34
 3025 0141 00       		.byte	0
 3026 0142 03       		.uleb128 0x3
 3027 0143 0E       		.uleb128 0xe
 3028 0144 3A       		.uleb128 0x3a
 3029 0145 0B       		.uleb128 0xb
 3030 0146 3B       		.uleb128 0x3b
 3031 0147 0B       		.uleb128 0xb
 3032 0148 49       		.uleb128 0x49
 3033 0149 13       		.uleb128 0x13
 3034 014a 02       		.uleb128 0x2
 3035 014b 17       		.uleb128 0x17
 3036 014c 00       		.byte	0
 3037 014d 00       		.byte	0
 3038 014e 17       		.uleb128 0x17
 3039 014f 34       		.uleb128 0x34
 3040 0150 00       		.byte	0
 3041 0151 03       		.uleb128 0x3
 3042 0152 0E       		.uleb128 0xe
 3043 0153 3A       		.uleb128 0x3a
 3044 0154 0B       		.uleb128 0xb
 3045 0155 3B       		.uleb128 0x3b
 3046 0156 0B       		.uleb128 0xb
 3047 0157 49       		.uleb128 0x49
 3048 0158 13       		.uleb128 0x13
 3049 0159 02       		.uleb128 0x2
 3050 015a 18       		.uleb128 0x18
 3051 015b 00       		.byte	0
 3052 015c 00       		.byte	0
 3053 015d 18       		.uleb128 0x18
 3054 015e 898201   		.uleb128 0x4109
 3055 0161 01       		.byte	0x1
 3056 0162 11       		.uleb128 0x11
 3057 0163 01       		.uleb128 0x1
 3058 0164 31       		.uleb128 0x31
 3059 0165 13       		.uleb128 0x13
 3060 0166 01       		.uleb128 0x1
 3061 0167 13       		.uleb128 0x13
 3062 0168 00       		.byte	0
 3063 0169 00       		.byte	0
 3064 016a 19       		.uleb128 0x19
 3065 016b 8A8201   		.uleb128 0x410a
 3066 016e 00       		.byte	0
 3067 016f 02       		.uleb128 0x2
 3068 0170 18       		.uleb128 0x18
 3069 0171 9142     		.uleb128 0x2111
 3070 0173 18       		.uleb128 0x18
 3071 0174 00       		.byte	0
 3072 0175 00       		.byte	0
 3073 0176 1A       		.uleb128 0x1a
 3074 0177 01       		.uleb128 0x1
ARM GAS  C:\Users\Ian\AppData\Local\Temp\ccrzCaTu.s 			page 79


 3075 0178 01       		.byte	0x1
 3076 0179 49       		.uleb128 0x49
 3077 017a 13       		.uleb128 0x13
 3078 017b 01       		.uleb128 0x1
 3079 017c 13       		.uleb128 0x13
 3080 017d 00       		.byte	0
 3081 017e 00       		.byte	0
 3082 017f 1B       		.uleb128 0x1b
 3083 0180 21       		.uleb128 0x21
 3084 0181 00       		.byte	0
 3085 0182 49       		.uleb128 0x49
 3086 0183 13       		.uleb128 0x13
 3087 0184 2F       		.uleb128 0x2f
 3088 0185 0B       		.uleb128 0xb
 3089 0186 00       		.byte	0
 3090 0187 00       		.byte	0
 3091 0188 1C       		.uleb128 0x1c
 3092 0189 34       		.uleb128 0x34
 3093 018a 00       		.byte	0
 3094 018b 03       		.uleb128 0x3
 3095 018c 0E       		.uleb128 0xe
 3096 018d 3A       		.uleb128 0x3a
 3097 018e 0B       		.uleb128 0xb
 3098 018f 3B       		.uleb128 0x3b
 3099 0190 05       		.uleb128 0x5
 3100 0191 49       		.uleb128 0x49
 3101 0192 13       		.uleb128 0x13
 3102 0193 3F       		.uleb128 0x3f
 3103 0194 19       		.uleb128 0x19
 3104 0195 3C       		.uleb128 0x3c
 3105 0196 19       		.uleb128 0x19
 3106 0197 00       		.byte	0
 3107 0198 00       		.byte	0
 3108 0199 1D       		.uleb128 0x1d
 3109 019a 34       		.uleb128 0x34
 3110 019b 00       		.byte	0
 3111 019c 03       		.uleb128 0x3
 3112 019d 0E       		.uleb128 0xe
 3113 019e 3A       		.uleb128 0x3a
 3114 019f 0B       		.uleb128 0xb
 3115 01a0 3B       		.uleb128 0x3b
 3116 01a1 0B       		.uleb128 0xb
 3117 01a2 49       		.uleb128 0x49
 3118 01a3 13       		.uleb128 0x13
 3119 01a4 3F       		.uleb128 0x3f
 3120 01a5 19       		.uleb128 0x19
 3121 01a6 3C       		.uleb128 0x3c
 3122 01a7 19       		.uleb128 0x19
 3123 01a8 00       		.byte	0
 3124 01a9 00       		.byte	0
 3125 01aa 1E       		.uleb128 0x1e
 3126 01ab 2E       		.uleb128 0x2e
 3127 01ac 00       		.byte	0
 3128 01ad 3F       		.uleb128 0x3f
 3129 01ae 19       		.uleb128 0x19
 3130 01af 03       		.uleb128 0x3
 3131 01b0 0E       		.uleb128 0xe
ARM GAS  C:\Users\Ian\AppData\Local\Temp\ccrzCaTu.s 			page 80


 3132 01b1 3A       		.uleb128 0x3a
 3133 01b2 0B       		.uleb128 0xb
 3134 01b3 3B       		.uleb128 0x3b
 3135 01b4 0B       		.uleb128 0xb
 3136 01b5 27       		.uleb128 0x27
 3137 01b6 19       		.uleb128 0x19
 3138 01b7 49       		.uleb128 0x49
 3139 01b8 13       		.uleb128 0x13
 3140 01b9 3C       		.uleb128 0x3c
 3141 01ba 19       		.uleb128 0x19
 3142 01bb 00       		.byte	0
 3143 01bc 00       		.byte	0
 3144 01bd 00       		.byte	0
 3145              		.section	.debug_loc,"",%progbits
 3146              	.Ldebug_loc0:
 3147              	.LLST0:
 3148 0000 02000000 		.4byte	.LVL0
 3149 0004 08000000 		.4byte	.LVL1
 3150 0008 0200     		.2byte	0x2
 3151 000a 31       		.byte	0x31
 3152 000b 9F       		.byte	0x9f
 3153 000c 08000000 		.4byte	.LVL1
 3154 0010 A8000000 		.4byte	.LVL2
 3155 0014 0100     		.2byte	0x1
 3156 0016 50       		.byte	0x50
 3157 0017 AA000000 		.4byte	.LVL3
 3158 001b D4000000 		.4byte	.LFE1
 3159 001f 0100     		.2byte	0x1
 3160 0021 50       		.byte	0x50
 3161 0022 00000000 		.4byte	0
 3162 0026 00000000 		.4byte	0
 3163              	.LLST1:
 3164 002a 02000000 		.4byte	.LVL0
 3165 002e 08000000 		.4byte	.LVL1
 3166 0032 0200     		.2byte	0x2
 3167 0034 30       		.byte	0x30
 3168 0035 9F       		.byte	0x9f
 3169 0036 08000000 		.4byte	.LVL1
 3170 003a AC000000 		.4byte	.LVL4
 3171 003e 0100     		.2byte	0x1
 3172 0040 54       		.byte	0x54
 3173 0041 AE000000 		.4byte	.LVL5
 3174 0045 BC000000 		.4byte	.LVL6
 3175 0049 0100     		.2byte	0x1
 3176 004b 54       		.byte	0x54
 3177 004c 00000000 		.4byte	0
 3178 0050 00000000 		.4byte	0
 3179              	.LLST2:
 3180 0054 00000000 		.4byte	.LVL7
 3181 0058 18000000 		.4byte	.LVL10
 3182 005c 0100     		.2byte	0x1
 3183 005e 50       		.byte	0x50
 3184 005f 18000000 		.4byte	.LVL10
 3185 0063 1A000000 		.4byte	.LVL11
 3186 0067 0400     		.2byte	0x4
 3187 0069 F3       		.byte	0xf3
 3188 006a 01       		.uleb128 0x1
ARM GAS  C:\Users\Ian\AppData\Local\Temp\ccrzCaTu.s 			page 81


 3189 006b 50       		.byte	0x50
 3190 006c 9F       		.byte	0x9f
 3191 006d 1A000000 		.4byte	.LVL11
 3192 0071 1C000000 		.4byte	.LVL12
 3193 0075 0100     		.2byte	0x1
 3194 0077 50       		.byte	0x50
 3195 0078 1C000000 		.4byte	.LVL12
 3196 007c 28000000 		.4byte	.LFE4
 3197 0080 0400     		.2byte	0x4
 3198 0082 F3       		.byte	0xf3
 3199 0083 01       		.uleb128 0x1
 3200 0084 50       		.byte	0x50
 3201 0085 9F       		.byte	0x9f
 3202 0086 00000000 		.4byte	0
 3203 008a 00000000 		.4byte	0
 3204              	.LLST3:
 3205 008e 0C000000 		.4byte	.LVL8
 3206 0092 16000000 		.4byte	.LVL9
 3207 0096 0300     		.2byte	0x3
 3208 0098 73       		.byte	0x73
 3209 0099 08       		.sleb128 8
 3210 009a 9F       		.byte	0x9f
 3211 009b 18000000 		.4byte	.LVL10
 3212 009f 1A000000 		.4byte	.LVL11
 3213 00a3 0100     		.2byte	0x1
 3214 00a5 50       		.byte	0x50
 3215 00a6 1A000000 		.4byte	.LVL11
 3216 00aa 1C000000 		.4byte	.LVL12
 3217 00ae 0300     		.2byte	0x3
 3218 00b0 73       		.byte	0x73
 3219 00b1 08       		.sleb128 8
 3220 00b2 9F       		.byte	0x9f
 3221 00b3 1C000000 		.4byte	.LVL12
 3222 00b7 28000000 		.4byte	.LFE4
 3223 00bb 0100     		.2byte	0x1
 3224 00bd 50       		.byte	0x50
 3225 00be 00000000 		.4byte	0
 3226 00c2 00000000 		.4byte	0
 3227              	.LLST4:
 3228 00c6 1C000000 		.4byte	.LVL14
 3229 00ca 32010000 		.4byte	.LVL32
 3230 00ce 0100     		.2byte	0x1
 3231 00d0 55       		.byte	0x55
 3232 00d1 00000000 		.4byte	0
 3233 00d5 00000000 		.4byte	0
 3234              	.LLST5:
 3235 00d9 4E000000 		.4byte	.LVL17
 3236 00dd 18010000 		.4byte	.LVL27
 3237 00e1 0100     		.2byte	0x1
 3238 00e3 52       		.byte	0x52
 3239 00e4 00000000 		.4byte	0
 3240 00e8 00000000 		.4byte	0
 3241              	.LLST6:
 3242 00ec 1E000000 		.4byte	.LVL15
 3243 00f0 22000000 		.4byte	.LVL16
 3244 00f4 0200     		.2byte	0x2
 3245 00f6 30       		.byte	0x30
ARM GAS  C:\Users\Ian\AppData\Local\Temp\ccrzCaTu.s 			page 82


 3246 00f7 9F       		.byte	0x9f
 3247 00f8 22000000 		.4byte	.LVL16
 3248 00fc 2A010000 		.4byte	.LVL30
 3249 0100 0100     		.2byte	0x1
 3250 0102 53       		.byte	0x53
 3251 0103 2C010000 		.4byte	.LVL31
 3252 0107 32010000 		.4byte	.LVL32
 3253 010b 0100     		.2byte	0x1
 3254 010d 53       		.byte	0x53
 3255 010e 00000000 		.4byte	0
 3256 0112 00000000 		.4byte	0
 3257              	.LLST7:
 3258 0116 5A000000 		.4byte	.LVL19
 3259 011a 74000000 		.4byte	.LVL20
 3260 011e 0100     		.2byte	0x1
 3261 0120 56       		.byte	0x56
 3262 0121 76000000 		.4byte	.LVL21
 3263 0125 78000000 		.4byte	.LVL22
 3264 0129 0100     		.2byte	0x1
 3265 012b 56       		.byte	0x56
 3266 012c 86000000 		.4byte	.LVL23
 3267 0130 9A000000 		.4byte	.LVL24
 3268 0134 0100     		.2byte	0x1
 3269 0136 56       		.byte	0x56
 3270 0137 9C000000 		.4byte	.LVL25
 3271 013b 9E000000 		.4byte	.LVL26
 3272 013f 0100     		.2byte	0x1
 3273 0141 56       		.byte	0x56
 3274 0142 00000000 		.4byte	0
 3275 0146 00000000 		.4byte	0
 3276              	.LLST8:
 3277 014a 54000000 		.4byte	.LVL18
 3278 014e 26010000 		.4byte	.LVL28
 3279 0152 0100     		.2byte	0x1
 3280 0154 51       		.byte	0x51
 3281 0155 00000000 		.4byte	0
 3282 0159 00000000 		.4byte	0
 3283              	.LLST9:
 3284 015d 1A000000 		.4byte	.LVL13
 3285 0161 1E000000 		.4byte	.LVL15
 3286 0165 0300     		.2byte	0x3
 3287 0167 70       		.byte	0x70
 3288 0168 08       		.sleb128 8
 3289 0169 9F       		.byte	0x9f
 3290 016a 00000000 		.4byte	0
 3291 016e 00000000 		.4byte	0
 3292              	.LLST10:
 3293 0172 1E000000 		.4byte	.LVL15
 3294 0176 32010000 		.4byte	.LVL32
 3295 017a 0100     		.2byte	0x1
 3296 017c 50       		.byte	0x50
 3297 017d 00000000 		.4byte	0
 3298 0181 00000000 		.4byte	0
 3299              	.LLST11:
 3300 0185 0E000000 		.4byte	.LVL33
 3301 0189 18000000 		.4byte	.LVL35
 3302 018d 0100     		.2byte	0x1
ARM GAS  C:\Users\Ian\AppData\Local\Temp\ccrzCaTu.s 			page 83


 3303 018f 50       		.byte	0x50
 3304 0190 18000000 		.4byte	.LVL35
 3305 0194 1A000000 		.4byte	.LVL36
 3306 0198 0800     		.2byte	0x8
 3307 019a 72       		.byte	0x72
 3308 019b 02       		.sleb128 2
 3309 019c 33       		.byte	0x33
 3310 019d 24       		.byte	0x24
 3311 019e 70       		.byte	0x70
 3312 019f 00       		.sleb128 0
 3313 01a0 22       		.byte	0x22
 3314 01a1 9F       		.byte	0x9f
 3315 01a2 1C000000 		.4byte	.LVL37
 3316 01a6 1E000000 		.4byte	.LVL38
 3317 01aa 0100     		.2byte	0x1
 3318 01ac 50       		.byte	0x50
 3319 01ad 00000000 		.4byte	0
 3320 01b1 00000000 		.4byte	0
 3321              	.LLST12:
 3322 01b5 1A000000 		.4byte	.LVL36
 3323 01b9 1C000000 		.4byte	.LVL37
 3324 01bd 0100     		.2byte	0x1
 3325 01bf 50       		.byte	0x50
 3326 01c0 1E000000 		.4byte	.LVL38
 3327 01c4 24000000 		.4byte	.LFE6
 3328 01c8 0100     		.2byte	0x1
 3329 01ca 50       		.byte	0x50
 3330 01cb 00000000 		.4byte	0
 3331 01cf 00000000 		.4byte	0
 3332              	.LLST13:
 3333 01d3 14000000 		.4byte	.LVL34
 3334 01d7 1C000000 		.4byte	.LVL37
 3335 01db 0100     		.2byte	0x1
 3336 01dd 52       		.byte	0x52
 3337 01de 00000000 		.4byte	0
 3338 01e2 00000000 		.4byte	0
 3339              	.LLST14:
 3340 01e6 00000000 		.4byte	.LVL39
 3341 01ea 52000000 		.4byte	.LVL50
 3342 01ee 0100     		.2byte	0x1
 3343 01f0 50       		.byte	0x50
 3344 01f1 52000000 		.4byte	.LVL50
 3345 01f5 D0010000 		.4byte	.LFE2
 3346 01f9 0400     		.2byte	0x4
 3347 01fb F3       		.byte	0xf3
 3348 01fc 01       		.uleb128 0x1
 3349 01fd 50       		.byte	0x50
 3350 01fe 9F       		.byte	0x9f
 3351 01ff 00000000 		.4byte	0
 3352 0203 00000000 		.4byte	0
 3353              	.LLST15:
 3354 0207 02000000 		.4byte	.LVL40
 3355 020b 06000000 		.4byte	.LVL41
 3356 020f 0200     		.2byte	0x2
 3357 0211 30       		.byte	0x30
 3358 0212 9F       		.byte	0x9f
 3359 0213 06000000 		.4byte	.LVL41
ARM GAS  C:\Users\Ian\AppData\Local\Temp\ccrzCaTu.s 			page 84


 3360 0217 22000000 		.4byte	.LVL42
 3361 021b 0100     		.2byte	0x1
 3362 021d 52       		.byte	0x52
 3363 021e 24000000 		.4byte	.LVL43
 3364 0222 2C000000 		.4byte	.LVL44
 3365 0226 0100     		.2byte	0x1
 3366 0228 52       		.byte	0x52
 3367 0229 3C000000 		.4byte	.LVL47
 3368 022d 3E000000 		.4byte	.LVL48
 3369 0231 0100     		.2byte	0x1
 3370 0233 52       		.byte	0x52
 3371 0234 7C000000 		.4byte	.LVL55
 3372 0238 8E010000 		.4byte	.LVL75
 3373 023c 0100     		.2byte	0x1
 3374 023e 55       		.byte	0x55
 3375 023f 8E010000 		.4byte	.LVL75
 3376 0243 94010000 		.4byte	.LVL76
 3377 0247 0200     		.2byte	0x2
 3378 0249 31       		.byte	0x31
 3379 024a 9F       		.byte	0x9f
 3380 024b 94010000 		.4byte	.LVL76
 3381 024f A8010000 		.4byte	.LVL79
 3382 0253 0100     		.2byte	0x1
 3383 0255 52       		.byte	0x52
 3384 0256 AA010000 		.4byte	.LVL80
 3385 025a B1010000 		.4byte	.LVL81-1
 3386 025e 0100     		.2byte	0x1
 3387 0260 52       		.byte	0x52
 3388 0261 00000000 		.4byte	0
 3389 0265 00000000 		.4byte	0
 3390              	.LLST16:
 3391 0269 82000000 		.4byte	.LVL57
 3392 026d 86000000 		.4byte	.LVL58
 3393 0271 0200     		.2byte	0x2
 3394 0273 30       		.byte	0x30
 3395 0274 9F       		.byte	0x9f
 3396 0275 86000000 		.4byte	.LVL58
 3397 0279 54010000 		.4byte	.LVL64
 3398 027d 0100     		.2byte	0x1
 3399 027f 53       		.byte	0x53
 3400 0280 56010000 		.4byte	.LVL65
 3401 0284 5E010000 		.4byte	.LVL67
 3402 0288 0100     		.2byte	0x1
 3403 028a 53       		.byte	0x53
 3404 028b 00000000 		.4byte	0
 3405 028f 00000000 		.4byte	0
 3406              	.LLST17:
 3407 0293 2C000000 		.4byte	.LVL44
 3408 0297 38000000 		.4byte	.LVL45
 3409 029b 0100     		.2byte	0x1
 3410 029d 53       		.byte	0x53
 3411 029e 3A000000 		.4byte	.LVL46
 3412 02a2 3C000000 		.4byte	.LVL47
 3413 02a6 0100     		.2byte	0x1
 3414 02a8 53       		.byte	0x53
 3415 02a9 3E000000 		.4byte	.LVL48
 3416 02ad 42000000 		.4byte	.LVL49
ARM GAS  C:\Users\Ian\AppData\Local\Temp\ccrzCaTu.s 			page 85


 3417 02b1 0100     		.2byte	0x1
 3418 02b3 53       		.byte	0x53
 3419 02b4 7C000000 		.4byte	.LVL55
 3420 02b8 80000000 		.4byte	.LVL56
 3421 02bc 0200     		.2byte	0x2
 3422 02be 31       		.byte	0x31
 3423 02bf 9F       		.byte	0x9f
 3424 02c0 80000000 		.4byte	.LVL56
 3425 02c4 5C010000 		.4byte	.LVL66
 3426 02c8 0100     		.2byte	0x1
 3427 02ca 54       		.byte	0x54
 3428 02cb 5E010000 		.4byte	.LVL67
 3429 02cf 64010000 		.4byte	.LVL68
 3430 02d3 0100     		.2byte	0x1
 3431 02d5 54       		.byte	0x54
 3432 02d6 64010000 		.4byte	.LVL68
 3433 02da 68010000 		.4byte	.LVL69
 3434 02de 0200     		.2byte	0x2
 3435 02e0 30       		.byte	0x30
 3436 02e1 9F       		.byte	0x9f
 3437 02e2 68010000 		.4byte	.LVL69
 3438 02e6 80010000 		.4byte	.LVL72
 3439 02ea 0100     		.2byte	0x1
 3440 02ec 52       		.byte	0x52
 3441 02ed 82010000 		.4byte	.LVL73
 3442 02f1 89010000 		.4byte	.LVL74-1
 3443 02f5 0100     		.2byte	0x1
 3444 02f7 52       		.byte	0x52
 3445 02f8 00000000 		.4byte	0
 3446 02fc 00000000 		.4byte	0
 3447              	.LLST18:
 3448 0300 C8000000 		.4byte	.LVL59
 3449 0304 FA000000 		.4byte	.LVL60
 3450 0308 0100     		.2byte	0x1
 3451 030a 57       		.byte	0x57
 3452 030b 02010000 		.4byte	.LVL61
 3453 030f 2C010000 		.4byte	.LVL62
 3454 0313 0100     		.2byte	0x1
 3455 0315 57       		.byte	0x57
 3456 0316 00000000 		.4byte	0
 3457 031a 00000000 		.4byte	0
 3458              	.LLST19:
 3459 031e 5C000000 		.4byte	.LVL52
 3460 0322 5E000000 		.4byte	.LVL53
 3461 0326 0100     		.2byte	0x1
 3462 0328 53       		.byte	0x53
 3463 0329 5E000000 		.4byte	.LVL53
 3464 032d 80000000 		.4byte	.LVL56
 3465 0331 0200     		.2byte	0x2
 3466 0333 70       		.byte	0x70
 3467 0334 04       		.sleb128 4
 3468 0335 00000000 		.4byte	0
 3469 0339 00000000 		.4byte	0
 3470              	.LLST20:
 3471 033d 02000000 		.4byte	.LVL40
 3472 0341 94010000 		.4byte	.LVL76
 3473 0345 0200     		.2byte	0x2
ARM GAS  C:\Users\Ian\AppData\Local\Temp\ccrzCaTu.s 			page 86


 3474 0347 30       		.byte	0x30
 3475 0348 9F       		.byte	0x9f
 3476 0349 94010000 		.4byte	.LVL76
 3477 034d A4010000 		.4byte	.LVL77
 3478 0351 0100     		.2byte	0x1
 3479 0353 50       		.byte	0x50
 3480 0354 A4010000 		.4byte	.LVL77
 3481 0358 A6010000 		.4byte	.LVL78
 3482 035c 0200     		.2byte	0x2
 3483 035e 71       		.byte	0x71
 3484 035f 06       		.sleb128 6
 3485 0360 A6010000 		.4byte	.LVL78
 3486 0364 B1010000 		.4byte	.LVL81-1
 3487 0368 0100     		.2byte	0x1
 3488 036a 50       		.byte	0x50
 3489 036b 00000000 		.4byte	0
 3490 036f 00000000 		.4byte	0
 3491              	.LLST21:
 3492 0373 5A000000 		.4byte	.LVL51
 3493 0377 7A000000 		.4byte	.LVL54
 3494 037b 0100     		.2byte	0x1
 3495 037d 50       		.byte	0x50
 3496 037e 7A000000 		.4byte	.LVL54
 3497 0382 64010000 		.4byte	.LVL68
 3498 0386 0300     		.2byte	0x3
 3499 0388 70       		.byte	0x70
 3500 0389 08       		.sleb128 8
 3501 038a 9F       		.byte	0x9f
 3502 038b 00000000 		.4byte	0
 3503 038f 00000000 		.4byte	0
 3504              	.LLST22:
 3505 0393 82000000 		.4byte	.LVL57
 3506 0397 5E010000 		.4byte	.LVL67
 3507 039b 0100     		.2byte	0x1
 3508 039d 51       		.byte	0x51
 3509 039e 64010000 		.4byte	.LVL68
 3510 03a2 72010000 		.4byte	.LVL70
 3511 03a6 0100     		.2byte	0x1
 3512 03a8 50       		.byte	0x50
 3513 03a9 72010000 		.4byte	.LVL70
 3514 03ad 7E010000 		.4byte	.LVL71
 3515 03b1 0300     		.2byte	0x3
 3516 03b3 70       		.byte	0x70
 3517 03b4 78       		.sleb128 -8
 3518 03b5 9F       		.byte	0x9f
 3519 03b6 7E010000 		.4byte	.LVL71
 3520 03ba 89010000 		.4byte	.LVL74-1
 3521 03be 0100     		.2byte	0x1
 3522 03c0 50       		.byte	0x50
 3523 03c1 00000000 		.4byte	0
 3524 03c5 00000000 		.4byte	0
 3525              	.LLST23:
 3526 03c9 00000000 		.4byte	.LVL82
 3527 03cd 04000000 		.4byte	.LVL83
 3528 03d1 0100     		.2byte	0x1
 3529 03d3 50       		.byte	0x50
 3530 03d4 04000000 		.4byte	.LVL83
ARM GAS  C:\Users\Ian\AppData\Local\Temp\ccrzCaTu.s 			page 87


 3531 03d8 50000000 		.4byte	.LFE7
 3532 03dc 0100     		.2byte	0x1
 3533 03de 50       		.byte	0x50
 3534 03df 00000000 		.4byte	0
 3535 03e3 00000000 		.4byte	0
 3536              	.LLST24:
 3537 03e7 0A000000 		.4byte	.LVL86
 3538 03eb 36000000 		.4byte	.LVL88
 3539 03ef 0100     		.2byte	0x1
 3540 03f1 53       		.byte	0x53
 3541 03f2 50000000 		.4byte	.LVL90
 3542 03f6 54000000 		.4byte	.LVL92
 3543 03fa 0100     		.2byte	0x1
 3544 03fc 53       		.byte	0x53
 3545 03fd 00000000 		.4byte	0
 3546 0401 00000000 		.4byte	0
 3547              	.LLST25:
 3548 0405 12000000 		.4byte	.LVL87
 3549 0409 4D000000 		.4byte	.LVL89-1
 3550 040d 0100     		.2byte	0x1
 3551 040f 50       		.byte	0x50
 3552 0410 50000000 		.4byte	.LVL90
 3553 0414 52000000 		.4byte	.LVL91
 3554 0418 0100     		.2byte	0x1
 3555 041a 50       		.byte	0x50
 3556 041b 52000000 		.4byte	.LVL91
 3557 041f 60000000 		.4byte	.LFE8
 3558 0423 0100     		.2byte	0x1
 3559 0425 51       		.byte	0x51
 3560 0426 00000000 		.4byte	0
 3561 042a 00000000 		.4byte	0
 3562              	.LLST26:
 3563 042e 02000000 		.4byte	.LVL85
 3564 0432 4E000000 		.4byte	.LVL89
 3565 0436 0200     		.2byte	0x2
 3566 0438 30       		.byte	0x30
 3567 0439 9F       		.byte	0x9f
 3568 043a 4E000000 		.4byte	.LVL89
 3569 043e 50000000 		.4byte	.LVL90
 3570 0442 0100     		.2byte	0x1
 3571 0444 50       		.byte	0x50
 3572 0445 50000000 		.4byte	.LVL90
 3573 0449 52000000 		.4byte	.LVL91
 3574 044d 0200     		.2byte	0x2
 3575 044f 30       		.byte	0x30
 3576 0450 9F       		.byte	0x9f
 3577 0451 52000000 		.4byte	.LVL91
 3578 0455 60000000 		.4byte	.LFE8
 3579 0459 0100     		.2byte	0x1
 3580 045b 50       		.byte	0x50
 3581 045c 00000000 		.4byte	0
 3582 0460 00000000 		.4byte	0
 3583              	.LLST27:
 3584 0464 08000000 		.4byte	.LVL94
 3585 0468 4A000000 		.4byte	.LVL96
 3586 046c 0100     		.2byte	0x1
 3587 046e 53       		.byte	0x53
ARM GAS  C:\Users\Ian\AppData\Local\Temp\ccrzCaTu.s 			page 88


 3588 046f 68000000 		.4byte	.LVL97
 3589 0473 6C000000 		.4byte	.LVL98
 3590 0477 0100     		.2byte	0x1
 3591 0479 53       		.byte	0x53
 3592 047a 8E000000 		.4byte	.LVL100
 3593 047e A4000000 		.4byte	.LFE9
 3594 0482 0100     		.2byte	0x1
 3595 0484 53       		.byte	0x53
 3596 0485 00000000 		.4byte	0
 3597 0489 00000000 		.4byte	0
 3598              	.LLST28:
 3599 048d 10000000 		.4byte	.LVL95
 3600 0491 8B000000 		.4byte	.LVL99-1
 3601 0495 0100     		.2byte	0x1
 3602 0497 51       		.byte	0x51
 3603 0498 8E000000 		.4byte	.LVL100
 3604 049c A4000000 		.4byte	.LFE9
 3605 04a0 0100     		.2byte	0x1
 3606 04a2 51       		.byte	0x51
 3607 04a3 00000000 		.4byte	0
 3608 04a7 00000000 		.4byte	0
 3609              	.LLST29:
 3610 04ab 00000000 		.4byte	.LVL93
 3611 04af 8C000000 		.4byte	.LVL99
 3612 04b3 0200     		.2byte	0x2
 3613 04b5 30       		.byte	0x30
 3614 04b6 9F       		.byte	0x9f
 3615 04b7 8C000000 		.4byte	.LVL99
 3616 04bb 8E000000 		.4byte	.LVL100
 3617 04bf 0100     		.2byte	0x1
 3618 04c1 50       		.byte	0x50
 3619 04c2 8E000000 		.4byte	.LVL100
 3620 04c6 A4000000 		.4byte	.LFE9
 3621 04ca 0200     		.2byte	0x2
 3622 04cc 30       		.byte	0x30
 3623 04cd 9F       		.byte	0x9f
 3624 04ce 00000000 		.4byte	0
 3625 04d2 00000000 		.4byte	0
 3626              	.LLST30:
 3627 04d6 02000000 		.4byte	.LVL101
 3628 04da 3A000000 		.4byte	.LVL110
 3629 04de 0200     		.2byte	0x2
 3630 04e0 31       		.byte	0x31
 3631 04e1 9F       		.byte	0x9f
 3632 04e2 3A000000 		.4byte	.LVL110
 3633 04e6 50000000 		.4byte	.LFE10
 3634 04ea 0100     		.2byte	0x1
 3635 04ec 50       		.byte	0x50
 3636 04ed 00000000 		.4byte	0
 3637 04f1 00000000 		.4byte	0
 3638              	.LLST31:
 3639 04f5 08000000 		.4byte	.LVL102
 3640 04f9 3C000000 		.4byte	.LVL111
 3641 04fd 0100     		.2byte	0x1
 3642 04ff 54       		.byte	0x54
 3643 0500 00000000 		.4byte	0
 3644 0504 00000000 		.4byte	0
ARM GAS  C:\Users\Ian\AppData\Local\Temp\ccrzCaTu.s 			page 89


 3645              	.LLST32:
 3646 0508 14000000 		.4byte	.LVL103
 3647 050c 32000000 		.4byte	.LVL106
 3648 0510 0100     		.2byte	0x1
 3649 0512 50       		.byte	0x50
 3650 0513 34000000 		.4byte	.LVL107
 3651 0517 36000000 		.4byte	.LVL108
 3652 051b 0100     		.2byte	0x1
 3653 051d 50       		.byte	0x50
 3654 051e 38000000 		.4byte	.LVL109
 3655 0522 3A000000 		.4byte	.LVL110
 3656 0526 0100     		.2byte	0x1
 3657 0528 50       		.byte	0x50
 3658 0529 00000000 		.4byte	0
 3659 052d 00000000 		.4byte	0
 3660              	.LLST33:
 3661 0531 18000000 		.4byte	.LVL104
 3662 0535 22000000 		.4byte	.LVL105
 3663 0539 0100     		.2byte	0x1
 3664 053b 53       		.byte	0x53
 3665 053c 22000000 		.4byte	.LVL105
 3666 0540 32000000 		.4byte	.LVL106
 3667 0544 0500     		.2byte	0x5
 3668 0546 70       		.byte	0x70
 3669 0547 04       		.sleb128 4
 3670 0548 06       		.byte	0x6
 3671 0549 23       		.byte	0x23
 3672 054a 04       		.uleb128 0x4
 3673 054b 34000000 		.4byte	.LVL107
 3674 054f 50000000 		.4byte	.LFE10
 3675 0553 0100     		.2byte	0x1
 3676 0555 53       		.byte	0x53
 3677 0556 00000000 		.4byte	0
 3678 055a 00000000 		.4byte	0
 3679              	.LLST34:
 3680 055e 02000000 		.4byte	.LVL112
 3681 0562 56000000 		.4byte	.LVL114
 3682 0566 0200     		.2byte	0x2
 3683 0568 30       		.byte	0x30
 3684 0569 9F       		.byte	0x9f
 3685 056a 56000000 		.4byte	.LVL114
 3686 056e 58000000 		.4byte	.LVL115
 3687 0572 0100     		.2byte	0x1
 3688 0574 50       		.byte	0x50
 3689 0575 58000000 		.4byte	.LVL115
 3690 0579 8E000000 		.4byte	.LVL117
 3691 057d 0200     		.2byte	0x2
 3692 057f 30       		.byte	0x30
 3693 0580 9F       		.byte	0x9f
 3694 0581 8E000000 		.4byte	.LVL117
 3695 0585 90000000 		.4byte	.LVL118
 3696 0589 0100     		.2byte	0x1
 3697 058b 50       		.byte	0x50
 3698 058c 90000000 		.4byte	.LVL118
 3699 0590 D2000000 		.4byte	.LVL127
 3700 0594 0200     		.2byte	0x2
 3701 0596 30       		.byte	0x30
ARM GAS  C:\Users\Ian\AppData\Local\Temp\ccrzCaTu.s 			page 90


 3702 0597 9F       		.byte	0x9f
 3703 0598 D2000000 		.4byte	.LVL127
 3704 059c D4000000 		.4byte	.LVL128
 3705 05a0 0100     		.2byte	0x1
 3706 05a2 50       		.byte	0x50
 3707 05a3 D4000000 		.4byte	.LVL128
 3708 05a7 D8000000 		.4byte	.LVL129
 3709 05ab 0200     		.2byte	0x2
 3710 05ad 30       		.byte	0x30
 3711 05ae 9F       		.byte	0x9f
 3712 05af D8000000 		.4byte	.LVL129
 3713 05b3 DA000000 		.4byte	.LVL130
 3714 05b7 0100     		.2byte	0x1
 3715 05b9 50       		.byte	0x50
 3716 05ba DA000000 		.4byte	.LVL130
 3717 05be 12010000 		.4byte	.LVL131
 3718 05c2 0200     		.2byte	0x2
 3719 05c4 30       		.byte	0x30
 3720 05c5 9F       		.byte	0x9f
 3721 05c6 12010000 		.4byte	.LVL131
 3722 05ca 14010000 		.4byte	.LVL132
 3723 05ce 0100     		.2byte	0x1
 3724 05d0 50       		.byte	0x50
 3725 05d1 14010000 		.4byte	.LVL132
 3726 05d5 2E010000 		.4byte	.LVL133
 3727 05d9 0200     		.2byte	0x2
 3728 05db 30       		.byte	0x30
 3729 05dc 9F       		.byte	0x9f
 3730 05dd 2E010000 		.4byte	.LVL133
 3731 05e1 30010000 		.4byte	.LVL134
 3732 05e5 0100     		.2byte	0x1
 3733 05e7 50       		.byte	0x50
 3734 05e8 30010000 		.4byte	.LVL134
 3735 05ec 3E010000 		.4byte	.LVL135
 3736 05f0 0200     		.2byte	0x2
 3737 05f2 30       		.byte	0x30
 3738 05f3 9F       		.byte	0x9f
 3739 05f4 3E010000 		.4byte	.LVL135
 3740 05f8 40010000 		.4byte	.LVL136
 3741 05fc 0100     		.2byte	0x1
 3742 05fe 50       		.byte	0x50
 3743 05ff 40010000 		.4byte	.LVL136
 3744 0603 54010000 		.4byte	.LVL137
 3745 0607 0200     		.2byte	0x2
 3746 0609 30       		.byte	0x30
 3747 060a 9F       		.byte	0x9f
 3748 060b 54010000 		.4byte	.LVL137
 3749 060f 56010000 		.4byte	.LVL138
 3750 0613 0100     		.2byte	0x1
 3751 0615 50       		.byte	0x50
 3752 0616 56010000 		.4byte	.LVL138
 3753 061a 8A010000 		.4byte	.LVL139
 3754 061e 0200     		.2byte	0x2
 3755 0620 30       		.byte	0x30
 3756 0621 9F       		.byte	0x9f
 3757 0622 8A010000 		.4byte	.LVL139
 3758 0626 8C010000 		.4byte	.LVL140
ARM GAS  C:\Users\Ian\AppData\Local\Temp\ccrzCaTu.s 			page 91


 3759 062a 0100     		.2byte	0x1
 3760 062c 50       		.byte	0x50
 3761 062d 8C010000 		.4byte	.LVL140
 3762 0631 C4010000 		.4byte	.LVL145
 3763 0635 0200     		.2byte	0x2
 3764 0637 30       		.byte	0x30
 3765 0638 9F       		.byte	0x9f
 3766 0639 C4010000 		.4byte	.LVL145
 3767 063d C6010000 		.4byte	.LVL146
 3768 0641 0100     		.2byte	0x1
 3769 0643 50       		.byte	0x50
 3770 0644 C6010000 		.4byte	.LVL146
 3771 0648 F2010000 		.4byte	.LVL150
 3772 064c 0200     		.2byte	0x2
 3773 064e 30       		.byte	0x30
 3774 064f 9F       		.byte	0x9f
 3775 0650 F2010000 		.4byte	.LVL150
 3776 0654 F4010000 		.4byte	.LVL151
 3777 0658 0100     		.2byte	0x1
 3778 065a 50       		.byte	0x50
 3779 065b F4010000 		.4byte	.LVL151
 3780 065f 1E020000 		.4byte	.LVL152
 3781 0663 0200     		.2byte	0x2
 3782 0665 30       		.byte	0x30
 3783 0666 9F       		.byte	0x9f
 3784 0667 1E020000 		.4byte	.LVL152
 3785 066b 20020000 		.4byte	.LVL153
 3786 066f 0100     		.2byte	0x1
 3787 0671 50       		.byte	0x50
 3788 0672 20020000 		.4byte	.LVL153
 3789 0676 3A020000 		.4byte	.LVL154
 3790 067a 0200     		.2byte	0x2
 3791 067c 30       		.byte	0x30
 3792 067d 9F       		.byte	0x9f
 3793 067e 3A020000 		.4byte	.LVL154
 3794 0682 3C020000 		.4byte	.LVL155
 3795 0686 0100     		.2byte	0x1
 3796 0688 50       		.byte	0x50
 3797 0689 3C020000 		.4byte	.LVL155
 3798 068d 5E020000 		.4byte	.LVL156
 3799 0691 0200     		.2byte	0x2
 3800 0693 30       		.byte	0x30
 3801 0694 9F       		.byte	0x9f
 3802 0695 5E020000 		.4byte	.LVL156
 3803 0699 A4020000 		.4byte	.LVL157
 3804 069d 0100     		.2byte	0x1
 3805 069f 50       		.byte	0x50
 3806 06a0 A4020000 		.4byte	.LVL157
 3807 06a4 CA020000 		.4byte	.LVL158
 3808 06a8 0200     		.2byte	0x2
 3809 06aa 30       		.byte	0x30
 3810 06ab 9F       		.byte	0x9f
 3811 06ac CA020000 		.4byte	.LVL158
 3812 06b0 CC020000 		.4byte	.LVL159
 3813 06b4 0100     		.2byte	0x1
 3814 06b6 50       		.byte	0x50
 3815 06b7 CC020000 		.4byte	.LVL159
ARM GAS  C:\Users\Ian\AppData\Local\Temp\ccrzCaTu.s 			page 92


 3816 06bb E4020000 		.4byte	.LVL160
 3817 06bf 0200     		.2byte	0x2
 3818 06c1 30       		.byte	0x30
 3819 06c2 9F       		.byte	0x9f
 3820 06c3 E4020000 		.4byte	.LVL160
 3821 06c7 E6020000 		.4byte	.LVL161
 3822 06cb 0100     		.2byte	0x1
 3823 06cd 50       		.byte	0x50
 3824 06ce E6020000 		.4byte	.LVL161
 3825 06d2 08030000 		.4byte	.LVL162
 3826 06d6 0200     		.2byte	0x2
 3827 06d8 30       		.byte	0x30
 3828 06d9 9F       		.byte	0x9f
 3829 06da 08030000 		.4byte	.LVL162
 3830 06de 0A030000 		.4byte	.LVL163
 3831 06e2 0100     		.2byte	0x1
 3832 06e4 50       		.byte	0x50
 3833 06e5 0A030000 		.4byte	.LVL163
 3834 06e9 44030000 		.4byte	.LVL170
 3835 06ed 0200     		.2byte	0x2
 3836 06ef 30       		.byte	0x30
 3837 06f0 9F       		.byte	0x9f
 3838 06f1 44030000 		.4byte	.LVL170
 3839 06f5 5C030000 		.4byte	.LFE0
 3840 06f9 0100     		.2byte	0x1
 3841 06fb 50       		.byte	0x50
 3842 06fc 00000000 		.4byte	0
 3843 0700 00000000 		.4byte	0
 3844              	.LLST35:
 3845 0704 D6010000 		.4byte	.LVL148
 3846 0708 F4010000 		.4byte	.LVL151
 3847 070c 0100     		.2byte	0x1
 3848 070e 54       		.byte	0x54
 3849 070f 00000000 		.4byte	0
 3850 0713 00000000 		.4byte	0
 3851              	.LLST36:
 3852 0717 90010000 		.4byte	.LVL141
 3853 071b 9D010000 		.4byte	.LVL142-1
 3854 071f 0100     		.2byte	0x1
 3855 0721 53       		.byte	0x53
 3856 0722 00000000 		.4byte	0
 3857 0726 00000000 		.4byte	0
 3858              	.LLST37:
 3859 072a 02000000 		.4byte	.LVL112
 3860 072e 9C000000 		.4byte	.LVL119
 3861 0732 0200     		.2byte	0x2
 3862 0734 30       		.byte	0x30
 3863 0735 9F       		.byte	0x9f
 3864 0736 9C000000 		.4byte	.LVL119
 3865 073a A6000000 		.4byte	.LVL124
 3866 073e 0100     		.2byte	0x1
 3867 0740 51       		.byte	0x51
 3868 0741 A6000000 		.4byte	.LVL124
 3869 0745 AA000000 		.4byte	.LVL125
 3870 0749 0200     		.2byte	0x2
 3871 074b 30       		.byte	0x30
 3872 074c 9F       		.byte	0x9f
ARM GAS  C:\Users\Ian\AppData\Local\Temp\ccrzCaTu.s 			page 93


 3873 074d AA000000 		.4byte	.LVL125
 3874 0751 D1000000 		.4byte	.LVL127-1
 3875 0755 0100     		.2byte	0x1
 3876 0757 51       		.byte	0x51
 3877 0758 D4000000 		.4byte	.LVL128
 3878 075c 12030000 		.4byte	.LVL166
 3879 0760 0200     		.2byte	0x2
 3880 0762 30       		.byte	0x30
 3881 0763 9F       		.byte	0x9f
 3882 0764 12030000 		.4byte	.LVL166
 3883 0768 16030000 		.4byte	.LVL167
 3884 076c 0100     		.2byte	0x1
 3885 076e 51       		.byte	0x51
 3886 076f 16030000 		.4byte	.LVL167
 3887 0773 5C030000 		.4byte	.LFE0
 3888 0777 0200     		.2byte	0x2
 3889 0779 30       		.byte	0x30
 3890 077a 9F       		.byte	0x9f
 3891 077b 00000000 		.4byte	0
 3892 077f 00000000 		.4byte	0
 3893              	.LLST38:
 3894 0783 9C000000 		.4byte	.LVL119
 3895 0787 A2000000 		.4byte	.LVL122
 3896 078b 0100     		.2byte	0x1
 3897 078d 53       		.byte	0x53
 3898 078e A4000000 		.4byte	.LVL123
 3899 0792 A6000000 		.4byte	.LVL124
 3900 0796 0100     		.2byte	0x1
 3901 0798 53       		.byte	0x53
 3902 0799 AA000000 		.4byte	.LVL125
 3903 079d BE000000 		.4byte	.LVL126
 3904 07a1 0100     		.2byte	0x1
 3905 07a3 53       		.byte	0x53
 3906 07a4 00000000 		.4byte	0
 3907 07a8 00000000 		.4byte	0
 3908              	.LLST39:
 3909 07ac 9E000000 		.4byte	.LVL120
 3910 07b0 A6000000 		.4byte	.LVL124
 3911 07b4 0100     		.2byte	0x1
 3912 07b6 52       		.byte	0x52
 3913 07b7 00000000 		.4byte	0
 3914 07bb 00000000 		.4byte	0
 3915              	.LLST40:
 3916 07bf 48000000 		.4byte	.LVL113
 3917 07c3 55000000 		.4byte	.LVL114-1
 3918 07c7 0100     		.2byte	0x1
 3919 07c9 50       		.byte	0x50
 3920 07ca 70000000 		.4byte	.LVL116
 3921 07ce 8D000000 		.4byte	.LVL117-1
 3922 07d2 0100     		.2byte	0x1
 3923 07d4 50       		.byte	0x50
 3924 07d5 9E010000 		.4byte	.LVL142
 3925 07d9 B8010000 		.4byte	.LVL143
 3926 07dd 0100     		.2byte	0x1
 3927 07df 50       		.byte	0x50
 3928 07e0 0E030000 		.4byte	.LVL164
 3929 07e4 10030000 		.4byte	.LVL165
ARM GAS  C:\Users\Ian\AppData\Local\Temp\ccrzCaTu.s 			page 94


 3930 07e8 0100     		.2byte	0x1
 3931 07ea 50       		.byte	0x50
 3932 07eb 1E030000 		.4byte	.LVL168
 3933 07ef 20030000 		.4byte	.LVL169
 3934 07f3 0100     		.2byte	0x1
 3935 07f5 50       		.byte	0x50
 3936 07f6 00000000 		.4byte	0
 3937 07fa 00000000 		.4byte	0
 3938              		.section	.debug_aranges,"",%progbits
 3939 0000 6C000000 		.4byte	0x6c
 3940 0004 0200     		.2byte	0x2
 3941 0006 00000000 		.4byte	.Ldebug_info0
 3942 000a 04       		.byte	0x4
 3943 000b 00       		.byte	0
 3944 000c 0000     		.2byte	0
 3945 000e 0000     		.2byte	0
 3946 0010 00000000 		.4byte	.LFB1
 3947 0014 D4000000 		.4byte	.LFE1-.LFB1
 3948 0018 00000000 		.4byte	.LFB4
 3949 001c 28000000 		.4byte	.LFE4-.LFB4
 3950 0020 00000000 		.4byte	.LFB3
 3951 0024 58010000 		.4byte	.LFE3-.LFB3
 3952 0028 00000000 		.4byte	.LFB5
 3953 002c 18000000 		.4byte	.LFE5-.LFB5
 3954 0030 00000000 		.4byte	.LFB6
 3955 0034 24000000 		.4byte	.LFE6-.LFB6
 3956 0038 00000000 		.4byte	.LFB2
 3957 003c D0010000 		.4byte	.LFE2-.LFB2
 3958 0040 00000000 		.4byte	.LFB7
 3959 0044 50000000 		.4byte	.LFE7-.LFB7
 3960 0048 00000000 		.4byte	.LFB8
 3961 004c 60000000 		.4byte	.LFE8-.LFB8
 3962 0050 00000000 		.4byte	.LFB9
 3963 0054 A4000000 		.4byte	.LFE9-.LFB9
 3964 0058 00000000 		.4byte	.LFB10
 3965 005c 50000000 		.4byte	.LFE10-.LFB10
 3966 0060 00000000 		.4byte	.LFB0
 3967 0064 5C030000 		.4byte	.LFE0-.LFB0
 3968 0068 00000000 		.4byte	0
 3969 006c 00000000 		.4byte	0
 3970              		.section	.debug_ranges,"",%progbits
 3971              	.Ldebug_ranges0:
 3972 0000 00000000 		.4byte	.LFB1
 3973 0004 D4000000 		.4byte	.LFE1
 3974 0008 00000000 		.4byte	.LFB4
 3975 000c 28000000 		.4byte	.LFE4
 3976 0010 00000000 		.4byte	.LFB3
 3977 0014 58010000 		.4byte	.LFE3
 3978 0018 00000000 		.4byte	.LFB5
 3979 001c 18000000 		.4byte	.LFE5
 3980 0020 00000000 		.4byte	.LFB6
 3981 0024 24000000 		.4byte	.LFE6
 3982 0028 00000000 		.4byte	.LFB2
 3983 002c D0010000 		.4byte	.LFE2
 3984 0030 00000000 		.4byte	.LFB7
 3985 0034 50000000 		.4byte	.LFE7
 3986 0038 00000000 		.4byte	.LFB8
ARM GAS  C:\Users\Ian\AppData\Local\Temp\ccrzCaTu.s 			page 95


 3987 003c 60000000 		.4byte	.LFE8
 3988 0040 00000000 		.4byte	.LFB9
 3989 0044 A4000000 		.4byte	.LFE9
 3990 0048 00000000 		.4byte	.LFB10
 3991 004c 50000000 		.4byte	.LFE10
 3992 0050 00000000 		.4byte	.LFB0
 3993 0054 5C030000 		.4byte	.LFE0
 3994 0058 00000000 		.4byte	0
 3995 005c 00000000 		.4byte	0
 3996              		.section	.debug_line,"",%progbits
 3997              	.Ldebug_line0:
 3998 0000 4E030000 		.section	.debug_str,"MS",%progbits,1
 3998      02006800 
 3998      00000201 
 3998      FB0E0D00 
 3998      01010101 
 3999              	.LASF35:
 4000 0000 70537461 		.ascii	"pStatusBlock\000"
 4000      74757342 
 4000      6C6F636B 
 4000      00
 4001              	.LASF33:
 4002 000d 636F756E 		.ascii	"count\000"
 4002      7400
 4003              	.LASF10:
 4004 0013 75696E74 		.ascii	"uint16\000"
 4004      313600
 4005              	.LASF29:
 4006 001a 545F5553 		.ascii	"T_USBFS_1_EP_SETTINGS_BLOCK\000"
 4006      4246535F 
 4006      315F4550 
 4006      5F534554 
 4006      54494E47 
 4007              	.LASF79:
 4008 0036 55534246 		.ascii	"USBFS_1_currentTD\000"
 4008      535F315F 
 4008      63757272 
 4008      656E7454 
 4008      4400
 4009              	.LASF74:
 4010 0048 55534246 		.ascii	"USBFS_1_interfaceSetting_last\000"
 4010      535F315F 
 4010      696E7465 
 4010      72666163 
 4010      65536574 
 4011              	.LASF76:
 4012 0066 55534246 		.ascii	"USBFS_1_interfaceStatus\000"
 4012      535F315F 
 4012      696E7465 
 4012      72666163 
 4012      65537461 
 4013              	.LASF40:
 4014 007e 55534246 		.ascii	"USBFS_1_ConfigReg\000"
 4014      535F315F 
 4014      436F6E66 
 4014      69675265 
 4014      6700
ARM GAS  C:\Users\Ian\AppData\Local\Temp\ccrzCaTu.s 			page 96


 4015              	.LASF49:
 4016 0090 636F6E66 		.ascii	"confIndex\000"
 4016      496E6465 
 4016      7800
 4017              	.LASF7:
 4018 009a 6C6F6E67 		.ascii	"long long unsigned int\000"
 4018      206C6F6E 
 4018      6720756E 
 4018      7369676E 
 4018      65642069 
 4019              	.LASF20:
 4020 00b1 61646472 		.ascii	"addr\000"
 4020      00
 4021              	.LASF60:
 4022 00b6 696E7465 		.ascii	"interfaceNumber\000"
 4022      72666163 
 4022      654E756D 
 4022      62657200 
 4023              	.LASF78:
 4024 00c6 55534246 		.ascii	"USBFS_1_EP\000"
 4024      535F315F 
 4024      455000
 4025              	.LASF70:
 4026 00d1 55534246 		.ascii	"USBFS_1_TABLE\000"
 4026      535F315F 
 4026      5441424C 
 4026      4500
 4027              	.LASF6:
 4028 00df 6C6F6E67 		.ascii	"long long int\000"
 4028      206C6F6E 
 4028      6720696E 
 4028      7400
 4029              	.LASF0:
 4030 00ed 7369676E 		.ascii	"signed char\000"
 4030      65642063 
 4030      68617200 
 4031              	.LASF50:
 4032 00f9 636C6561 		.ascii	"clearAltSetting\000"
 4032      72416C74 
 4032      53657474 
 4032      696E6700 
 4033              	.LASF65:
 4034 0109 55534246 		.ascii	"USBFS_1_tBuffer\000"
 4034      535F315F 
 4034      74427566 
 4034      66657200 
 4035              	.LASF41:
 4036 0119 55534246 		.ascii	"USBFS_1_ConfigAltChanged\000"
 4036      535F315F 
 4036      436F6E66 
 4036      6967416C 
 4036      74436861 
 4037              	.LASF4:
 4038 0132 6C6F6E67 		.ascii	"long int\000"
 4038      20696E74 
 4038      00
 4039              	.LASF81:
ARM GAS  C:\Users\Ian\AppData\Local\Temp\ccrzCaTu.s 			page 97


 4040 013b 55534246 		.ascii	"USBFS_1_InitControlRead\000"
 4040      535F315F 
 4040      496E6974 
 4040      436F6E74 
 4040      726F6C52 
 4041              	.LASF64:
 4042 0153 64657363 		.ascii	"descrLength\000"
 4042      724C656E 
 4042      67746800 
 4043              	.LASF9:
 4044 015f 75696E74 		.ascii	"uint8\000"
 4044      3800
 4045              	.LASF19:
 4046 0165 6570546F 		.ascii	"epToggle\000"
 4046      67676C65 
 4046      00
 4047              	.LASF77:
 4048 016e 55534246 		.ascii	"USBFS_1_interfaceClass\000"
 4048      535F315F 
 4048      696E7465 
 4048      72666163 
 4048      65436C61 
 4049              	.LASF80:
 4050 0185 55534246 		.ascii	"USBFS_1_InitNoDataControlTransfer\000"
 4050      535F315F 
 4050      496E6974 
 4050      4E6F4461 
 4050      7461436F 
 4051              	.LASF12:
 4052 01a7 646F7562 		.ascii	"double\000"
 4052      6C6500
 4053              	.LASF69:
 4054 01ae 55534246 		.ascii	"USBFS_1_deviceStatus\000"
 4054      535F315F 
 4054      64657669 
 4054      63655374 
 4054      61747573 
 4055              	.LASF59:
 4056 01c3 55534246 		.ascii	"USBFS_1_HandleStandardRqst\000"
 4056      535F315F 
 4056      48616E64 
 4056      6C655374 
 4056      616E6461 
 4057              	.LASF34:
 4058 01de 70446174 		.ascii	"pData\000"
 4058      6100
 4059              	.LASF21:
 4060 01e4 65704D6F 		.ascii	"epMode\000"
 4060      646500
 4061              	.LASF43:
 4062 01eb 65705479 		.ascii	"epType\000"
 4062      706500
 4063              	.LASF72:
 4064 01f2 55534246 		.ascii	"USBFS_1_interfaceNumber\000"
 4064      535F315F 
 4064      696E7465 
 4064      72666163 
ARM GAS  C:\Users\Ian\AppData\Local\Temp\ccrzCaTu.s 			page 98


 4064      654E756D 
 4065              	.LASF8:
 4066 020a 756E7369 		.ascii	"unsigned int\000"
 4066      676E6564 
 4066      20696E74 
 4066      00
 4067              	.LASF67:
 4068 0217 55534246 		.ascii	"USBFS_1_configuration\000"
 4068      535F315F 
 4068      636F6E66 
 4068      69677572 
 4068      6174696F 
 4069              	.LASF84:
 4070 022d 2E5C4765 		.ascii	".\\Generated_Source\\PSoC5\\USBFS_1_std.c\000"
 4070      6E657261 
 4070      7465645F 
 4070      536F7572 
 4070      63655C50 
 4071              	.LASF5:
 4072 0254 6C6F6E67 		.ascii	"long unsigned int\000"
 4072      20756E73 
 4072      69676E65 
 4072      6420696E 
 4072      7400
 4073              	.LASF32:
 4074 0266 545F5553 		.ascii	"T_USBFS_1_XFER_STATUS_BLOCK\000"
 4074      4246535F 
 4074      315F5846 
 4074      45525F53 
 4074      54415455 
 4075              	.LASF71:
 4076 0282 55534246 		.ascii	"USBFS_1_STRING_DESCRIPTORS\000"
 4076      535F315F 
 4076      53545249 
 4076      4E475F44 
 4076      45534352 
 4077              	.LASF54:
 4078 029d 55534246 		.ascii	"USBFS_1_SetEndpointHalt\000"
 4078      535F315F 
 4078      53657445 
 4078      6E64706F 
 4078      696E7448 
 4079              	.LASF3:
 4080 02b5 73686F72 		.ascii	"short unsigned int\000"
 4080      7420756E 
 4080      7369676E 
 4080      65642069 
 4080      6E7400
 4081              	.LASF51:
 4082 02c8 70446573 		.ascii	"pDescr\000"
 4082      637200
 4083              	.LASF25:
 4084 02cf 545F5553 		.ascii	"T_USBFS_1_EP_CTL_BLOCK\000"
 4084      4246535F 
 4084      315F4550 
 4084      5F43544C 
 4084      5F424C4F 
ARM GAS  C:\Users\Ian\AppData\Local\Temp\ccrzCaTu.s 			page 99


 4085              	.LASF36:
 4086 02e6 545F5553 		.ascii	"T_USBFS_1_TD\000"
 4086      4246535F 
 4086      315F5444 
 4086      00
 4087              	.LASF46:
 4088 02f3 70496E74 		.ascii	"pInterfaceClass\000"
 4088      65726661 
 4088      6365436C 
 4088      61737300 
 4089              	.LASF45:
 4090 0303 55534246 		.ascii	"USBFS_1_GetInterfaceClassTablePtr\000"
 4090      535F315F 
 4090      47657449 
 4090      6E746572 
 4090      66616365 
 4091              	.LASF24:
 4092 0325 696E7465 		.ascii	"interface\000"
 4092      72666163 
 4092      6500
 4093              	.LASF18:
 4094 032f 68774570 		.ascii	"hwEpState\000"
 4094      53746174 
 4094      6500
 4095              	.LASF44:
 4096 0339 55534246 		.ascii	"USBFS_1_GetConfigTablePtr\000"
 4096      535F315F 
 4096      47657443 
 4096      6F6E6669 
 4096      67546162 
 4097              	.LASF15:
 4098 0353 73697A65 		.ascii	"sizetype\000"
 4098      74797065 
 4098      00
 4099              	.LASF39:
 4100 035c 70546D70 		.ascii	"pTmp\000"
 4100      00
 4101              	.LASF37:
 4102 0361 705F6C69 		.ascii	"p_list\000"
 4102      737400
 4103              	.LASF52:
 4104 0368 62756666 		.ascii	"buffCount\000"
 4104      436F756E 
 4104      7400
 4105              	.LASF16:
 4106 0372 61747472 		.ascii	"attrib\000"
 4106      696200
 4107              	.LASF47:
 4108 0379 63757272 		.ascii	"currentInterfacesNum\000"
 4108      656E7449 
 4108      6E746572 
 4108      66616365 
 4108      734E756D 
 4109              	.LASF66:
 4110 038e 55534246 		.ascii	"USBFS_1_device\000"
 4110      535F315F 
 4110      64657669 
ARM GAS  C:\Users\Ian\AppData\Local\Temp\ccrzCaTu.s 			page 100


 4110      636500
 4111              	.LASF58:
 4112 039d 696E7465 		.ascii	"interfaceNum\000"
 4112      72666163 
 4112      654E756D 
 4112      00
 4113              	.LASF11:
 4114 03aa 666C6F61 		.ascii	"float\000"
 4114      7400
 4115              	.LASF17:
 4116 03b0 61706945 		.ascii	"apiEpState\000"
 4116      70537461 
 4116      746500
 4117              	.LASF86:
 4118 03bb 55534246 		.ascii	"USBFS_1_GetDeviceTablePtr\000"
 4118      535F315F 
 4118      47657444 
 4118      65766963 
 4118      65546162 
 4119              	.LASF61:
 4120 03d5 636F6E66 		.ascii	"configurationN\000"
 4120      69677572 
 4120      6174696F 
 4120      6E4E00
 4121              	.LASF73:
 4122 03e4 55534246 		.ascii	"USBFS_1_interfaceSetting\000"
 4122      535F315F 
 4122      696E7465 
 4122      72666163 
 4122      65536574 
 4123              	.LASF62:
 4124 03fd 70537472 		.ascii	"pStr\000"
 4124      00
 4125              	.LASF14:
 4126 0402 72656738 		.ascii	"reg8\000"
 4126      00
 4127              	.LASF1:
 4128 0407 756E7369 		.ascii	"unsigned char\000"
 4128      676E6564 
 4128      20636861 
 4128      7200
 4129              	.LASF2:
 4130 0415 73686F72 		.ascii	"short int\000"
 4130      7420696E 
 4130      7400
 4131              	.LASF56:
 4132 041f 55534246 		.ascii	"USBFS_1_ClearEndpointHalt\000"
 4132      535F315F 
 4132      436C6561 
 4132      72456E64 
 4132      706F696E 
 4133              	.LASF53:
 4134 0439 55534246 		.ascii	"USBFS_1_TerminateEP\000"
 4134      535F315F 
 4134      5465726D 
 4134      696E6174 
 4134      65455000 
ARM GAS  C:\Users\Ian\AppData\Local\Temp\ccrzCaTu.s 			page 101


 4135              	.LASF27:
 4136 044d 61747472 		.ascii	"attributes\000"
 4136      69627574 
 4136      657300
 4137              	.LASF57:
 4138 0458 55534246 		.ascii	"USBFS_1_ValidateAlternateSetting\000"
 4138      535F315F 
 4138      56616C69 
 4138      64617465 
 4138      416C7465 
 4139              	.LASF68:
 4140 0479 55534246 		.ascii	"USBFS_1_configurationChanged\000"
 4140      535F315F 
 4140      636F6E66 
 4140      69677572 
 4140      6174696F 
 4141              	.LASF26:
 4142 0496 616C7453 		.ascii	"altSetting\000"
 4142      65747469 
 4142      6E6700
 4143              	.LASF13:
 4144 04a1 63686172 		.ascii	"char\000"
 4144      00
 4145              	.LASF38:
 4146 04a6 545F5553 		.ascii	"T_USBFS_1_LUT\000"
 4146      4246535F 
 4146      315F4C55 
 4146      5400
 4147              	.LASF23:
 4148 04b4 62756666 		.ascii	"bufferSize\000"
 4148      65725369 
 4148      7A6500
 4149              	.LASF55:
 4150 04bf 72657175 		.ascii	"requestHandled\000"
 4150      65737448 
 4150      616E646C 
 4150      656400
 4151              	.LASF82:
 4152 04ce 55534246 		.ascii	"USBFS_1_DispatchClassRqst\000"
 4152      535F315F 
 4152      44697370 
 4152      61746368 
 4152      436C6173 
 4153              	.LASF22:
 4154 04e8 62756666 		.ascii	"buffOffset\000"
 4154      4F666673 
 4154      657400
 4155              	.LASF75:
 4156 04f3 55534246 		.ascii	"USBFS_1_deviceAddress\000"
 4156      535F315F 
 4156      64657669 
 4156      63654164 
 4156      64726573 
 4157              	.LASF31:
 4158 0509 6C656E67 		.ascii	"length\000"
 4158      746800
 4159              	.LASF63:
ARM GAS  C:\Users\Ian\AppData\Local\Temp\ccrzCaTu.s 			page 102


 4160 0510 6E537472 		.ascii	"nStr\000"
 4160      00
 4161              	.LASF42:
 4162 0515 6375725F 		.ascii	"cur_ep\000"
 4162      657000
 4163              	.LASF30:
 4164 051c 73746174 		.ascii	"status\000"
 4164      757300
 4165              	.LASF83:
 4166 0523 474E5520 		.ascii	"GNU C 4.9.3 20150303 (release) [ARM/embedded-4_9-br"
 4166      4320342E 
 4166      392E3320 
 4166      32303135 
 4166      30333033 
 4167 0556 616E6368 		.ascii	"anch revision 221220] -mcpu=cortex-m3 -mthumb -g -O"
 4167      20726576 
 4167      6973696F 
 4167      6E203232 
 4167      31323230 
 4168 0589 67202D66 		.ascii	"g -ffunction-sections -ffat-lto-objects\000"
 4168      66756E63 
 4168      74696F6E 
 4168      2D736563 
 4168      74696F6E 
 4169              	.LASF28:
 4170 05b1 624D6973 		.ascii	"bMisc\000"
 4170      6300
 4171              	.LASF85:
 4172 05b7 433A5C55 		.ascii	"C:\\Users\\Ian\\Documents\\Junior\\Senior Project C"
 4172      73657273 
 4172      5C49616E 
 4172      5C446F63 
 4172      756D656E 
 4173 05e5 68697020 		.ascii	"hip Design\\Wave Generator\\Wave Generator.cydsn\000"
 4173      44657369 
 4173      676E5C57 
 4173      61766520 
 4173      47656E65 
 4174              	.LASF48:
 4175 0614 55534246 		.ascii	"USBFS_1_Config\000"
 4175      535F315F 
 4175      436F6E66 
 4175      696700
 4176              		.ident	"GCC: (GNU Tools for ARM Embedded Processors) 4.9.3 20150303 (release) [ARM/embedded-4_9-br
