ARM GAS  C:\Users\Ian\AppData\Local\Temp\cciyNh59.s 			page 1


   1              		.syntax unified
   2              		.cpu cortex-m3
   3              		.fpu softvfp
   4              		.eabi_attribute 20, 1
   5              		.eabi_attribute 21, 1
   6              		.eabi_attribute 23, 3
   7              		.eabi_attribute 24, 1
   8              		.eabi_attribute 25, 1
   9              		.eabi_attribute 26, 1
  10              		.eabi_attribute 30, 1
  11              		.eabi_attribute 34, 1
  12              		.eabi_attribute 18, 4
  13              		.thumb
  14              		.file	"isr.c"
  15              		.text
  16              	.Ltext0:
  17              		.cfi_sections	.debug_frame
  18              		.section	.text.isr_Interrupt,"ax",%progbits
  19              		.align	2
  20              		.global	isr_Interrupt
  21              		.thumb
  22              		.thumb_func
  23              		.type	isr_Interrupt, %function
  24              	isr_Interrupt:
  25              	.LFB3:
  26              		.file 1 ".\\Generated_Source\\PSoC5\\isr.c"
   1:.\Generated_Source\PSoC5/isr.c **** /*******************************************************************************
   2:.\Generated_Source\PSoC5/isr.c **** * File Name: isr.c  
   3:.\Generated_Source\PSoC5/isr.c **** * Version 1.70
   4:.\Generated_Source\PSoC5/isr.c **** *
   5:.\Generated_Source\PSoC5/isr.c **** *  Description:
   6:.\Generated_Source\PSoC5/isr.c **** *   API for controlling the state of an interrupt.
   7:.\Generated_Source\PSoC5/isr.c **** *
   8:.\Generated_Source\PSoC5/isr.c **** *
   9:.\Generated_Source\PSoC5/isr.c **** *  Note:
  10:.\Generated_Source\PSoC5/isr.c **** *
  11:.\Generated_Source\PSoC5/isr.c **** ********************************************************************************
  12:.\Generated_Source\PSoC5/isr.c **** * Copyright 2008-2015, Cypress Semiconductor Corporation.  All rights reserved.
  13:.\Generated_Source\PSoC5/isr.c **** * You may use this file only in accordance with the license, terms, conditions, 
  14:.\Generated_Source\PSoC5/isr.c **** * disclaimers, and limitations in the end user license agreement accompanying 
  15:.\Generated_Source\PSoC5/isr.c **** * the software package with which this file was provided.
  16:.\Generated_Source\PSoC5/isr.c **** *******************************************************************************/
  17:.\Generated_Source\PSoC5/isr.c **** 
  18:.\Generated_Source\PSoC5/isr.c **** 
  19:.\Generated_Source\PSoC5/isr.c **** #include <cydevice_trm.h>
  20:.\Generated_Source\PSoC5/isr.c **** #include <CyLib.h>
  21:.\Generated_Source\PSoC5/isr.c **** #include <isr.h>
  22:.\Generated_Source\PSoC5/isr.c **** 
  23:.\Generated_Source\PSoC5/isr.c **** 
  24:.\Generated_Source\PSoC5/isr.c **** #if !defined(isr__REMOVED) /* Check for removal by optimization */
  25:.\Generated_Source\PSoC5/isr.c **** 
  26:.\Generated_Source\PSoC5/isr.c **** /*******************************************************************************
  27:.\Generated_Source\PSoC5/isr.c **** *  Place your includes, defines and code here 
  28:.\Generated_Source\PSoC5/isr.c **** ********************************************************************************/
  29:.\Generated_Source\PSoC5/isr.c **** /* `#START isr_intc` */
  30:.\Generated_Source\PSoC5/isr.c **** extern volatile uint8 DMADone_flag;
  31:.\Generated_Source\PSoC5/isr.c **** /* `#END` */
ARM GAS  C:\Users\Ian\AppData\Local\Temp\cciyNh59.s 			page 2


  32:.\Generated_Source\PSoC5/isr.c **** 
  33:.\Generated_Source\PSoC5/isr.c **** #ifndef CYINT_IRQ_BASE
  34:.\Generated_Source\PSoC5/isr.c **** #define CYINT_IRQ_BASE      16
  35:.\Generated_Source\PSoC5/isr.c **** #endif /* CYINT_IRQ_BASE */
  36:.\Generated_Source\PSoC5/isr.c **** #ifndef CYINT_VECT_TABLE
  37:.\Generated_Source\PSoC5/isr.c **** #define CYINT_VECT_TABLE    ((cyisraddress **) CYREG_NVIC_VECT_OFFSET)
  38:.\Generated_Source\PSoC5/isr.c **** #endif /* CYINT_VECT_TABLE */
  39:.\Generated_Source\PSoC5/isr.c **** 
  40:.\Generated_Source\PSoC5/isr.c **** /* Declared in startup, used to set unused interrupts to. */
  41:.\Generated_Source\PSoC5/isr.c **** CY_ISR_PROTO(IntDefaultHandler);
  42:.\Generated_Source\PSoC5/isr.c **** 
  43:.\Generated_Source\PSoC5/isr.c **** 
  44:.\Generated_Source\PSoC5/isr.c **** /*******************************************************************************
  45:.\Generated_Source\PSoC5/isr.c **** * Function Name: isr_Start
  46:.\Generated_Source\PSoC5/isr.c **** ********************************************************************************
  47:.\Generated_Source\PSoC5/isr.c **** *
  48:.\Generated_Source\PSoC5/isr.c **** * Summary:
  49:.\Generated_Source\PSoC5/isr.c **** *  Set up the interrupt and enable it. This function disables the interrupt, 
  50:.\Generated_Source\PSoC5/isr.c **** *  sets the default interrupt vector, sets the priority from the value in the
  51:.\Generated_Source\PSoC5/isr.c **** *  Design Wide Resources Interrupt Editor, then enables the interrupt to the 
  52:.\Generated_Source\PSoC5/isr.c **** *  interrupt controller.
  53:.\Generated_Source\PSoC5/isr.c **** *
  54:.\Generated_Source\PSoC5/isr.c **** * Parameters:  
  55:.\Generated_Source\PSoC5/isr.c **** *   None
  56:.\Generated_Source\PSoC5/isr.c **** *
  57:.\Generated_Source\PSoC5/isr.c **** * Return:
  58:.\Generated_Source\PSoC5/isr.c **** *   None
  59:.\Generated_Source\PSoC5/isr.c **** *
  60:.\Generated_Source\PSoC5/isr.c **** *******************************************************************************/
  61:.\Generated_Source\PSoC5/isr.c **** void isr_Start(void)
  62:.\Generated_Source\PSoC5/isr.c **** {
  63:.\Generated_Source\PSoC5/isr.c ****     /* For all we know the interrupt is active. */
  64:.\Generated_Source\PSoC5/isr.c ****     isr_Disable();
  65:.\Generated_Source\PSoC5/isr.c **** 
  66:.\Generated_Source\PSoC5/isr.c ****     /* Set the ISR to point to the isr Interrupt. */
  67:.\Generated_Source\PSoC5/isr.c ****     isr_SetVector(&isr_Interrupt);
  68:.\Generated_Source\PSoC5/isr.c **** 
  69:.\Generated_Source\PSoC5/isr.c ****     /* Set the priority. */
  70:.\Generated_Source\PSoC5/isr.c ****     isr_SetPriority((uint8)isr_INTC_PRIOR_NUMBER);
  71:.\Generated_Source\PSoC5/isr.c **** 
  72:.\Generated_Source\PSoC5/isr.c ****     /* Enable it. */
  73:.\Generated_Source\PSoC5/isr.c ****     isr_Enable();
  74:.\Generated_Source\PSoC5/isr.c **** }
  75:.\Generated_Source\PSoC5/isr.c **** 
  76:.\Generated_Source\PSoC5/isr.c **** 
  77:.\Generated_Source\PSoC5/isr.c **** /*******************************************************************************
  78:.\Generated_Source\PSoC5/isr.c **** * Function Name: isr_StartEx
  79:.\Generated_Source\PSoC5/isr.c **** ********************************************************************************
  80:.\Generated_Source\PSoC5/isr.c **** *
  81:.\Generated_Source\PSoC5/isr.c **** * Summary:
  82:.\Generated_Source\PSoC5/isr.c **** *  Sets up the interrupt and enables it. This function disables the interrupt,
  83:.\Generated_Source\PSoC5/isr.c **** *  sets the interrupt vector based on the address passed in, sets the priority 
  84:.\Generated_Source\PSoC5/isr.c **** *  from the value in the Design Wide Resources Interrupt Editor, then enables 
  85:.\Generated_Source\PSoC5/isr.c **** *  the interrupt to the interrupt controller.
  86:.\Generated_Source\PSoC5/isr.c **** *  
  87:.\Generated_Source\PSoC5/isr.c **** *  When defining ISR functions, the CY_ISR and CY_ISR_PROTO macros should be 
  88:.\Generated_Source\PSoC5/isr.c **** *  used to provide consistent definition across compilers:
ARM GAS  C:\Users\Ian\AppData\Local\Temp\cciyNh59.s 			page 3


  89:.\Generated_Source\PSoC5/isr.c **** *  
  90:.\Generated_Source\PSoC5/isr.c **** *  Function definition example:
  91:.\Generated_Source\PSoC5/isr.c **** *   CY_ISR(MyISR)
  92:.\Generated_Source\PSoC5/isr.c **** *   {
  93:.\Generated_Source\PSoC5/isr.c **** *   }
  94:.\Generated_Source\PSoC5/isr.c **** *   Function prototype example:
  95:.\Generated_Source\PSoC5/isr.c **** *   CY_ISR_PROTO(MyISR);
  96:.\Generated_Source\PSoC5/isr.c **** *
  97:.\Generated_Source\PSoC5/isr.c **** * Parameters:  
  98:.\Generated_Source\PSoC5/isr.c **** *   address: Address of the ISR to set in the interrupt vector table.
  99:.\Generated_Source\PSoC5/isr.c **** *
 100:.\Generated_Source\PSoC5/isr.c **** * Return:
 101:.\Generated_Source\PSoC5/isr.c **** *   None
 102:.\Generated_Source\PSoC5/isr.c **** *
 103:.\Generated_Source\PSoC5/isr.c **** *******************************************************************************/
 104:.\Generated_Source\PSoC5/isr.c **** void isr_StartEx(cyisraddress address)
 105:.\Generated_Source\PSoC5/isr.c **** {
 106:.\Generated_Source\PSoC5/isr.c ****     /* For all we know the interrupt is active. */
 107:.\Generated_Source\PSoC5/isr.c ****     isr_Disable();
 108:.\Generated_Source\PSoC5/isr.c **** 
 109:.\Generated_Source\PSoC5/isr.c ****     /* Set the ISR to point to the isr Interrupt. */
 110:.\Generated_Source\PSoC5/isr.c ****     isr_SetVector(address);
 111:.\Generated_Source\PSoC5/isr.c **** 
 112:.\Generated_Source\PSoC5/isr.c ****     /* Set the priority. */
 113:.\Generated_Source\PSoC5/isr.c ****     isr_SetPriority((uint8)isr_INTC_PRIOR_NUMBER);
 114:.\Generated_Source\PSoC5/isr.c **** 
 115:.\Generated_Source\PSoC5/isr.c ****     /* Enable it. */
 116:.\Generated_Source\PSoC5/isr.c ****     isr_Enable();
 117:.\Generated_Source\PSoC5/isr.c **** }
 118:.\Generated_Source\PSoC5/isr.c **** 
 119:.\Generated_Source\PSoC5/isr.c **** 
 120:.\Generated_Source\PSoC5/isr.c **** /*******************************************************************************
 121:.\Generated_Source\PSoC5/isr.c **** * Function Name: isr_Stop
 122:.\Generated_Source\PSoC5/isr.c **** ********************************************************************************
 123:.\Generated_Source\PSoC5/isr.c **** *
 124:.\Generated_Source\PSoC5/isr.c **** * Summary:
 125:.\Generated_Source\PSoC5/isr.c **** *   Disables and removes the interrupt.
 126:.\Generated_Source\PSoC5/isr.c **** *
 127:.\Generated_Source\PSoC5/isr.c **** * Parameters:  
 128:.\Generated_Source\PSoC5/isr.c **** *   None
 129:.\Generated_Source\PSoC5/isr.c **** *
 130:.\Generated_Source\PSoC5/isr.c **** * Return:
 131:.\Generated_Source\PSoC5/isr.c **** *   None
 132:.\Generated_Source\PSoC5/isr.c **** *
 133:.\Generated_Source\PSoC5/isr.c **** *******************************************************************************/
 134:.\Generated_Source\PSoC5/isr.c **** void isr_Stop(void)
 135:.\Generated_Source\PSoC5/isr.c **** {
 136:.\Generated_Source\PSoC5/isr.c ****     /* Disable this interrupt. */
 137:.\Generated_Source\PSoC5/isr.c ****     isr_Disable();
 138:.\Generated_Source\PSoC5/isr.c **** 
 139:.\Generated_Source\PSoC5/isr.c ****     /* Set the ISR to point to the passive one. */
 140:.\Generated_Source\PSoC5/isr.c ****     isr_SetVector(&IntDefaultHandler);
 141:.\Generated_Source\PSoC5/isr.c **** }
 142:.\Generated_Source\PSoC5/isr.c **** 
 143:.\Generated_Source\PSoC5/isr.c **** 
 144:.\Generated_Source\PSoC5/isr.c **** /*******************************************************************************
 145:.\Generated_Source\PSoC5/isr.c **** * Function Name: isr_Interrupt
ARM GAS  C:\Users\Ian\AppData\Local\Temp\cciyNh59.s 			page 4


 146:.\Generated_Source\PSoC5/isr.c **** ********************************************************************************
 147:.\Generated_Source\PSoC5/isr.c **** *
 148:.\Generated_Source\PSoC5/isr.c **** * Summary:
 149:.\Generated_Source\PSoC5/isr.c **** *   The default Interrupt Service Routine for isr.
 150:.\Generated_Source\PSoC5/isr.c **** *
 151:.\Generated_Source\PSoC5/isr.c **** *   Add custom code between the coments to keep the next version of this file
 152:.\Generated_Source\PSoC5/isr.c **** *   from over writting your code.
 153:.\Generated_Source\PSoC5/isr.c **** *
 154:.\Generated_Source\PSoC5/isr.c **** * Parameters:  
 155:.\Generated_Source\PSoC5/isr.c **** *
 156:.\Generated_Source\PSoC5/isr.c **** * Return:
 157:.\Generated_Source\PSoC5/isr.c **** *   None
 158:.\Generated_Source\PSoC5/isr.c **** *
 159:.\Generated_Source\PSoC5/isr.c **** *******************************************************************************/
 160:.\Generated_Source\PSoC5/isr.c **** CY_ISR(isr_Interrupt)
 161:.\Generated_Source\PSoC5/isr.c **** {
  27              		.loc 1 161 0
  28              		.cfi_startproc
  29              		@ args = 0, pretend = 0, frame = 0
  30              		@ frame_needed = 0, uses_anonymous_args = 0
  31              		@ link register save eliminated.
 162:.\Generated_Source\PSoC5/isr.c ****     #ifdef isr_INTERRUPT_INTERRUPT_CALLBACK
 163:.\Generated_Source\PSoC5/isr.c ****         isr_Interrupt_InterruptCallback();
 164:.\Generated_Source\PSoC5/isr.c ****     #endif /* isr_INTERRUPT_INTERRUPT_CALLBACK */ 
 165:.\Generated_Source\PSoC5/isr.c **** 
 166:.\Generated_Source\PSoC5/isr.c ****     /*  Place your Interrupt code here. */
 167:.\Generated_Source\PSoC5/isr.c ****     /* `#START isr_Interrupt` */
 168:.\Generated_Source\PSoC5/isr.c **** 	DMADone_flag = 1;
  32              		.loc 1 168 0
  33 0000 0122     		movs	r2, #1
  34 0002 014B     		ldr	r3, .L2
  35 0004 1A70     		strb	r2, [r3]
  36 0006 7047     		bx	lr
  37              	.L3:
  38              		.align	2
  39              	.L2:
  40 0008 00000000 		.word	DMADone_flag
  41              		.cfi_endproc
  42              	.LFE3:
  43              		.size	isr_Interrupt, .-isr_Interrupt
  44              		.section	.text.isr_SetVector,"ax",%progbits
  45              		.align	2
  46              		.global	isr_SetVector
  47              		.thumb
  48              		.thumb_func
  49              		.type	isr_SetVector, %function
  50              	isr_SetVector:
  51              	.LFB4:
 169:.\Generated_Source\PSoC5/isr.c ****     /* `#END` */
 170:.\Generated_Source\PSoC5/isr.c **** }
 171:.\Generated_Source\PSoC5/isr.c **** 
 172:.\Generated_Source\PSoC5/isr.c **** 
 173:.\Generated_Source\PSoC5/isr.c **** /*******************************************************************************
 174:.\Generated_Source\PSoC5/isr.c **** * Function Name: isr_SetVector
 175:.\Generated_Source\PSoC5/isr.c **** ********************************************************************************
 176:.\Generated_Source\PSoC5/isr.c **** *
 177:.\Generated_Source\PSoC5/isr.c **** * Summary:
ARM GAS  C:\Users\Ian\AppData\Local\Temp\cciyNh59.s 			page 5


 178:.\Generated_Source\PSoC5/isr.c **** *   Change the ISR vector for the Interrupt. Note calling isr_Start
 179:.\Generated_Source\PSoC5/isr.c **** *   will override any effect this method would have had. To set the vector 
 180:.\Generated_Source\PSoC5/isr.c **** *   before the component has been started use isr_StartEx instead.
 181:.\Generated_Source\PSoC5/isr.c **** * 
 182:.\Generated_Source\PSoC5/isr.c **** *   When defining ISR functions, the CY_ISR and CY_ISR_PROTO macros should be 
 183:.\Generated_Source\PSoC5/isr.c **** *   used to provide consistent definition across compilers:
 184:.\Generated_Source\PSoC5/isr.c **** *
 185:.\Generated_Source\PSoC5/isr.c **** *   Function definition example:
 186:.\Generated_Source\PSoC5/isr.c **** *   CY_ISR(MyISR)
 187:.\Generated_Source\PSoC5/isr.c **** *   {
 188:.\Generated_Source\PSoC5/isr.c **** *   }
 189:.\Generated_Source\PSoC5/isr.c **** *
 190:.\Generated_Source\PSoC5/isr.c **** *   Function prototype example:
 191:.\Generated_Source\PSoC5/isr.c **** *     CY_ISR_PROTO(MyISR);
 192:.\Generated_Source\PSoC5/isr.c **** *
 193:.\Generated_Source\PSoC5/isr.c **** * Parameters:
 194:.\Generated_Source\PSoC5/isr.c **** *   address: Address of the ISR to set in the interrupt vector table.
 195:.\Generated_Source\PSoC5/isr.c **** *
 196:.\Generated_Source\PSoC5/isr.c **** * Return:
 197:.\Generated_Source\PSoC5/isr.c **** *   None
 198:.\Generated_Source\PSoC5/isr.c **** *
 199:.\Generated_Source\PSoC5/isr.c **** *******************************************************************************/
 200:.\Generated_Source\PSoC5/isr.c **** void isr_SetVector(cyisraddress address)
 201:.\Generated_Source\PSoC5/isr.c **** {
  52              		.loc 1 201 0
  53              		.cfi_startproc
  54              		@ args = 0, pretend = 0, frame = 0
  55              		@ frame_needed = 0, uses_anonymous_args = 0
  56              		@ link register save eliminated.
  57              	.LVL0:
 202:.\Generated_Source\PSoC5/isr.c ****     cyisraddress * ramVectorTable;
 203:.\Generated_Source\PSoC5/isr.c **** 
 204:.\Generated_Source\PSoC5/isr.c ****     ramVectorTable = (cyisraddress *) *CYINT_VECT_TABLE;
  58              		.loc 1 204 0
  59 0000 014B     		ldr	r3, .L5
  60 0002 1B68     		ldr	r3, [r3]
  61              	.LVL1:
 205:.\Generated_Source\PSoC5/isr.c **** 
 206:.\Generated_Source\PSoC5/isr.c ****     ramVectorTable[CYINT_IRQ_BASE + (uint32)isr__INTC_NUMBER] = address;
  62              		.loc 1 206 0
  63 0004 1864     		str	r0, [r3, #64]
  64 0006 7047     		bx	lr
  65              	.L6:
  66              		.align	2
  67              	.L5:
  68 0008 08ED00E0 		.word	-536810232
  69              		.cfi_endproc
  70              	.LFE4:
  71              		.size	isr_SetVector, .-isr_SetVector
  72              		.section	.text.isr_GetVector,"ax",%progbits
  73              		.align	2
  74              		.global	isr_GetVector
  75              		.thumb
  76              		.thumb_func
  77              		.type	isr_GetVector, %function
  78              	isr_GetVector:
  79              	.LFB5:
ARM GAS  C:\Users\Ian\AppData\Local\Temp\cciyNh59.s 			page 6


 207:.\Generated_Source\PSoC5/isr.c **** }
 208:.\Generated_Source\PSoC5/isr.c **** 
 209:.\Generated_Source\PSoC5/isr.c **** 
 210:.\Generated_Source\PSoC5/isr.c **** /*******************************************************************************
 211:.\Generated_Source\PSoC5/isr.c **** * Function Name: isr_GetVector
 212:.\Generated_Source\PSoC5/isr.c **** ********************************************************************************
 213:.\Generated_Source\PSoC5/isr.c **** *
 214:.\Generated_Source\PSoC5/isr.c **** * Summary:
 215:.\Generated_Source\PSoC5/isr.c **** *   Gets the "address" of the current ISR vector for the Interrupt.
 216:.\Generated_Source\PSoC5/isr.c **** *
 217:.\Generated_Source\PSoC5/isr.c **** * Parameters:
 218:.\Generated_Source\PSoC5/isr.c **** *   None
 219:.\Generated_Source\PSoC5/isr.c **** *
 220:.\Generated_Source\PSoC5/isr.c **** * Return:
 221:.\Generated_Source\PSoC5/isr.c **** *   Address of the ISR in the interrupt vector table.
 222:.\Generated_Source\PSoC5/isr.c **** *
 223:.\Generated_Source\PSoC5/isr.c **** *******************************************************************************/
 224:.\Generated_Source\PSoC5/isr.c **** cyisraddress isr_GetVector(void)
 225:.\Generated_Source\PSoC5/isr.c **** {
  80              		.loc 1 225 0
  81              		.cfi_startproc
  82              		@ args = 0, pretend = 0, frame = 0
  83              		@ frame_needed = 0, uses_anonymous_args = 0
  84              		@ link register save eliminated.
 226:.\Generated_Source\PSoC5/isr.c ****     cyisraddress * ramVectorTable;
 227:.\Generated_Source\PSoC5/isr.c **** 
 228:.\Generated_Source\PSoC5/isr.c ****     ramVectorTable = (cyisraddress *) *CYINT_VECT_TABLE;
  85              		.loc 1 228 0
  86 0000 014B     		ldr	r3, .L8
  87 0002 1B68     		ldr	r3, [r3]
  88              	.LVL2:
 229:.\Generated_Source\PSoC5/isr.c **** 
 230:.\Generated_Source\PSoC5/isr.c ****     return ramVectorTable[CYINT_IRQ_BASE + (uint32)isr__INTC_NUMBER];
 231:.\Generated_Source\PSoC5/isr.c **** }
  89              		.loc 1 231 0
  90 0004 186C     		ldr	r0, [r3, #64]
  91 0006 7047     		bx	lr
  92              	.L9:
  93              		.align	2
  94              	.L8:
  95 0008 08ED00E0 		.word	-536810232
  96              		.cfi_endproc
  97              	.LFE5:
  98              		.size	isr_GetVector, .-isr_GetVector
  99              		.section	.text.isr_SetPriority,"ax",%progbits
 100              		.align	2
 101              		.global	isr_SetPriority
 102              		.thumb
 103              		.thumb_func
 104              		.type	isr_SetPriority, %function
 105              	isr_SetPriority:
 106              	.LFB6:
 232:.\Generated_Source\PSoC5/isr.c **** 
 233:.\Generated_Source\PSoC5/isr.c **** 
 234:.\Generated_Source\PSoC5/isr.c **** /*******************************************************************************
 235:.\Generated_Source\PSoC5/isr.c **** * Function Name: isr_SetPriority
 236:.\Generated_Source\PSoC5/isr.c **** ********************************************************************************
ARM GAS  C:\Users\Ian\AppData\Local\Temp\cciyNh59.s 			page 7


 237:.\Generated_Source\PSoC5/isr.c **** *
 238:.\Generated_Source\PSoC5/isr.c **** * Summary:
 239:.\Generated_Source\PSoC5/isr.c **** *   Sets the Priority of the Interrupt. 
 240:.\Generated_Source\PSoC5/isr.c **** *
 241:.\Generated_Source\PSoC5/isr.c **** *   Note calling isr_Start or isr_StartEx will 
 242:.\Generated_Source\PSoC5/isr.c **** *   override any effect this API would have had. This API should only be called
 243:.\Generated_Source\PSoC5/isr.c **** *   after isr_Start or isr_StartEx has been called. 
 244:.\Generated_Source\PSoC5/isr.c **** *   To set the initial priority for the component, use the Design-Wide Resources
 245:.\Generated_Source\PSoC5/isr.c **** *   Interrupt Editor.
 246:.\Generated_Source\PSoC5/isr.c **** *
 247:.\Generated_Source\PSoC5/isr.c **** *   Note This API has no effect on Non-maskable interrupt NMI).
 248:.\Generated_Source\PSoC5/isr.c **** *
 249:.\Generated_Source\PSoC5/isr.c **** * Parameters:
 250:.\Generated_Source\PSoC5/isr.c **** *   priority: Priority of the interrupt, 0 being the highest priority
 251:.\Generated_Source\PSoC5/isr.c **** *             PSoC 3 and PSoC 5LP: Priority is from 0 to 7.
 252:.\Generated_Source\PSoC5/isr.c **** *             PSoC 4: Priority is from 0 to 3.
 253:.\Generated_Source\PSoC5/isr.c **** *
 254:.\Generated_Source\PSoC5/isr.c **** * Return:
 255:.\Generated_Source\PSoC5/isr.c **** *   None
 256:.\Generated_Source\PSoC5/isr.c **** *
 257:.\Generated_Source\PSoC5/isr.c **** *******************************************************************************/
 258:.\Generated_Source\PSoC5/isr.c **** void isr_SetPriority(uint8 priority)
 259:.\Generated_Source\PSoC5/isr.c **** {
 107              		.loc 1 259 0
 108              		.cfi_startproc
 109              		@ args = 0, pretend = 0, frame = 0
 110              		@ frame_needed = 0, uses_anonymous_args = 0
 111              		@ link register save eliminated.
 112              	.LVL3:
 260:.\Generated_Source\PSoC5/isr.c ****     *isr_INTC_PRIOR = priority << 5;
 113              		.loc 1 260 0
 114 0000 4001     		lsls	r0, r0, #5
 115              	.LVL4:
 116 0002 C0B2     		uxtb	r0, r0
 117 0004 014B     		ldr	r3, .L11
 118 0006 1870     		strb	r0, [r3]
 119 0008 7047     		bx	lr
 120              	.L12:
 121 000a 00BF     		.align	2
 122              	.L11:
 123 000c 00E400E0 		.word	-536812544
 124              		.cfi_endproc
 125              	.LFE6:
 126              		.size	isr_SetPriority, .-isr_SetPriority
 127              		.section	.text.isr_GetPriority,"ax",%progbits
 128              		.align	2
 129              		.global	isr_GetPriority
 130              		.thumb
 131              		.thumb_func
 132              		.type	isr_GetPriority, %function
 133              	isr_GetPriority:
 134              	.LFB7:
 261:.\Generated_Source\PSoC5/isr.c **** }
 262:.\Generated_Source\PSoC5/isr.c **** 
 263:.\Generated_Source\PSoC5/isr.c **** 
 264:.\Generated_Source\PSoC5/isr.c **** /*******************************************************************************
 265:.\Generated_Source\PSoC5/isr.c **** * Function Name: isr_GetPriority
ARM GAS  C:\Users\Ian\AppData\Local\Temp\cciyNh59.s 			page 8


 266:.\Generated_Source\PSoC5/isr.c **** ********************************************************************************
 267:.\Generated_Source\PSoC5/isr.c **** *
 268:.\Generated_Source\PSoC5/isr.c **** * Summary:
 269:.\Generated_Source\PSoC5/isr.c **** *   Gets the Priority of the Interrupt.
 270:.\Generated_Source\PSoC5/isr.c **** *
 271:.\Generated_Source\PSoC5/isr.c **** * Parameters:
 272:.\Generated_Source\PSoC5/isr.c **** *   None
 273:.\Generated_Source\PSoC5/isr.c **** *
 274:.\Generated_Source\PSoC5/isr.c **** * Return:
 275:.\Generated_Source\PSoC5/isr.c **** *   Priority of the interrupt, 0 being the highest priority
 276:.\Generated_Source\PSoC5/isr.c **** *    PSoC 3 and PSoC 5LP: Priority is from 0 to 7.
 277:.\Generated_Source\PSoC5/isr.c **** *    PSoC 4: Priority is from 0 to 3.
 278:.\Generated_Source\PSoC5/isr.c **** *
 279:.\Generated_Source\PSoC5/isr.c **** *******************************************************************************/
 280:.\Generated_Source\PSoC5/isr.c **** uint8 isr_GetPriority(void)
 281:.\Generated_Source\PSoC5/isr.c **** {
 135              		.loc 1 281 0
 136              		.cfi_startproc
 137              		@ args = 0, pretend = 0, frame = 0
 138              		@ frame_needed = 0, uses_anonymous_args = 0
 139              		@ link register save eliminated.
 282:.\Generated_Source\PSoC5/isr.c ****     uint8 priority;
 283:.\Generated_Source\PSoC5/isr.c **** 
 284:.\Generated_Source\PSoC5/isr.c **** 
 285:.\Generated_Source\PSoC5/isr.c ****     priority = *isr_INTC_PRIOR >> 5;
 140              		.loc 1 285 0
 141 0000 014B     		ldr	r3, .L14
 142 0002 1878     		ldrb	r0, [r3]	@ zero_extendqisi2
 143              	.LVL5:
 286:.\Generated_Source\PSoC5/isr.c **** 
 287:.\Generated_Source\PSoC5/isr.c ****     return priority;
 288:.\Generated_Source\PSoC5/isr.c **** }
 144              		.loc 1 288 0
 145 0004 4009     		lsrs	r0, r0, #5
 146              	.LVL6:
 147 0006 7047     		bx	lr
 148              	.L15:
 149              		.align	2
 150              	.L14:
 151 0008 00E400E0 		.word	-536812544
 152              		.cfi_endproc
 153              	.LFE7:
 154              		.size	isr_GetPriority, .-isr_GetPriority
 155              		.section	.text.isr_Enable,"ax",%progbits
 156              		.align	2
 157              		.global	isr_Enable
 158              		.thumb
 159              		.thumb_func
 160              		.type	isr_Enable, %function
 161              	isr_Enable:
 162              	.LFB8:
 289:.\Generated_Source\PSoC5/isr.c **** 
 290:.\Generated_Source\PSoC5/isr.c **** 
 291:.\Generated_Source\PSoC5/isr.c **** /*******************************************************************************
 292:.\Generated_Source\PSoC5/isr.c **** * Function Name: isr_Enable
 293:.\Generated_Source\PSoC5/isr.c **** ********************************************************************************
 294:.\Generated_Source\PSoC5/isr.c **** *
ARM GAS  C:\Users\Ian\AppData\Local\Temp\cciyNh59.s 			page 9


 295:.\Generated_Source\PSoC5/isr.c **** * Summary:
 296:.\Generated_Source\PSoC5/isr.c **** *   Enables the interrupt to the interrupt controller. Do not call this function
 297:.\Generated_Source\PSoC5/isr.c **** *   unless ISR_Start() has been called or the functionality of the ISR_Start() 
 298:.\Generated_Source\PSoC5/isr.c **** *   function, which sets the vector and the priority, has been called.
 299:.\Generated_Source\PSoC5/isr.c **** *
 300:.\Generated_Source\PSoC5/isr.c **** * Parameters:
 301:.\Generated_Source\PSoC5/isr.c **** *   None
 302:.\Generated_Source\PSoC5/isr.c **** *
 303:.\Generated_Source\PSoC5/isr.c **** * Return:
 304:.\Generated_Source\PSoC5/isr.c **** *   None
 305:.\Generated_Source\PSoC5/isr.c **** *
 306:.\Generated_Source\PSoC5/isr.c **** *******************************************************************************/
 307:.\Generated_Source\PSoC5/isr.c **** void isr_Enable(void)
 308:.\Generated_Source\PSoC5/isr.c **** {
 163              		.loc 1 308 0
 164              		.cfi_startproc
 165              		@ args = 0, pretend = 0, frame = 0
 166              		@ frame_needed = 0, uses_anonymous_args = 0
 167              		@ link register save eliminated.
 309:.\Generated_Source\PSoC5/isr.c ****     /* Enable the general interrupt. */
 310:.\Generated_Source\PSoC5/isr.c ****     *isr_INTC_SET_EN = isr__INTC_MASK;
 168              		.loc 1 310 0
 169 0000 0122     		movs	r2, #1
 170 0002 014B     		ldr	r3, .L17
 171 0004 1A60     		str	r2, [r3]
 172 0006 7047     		bx	lr
 173              	.L18:
 174              		.align	2
 175              	.L17:
 176 0008 00E100E0 		.word	-536813312
 177              		.cfi_endproc
 178              	.LFE8:
 179              		.size	isr_Enable, .-isr_Enable
 180              		.section	.text.isr_GetState,"ax",%progbits
 181              		.align	2
 182              		.global	isr_GetState
 183              		.thumb
 184              		.thumb_func
 185              		.type	isr_GetState, %function
 186              	isr_GetState:
 187              	.LFB9:
 311:.\Generated_Source\PSoC5/isr.c **** }
 312:.\Generated_Source\PSoC5/isr.c **** 
 313:.\Generated_Source\PSoC5/isr.c **** 
 314:.\Generated_Source\PSoC5/isr.c **** /*******************************************************************************
 315:.\Generated_Source\PSoC5/isr.c **** * Function Name: isr_GetState
 316:.\Generated_Source\PSoC5/isr.c **** ********************************************************************************
 317:.\Generated_Source\PSoC5/isr.c **** *
 318:.\Generated_Source\PSoC5/isr.c **** * Summary:
 319:.\Generated_Source\PSoC5/isr.c **** *   Gets the state (enabled, disabled) of the Interrupt.
 320:.\Generated_Source\PSoC5/isr.c **** *
 321:.\Generated_Source\PSoC5/isr.c **** * Parameters:
 322:.\Generated_Source\PSoC5/isr.c **** *   None
 323:.\Generated_Source\PSoC5/isr.c **** *
 324:.\Generated_Source\PSoC5/isr.c **** * Return:
 325:.\Generated_Source\PSoC5/isr.c **** *   1 if enabled, 0 if disabled.
 326:.\Generated_Source\PSoC5/isr.c **** *
ARM GAS  C:\Users\Ian\AppData\Local\Temp\cciyNh59.s 			page 10


 327:.\Generated_Source\PSoC5/isr.c **** *******************************************************************************/
 328:.\Generated_Source\PSoC5/isr.c **** uint8 isr_GetState(void)
 329:.\Generated_Source\PSoC5/isr.c **** {
 188              		.loc 1 329 0
 189              		.cfi_startproc
 190              		@ args = 0, pretend = 0, frame = 0
 191              		@ frame_needed = 0, uses_anonymous_args = 0
 192              		@ link register save eliminated.
 330:.\Generated_Source\PSoC5/isr.c ****     /* Get the state of the general interrupt. */
 331:.\Generated_Source\PSoC5/isr.c ****     return ((*isr_INTC_SET_EN & (uint32)isr__INTC_MASK) != 0u) ? 1u:0u;
 193              		.loc 1 331 0
 194 0000 024B     		ldr	r3, .L20
 195 0002 1868     		ldr	r0, [r3]
 332:.\Generated_Source\PSoC5/isr.c **** }
 196              		.loc 1 332 0
 197 0004 00F00100 		and	r0, r0, #1
 198 0008 7047     		bx	lr
 199              	.L21:
 200 000a 00BF     		.align	2
 201              	.L20:
 202 000c 00E100E0 		.word	-536813312
 203              		.cfi_endproc
 204              	.LFE9:
 205              		.size	isr_GetState, .-isr_GetState
 206              		.section	.text.isr_Disable,"ax",%progbits
 207              		.align	2
 208              		.global	isr_Disable
 209              		.thumb
 210              		.thumb_func
 211              		.type	isr_Disable, %function
 212              	isr_Disable:
 213              	.LFB10:
 333:.\Generated_Source\PSoC5/isr.c **** 
 334:.\Generated_Source\PSoC5/isr.c **** 
 335:.\Generated_Source\PSoC5/isr.c **** /*******************************************************************************
 336:.\Generated_Source\PSoC5/isr.c **** * Function Name: isr_Disable
 337:.\Generated_Source\PSoC5/isr.c **** ********************************************************************************
 338:.\Generated_Source\PSoC5/isr.c **** *
 339:.\Generated_Source\PSoC5/isr.c **** * Summary:
 340:.\Generated_Source\PSoC5/isr.c **** *   Disables the Interrupt in the interrupt controller.
 341:.\Generated_Source\PSoC5/isr.c **** *
 342:.\Generated_Source\PSoC5/isr.c **** * Parameters:
 343:.\Generated_Source\PSoC5/isr.c **** *   None
 344:.\Generated_Source\PSoC5/isr.c **** *
 345:.\Generated_Source\PSoC5/isr.c **** * Return:
 346:.\Generated_Source\PSoC5/isr.c **** *   None
 347:.\Generated_Source\PSoC5/isr.c **** *
 348:.\Generated_Source\PSoC5/isr.c **** *******************************************************************************/
 349:.\Generated_Source\PSoC5/isr.c **** void isr_Disable(void)
 350:.\Generated_Source\PSoC5/isr.c **** {
 214              		.loc 1 350 0
 215              		.cfi_startproc
 216              		@ args = 0, pretend = 0, frame = 0
 217              		@ frame_needed = 0, uses_anonymous_args = 0
 218              		@ link register save eliminated.
 351:.\Generated_Source\PSoC5/isr.c ****     /* Disable the general interrupt. */
 352:.\Generated_Source\PSoC5/isr.c ****     *isr_INTC_CLR_EN = isr__INTC_MASK;
ARM GAS  C:\Users\Ian\AppData\Local\Temp\cciyNh59.s 			page 11


 219              		.loc 1 352 0
 220 0000 0122     		movs	r2, #1
 221 0002 014B     		ldr	r3, .L23
 222 0004 1A60     		str	r2, [r3]
 223 0006 7047     		bx	lr
 224              	.L24:
 225              		.align	2
 226              	.L23:
 227 0008 80E100E0 		.word	-536813184
 228              		.cfi_endproc
 229              	.LFE10:
 230              		.size	isr_Disable, .-isr_Disable
 231              		.section	.text.isr_Start,"ax",%progbits
 232              		.align	2
 233              		.global	isr_Start
 234              		.thumb
 235              		.thumb_func
 236              		.type	isr_Start, %function
 237              	isr_Start:
 238              	.LFB0:
  62:.\Generated_Source\PSoC5/isr.c ****     /* For all we know the interrupt is active. */
 239              		.loc 1 62 0
 240              		.cfi_startproc
 241              		@ args = 0, pretend = 0, frame = 0
 242              		@ frame_needed = 0, uses_anonymous_args = 0
 243 0000 08B5     		push	{r3, lr}
 244              		.cfi_def_cfa_offset 8
 245              		.cfi_offset 3, -8
 246              		.cfi_offset 14, -4
  64:.\Generated_Source\PSoC5/isr.c **** 
 247              		.loc 1 64 0
 248 0002 FFF7FEFF 		bl	isr_Disable
 249              	.LVL7:
  67:.\Generated_Source\PSoC5/isr.c **** 
 250              		.loc 1 67 0
 251 0006 0448     		ldr	r0, .L27
 252 0008 FFF7FEFF 		bl	isr_SetVector
 253              	.LVL8:
  70:.\Generated_Source\PSoC5/isr.c **** 
 254              		.loc 1 70 0
 255 000c 0720     		movs	r0, #7
 256 000e FFF7FEFF 		bl	isr_SetPriority
 257              	.LVL9:
  73:.\Generated_Source\PSoC5/isr.c **** }
 258              		.loc 1 73 0
 259 0012 FFF7FEFF 		bl	isr_Enable
 260              	.LVL10:
 261 0016 08BD     		pop	{r3, pc}
 262              	.L28:
 263              		.align	2
 264              	.L27:
 265 0018 00000000 		.word	isr_Interrupt
 266              		.cfi_endproc
 267              	.LFE0:
 268              		.size	isr_Start, .-isr_Start
 269              		.section	.text.isr_StartEx,"ax",%progbits
 270              		.align	2
ARM GAS  C:\Users\Ian\AppData\Local\Temp\cciyNh59.s 			page 12


 271              		.global	isr_StartEx
 272              		.thumb
 273              		.thumb_func
 274              		.type	isr_StartEx, %function
 275              	isr_StartEx:
 276              	.LFB1:
 105:.\Generated_Source\PSoC5/isr.c ****     /* For all we know the interrupt is active. */
 277              		.loc 1 105 0
 278              		.cfi_startproc
 279              		@ args = 0, pretend = 0, frame = 0
 280              		@ frame_needed = 0, uses_anonymous_args = 0
 281              	.LVL11:
 282 0000 10B5     		push	{r4, lr}
 283              		.cfi_def_cfa_offset 8
 284              		.cfi_offset 4, -8
 285              		.cfi_offset 14, -4
 286 0002 0446     		mov	r4, r0
 107:.\Generated_Source\PSoC5/isr.c **** 
 287              		.loc 1 107 0
 288 0004 FFF7FEFF 		bl	isr_Disable
 289              	.LVL12:
 110:.\Generated_Source\PSoC5/isr.c **** 
 290              		.loc 1 110 0
 291 0008 2046     		mov	r0, r4
 292 000a FFF7FEFF 		bl	isr_SetVector
 293              	.LVL13:
 113:.\Generated_Source\PSoC5/isr.c **** 
 294              		.loc 1 113 0
 295 000e 0720     		movs	r0, #7
 296 0010 FFF7FEFF 		bl	isr_SetPriority
 297              	.LVL14:
 116:.\Generated_Source\PSoC5/isr.c **** }
 298              		.loc 1 116 0
 299 0014 FFF7FEFF 		bl	isr_Enable
 300              	.LVL15:
 301 0018 10BD     		pop	{r4, pc}
 302              		.cfi_endproc
 303              	.LFE1:
 304              		.size	isr_StartEx, .-isr_StartEx
 305 001a 00BF     		.section	.text.isr_Stop,"ax",%progbits
 306              		.align	2
 307              		.global	isr_Stop
 308              		.thumb
 309              		.thumb_func
 310              		.type	isr_Stop, %function
 311              	isr_Stop:
 312              	.LFB2:
 135:.\Generated_Source\PSoC5/isr.c ****     /* Disable this interrupt. */
 313              		.loc 1 135 0
 314              		.cfi_startproc
 315              		@ args = 0, pretend = 0, frame = 0
 316              		@ frame_needed = 0, uses_anonymous_args = 0
 317 0000 08B5     		push	{r3, lr}
 318              		.cfi_def_cfa_offset 8
 319              		.cfi_offset 3, -8
 320              		.cfi_offset 14, -4
 137:.\Generated_Source\PSoC5/isr.c **** 
ARM GAS  C:\Users\Ian\AppData\Local\Temp\cciyNh59.s 			page 13


 321              		.loc 1 137 0
 322 0002 FFF7FEFF 		bl	isr_Disable
 323              	.LVL16:
 140:.\Generated_Source\PSoC5/isr.c **** }
 324              		.loc 1 140 0
 325 0006 0248     		ldr	r0, .L33
 326 0008 FFF7FEFF 		bl	isr_SetVector
 327              	.LVL17:
 328 000c 08BD     		pop	{r3, pc}
 329              	.L34:
 330 000e 00BF     		.align	2
 331              	.L33:
 332 0010 00000000 		.word	IntDefaultHandler
 333              		.cfi_endproc
 334              	.LFE2:
 335              		.size	isr_Stop, .-isr_Stop
 336              		.section	.text.isr_SetPending,"ax",%progbits
 337              		.align	2
 338              		.global	isr_SetPending
 339              		.thumb
 340              		.thumb_func
 341              		.type	isr_SetPending, %function
 342              	isr_SetPending:
 343              	.LFB11:
 353:.\Generated_Source\PSoC5/isr.c **** }
 354:.\Generated_Source\PSoC5/isr.c **** 
 355:.\Generated_Source\PSoC5/isr.c **** 
 356:.\Generated_Source\PSoC5/isr.c **** /*******************************************************************************
 357:.\Generated_Source\PSoC5/isr.c **** * Function Name: isr_SetPending
 358:.\Generated_Source\PSoC5/isr.c **** ********************************************************************************
 359:.\Generated_Source\PSoC5/isr.c **** *
 360:.\Generated_Source\PSoC5/isr.c **** * Summary:
 361:.\Generated_Source\PSoC5/isr.c **** *   Causes the Interrupt to enter the pending state, a software method of
 362:.\Generated_Source\PSoC5/isr.c **** *   generating the interrupt.
 363:.\Generated_Source\PSoC5/isr.c **** *
 364:.\Generated_Source\PSoC5/isr.c **** * Parameters:
 365:.\Generated_Source\PSoC5/isr.c **** *   None
 366:.\Generated_Source\PSoC5/isr.c **** *
 367:.\Generated_Source\PSoC5/isr.c **** * Return:
 368:.\Generated_Source\PSoC5/isr.c **** *   None
 369:.\Generated_Source\PSoC5/isr.c **** *
 370:.\Generated_Source\PSoC5/isr.c **** * Side Effects:
 371:.\Generated_Source\PSoC5/isr.c **** *   If interrupts are enabled and the interrupt is set up properly, the ISR is
 372:.\Generated_Source\PSoC5/isr.c **** *   entered (depending on the priority of this interrupt and other pending 
 373:.\Generated_Source\PSoC5/isr.c **** *   interrupts).
 374:.\Generated_Source\PSoC5/isr.c **** *
 375:.\Generated_Source\PSoC5/isr.c **** *******************************************************************************/
 376:.\Generated_Source\PSoC5/isr.c **** void isr_SetPending(void)
 377:.\Generated_Source\PSoC5/isr.c **** {
 344              		.loc 1 377 0
 345              		.cfi_startproc
 346              		@ args = 0, pretend = 0, frame = 0
 347              		@ frame_needed = 0, uses_anonymous_args = 0
 348              		@ link register save eliminated.
 378:.\Generated_Source\PSoC5/isr.c ****     *isr_INTC_SET_PD = isr__INTC_MASK;
 349              		.loc 1 378 0
 350 0000 0122     		movs	r2, #1
ARM GAS  C:\Users\Ian\AppData\Local\Temp\cciyNh59.s 			page 14


 351 0002 014B     		ldr	r3, .L36
 352 0004 1A60     		str	r2, [r3]
 353 0006 7047     		bx	lr
 354              	.L37:
 355              		.align	2
 356              	.L36:
 357 0008 00E200E0 		.word	-536813056
 358              		.cfi_endproc
 359              	.LFE11:
 360              		.size	isr_SetPending, .-isr_SetPending
 361              		.section	.text.isr_ClearPending,"ax",%progbits
 362              		.align	2
 363              		.global	isr_ClearPending
 364              		.thumb
 365              		.thumb_func
 366              		.type	isr_ClearPending, %function
 367              	isr_ClearPending:
 368              	.LFB12:
 379:.\Generated_Source\PSoC5/isr.c **** }
 380:.\Generated_Source\PSoC5/isr.c **** 
 381:.\Generated_Source\PSoC5/isr.c **** 
 382:.\Generated_Source\PSoC5/isr.c **** /*******************************************************************************
 383:.\Generated_Source\PSoC5/isr.c **** * Function Name: isr_ClearPending
 384:.\Generated_Source\PSoC5/isr.c **** ********************************************************************************
 385:.\Generated_Source\PSoC5/isr.c **** *
 386:.\Generated_Source\PSoC5/isr.c **** * Summary:
 387:.\Generated_Source\PSoC5/isr.c **** *   Clears a pending interrupt in the interrupt controller.
 388:.\Generated_Source\PSoC5/isr.c **** *
 389:.\Generated_Source\PSoC5/isr.c **** *   Note Some interrupt sources are clear-on-read and require the block 
 390:.\Generated_Source\PSoC5/isr.c **** *   interrupt/status register to be read/cleared with the appropriate block API 
 391:.\Generated_Source\PSoC5/isr.c **** *   (GPIO, UART, and so on). Otherwise the ISR will continue to remain in 
 392:.\Generated_Source\PSoC5/isr.c **** *   pending state even though the interrupt itself is cleared using this API.
 393:.\Generated_Source\PSoC5/isr.c **** *
 394:.\Generated_Source\PSoC5/isr.c **** * Parameters:
 395:.\Generated_Source\PSoC5/isr.c **** *   None
 396:.\Generated_Source\PSoC5/isr.c **** *
 397:.\Generated_Source\PSoC5/isr.c **** * Return:
 398:.\Generated_Source\PSoC5/isr.c **** *   None
 399:.\Generated_Source\PSoC5/isr.c **** *
 400:.\Generated_Source\PSoC5/isr.c **** *******************************************************************************/
 401:.\Generated_Source\PSoC5/isr.c **** void isr_ClearPending(void)
 402:.\Generated_Source\PSoC5/isr.c **** {
 369              		.loc 1 402 0
 370              		.cfi_startproc
 371              		@ args = 0, pretend = 0, frame = 0
 372              		@ frame_needed = 0, uses_anonymous_args = 0
 373              		@ link register save eliminated.
 403:.\Generated_Source\PSoC5/isr.c ****     *isr_INTC_CLR_PD = isr__INTC_MASK;
 374              		.loc 1 403 0
 375 0000 0122     		movs	r2, #1
 376 0002 014B     		ldr	r3, .L39
 377 0004 1A60     		str	r2, [r3]
 378 0006 7047     		bx	lr
 379              	.L40:
 380              		.align	2
 381              	.L39:
 382 0008 80E200E0 		.word	-536812928
ARM GAS  C:\Users\Ian\AppData\Local\Temp\cciyNh59.s 			page 15


 383              		.cfi_endproc
 384              	.LFE12:
 385              		.size	isr_ClearPending, .-isr_ClearPending
 386              		.text
 387              	.Letext0:
 388              		.file 2 "Generated_Source\\PSoC5/cytypes.h"