ARM GAS  C:\Users\Ian\AppData\Local\Temp\ccGmGtuq.s 			page 1


   1              		.syntax unified
   2              		.cpu cortex-m3
   3              		.fpu softvfp
   4              		.eabi_attribute 20, 1
   5              		.eabi_attribute 21, 1
   6              		.eabi_attribute 23, 3
   7              		.eabi_attribute 24, 1
   8              		.eabi_attribute 25, 1
   9              		.eabi_attribute 26, 1
  10              		.eabi_attribute 30, 1
  11              		.eabi_attribute 34, 1
  12              		.eabi_attribute 18, 4
  13              		.thumb
  14              		.file	"ADC_PM.c"
  15              		.text
  16              	.Ltext0:
  17              		.cfi_sections	.debug_frame
  18              		.section	.text.ADC_SaveConfig,"ax",%progbits
  19              		.align	2
  20              		.global	ADC_SaveConfig
  21              		.thumb
  22              		.thumb_func
  23              		.type	ADC_SaveConfig, %function
  24              	ADC_SaveConfig:
  25              	.LFB0:
  26              		.file 1 ".\\Generated_Source\\PSoC5\\ADC_PM.c"
   1:.\Generated_Source\PSoC5/ADC_PM.c **** /*******************************************************************************
   2:.\Generated_Source\PSoC5/ADC_PM.c **** * File Name: ADC_PM.c
   3:.\Generated_Source\PSoC5/ADC_PM.c **** * Version 3.20
   4:.\Generated_Source\PSoC5/ADC_PM.c **** *
   5:.\Generated_Source\PSoC5/ADC_PM.c **** * Description:
   6:.\Generated_Source\PSoC5/ADC_PM.c **** *  This file provides the power manager source code to the API for the
   7:.\Generated_Source\PSoC5/ADC_PM.c **** *  Delta-Sigma ADC Component.
   8:.\Generated_Source\PSoC5/ADC_PM.c **** *
   9:.\Generated_Source\PSoC5/ADC_PM.c **** * Note:
  10:.\Generated_Source\PSoC5/ADC_PM.c **** *
  11:.\Generated_Source\PSoC5/ADC_PM.c **** ********************************************************************************
  12:.\Generated_Source\PSoC5/ADC_PM.c **** * Copyright 2008-2015, Cypress Semiconductor Corporation.  All rights reserved.
  13:.\Generated_Source\PSoC5/ADC_PM.c **** * You may use this file only in accordance with the license, terms, conditions,
  14:.\Generated_Source\PSoC5/ADC_PM.c **** * disclaimers, and limitations in the end user license agreement accompanying
  15:.\Generated_Source\PSoC5/ADC_PM.c **** * the software package with which this file was provided.
  16:.\Generated_Source\PSoC5/ADC_PM.c **** *******************************************************************************/
  17:.\Generated_Source\PSoC5/ADC_PM.c **** 
  18:.\Generated_Source\PSoC5/ADC_PM.c **** #include "ADC.h"
  19:.\Generated_Source\PSoC5/ADC_PM.c **** 
  20:.\Generated_Source\PSoC5/ADC_PM.c **** static ADC_BACKUP_STRUCT ADC_backup =
  21:.\Generated_Source\PSoC5/ADC_PM.c **** {
  22:.\Generated_Source\PSoC5/ADC_PM.c ****     ADC_DISABLED,
  23:.\Generated_Source\PSoC5/ADC_PM.c ****     ADC_CFG1_DEC_CR
  24:.\Generated_Source\PSoC5/ADC_PM.c **** };
  25:.\Generated_Source\PSoC5/ADC_PM.c **** 
  26:.\Generated_Source\PSoC5/ADC_PM.c **** 
  27:.\Generated_Source\PSoC5/ADC_PM.c **** /*******************************************************************************
  28:.\Generated_Source\PSoC5/ADC_PM.c **** * Function Name: ADC_SaveConfig
  29:.\Generated_Source\PSoC5/ADC_PM.c **** ********************************************************************************
  30:.\Generated_Source\PSoC5/ADC_PM.c **** *
  31:.\Generated_Source\PSoC5/ADC_PM.c **** * Summary:
ARM GAS  C:\Users\Ian\AppData\Local\Temp\ccGmGtuq.s 			page 2


  32:.\Generated_Source\PSoC5/ADC_PM.c **** *  Save the register configuration which are not retention.
  33:.\Generated_Source\PSoC5/ADC_PM.c **** *
  34:.\Generated_Source\PSoC5/ADC_PM.c **** * Parameters:
  35:.\Generated_Source\PSoC5/ADC_PM.c **** *  None
  36:.\Generated_Source\PSoC5/ADC_PM.c **** *
  37:.\Generated_Source\PSoC5/ADC_PM.c **** * Return:
  38:.\Generated_Source\PSoC5/ADC_PM.c **** *  None
  39:.\Generated_Source\PSoC5/ADC_PM.c **** *
  40:.\Generated_Source\PSoC5/ADC_PM.c **** * Global variables:
  41:.\Generated_Source\PSoC5/ADC_PM.c **** *  ADC_backup:  This global structure variable is used to store
  42:.\Generated_Source\PSoC5/ADC_PM.c **** *  configuration registers which are non retention whenever user wants to go
  43:.\Generated_Source\PSoC5/ADC_PM.c **** *  sleep mode by calling Sleep() API.
  44:.\Generated_Source\PSoC5/ADC_PM.c **** *
  45:.\Generated_Source\PSoC5/ADC_PM.c **** *******************************************************************************/
  46:.\Generated_Source\PSoC5/ADC_PM.c **** void ADC_SaveConfig(void) 
  47:.\Generated_Source\PSoC5/ADC_PM.c **** {
  27              		.loc 1 47 0
  28              		.cfi_startproc
  29              		@ args = 0, pretend = 0, frame = 0
  30              		@ frame_needed = 0, uses_anonymous_args = 0
  31              		@ link register save eliminated.
  48:.\Generated_Source\PSoC5/ADC_PM.c ****     ADC_backup.deccr = ADC_DEC_CR_REG;
  32              		.loc 1 48 0
  33 0000 024B     		ldr	r3, .L2
  34 0002 1A78     		ldrb	r2, [r3]	@ zero_extendqisi2
  35 0004 024B     		ldr	r3, .L2+4
  36 0006 5A70     		strb	r2, [r3, #1]
  37 0008 7047     		bx	lr
  38              	.L3:
  39 000a 00BF     		.align	2
  40              	.L2:
  41 000c 004E0040 		.word	1073761792
  42 0010 00000000 		.word	.LANCHOR0
  43              		.cfi_endproc
  44              	.LFE0:
  45              		.size	ADC_SaveConfig, .-ADC_SaveConfig
  46              		.section	.text.ADC_RestoreConfig,"ax",%progbits
  47              		.align	2
  48              		.global	ADC_RestoreConfig
  49              		.thumb
  50              		.thumb_func
  51              		.type	ADC_RestoreConfig, %function
  52              	ADC_RestoreConfig:
  53              	.LFB1:
  49:.\Generated_Source\PSoC5/ADC_PM.c **** }
  50:.\Generated_Source\PSoC5/ADC_PM.c **** 
  51:.\Generated_Source\PSoC5/ADC_PM.c **** 
  52:.\Generated_Source\PSoC5/ADC_PM.c **** /*******************************************************************************
  53:.\Generated_Source\PSoC5/ADC_PM.c **** * Function Name: ADC_RestoreConfig
  54:.\Generated_Source\PSoC5/ADC_PM.c **** ********************************************************************************
  55:.\Generated_Source\PSoC5/ADC_PM.c **** *
  56:.\Generated_Source\PSoC5/ADC_PM.c **** * Summary:
  57:.\Generated_Source\PSoC5/ADC_PM.c **** *  Restore the register configurations which are not retention.
  58:.\Generated_Source\PSoC5/ADC_PM.c **** *
  59:.\Generated_Source\PSoC5/ADC_PM.c **** * Parameters:
  60:.\Generated_Source\PSoC5/ADC_PM.c **** *  None
  61:.\Generated_Source\PSoC5/ADC_PM.c **** *
ARM GAS  C:\Users\Ian\AppData\Local\Temp\ccGmGtuq.s 			page 3


  62:.\Generated_Source\PSoC5/ADC_PM.c **** * Return:
  63:.\Generated_Source\PSoC5/ADC_PM.c **** *  None
  64:.\Generated_Source\PSoC5/ADC_PM.c **** *
  65:.\Generated_Source\PSoC5/ADC_PM.c **** * Global variables:
  66:.\Generated_Source\PSoC5/ADC_PM.c **** *  ADC_backup:  This global structure variable is used to restore
  67:.\Generated_Source\PSoC5/ADC_PM.c **** *  configuration registers which are non retention whenever user wants to switch
  68:.\Generated_Source\PSoC5/ADC_PM.c **** *  to active power mode by calling Wakeup() API.
  69:.\Generated_Source\PSoC5/ADC_PM.c **** *
  70:.\Generated_Source\PSoC5/ADC_PM.c **** *******************************************************************************/
  71:.\Generated_Source\PSoC5/ADC_PM.c **** void ADC_RestoreConfig(void) 
  72:.\Generated_Source\PSoC5/ADC_PM.c **** {
  54              		.loc 1 72 0
  55              		.cfi_startproc
  56              		@ args = 0, pretend = 0, frame = 0
  57              		@ frame_needed = 0, uses_anonymous_args = 0
  58              		@ link register save eliminated.
  73:.\Generated_Source\PSoC5/ADC_PM.c ****     ADC_DEC_CR_REG = ADC_backup.deccr;
  59              		.loc 1 73 0
  60 0000 024B     		ldr	r3, .L5
  61 0002 5A78     		ldrb	r2, [r3, #1]	@ zero_extendqisi2
  62 0004 024B     		ldr	r3, .L5+4
  63 0006 1A70     		strb	r2, [r3]
  64 0008 7047     		bx	lr
  65              	.L6:
  66 000a 00BF     		.align	2
  67              	.L5:
  68 000c 00000000 		.word	.LANCHOR0
  69 0010 004E0040 		.word	1073761792
  70              		.cfi_endproc
  71              	.LFE1:
  72              		.size	ADC_RestoreConfig, .-ADC_RestoreConfig
  73              		.section	.text.ADC_Sleep,"ax",%progbits
  74              		.align	2
  75              		.global	ADC_Sleep
  76              		.thumb
  77              		.thumb_func
  78              		.type	ADC_Sleep, %function
  79              	ADC_Sleep:
  80              	.LFB2:
  74:.\Generated_Source\PSoC5/ADC_PM.c **** }
  75:.\Generated_Source\PSoC5/ADC_PM.c **** 
  76:.\Generated_Source\PSoC5/ADC_PM.c **** 
  77:.\Generated_Source\PSoC5/ADC_PM.c **** /*******************************************************************************
  78:.\Generated_Source\PSoC5/ADC_PM.c **** * Function Name: ADC_Sleep
  79:.\Generated_Source\PSoC5/ADC_PM.c **** ********************************************************************************
  80:.\Generated_Source\PSoC5/ADC_PM.c **** *
  81:.\Generated_Source\PSoC5/ADC_PM.c **** * Summary:
  82:.\Generated_Source\PSoC5/ADC_PM.c **** *  Stops the operation of the block and saves the user configuration.
  83:.\Generated_Source\PSoC5/ADC_PM.c **** *
  84:.\Generated_Source\PSoC5/ADC_PM.c **** * Parameters:
  85:.\Generated_Source\PSoC5/ADC_PM.c **** *  None
  86:.\Generated_Source\PSoC5/ADC_PM.c **** *
  87:.\Generated_Source\PSoC5/ADC_PM.c **** * Return:
  88:.\Generated_Source\PSoC5/ADC_PM.c **** *  None
  89:.\Generated_Source\PSoC5/ADC_PM.c **** *
  90:.\Generated_Source\PSoC5/ADC_PM.c **** * Global variables:
  91:.\Generated_Source\PSoC5/ADC_PM.c **** *  ADC_backup:  The structure field 'enableState' is modified
ARM GAS  C:\Users\Ian\AppData\Local\Temp\ccGmGtuq.s 			page 4


  92:.\Generated_Source\PSoC5/ADC_PM.c **** *  depending on the enable state of the block before entering to sleep mode.
  93:.\Generated_Source\PSoC5/ADC_PM.c **** *
  94:.\Generated_Source\PSoC5/ADC_PM.c **** *******************************************************************************/
  95:.\Generated_Source\PSoC5/ADC_PM.c **** void ADC_Sleep(void) 
  96:.\Generated_Source\PSoC5/ADC_PM.c **** {
  81              		.loc 1 96 0
  82              		.cfi_startproc
  83              		@ args = 0, pretend = 0, frame = 0
  84              		@ frame_needed = 0, uses_anonymous_args = 0
  85 0000 08B5     		push	{r3, lr}
  86              		.cfi_def_cfa_offset 8
  87              		.cfi_offset 3, -8
  88              		.cfi_offset 14, -4
  97:.\Generated_Source\PSoC5/ADC_PM.c ****     /* Save ADC enable state */
  98:.\Generated_Source\PSoC5/ADC_PM.c ****     if((ADC_ACT_PWR_DEC_EN == (ADC_PWRMGR_DEC_REG & ADC_ACT_PWR_DEC_EN)) &&
  89              		.loc 1 98 0
  90 0002 0F4B     		ldr	r3, .L12
  91 0004 1B78     		ldrb	r3, [r3]	@ zero_extendqisi2
  92 0006 13F0010F 		tst	r3, #1
  93 000a 12D0     		beq	.L8
  99:.\Generated_Source\PSoC5/ADC_PM.c ****        (ADC_ACT_PWR_DSM_EN == (ADC_PWRMGR_DSM_REG & ADC_ACT_PWR_DSM_EN)))
  94              		.loc 1 99 0 discriminator 1
  95 000c 0C4B     		ldr	r3, .L12
  96 000e 1B78     		ldrb	r3, [r3]	@ zero_extendqisi2
  98:.\Generated_Source\PSoC5/ADC_PM.c ****        (ADC_ACT_PWR_DSM_EN == (ADC_PWRMGR_DSM_REG & ADC_ACT_PWR_DSM_EN)))
  97              		.loc 1 98 0 discriminator 1
  98 0010 13F0100F 		tst	r3, #16
  99 0014 0DD0     		beq	.L8
 100:.\Generated_Source\PSoC5/ADC_PM.c ****     {
 101:.\Generated_Source\PSoC5/ADC_PM.c ****         /* Component is enabled */
 102:.\Generated_Source\PSoC5/ADC_PM.c ****         ADC_backup.enableState = ADC_ENABLED;
 100              		.loc 1 102 0
 101 0016 0122     		movs	r2, #1
 102 0018 0A4B     		ldr	r3, .L12+4
 103 001a 1A70     		strb	r2, [r3]
 103:.\Generated_Source\PSoC5/ADC_PM.c ****         if((ADC_DEC_CR_REG & ADC_DEC_START_CONV) != 0u)
 104              		.loc 1 103 0
 105 001c 0A4B     		ldr	r3, .L12+8
 106 001e 1B78     		ldrb	r3, [r3]	@ zero_extendqisi2
 107 0020 13F0010F 		tst	r3, #1
 108 0024 02D0     		beq	.L9
 104:.\Generated_Source\PSoC5/ADC_PM.c ****         {   
 105:.\Generated_Source\PSoC5/ADC_PM.c ****             /* Conversion is started */
 106:.\Generated_Source\PSoC5/ADC_PM.c ****             ADC_backup.enableState |= ADC_STARTED;
 109              		.loc 1 106 0
 110 0026 0322     		movs	r2, #3
 111 0028 064B     		ldr	r3, .L12+4
 112 002a 1A70     		strb	r2, [r3]
 113              	.L9:
 107:.\Generated_Source\PSoC5/ADC_PM.c ****         }
 108:.\Generated_Source\PSoC5/ADC_PM.c **** 		
 109:.\Generated_Source\PSoC5/ADC_PM.c ****         /* Stop the configuration */
 110:.\Generated_Source\PSoC5/ADC_PM.c ****         ADC_Stop();
 114              		.loc 1 110 0
 115 002c FFF7FEFF 		bl	ADC_Stop
 116              	.LVL0:
 117 0030 02E0     		b	.L10
ARM GAS  C:\Users\Ian\AppData\Local\Temp\ccGmGtuq.s 			page 5


 118              	.L8:
 111:.\Generated_Source\PSoC5/ADC_PM.c ****     }
 112:.\Generated_Source\PSoC5/ADC_PM.c ****     else
 113:.\Generated_Source\PSoC5/ADC_PM.c ****     {
 114:.\Generated_Source\PSoC5/ADC_PM.c ****         /* Component is disabled */
 115:.\Generated_Source\PSoC5/ADC_PM.c ****         ADC_backup.enableState = ADC_DISABLED;
 119              		.loc 1 115 0
 120 0032 0022     		movs	r2, #0
 121 0034 034B     		ldr	r3, .L12+4
 122 0036 1A70     		strb	r2, [r3]
 123              	.L10:
 116:.\Generated_Source\PSoC5/ADC_PM.c ****     }
 117:.\Generated_Source\PSoC5/ADC_PM.c **** 
 118:.\Generated_Source\PSoC5/ADC_PM.c ****     /* Save the user configuration */
 119:.\Generated_Source\PSoC5/ADC_PM.c ****     ADC_SaveConfig();
 124              		.loc 1 119 0
 125 0038 FFF7FEFF 		bl	ADC_SaveConfig
 126              	.LVL1:
 127 003c 08BD     		pop	{r3, pc}
 128              	.L13:
 129 003e 00BF     		.align	2
 130              	.L12:
 131 0040 AA430040 		.word	1073759146
 132 0044 00000000 		.word	.LANCHOR0
 133 0048 004E0040 		.word	1073761792
 134              		.cfi_endproc
 135              	.LFE2:
 136              		.size	ADC_Sleep, .-ADC_Sleep
 137              		.section	.text.ADC_Wakeup,"ax",%progbits
 138              		.align	2
 139              		.global	ADC_Wakeup
 140              		.thumb
 141              		.thumb_func
 142              		.type	ADC_Wakeup, %function
 143              	ADC_Wakeup:
 144              	.LFB3:
 120:.\Generated_Source\PSoC5/ADC_PM.c **** }
 121:.\Generated_Source\PSoC5/ADC_PM.c **** 
 122:.\Generated_Source\PSoC5/ADC_PM.c **** 
 123:.\Generated_Source\PSoC5/ADC_PM.c **** /*******************************************************************************
 124:.\Generated_Source\PSoC5/ADC_PM.c **** * Function Name: ADC_Wakeup
 125:.\Generated_Source\PSoC5/ADC_PM.c **** ********************************************************************************
 126:.\Generated_Source\PSoC5/ADC_PM.c **** *
 127:.\Generated_Source\PSoC5/ADC_PM.c **** * Summary:
 128:.\Generated_Source\PSoC5/ADC_PM.c **** *  Restores the user configuration and enables the power to the block.
 129:.\Generated_Source\PSoC5/ADC_PM.c **** *
 130:.\Generated_Source\PSoC5/ADC_PM.c **** * Parameters:
 131:.\Generated_Source\PSoC5/ADC_PM.c **** *  None
 132:.\Generated_Source\PSoC5/ADC_PM.c **** *
 133:.\Generated_Source\PSoC5/ADC_PM.c **** * Return:
 134:.\Generated_Source\PSoC5/ADC_PM.c **** *  None
 135:.\Generated_Source\PSoC5/ADC_PM.c **** *
 136:.\Generated_Source\PSoC5/ADC_PM.c **** * Global variables:
 137:.\Generated_Source\PSoC5/ADC_PM.c **** *  ADC_backup:  The structure field 'enableState' is used to
 138:.\Generated_Source\PSoC5/ADC_PM.c **** *  restore the enable state of block after wakeup from sleep mode.
 139:.\Generated_Source\PSoC5/ADC_PM.c **** *
 140:.\Generated_Source\PSoC5/ADC_PM.c **** *******************************************************************************/
ARM GAS  C:\Users\Ian\AppData\Local\Temp\ccGmGtuq.s 			page 6


 141:.\Generated_Source\PSoC5/ADC_PM.c **** void ADC_Wakeup(void) 
 142:.\Generated_Source\PSoC5/ADC_PM.c **** {
 145              		.loc 1 142 0
 146              		.cfi_startproc
 147              		@ args = 0, pretend = 0, frame = 0
 148              		@ frame_needed = 0, uses_anonymous_args = 0
 149 0000 08B5     		push	{r3, lr}
 150              		.cfi_def_cfa_offset 8
 151              		.cfi_offset 3, -8
 152              		.cfi_offset 14, -4
 143:.\Generated_Source\PSoC5/ADC_PM.c ****     /* Restore the configuration */
 144:.\Generated_Source\PSoC5/ADC_PM.c ****     ADC_RestoreConfig();
 153              		.loc 1 144 0
 154 0002 FFF7FEFF 		bl	ADC_RestoreConfig
 155              	.LVL2:
 145:.\Generated_Source\PSoC5/ADC_PM.c **** 
 146:.\Generated_Source\PSoC5/ADC_PM.c ****     /* Enables the component operation */
 147:.\Generated_Source\PSoC5/ADC_PM.c ****     if(ADC_backup.enableState != ADC_DISABLED)
 156              		.loc 1 147 0
 157 0006 064B     		ldr	r3, .L17
 158 0008 1B78     		ldrb	r3, [r3]	@ zero_extendqisi2
 159 000a 43B1     		cbz	r3, .L14
 148:.\Generated_Source\PSoC5/ADC_PM.c ****     {
 149:.\Generated_Source\PSoC5/ADC_PM.c ****         ADC_Enable();
 160              		.loc 1 149 0
 161 000c FFF7FEFF 		bl	ADC_Enable
 162              	.LVL3:
 150:.\Generated_Source\PSoC5/ADC_PM.c ****         if((ADC_backup.enableState & ADC_STARTED) != 0u)
 163              		.loc 1 150 0
 164 0010 034B     		ldr	r3, .L17
 165 0012 1B78     		ldrb	r3, [r3]	@ zero_extendqisi2
 166 0014 13F0020F 		tst	r3, #2
 167 0018 01D0     		beq	.L14
 151:.\Generated_Source\PSoC5/ADC_PM.c ****         {
 152:.\Generated_Source\PSoC5/ADC_PM.c ****             ADC_StartConvert();
 168              		.loc 1 152 0
 169 001a FFF7FEFF 		bl	ADC_StartConvert
 170              	.LVL4:
 171              	.L14:
 172 001e 08BD     		pop	{r3, pc}
 173              	.L18:
 174              		.align	2
 175              	.L17:
 176 0020 00000000 		.word	.LANCHOR0
 177              		.cfi_endproc
 178              	.LFE3:
 179              		.size	ADC_Wakeup, .-ADC_Wakeup
 180              		.data
 181              		.align	2
 182              		.set	.LANCHOR0,. + 0
 183              		.type	ADC_backup, %object
 184              		.size	ADC_backup, 2
 185              	ADC_backup:
 186 0000 00       		.byte	0
 187 0001 38       		.byte	56
 188 0002 0000     		.text
 189              	.Letext0:
ARM GAS  C:\Users\Ian\AppData\Local\Temp\ccGmGtuq.s 			page 7


 190              		.file 2 ".\\Generated_Source\\PSoC5\\cytypes.h"
 191              		.file 3 ".\\Generated_Source\\PSoC5\\ADC.h"