ARM GAS  C:\Users\Ian\AppData\Local\Temp\cceRKtdE.s 			page 1


   1              		.syntax unified
   2              		.cpu cortex-m3
   3              		.fpu softvfp
   4              		.eabi_attribute 20, 1
   5              		.eabi_attribute 21, 1
   6              		.eabi_attribute 23, 3
   7              		.eabi_attribute 24, 1
   8              		.eabi_attribute 25, 1
   9              		.eabi_attribute 26, 1
  10              		.eabi_attribute 30, 1
  11              		.eabi_attribute 34, 1
  12              		.eabi_attribute 18, 4
  13              		.thumb
  14              		.file	"cyfitter_cfg.c"
  15              		.text
  16              	.Ltext0:
  17              		.cfi_sections	.debug_frame
  18              		.section	.text.CyClockStartupError,"ax",%progbits
  19              		.align	2
  20              		.thumb
  21              		.thumb_func
  22              		.type	CyClockStartupError, %function
  23              	CyClockStartupError:
  24              	.LFB3:
  25              		.file 1 ".\\Generated_Source\\PSoC5\\cyfitter_cfg.c"
   1:.\Generated_Source\PSoC5/cyfitter_cfg.c **** /*******************************************************************************
   2:.\Generated_Source\PSoC5/cyfitter_cfg.c **** * File Name: cyfitter_cfg.c
   3:.\Generated_Source\PSoC5/cyfitter_cfg.c **** * 
   4:.\Generated_Source\PSoC5/cyfitter_cfg.c **** * PSoC Creator  3.3 CP1
   5:.\Generated_Source\PSoC5/cyfitter_cfg.c **** *
   6:.\Generated_Source\PSoC5/cyfitter_cfg.c **** * Description:
   7:.\Generated_Source\PSoC5/cyfitter_cfg.c **** * This file contains device initialization code.
   8:.\Generated_Source\PSoC5/cyfitter_cfg.c **** * Except for the user defined sections in CyClockStartupError(), this file should not be modified.
   9:.\Generated_Source\PSoC5/cyfitter_cfg.c **** * This file is automatically generated by PSoC Creator.
  10:.\Generated_Source\PSoC5/cyfitter_cfg.c **** *
  11:.\Generated_Source\PSoC5/cyfitter_cfg.c **** ********************************************************************************
  12:.\Generated_Source\PSoC5/cyfitter_cfg.c **** * Copyright (c) 2007-2015 Cypress Semiconductor.  All rights reserved.
  13:.\Generated_Source\PSoC5/cyfitter_cfg.c **** * You may use this file only in accordance with the license, terms, conditions, 
  14:.\Generated_Source\PSoC5/cyfitter_cfg.c **** * disclaimers, and limitations in the end user license agreement accompanying 
  15:.\Generated_Source\PSoC5/cyfitter_cfg.c **** * the software package with which this file was provided.
  16:.\Generated_Source\PSoC5/cyfitter_cfg.c **** ********************************************************************************/
  17:.\Generated_Source\PSoC5/cyfitter_cfg.c **** 
  18:.\Generated_Source\PSoC5/cyfitter_cfg.c **** #include <string.h>
  19:.\Generated_Source\PSoC5/cyfitter_cfg.c **** #include "cytypes.h"
  20:.\Generated_Source\PSoC5/cyfitter_cfg.c **** #include "cydevice_trm.h"
  21:.\Generated_Source\PSoC5/cyfitter_cfg.c **** #include "cyfitter.h"
  22:.\Generated_Source\PSoC5/cyfitter_cfg.c **** #include "CyLib.h"
  23:.\Generated_Source\PSoC5/cyfitter_cfg.c **** #include "cyfitter_cfg.h"
  24:.\Generated_Source\PSoC5/cyfitter_cfg.c **** 
  25:.\Generated_Source\PSoC5/cyfitter_cfg.c **** #define CY_NEED_CYCLOCKSTARTUPERROR 1
  26:.\Generated_Source\PSoC5/cyfitter_cfg.c **** 
  27:.\Generated_Source\PSoC5/cyfitter_cfg.c **** 
  28:.\Generated_Source\PSoC5/cyfitter_cfg.c **** #if defined(__GNUC__) || defined(__ARMCC_VERSION)
  29:.\Generated_Source\PSoC5/cyfitter_cfg.c ****     #define CYPACKED 
  30:.\Generated_Source\PSoC5/cyfitter_cfg.c ****     #define CYPACKED_ATTR __attribute__ ((packed))
  31:.\Generated_Source\PSoC5/cyfitter_cfg.c ****     #define CYALIGNED __attribute__ ((aligned))
  32:.\Generated_Source\PSoC5/cyfitter_cfg.c ****     #define CY_CFG_UNUSED __attribute__ ((unused))
ARM GAS  C:\Users\Ian\AppData\Local\Temp\cceRKtdE.s 			page 2


  33:.\Generated_Source\PSoC5/cyfitter_cfg.c ****     #define CY_CFG_SECTION __attribute__ ((section(".psocinit")))
  34:.\Generated_Source\PSoC5/cyfitter_cfg.c ****     
  35:.\Generated_Source\PSoC5/cyfitter_cfg.c ****     #if defined(__ARMCC_VERSION)
  36:.\Generated_Source\PSoC5/cyfitter_cfg.c ****         #define CY_CFG_MEMORY_BARRIER() __memory_changed()
  37:.\Generated_Source\PSoC5/cyfitter_cfg.c ****     #else
  38:.\Generated_Source\PSoC5/cyfitter_cfg.c ****         #define CY_CFG_MEMORY_BARRIER() __sync_synchronize()
  39:.\Generated_Source\PSoC5/cyfitter_cfg.c ****     #endif
  40:.\Generated_Source\PSoC5/cyfitter_cfg.c ****     
  41:.\Generated_Source\PSoC5/cyfitter_cfg.c **** #elif defined(__ICCARM__)
  42:.\Generated_Source\PSoC5/cyfitter_cfg.c ****     #include <intrinsics.h>
  43:.\Generated_Source\PSoC5/cyfitter_cfg.c **** 
  44:.\Generated_Source\PSoC5/cyfitter_cfg.c ****     #define CYPACKED __packed
  45:.\Generated_Source\PSoC5/cyfitter_cfg.c ****     #define CYPACKED_ATTR 
  46:.\Generated_Source\PSoC5/cyfitter_cfg.c ****     #define CYALIGNED _Pragma("data_alignment=4")
  47:.\Generated_Source\PSoC5/cyfitter_cfg.c ****     #define CY_CFG_UNUSED _Pragma("diag_suppress=Pe177")
  48:.\Generated_Source\PSoC5/cyfitter_cfg.c ****     #define CY_CFG_SECTION _Pragma("location=\".psocinit\"")
  49:.\Generated_Source\PSoC5/cyfitter_cfg.c ****     
  50:.\Generated_Source\PSoC5/cyfitter_cfg.c ****     #define CY_CFG_MEMORY_BARRIER() __DMB()
  51:.\Generated_Source\PSoC5/cyfitter_cfg.c ****     
  52:.\Generated_Source\PSoC5/cyfitter_cfg.c **** #else
  53:.\Generated_Source\PSoC5/cyfitter_cfg.c ****     #error Unsupported toolchain
  54:.\Generated_Source\PSoC5/cyfitter_cfg.c **** #endif
  55:.\Generated_Source\PSoC5/cyfitter_cfg.c **** 
  56:.\Generated_Source\PSoC5/cyfitter_cfg.c **** 
  57:.\Generated_Source\PSoC5/cyfitter_cfg.c **** CY_CFG_UNUSED
  58:.\Generated_Source\PSoC5/cyfitter_cfg.c **** static void CYMEMZERO(void *s, size_t n);
  59:.\Generated_Source\PSoC5/cyfitter_cfg.c **** CY_CFG_UNUSED
  60:.\Generated_Source\PSoC5/cyfitter_cfg.c **** static void CYMEMZERO(void *s, size_t n)
  61:.\Generated_Source\PSoC5/cyfitter_cfg.c **** {
  62:.\Generated_Source\PSoC5/cyfitter_cfg.c **** 	(void)memset(s, 0, n);
  63:.\Generated_Source\PSoC5/cyfitter_cfg.c **** }
  64:.\Generated_Source\PSoC5/cyfitter_cfg.c **** CY_CFG_UNUSED
  65:.\Generated_Source\PSoC5/cyfitter_cfg.c **** static void CYCONFIGCPY(void *dest, const void *src, size_t n);
  66:.\Generated_Source\PSoC5/cyfitter_cfg.c **** CY_CFG_UNUSED
  67:.\Generated_Source\PSoC5/cyfitter_cfg.c **** static void CYCONFIGCPY(void *dest, const void *src, size_t n)
  68:.\Generated_Source\PSoC5/cyfitter_cfg.c **** {
  69:.\Generated_Source\PSoC5/cyfitter_cfg.c **** 	(void)memcpy(dest, src, n);
  70:.\Generated_Source\PSoC5/cyfitter_cfg.c **** }
  71:.\Generated_Source\PSoC5/cyfitter_cfg.c **** CY_CFG_UNUSED
  72:.\Generated_Source\PSoC5/cyfitter_cfg.c **** static void CYCONFIGCPYCODE(void *dest, const void *src, size_t n);
  73:.\Generated_Source\PSoC5/cyfitter_cfg.c **** CY_CFG_UNUSED
  74:.\Generated_Source\PSoC5/cyfitter_cfg.c **** static void CYCONFIGCPYCODE(void *dest, const void *src, size_t n)
  75:.\Generated_Source\PSoC5/cyfitter_cfg.c **** {
  76:.\Generated_Source\PSoC5/cyfitter_cfg.c **** 	(void)memcpy(dest, src, n);
  77:.\Generated_Source\PSoC5/cyfitter_cfg.c **** }
  78:.\Generated_Source\PSoC5/cyfitter_cfg.c **** 
  79:.\Generated_Source\PSoC5/cyfitter_cfg.c **** 
  80:.\Generated_Source\PSoC5/cyfitter_cfg.c **** 
  81:.\Generated_Source\PSoC5/cyfitter_cfg.c **** /* Clock startup error codes                                                   */
  82:.\Generated_Source\PSoC5/cyfitter_cfg.c **** #define CYCLOCKSTART_NO_ERROR    0u
  83:.\Generated_Source\PSoC5/cyfitter_cfg.c **** #define CYCLOCKSTART_XTAL_ERROR  1u
  84:.\Generated_Source\PSoC5/cyfitter_cfg.c **** #define CYCLOCKSTART_32KHZ_ERROR 2u
  85:.\Generated_Source\PSoC5/cyfitter_cfg.c **** #define CYCLOCKSTART_PLL_ERROR   3u
  86:.\Generated_Source\PSoC5/cyfitter_cfg.c **** 
  87:.\Generated_Source\PSoC5/cyfitter_cfg.c **** #ifdef CY_NEED_CYCLOCKSTARTUPERROR
  88:.\Generated_Source\PSoC5/cyfitter_cfg.c **** /*******************************************************************************
  89:.\Generated_Source\PSoC5/cyfitter_cfg.c **** * Function Name: CyClockStartupError
ARM GAS  C:\Users\Ian\AppData\Local\Temp\cceRKtdE.s 			page 3


  90:.\Generated_Source\PSoC5/cyfitter_cfg.c **** ********************************************************************************
  91:.\Generated_Source\PSoC5/cyfitter_cfg.c **** * Summary:
  92:.\Generated_Source\PSoC5/cyfitter_cfg.c **** *  If an error is encountered during clock configuration (crystal startup error,
  93:.\Generated_Source\PSoC5/cyfitter_cfg.c **** *  PLL lock error, etc.), the system will end up here.  Unless reimplemented by
  94:.\Generated_Source\PSoC5/cyfitter_cfg.c **** *  the customer, this function will stop in an infinite loop.
  95:.\Generated_Source\PSoC5/cyfitter_cfg.c **** *
  96:.\Generated_Source\PSoC5/cyfitter_cfg.c **** * Parameters:
  97:.\Generated_Source\PSoC5/cyfitter_cfg.c **** *   void
  98:.\Generated_Source\PSoC5/cyfitter_cfg.c **** *
  99:.\Generated_Source\PSoC5/cyfitter_cfg.c **** * Return:
 100:.\Generated_Source\PSoC5/cyfitter_cfg.c **** *   void
 101:.\Generated_Source\PSoC5/cyfitter_cfg.c **** *
 102:.\Generated_Source\PSoC5/cyfitter_cfg.c **** *******************************************************************************/
 103:.\Generated_Source\PSoC5/cyfitter_cfg.c **** CY_CFG_UNUSED
 104:.\Generated_Source\PSoC5/cyfitter_cfg.c **** static void CyClockStartupError(uint8 errorCode);
 105:.\Generated_Source\PSoC5/cyfitter_cfg.c **** CY_CFG_UNUSED
 106:.\Generated_Source\PSoC5/cyfitter_cfg.c **** static void CyClockStartupError(uint8 errorCode)
 107:.\Generated_Source\PSoC5/cyfitter_cfg.c **** {
  26              		.loc 1 107 0
  27              		.cfi_startproc
  28              		@ Volatile: function does not return.
  29              		@ args = 0, pretend = 0, frame = 0
  30              		@ frame_needed = 0, uses_anonymous_args = 0
  31              		@ link register save eliminated.
  32              	.LVL0:
  33              	.L2:
 108:.\Generated_Source\PSoC5/cyfitter_cfg.c ****     /* To remove the compiler warning if errorCode not used.                */
 109:.\Generated_Source\PSoC5/cyfitter_cfg.c ****     errorCode = errorCode;
 110:.\Generated_Source\PSoC5/cyfitter_cfg.c **** 
 111:.\Generated_Source\PSoC5/cyfitter_cfg.c ****     /* `#START CyClockStartupError` */
 112:.\Generated_Source\PSoC5/cyfitter_cfg.c **** 
 113:.\Generated_Source\PSoC5/cyfitter_cfg.c ****     /* If we have a clock startup error (bad MHz crystal, PLL lock, etc.),  */
 114:.\Generated_Source\PSoC5/cyfitter_cfg.c ****     /* we will end up here to allow the customer to implement something to  */
 115:.\Generated_Source\PSoC5/cyfitter_cfg.c ****     /* deal with the clock condition.                                       */
 116:.\Generated_Source\PSoC5/cyfitter_cfg.c **** 
 117:.\Generated_Source\PSoC5/cyfitter_cfg.c ****     /* `#END` */
 118:.\Generated_Source\PSoC5/cyfitter_cfg.c **** 
 119:.\Generated_Source\PSoC5/cyfitter_cfg.c ****     /* If nothing else, stop here since the clocks have not started         */
 120:.\Generated_Source\PSoC5/cyfitter_cfg.c ****     /* correctly.                                                           */
 121:.\Generated_Source\PSoC5/cyfitter_cfg.c ****     while(1) {}
  34              		.loc 1 121 0 discriminator 1
  35 0000 FEE7     		b	.L2
  36              		.cfi_endproc
  37              	.LFE3:
  38              		.size	CyClockStartupError, .-CyClockStartupError
  39 0002 00BF     		.section	.text.cfg_write_bytes32,"ax",%progbits
  40              		.align	2
  41              		.thumb
  42              		.thumb_func
  43              		.type	cfg_write_bytes32, %function
  44              	cfg_write_bytes32:
  45              	.LFB4:
 122:.\Generated_Source\PSoC5/cyfitter_cfg.c **** }
 123:.\Generated_Source\PSoC5/cyfitter_cfg.c **** #endif
 124:.\Generated_Source\PSoC5/cyfitter_cfg.c **** 
 125:.\Generated_Source\PSoC5/cyfitter_cfg.c **** #define CY_CFG_BASE_ADDR_COUNT 28u
 126:.\Generated_Source\PSoC5/cyfitter_cfg.c **** CYPACKED typedef struct
ARM GAS  C:\Users\Ian\AppData\Local\Temp\cceRKtdE.s 			page 4


 127:.\Generated_Source\PSoC5/cyfitter_cfg.c **** {
 128:.\Generated_Source\PSoC5/cyfitter_cfg.c **** 	uint8 offset;
 129:.\Generated_Source\PSoC5/cyfitter_cfg.c **** 	uint8 value;
 130:.\Generated_Source\PSoC5/cyfitter_cfg.c **** } CYPACKED_ATTR cy_cfg_addrvalue_t;
 131:.\Generated_Source\PSoC5/cyfitter_cfg.c **** 
 132:.\Generated_Source\PSoC5/cyfitter_cfg.c **** #define cy_cfg_addr_table ((const uint32 CYFAR *)0x48000000u)
 133:.\Generated_Source\PSoC5/cyfitter_cfg.c **** #define cy_cfg_data_table ((const cy_cfg_addrvalue_t CYFAR *)0x48000070u)
 134:.\Generated_Source\PSoC5/cyfitter_cfg.c **** 
 135:.\Generated_Source\PSoC5/cyfitter_cfg.c **** /* UDB_1_5_1_CONFIG Address: CYDEV_UCFG_B0_P0_U1_BASE Size (bytes): 128 */
 136:.\Generated_Source\PSoC5/cyfitter_cfg.c **** #define BS_UDB_1_5_1_CONFIG_VAL ((const uint8 CYFAR *)0x480003ECu)
 137:.\Generated_Source\PSoC5/cyfitter_cfg.c **** 
 138:.\Generated_Source\PSoC5/cyfitter_cfg.c **** /* UDB_1_3_1_CONFIG Address: CYDEV_UCFG_B0_P2_U1_BASE Size (bytes): 128 */
 139:.\Generated_Source\PSoC5/cyfitter_cfg.c **** #define BS_UDB_1_3_1_CONFIG_VAL ((const uint8 CYFAR *)0x4800046Cu)
 140:.\Generated_Source\PSoC5/cyfitter_cfg.c **** 
 141:.\Generated_Source\PSoC5/cyfitter_cfg.c **** /* IOPINS0_1 Address: CYREG_PRT1_DM0 Size (bytes): 8 */
 142:.\Generated_Source\PSoC5/cyfitter_cfg.c **** #define BS_IOPINS0_1_VAL ((const uint8 CYFAR *)0x480004ECu)
 143:.\Generated_Source\PSoC5/cyfitter_cfg.c **** 
 144:.\Generated_Source\PSoC5/cyfitter_cfg.c **** /* IOPINS0_2 Address: CYREG_PRT2_DR Size (bytes): 10 */
 145:.\Generated_Source\PSoC5/cyfitter_cfg.c **** #define BS_IOPINS0_2_VAL ((const uint8 CYFAR *)0x480004F4u)
 146:.\Generated_Source\PSoC5/cyfitter_cfg.c **** 
 147:.\Generated_Source\PSoC5/cyfitter_cfg.c **** /* IOPINS0_4 Address: CYREG_PRT4_DM0 Size (bytes): 8 */
 148:.\Generated_Source\PSoC5/cyfitter_cfg.c **** #define BS_IOPINS0_4_VAL ((const uint8 CYFAR *)0x48000500u)
 149:.\Generated_Source\PSoC5/cyfitter_cfg.c **** 
 150:.\Generated_Source\PSoC5/cyfitter_cfg.c **** /* IOPINS0_5 Address: CYREG_PRT5_DM0 Size (bytes): 8 */
 151:.\Generated_Source\PSoC5/cyfitter_cfg.c **** #define BS_IOPINS0_5_VAL ((const uint8 CYFAR *)0x48000508u)
 152:.\Generated_Source\PSoC5/cyfitter_cfg.c **** 
 153:.\Generated_Source\PSoC5/cyfitter_cfg.c **** /* CYDEV_CLKDIST_ACFG0_CFG0 Address: CYREG_CLKDIST_ACFG0_CFG0 Size (bytes): 4 */
 154:.\Generated_Source\PSoC5/cyfitter_cfg.c **** #define BS_CYDEV_CLKDIST_ACFG0_CFG0_VAL ((const uint8 CYFAR *)0x48000510u)
 155:.\Generated_Source\PSoC5/cyfitter_cfg.c **** 
 156:.\Generated_Source\PSoC5/cyfitter_cfg.c **** 
 157:.\Generated_Source\PSoC5/cyfitter_cfg.c **** /*******************************************************************************
 158:.\Generated_Source\PSoC5/cyfitter_cfg.c **** * Function Name: cfg_write_bytes32
 159:.\Generated_Source\PSoC5/cyfitter_cfg.c **** ********************************************************************************
 160:.\Generated_Source\PSoC5/cyfitter_cfg.c **** * Summary:
 161:.\Generated_Source\PSoC5/cyfitter_cfg.c **** *  This function is used for setting up the chip configuration areas that
 162:.\Generated_Source\PSoC5/cyfitter_cfg.c **** *  contain relatively sparse data.
 163:.\Generated_Source\PSoC5/cyfitter_cfg.c **** *
 164:.\Generated_Source\PSoC5/cyfitter_cfg.c **** * Parameters:
 165:.\Generated_Source\PSoC5/cyfitter_cfg.c **** *   void
 166:.\Generated_Source\PSoC5/cyfitter_cfg.c **** *
 167:.\Generated_Source\PSoC5/cyfitter_cfg.c **** * Return:
 168:.\Generated_Source\PSoC5/cyfitter_cfg.c **** *   void
 169:.\Generated_Source\PSoC5/cyfitter_cfg.c **** *
 170:.\Generated_Source\PSoC5/cyfitter_cfg.c **** *******************************************************************************/
 171:.\Generated_Source\PSoC5/cyfitter_cfg.c **** static void cfg_write_bytes32(const uint32 addr_table[], const cy_cfg_addrvalue_t data_table[]);
 172:.\Generated_Source\PSoC5/cyfitter_cfg.c **** static void cfg_write_bytes32(const uint32 addr_table[], const cy_cfg_addrvalue_t data_table[])
 173:.\Generated_Source\PSoC5/cyfitter_cfg.c **** {
  46              		.loc 1 173 0
  47              		.cfi_startproc
  48              		@ args = 0, pretend = 0, frame = 0
  49              		@ frame_needed = 0, uses_anonymous_args = 0
  50              		@ link register save eliminated.
  51              	.LVL1:
  52 0000 F0B4     		push	{r4, r5, r6, r7}
  53              		.cfi_def_cfa_offset 16
  54              		.cfi_offset 4, -16
  55              		.cfi_offset 5, -12
ARM GAS  C:\Users\Ian\AppData\Local\Temp\cceRKtdE.s 			page 5


  56              		.cfi_offset 6, -8
  57              		.cfi_offset 7, -4
  58              	.LVL2:
 174:.\Generated_Source\PSoC5/cyfitter_cfg.c **** 	/* For 32-bit little-endian architectures */
 175:.\Generated_Source\PSoC5/cyfitter_cfg.c **** 	uint32 i, j = 0u;
  59              		.loc 1 175 0
  60 0002 0022     		movs	r2, #0
 176:.\Generated_Source\PSoC5/cyfitter_cfg.c **** 	for (i = 0u; i < CY_CFG_BASE_ADDR_COUNT; i++)
  61              		.loc 1 176 0
  62 0004 1746     		mov	r7, r2
  63 0006 11E0     		b	.L4
  64              	.LVL3:
  65              	.L7:
  66              	.LBB2:
 177:.\Generated_Source\PSoC5/cyfitter_cfg.c **** 	{
 178:.\Generated_Source\PSoC5/cyfitter_cfg.c **** 		uint32 baseAddr = addr_table[i];
  67              		.loc 1 178 0
  68 0008 50F82760 		ldr	r6, [r0, r7, lsl #2]
  69              	.LVL4:
 179:.\Generated_Source\PSoC5/cyfitter_cfg.c **** 		uint8 count = (uint8)baseAddr;
  70              		.loc 1 179 0
  71 000c F3B2     		uxtb	r3, r6
  72              	.LVL5:
 180:.\Generated_Source\PSoC5/cyfitter_cfg.c **** 		baseAddr &= 0xFFFFFF00u;
  73              		.loc 1 180 0
  74 000e 26F0FF06 		bic	r6, r6, #255
  75              	.LVL6:
 181:.\Generated_Source\PSoC5/cyfitter_cfg.c **** 		while (count != 0u)
  76              		.loc 1 181 0
  77 0012 08E0     		b	.L5
  78              	.L6:
 182:.\Generated_Source\PSoC5/cyfitter_cfg.c **** 		{
 183:.\Generated_Source\PSoC5/cyfitter_cfg.c **** 			CY_SET_XTND_REG8((void CYFAR *)(baseAddr + data_table[j].offset), data_table[j].value);
  79              		.loc 1 183 0
  80 0014 01EB4205 		add	r5, r1, r2, lsl #1
  81 0018 11F81240 		ldrb	r4, [r1, r2, lsl #1]	@ zero_extendqisi2
  82 001c 6D78     		ldrb	r5, [r5, #1]	@ zero_extendqisi2
  83 001e A555     		strb	r5, [r4, r6]
 184:.\Generated_Source\PSoC5/cyfitter_cfg.c **** 			j++;
  84              		.loc 1 184 0
  85 0020 0132     		adds	r2, r2, #1
  86              	.LVL7:
 185:.\Generated_Source\PSoC5/cyfitter_cfg.c **** 			count--;
  87              		.loc 1 185 0
  88 0022 013B     		subs	r3, r3, #1
  89              	.LVL8:
  90 0024 DBB2     		uxtb	r3, r3
  91              	.LVL9:
  92              	.L5:
 181:.\Generated_Source\PSoC5/cyfitter_cfg.c **** 		{
  93              		.loc 1 181 0
  94 0026 002B     		cmp	r3, #0
  95 0028 F4D1     		bne	.L6
  96              	.LBE2:
 176:.\Generated_Source\PSoC5/cyfitter_cfg.c **** 	{
  97              		.loc 1 176 0 discriminator 2
  98 002a 0137     		adds	r7, r7, #1
ARM GAS  C:\Users\Ian\AppData\Local\Temp\cceRKtdE.s 			page 6


  99              	.LVL10:
 100              	.L4:
 176:.\Generated_Source\PSoC5/cyfitter_cfg.c **** 	{
 101              		.loc 1 176 0 is_stmt 0 discriminator 1
 102 002c 1B2F     		cmp	r7, #27
 103 002e EBD9     		bls	.L7
 186:.\Generated_Source\PSoC5/cyfitter_cfg.c **** 		}
 187:.\Generated_Source\PSoC5/cyfitter_cfg.c **** 	}
 188:.\Generated_Source\PSoC5/cyfitter_cfg.c **** }
 104              		.loc 1 188 0 is_stmt 1
 105 0030 F0BC     		pop	{r4, r5, r6, r7}
 106              		.cfi_restore 7
 107              		.cfi_restore 6
 108              		.cfi_restore 5
 109              		.cfi_restore 4
 110              		.cfi_def_cfa_offset 0
 111              	.LVL11:
 112 0032 7047     		bx	lr
 113              		.cfi_endproc
 114              	.LFE4:
 115              		.size	cfg_write_bytes32, .-cfg_write_bytes32
 116              		.section	.text.AnalogSetDefault,"ax",%progbits
 117              		.align	2
 118              		.thumb
 119              		.thumb_func
 120              		.type	AnalogSetDefault, %function
 121              	AnalogSetDefault:
 122              	.LFB6:
 189:.\Generated_Source\PSoC5/cyfitter_cfg.c **** 
 190:.\Generated_Source\PSoC5/cyfitter_cfg.c **** /*******************************************************************************
 191:.\Generated_Source\PSoC5/cyfitter_cfg.c **** * Function Name: ClockSetup
 192:.\Generated_Source\PSoC5/cyfitter_cfg.c **** ********************************************************************************
 193:.\Generated_Source\PSoC5/cyfitter_cfg.c **** *
 194:.\Generated_Source\PSoC5/cyfitter_cfg.c **** * Summary:
 195:.\Generated_Source\PSoC5/cyfitter_cfg.c **** *  Performs the initialization of all of the clocks in the device based on the
 196:.\Generated_Source\PSoC5/cyfitter_cfg.c **** *  settings in the Clock tab of the DWR.  This includes enabling the requested
 197:.\Generated_Source\PSoC5/cyfitter_cfg.c **** *  clocks and setting the necessary dividers to produce the desired frequency. 
 198:.\Generated_Source\PSoC5/cyfitter_cfg.c **** *
 199:.\Generated_Source\PSoC5/cyfitter_cfg.c **** * Parameters:
 200:.\Generated_Source\PSoC5/cyfitter_cfg.c **** *  void
 201:.\Generated_Source\PSoC5/cyfitter_cfg.c **** *
 202:.\Generated_Source\PSoC5/cyfitter_cfg.c **** * Return:
 203:.\Generated_Source\PSoC5/cyfitter_cfg.c **** *  void
 204:.\Generated_Source\PSoC5/cyfitter_cfg.c **** *
 205:.\Generated_Source\PSoC5/cyfitter_cfg.c **** *******************************************************************************/
 206:.\Generated_Source\PSoC5/cyfitter_cfg.c **** static void ClockSetup(void);
 207:.\Generated_Source\PSoC5/cyfitter_cfg.c **** static void ClockSetup(void)
 208:.\Generated_Source\PSoC5/cyfitter_cfg.c **** {
 209:.\Generated_Source\PSoC5/cyfitter_cfg.c **** 	uint32 timeout;
 210:.\Generated_Source\PSoC5/cyfitter_cfg.c **** 	uint8 pllLock;
 211:.\Generated_Source\PSoC5/cyfitter_cfg.c **** 
 212:.\Generated_Source\PSoC5/cyfitter_cfg.c **** 
 213:.\Generated_Source\PSoC5/cyfitter_cfg.c **** 	/* Configure Digital Clocks based on settings from Clock DWR */
 214:.\Generated_Source\PSoC5/cyfitter_cfg.c **** 	CY_SET_XTND_REG16((void CYFAR *)(CYREG_CLKDIST_DCFG0_CFG0), 0x0000u);
 215:.\Generated_Source\PSoC5/cyfitter_cfg.c **** 	CY_SET_XTND_REG8((void CYFAR *)(CYREG_CLKDIST_DCFG0_CFG0 + 0x2u), 0x50u);
 216:.\Generated_Source\PSoC5/cyfitter_cfg.c **** 	CY_SET_XTND_REG16((void CYFAR *)(CYREG_CLKDIST_DCFG1_CFG0), 0x0007u);
 217:.\Generated_Source\PSoC5/cyfitter_cfg.c **** 	CY_SET_XTND_REG8((void CYFAR *)(CYREG_CLKDIST_DCFG1_CFG0 + 0x2u), 0x19u);
ARM GAS  C:\Users\Ian\AppData\Local\Temp\cceRKtdE.s 			page 7


 218:.\Generated_Source\PSoC5/cyfitter_cfg.c **** 	CY_SET_XTND_REG16((void CYFAR *)(CYREG_CLKDIST_DCFG2_CFG0), 0x0019u);
 219:.\Generated_Source\PSoC5/cyfitter_cfg.c **** 	CY_SET_XTND_REG8((void CYFAR *)(CYREG_CLKDIST_DCFG2_CFG0 + 0x2u), 0x19u);
 220:.\Generated_Source\PSoC5/cyfitter_cfg.c **** 	CY_SET_XTND_REG16((void CYFAR *)(CYREG_CLKDIST_DCFG3_CFG0), 0x01F3u);
 221:.\Generated_Source\PSoC5/cyfitter_cfg.c **** 	CY_SET_XTND_REG8((void CYFAR *)(CYREG_CLKDIST_DCFG3_CFG0 + 0x2u), 0x19u);
 222:.\Generated_Source\PSoC5/cyfitter_cfg.c **** 
 223:.\Generated_Source\PSoC5/cyfitter_cfg.c **** 	/* Configure Analog Clocks based on settings from Clock DWR */
 224:.\Generated_Source\PSoC5/cyfitter_cfg.c **** 	CYCONFIGCPY((void CYFAR *)(CYREG_CLKDIST_ACFG0_CFG0), (const void CYFAR *)(BS_CYDEV_CLKDIST_ACFG0_
 225:.\Generated_Source\PSoC5/cyfitter_cfg.c **** 
 226:.\Generated_Source\PSoC5/cyfitter_cfg.c **** 	/* Configure ILO based on settings from Clock DWR */
 227:.\Generated_Source\PSoC5/cyfitter_cfg.c **** 	CY_SET_XTND_REG8((void CYFAR *)(CYREG_SLOWCLK_ILO_CR0), 0x06u);
 228:.\Generated_Source\PSoC5/cyfitter_cfg.c **** 
 229:.\Generated_Source\PSoC5/cyfitter_cfg.c **** 	/* Configure IMO based on settings from Clock DWR */
 230:.\Generated_Source\PSoC5/cyfitter_cfg.c **** 	CY_SET_XTND_REG8((void CYFAR *)(CYREG_FASTCLK_IMO_CR), 0x52u);
 231:.\Generated_Source\PSoC5/cyfitter_cfg.c **** 	CY_SET_XTND_REG8((void CYFAR *)(CYREG_IMO_TR1), (CY_GET_XTND_REG8((void CYFAR *)CYREG_FLSHID_CUST_
 232:.\Generated_Source\PSoC5/cyfitter_cfg.c **** 
 233:.\Generated_Source\PSoC5/cyfitter_cfg.c **** 	/* Configure PLL based on settings from Clock DWR */
 234:.\Generated_Source\PSoC5/cyfitter_cfg.c **** 	CY_SET_XTND_REG16((void CYFAR *)(CYREG_FASTCLK_PLL_P), 0x0708u);
 235:.\Generated_Source\PSoC5/cyfitter_cfg.c **** 	CY_SET_XTND_REG16((void CYFAR *)(CYREG_FASTCLK_PLL_CFG0), 0x1251u);
 236:.\Generated_Source\PSoC5/cyfitter_cfg.c **** 	/* Wait up to 250us for the PLL to lock */
 237:.\Generated_Source\PSoC5/cyfitter_cfg.c **** 	pllLock = 0u;
 238:.\Generated_Source\PSoC5/cyfitter_cfg.c **** 	for (timeout = 250u / 10u; (timeout > 0u) && (pllLock != 0x03u); timeout--)
 239:.\Generated_Source\PSoC5/cyfitter_cfg.c **** 	{ 
 240:.\Generated_Source\PSoC5/cyfitter_cfg.c **** 		pllLock = 0x03u & ((uint8)((uint8)pllLock << 1) | ((CY_GET_XTND_REG8((void CYFAR *)CYREG_FASTCLK_
 241:.\Generated_Source\PSoC5/cyfitter_cfg.c **** 		CyDelayCycles(10u * 48u); /* Delay 10us based on 48MHz clock */
 242:.\Generated_Source\PSoC5/cyfitter_cfg.c **** 	}
 243:.\Generated_Source\PSoC5/cyfitter_cfg.c **** 	/* If we ran out of time the PLL didn't lock so go to the error function */
 244:.\Generated_Source\PSoC5/cyfitter_cfg.c **** 	if (timeout == 0u)
 245:.\Generated_Source\PSoC5/cyfitter_cfg.c **** 	{
 246:.\Generated_Source\PSoC5/cyfitter_cfg.c **** 		CyClockStartupError(CYCLOCKSTART_PLL_ERROR);
 247:.\Generated_Source\PSoC5/cyfitter_cfg.c **** 	}
 248:.\Generated_Source\PSoC5/cyfitter_cfg.c **** 
 249:.\Generated_Source\PSoC5/cyfitter_cfg.c **** 	/* Configure Bus/Master Clock based on settings from Clock DWR */
 250:.\Generated_Source\PSoC5/cyfitter_cfg.c **** 	CY_SET_XTND_REG16((void CYFAR *)(CYREG_CLKDIST_MSTR0), 0x0100u);
 251:.\Generated_Source\PSoC5/cyfitter_cfg.c **** 	CY_SET_XTND_REG8((void CYFAR *)(CYREG_CLKDIST_MSTR0), 0x07u);
 252:.\Generated_Source\PSoC5/cyfitter_cfg.c **** 	CY_SET_XTND_REG8((void CYFAR *)(CYREG_CLKDIST_BCFG0), 0x00u);
 253:.\Generated_Source\PSoC5/cyfitter_cfg.c **** 	CY_SET_XTND_REG8((void CYFAR *)(CYREG_CLKDIST_BCFG2), 0x48u);
 254:.\Generated_Source\PSoC5/cyfitter_cfg.c **** 	CY_SET_XTND_REG8((void CYFAR *)(CYREG_CLKDIST_MSTR0), 0x00u);
 255:.\Generated_Source\PSoC5/cyfitter_cfg.c **** 
 256:.\Generated_Source\PSoC5/cyfitter_cfg.c **** 	/* Configure USB Clock based on settings from Clock DWR */
 257:.\Generated_Source\PSoC5/cyfitter_cfg.c **** 	CY_SET_XTND_REG8((void CYFAR *)(CYREG_CLKDIST_UCFG), 0x00u);
 258:.\Generated_Source\PSoC5/cyfitter_cfg.c **** 	CY_SET_XTND_REG8((void CYFAR *)(CYREG_CLKDIST_LD), 0x02u);
 259:.\Generated_Source\PSoC5/cyfitter_cfg.c **** 	CY_SET_XTND_REG8((void CYFAR *)(CYREG_CLKDIST_DLY1), 0x04u);
 260:.\Generated_Source\PSoC5/cyfitter_cfg.c **** 
 261:.\Generated_Source\PSoC5/cyfitter_cfg.c **** 	CY_SET_XTND_REG8((void CYFAR *)(CYREG_PM_ACT_CFG2), ((CY_GET_XTND_REG8((void CYFAR *)CYREG_PM_ACT_
 262:.\Generated_Source\PSoC5/cyfitter_cfg.c **** 	CY_SET_XTND_REG8((void CYFAR *)(CYREG_PM_ACT_CFG1), ((CY_GET_XTND_REG8((void CYFAR *)CYREG_PM_ACT_
 263:.\Generated_Source\PSoC5/cyfitter_cfg.c **** 	CY_SET_XTND_REG8((void CYFAR *)(CYREG_PM_ACT_CFG0), ((CY_GET_XTND_REG8((void CYFAR *)CYREG_PM_ACT_
 264:.\Generated_Source\PSoC5/cyfitter_cfg.c **** }
 265:.\Generated_Source\PSoC5/cyfitter_cfg.c **** 
 266:.\Generated_Source\PSoC5/cyfitter_cfg.c **** 
 267:.\Generated_Source\PSoC5/cyfitter_cfg.c **** /* Analog API Functions */
 268:.\Generated_Source\PSoC5/cyfitter_cfg.c **** 
 269:.\Generated_Source\PSoC5/cyfitter_cfg.c **** 
 270:.\Generated_Source\PSoC5/cyfitter_cfg.c **** /*******************************************************************************
 271:.\Generated_Source\PSoC5/cyfitter_cfg.c **** * Function Name: AnalogSetDefault
 272:.\Generated_Source\PSoC5/cyfitter_cfg.c **** ********************************************************************************
 273:.\Generated_Source\PSoC5/cyfitter_cfg.c **** *
 274:.\Generated_Source\PSoC5/cyfitter_cfg.c **** * Summary:
ARM GAS  C:\Users\Ian\AppData\Local\Temp\cceRKtdE.s 			page 8


 275:.\Generated_Source\PSoC5/cyfitter_cfg.c **** *  Sets up the analog portions of the chip to default values based on chip
 276:.\Generated_Source\PSoC5/cyfitter_cfg.c **** *  configuration options from the project.
 277:.\Generated_Source\PSoC5/cyfitter_cfg.c **** *
 278:.\Generated_Source\PSoC5/cyfitter_cfg.c **** * Parameters:
 279:.\Generated_Source\PSoC5/cyfitter_cfg.c **** *  void
 280:.\Generated_Source\PSoC5/cyfitter_cfg.c **** *
 281:.\Generated_Source\PSoC5/cyfitter_cfg.c **** * Return:
 282:.\Generated_Source\PSoC5/cyfitter_cfg.c **** *  void
 283:.\Generated_Source\PSoC5/cyfitter_cfg.c **** *
 284:.\Generated_Source\PSoC5/cyfitter_cfg.c **** *******************************************************************************/
 285:.\Generated_Source\PSoC5/cyfitter_cfg.c **** static void AnalogSetDefault(void);
 286:.\Generated_Source\PSoC5/cyfitter_cfg.c **** static void AnalogSetDefault(void)
 287:.\Generated_Source\PSoC5/cyfitter_cfg.c **** {
 123              		.loc 1 287 0
 124              		.cfi_startproc
 125              		@ args = 0, pretend = 0, frame = 0
 126              		@ frame_needed = 0, uses_anonymous_args = 0
 127              		@ link register save eliminated.
 288:.\Generated_Source\PSoC5/cyfitter_cfg.c **** 	uint8 bg_xover_inl_trim = CY_GET_XTND_REG8((void CYFAR *)(CYREG_FLSHID_MFG_CFG_BG_XOVER_INL_TRIM +
 128              		.loc 1 288 0
 129 0000 0D4B     		ldr	r3, .L10
 130 0002 1B78     		ldrb	r3, [r3]	@ zero_extendqisi2
 131 0004 DBB2     		uxtb	r3, r3
 132              	.LVL12:
 289:.\Generated_Source\PSoC5/cyfitter_cfg.c **** 	CY_SET_XTND_REG8((void CYFAR *)(CYREG_BG_DFT0), (bg_xover_inl_trim & 0x07u));
 133              		.loc 1 289 0
 134 0006 03F00701 		and	r1, r3, #7
 135 000a 0C4A     		ldr	r2, .L10+4
 136 000c 1170     		strb	r1, [r2]
 290:.\Generated_Source\PSoC5/cyfitter_cfg.c **** 	CY_SET_XTND_REG8((void CYFAR *)(CYREG_BG_DFT1), ((bg_xover_inl_trim >> 4) & 0x0Fu));
 137              		.loc 1 290 0
 138 000e 1B09     		lsrs	r3, r3, #4
 139              	.LVL13:
 140 0010 0132     		adds	r2, r2, #1
 141 0012 1370     		strb	r3, [r2]
 291:.\Generated_Source\PSoC5/cyfitter_cfg.c **** 	CY_SET_XTND_REG8((void CYFAR *)CYREG_PRT1_AMUX, 0x40u);
 142              		.loc 1 291 0
 143 0014 4022     		movs	r2, #64
 144 0016 0A4B     		ldr	r3, .L10+8
 145 0018 1A70     		strb	r2, [r3]
 292:.\Generated_Source\PSoC5/cyfitter_cfg.c **** 	CY_SET_XTND_REG8((void CYFAR *)CYREG_DAC2_SW0, 0x20u);
 146              		.loc 1 292 0
 147 001a 2022     		movs	r2, #32
 148 001c 03F67413 		addw	r3, r3, #2420
 149 0020 1A70     		strb	r2, [r3]
 293:.\Generated_Source\PSoC5/cyfitter_cfg.c **** 	CY_SET_XTND_REG8((void CYFAR *)CYREG_DAC2_SW3, 0x01u);
 150              		.loc 1 293 0
 151 0022 0123     		movs	r3, #1
 152 0024 0749     		ldr	r1, .L10+12
 153 0026 0B70     		strb	r3, [r1]
 294:.\Generated_Source\PSoC5/cyfitter_cfg.c **** 	CY_SET_XTND_REG8((void CYFAR *)CYREG_DSM0_SW0, 0x20u);
 154              		.loc 1 294 0
 155 0028 6D31     		adds	r1, r1, #109
 156 002a 0A70     		strb	r2, [r1]
 295:.\Generated_Source\PSoC5/cyfitter_cfg.c **** 	CY_SET_XTND_REG8((void CYFAR *)CYREG_BUS_SW3, 0x01u);
 157              		.loc 1 295 0
 158 002c 064A     		ldr	r2, .L10+16
ARM GAS  C:\Users\Ian\AppData\Local\Temp\cceRKtdE.s 			page 9


 159 002e 1370     		strb	r3, [r2]
 296:.\Generated_Source\PSoC5/cyfitter_cfg.c **** 	CY_SET_XTND_REG8((void CYFAR *)CYREG_PUMP_CR0, 0x44u);
 160              		.loc 1 296 0
 161 0030 4422     		movs	r2, #68
 162 0032 064B     		ldr	r3, .L10+20
 163 0034 1A70     		strb	r2, [r3]
 164 0036 7047     		bx	lr
 165              	.L11:
 166              		.align	2
 167              	.L10:
 168 0038 CF010049 		.word	1224737231
 169 003c 6E580040 		.word	1073764462
 170 0040 1C510040 		.word	1073762588
 171 0044 935A0040 		.word	1073765011
 172 0048 5B5B0040 		.word	1073765211
 173 004c 76580040 		.word	1073764470
 174              		.cfi_endproc
 175              	.LFE6:
 176              		.size	AnalogSetDefault, .-AnalogSetDefault
 177              		.section	.text.CYMEMZERO,"ax",%progbits
 178              		.align	2
 179              		.thumb
 180              		.thumb_func
 181              		.type	CYMEMZERO, %function
 182              	CYMEMZERO:
 183              	.LFB0:
  61:.\Generated_Source\PSoC5/cyfitter_cfg.c **** 	(void)memset(s, 0, n);
 184              		.loc 1 61 0
 185              		.cfi_startproc
 186              		@ args = 0, pretend = 0, frame = 0
 187              		@ frame_needed = 0, uses_anonymous_args = 0
 188              	.LVL14:
 189 0000 08B5     		push	{r3, lr}
 190              		.cfi_def_cfa_offset 8
 191              		.cfi_offset 3, -8
 192              		.cfi_offset 14, -4
 193 0002 0A46     		mov	r2, r1
  62:.\Generated_Source\PSoC5/cyfitter_cfg.c **** }
 194              		.loc 1 62 0
 195 0004 0021     		movs	r1, #0
 196              	.LVL15:
 197 0006 FFF7FEFF 		bl	memset
 198              	.LVL16:
 199 000a 08BD     		pop	{r3, pc}
 200              		.cfi_endproc
 201              	.LFE0:
 202              		.size	CYMEMZERO, .-CYMEMZERO
 203              		.section	.text.CYCONFIGCPY,"ax",%progbits
 204              		.align	2
 205              		.thumb
 206              		.thumb_func
 207              		.type	CYCONFIGCPY, %function
 208              	CYCONFIGCPY:
 209              	.LFB1:
  68:.\Generated_Source\PSoC5/cyfitter_cfg.c **** 	(void)memcpy(dest, src, n);
 210              		.loc 1 68 0
 211              		.cfi_startproc
ARM GAS  C:\Users\Ian\AppData\Local\Temp\cceRKtdE.s 			page 10


 212              		@ args = 0, pretend = 0, frame = 0
 213              		@ frame_needed = 0, uses_anonymous_args = 0
 214              	.LVL17:
 215 0000 08B5     		push	{r3, lr}
 216              		.cfi_def_cfa_offset 8
 217              		.cfi_offset 3, -8
 218              		.cfi_offset 14, -4
  69:.\Generated_Source\PSoC5/cyfitter_cfg.c **** }
 219              		.loc 1 69 0
 220 0002 FFF7FEFF 		bl	memcpy
 221              	.LVL18:
 222 0006 08BD     		pop	{r3, pc}
 223              		.cfi_endproc
 224              	.LFE1:
 225              		.size	CYCONFIGCPY, .-CYCONFIGCPY
 226              		.section	.text.ClockSetup,"ax",%progbits
 227              		.align	2
 228              		.thumb
 229              		.thumb_func
 230              		.type	ClockSetup, %function
 231              	ClockSetup:
 232              	.LFB5:
 208:.\Generated_Source\PSoC5/cyfitter_cfg.c **** 	uint32 timeout;
 233              		.loc 1 208 0
 234              		.cfi_startproc
 235              		@ args = 0, pretend = 0, frame = 0
 236              		@ frame_needed = 0, uses_anonymous_args = 0
 237 0000 38B5     		push	{r3, r4, r5, lr}
 238              		.cfi_def_cfa_offset 16
 239              		.cfi_offset 3, -16
 240              		.cfi_offset 4, -12
 241              		.cfi_offset 5, -8
 242              		.cfi_offset 14, -4
 214:.\Generated_Source\PSoC5/cyfitter_cfg.c **** 	CY_SET_XTND_REG8((void CYFAR *)(CYREG_CLKDIST_DCFG0_CFG0 + 0x2u), 0x50u);
 243              		.loc 1 214 0
 244 0002 0024     		movs	r4, #0
 245 0004 334B     		ldr	r3, .L22
 246 0006 1C80     		strh	r4, [r3]	@ movhi
 215:.\Generated_Source\PSoC5/cyfitter_cfg.c **** 	CY_SET_XTND_REG16((void CYFAR *)(CYREG_CLKDIST_DCFG1_CFG0), 0x0007u);
 247              		.loc 1 215 0
 248 0008 5022     		movs	r2, #80
 249 000a 0233     		adds	r3, r3, #2
 250 000c 1A70     		strb	r2, [r3]
 216:.\Generated_Source\PSoC5/cyfitter_cfg.c **** 	CY_SET_XTND_REG8((void CYFAR *)(CYREG_CLKDIST_DCFG1_CFG0 + 0x2u), 0x19u);
 251              		.loc 1 216 0
 252 000e 0722     		movs	r2, #7
 253 0010 0233     		adds	r3, r3, #2
 254 0012 1A80     		strh	r2, [r3]	@ movhi
 217:.\Generated_Source\PSoC5/cyfitter_cfg.c **** 	CY_SET_XTND_REG16((void CYFAR *)(CYREG_CLKDIST_DCFG2_CFG0), 0x0019u);
 255              		.loc 1 217 0
 256 0014 1925     		movs	r5, #25
 257 0016 0233     		adds	r3, r3, #2
 258 0018 1D70     		strb	r5, [r3]
 218:.\Generated_Source\PSoC5/cyfitter_cfg.c **** 	CY_SET_XTND_REG8((void CYFAR *)(CYREG_CLKDIST_DCFG2_CFG0 + 0x2u), 0x19u);
 259              		.loc 1 218 0
 260 001a 0233     		adds	r3, r3, #2
 261 001c 1D80     		strh	r5, [r3]	@ movhi
ARM GAS  C:\Users\Ian\AppData\Local\Temp\cceRKtdE.s 			page 11


 219:.\Generated_Source\PSoC5/cyfitter_cfg.c **** 	CY_SET_XTND_REG16((void CYFAR *)(CYREG_CLKDIST_DCFG3_CFG0), 0x01F3u);
 262              		.loc 1 219 0
 263 001e 0233     		adds	r3, r3, #2
 264 0020 1D70     		strb	r5, [r3]
 220:.\Generated_Source\PSoC5/cyfitter_cfg.c **** 	CY_SET_XTND_REG8((void CYFAR *)(CYREG_CLKDIST_DCFG3_CFG0 + 0x2u), 0x19u);
 265              		.loc 1 220 0
 266 0022 40F2F312 		movw	r2, #499
 267 0026 0233     		adds	r3, r3, #2
 268 0028 1A80     		strh	r2, [r3]	@ movhi
 221:.\Generated_Source\PSoC5/cyfitter_cfg.c **** 
 269              		.loc 1 221 0
 270 002a 0233     		adds	r3, r3, #2
 271 002c 1D70     		strb	r5, [r3]
 224:.\Generated_Source\PSoC5/cyfitter_cfg.c **** 
 272              		.loc 1 224 0
 273 002e 2A48     		ldr	r0, .L22+4
 274 0030 2A49     		ldr	r1, .L22+8
 275 0032 0422     		movs	r2, #4
 276 0034 FFF7FEFF 		bl	CYCONFIGCPY
 277              	.LVL19:
 227:.\Generated_Source\PSoC5/cyfitter_cfg.c **** 
 278              		.loc 1 227 0
 279 0038 0622     		movs	r2, #6
 280 003a 294B     		ldr	r3, .L22+12
 281 003c 1A70     		strb	r2, [r3]
 230:.\Generated_Source\PSoC5/cyfitter_cfg.c **** 	CY_SET_XTND_REG8((void CYFAR *)(CYREG_IMO_TR1), (CY_GET_XTND_REG8((void CYFAR *)CYREG_FLSHID_CUST_
 282              		.loc 1 230 0
 283 003e 5222     		movs	r2, #82
 284 0040 A3F58073 		sub	r3, r3, #256
 285 0044 1A70     		strb	r2, [r3]
 231:.\Generated_Source\PSoC5/cyfitter_cfg.c **** 
 286              		.loc 1 231 0
 287 0046 274B     		ldr	r3, .L22+16
 288 0048 1B78     		ldrb	r3, [r3]	@ zero_extendqisi2
 289 004a DBB2     		uxtb	r3, r3
 290 004c 264A     		ldr	r2, .L22+20
 291 004e 1370     		strb	r3, [r2]
 234:.\Generated_Source\PSoC5/cyfitter_cfg.c **** 	CY_SET_XTND_REG16((void CYFAR *)(CYREG_FASTCLK_PLL_CFG0), 0x1251u);
 292              		.loc 1 234 0
 293 0050 4FF4E162 		mov	r2, #1800
 294 0054 254B     		ldr	r3, .L22+24
 295 0056 1A80     		strh	r2, [r3]	@ movhi
 235:.\Generated_Source\PSoC5/cyfitter_cfg.c **** 	/* Wait up to 250us for the PLL to lock */
 296              		.loc 1 235 0
 297 0058 41F25122 		movw	r2, #4689
 298 005c 023B     		subs	r3, r3, #2
 299 005e 1A80     		strh	r2, [r3]	@ movhi
 300              	.LVL20:
 238:.\Generated_Source\PSoC5/cyfitter_cfg.c **** 	{ 
 301              		.loc 1 238 0
 302 0060 0CE0     		b	.L17
 303              	.LVL21:
 304              	.L19:
 240:.\Generated_Source\PSoC5/cyfitter_cfg.c **** 		CyDelayCycles(10u * 48u); /* Delay 10us based on 48MHz clock */
 305              		.loc 1 240 0 discriminator 4
 306 0062 234B     		ldr	r3, .L22+28
 307 0064 1B78     		ldrb	r3, [r3]	@ zero_extendqisi2
ARM GAS  C:\Users\Ian\AppData\Local\Temp\cceRKtdE.s 			page 12


 308 0066 03F00103 		and	r3, r3, #1
 309 006a 43EA4404 		orr	r4, r3, r4, lsl #1
 310              	.LVL22:
 311 006e 04F00304 		and	r4, r4, #3
 312              	.LVL23:
 241:.\Generated_Source\PSoC5/cyfitter_cfg.c **** 	}
 313              		.loc 1 241 0 discriminator 4
 314 0072 4FF4F070 		mov	r0, #480
 315 0076 FFF7FEFF 		bl	CyDelayCycles
 316              	.LVL24:
 238:.\Generated_Source\PSoC5/cyfitter_cfg.c **** 	{ 
 317              		.loc 1 238 0 discriminator 4
 318 007a 013D     		subs	r5, r5, #1
 319              	.LVL25:
 320              	.L17:
 238:.\Generated_Source\PSoC5/cyfitter_cfg.c **** 	{ 
 321              		.loc 1 238 0 is_stmt 0 discriminator 1
 322 007c 0DB1     		cbz	r5, .L18
 238:.\Generated_Source\PSoC5/cyfitter_cfg.c **** 	{ 
 323              		.loc 1 238 0 discriminator 3
 324 007e 032C     		cmp	r4, #3
 325 0080 EFD1     		bne	.L19
 326              	.L18:
 244:.\Generated_Source\PSoC5/cyfitter_cfg.c **** 	{
 327              		.loc 1 244 0 is_stmt 1
 328 0082 15B9     		cbnz	r5, .L20
 246:.\Generated_Source\PSoC5/cyfitter_cfg.c **** 	}
 329              		.loc 1 246 0
 330 0084 0320     		movs	r0, #3
 331 0086 FFF7FEFF 		bl	CyClockStartupError
 332              	.LVL26:
 333              	.L20:
 250:.\Generated_Source\PSoC5/cyfitter_cfg.c **** 	CY_SET_XTND_REG8((void CYFAR *)(CYREG_CLKDIST_MSTR0), 0x07u);
 334              		.loc 1 250 0
 335 008a 1A4A     		ldr	r2, .L22+32
 336 008c 4FF48073 		mov	r3, #256
 337 0090 1380     		strh	r3, [r2]	@ movhi
 251:.\Generated_Source\PSoC5/cyfitter_cfg.c **** 	CY_SET_XTND_REG8((void CYFAR *)(CYREG_CLKDIST_BCFG0), 0x00u);
 338              		.loc 1 251 0
 339 0092 0723     		movs	r3, #7
 340 0094 1370     		strb	r3, [r2]
 252:.\Generated_Source\PSoC5/cyfitter_cfg.c **** 	CY_SET_XTND_REG8((void CYFAR *)(CYREG_CLKDIST_BCFG2), 0x48u);
 341              		.loc 1 252 0
 342 0096 0023     		movs	r3, #0
 343 0098 1749     		ldr	r1, .L22+36
 344 009a 0B70     		strb	r3, [r1]
 253:.\Generated_Source\PSoC5/cyfitter_cfg.c **** 	CY_SET_XTND_REG8((void CYFAR *)(CYREG_CLKDIST_MSTR0), 0x00u);
 345              		.loc 1 253 0
 346 009c 4820     		movs	r0, #72
 347 009e 0231     		adds	r1, r1, #2
 348 00a0 0870     		strb	r0, [r1]
 254:.\Generated_Source\PSoC5/cyfitter_cfg.c **** 
 349              		.loc 1 254 0
 350 00a2 1370     		strb	r3, [r2]
 257:.\Generated_Source\PSoC5/cyfitter_cfg.c **** 	CY_SET_XTND_REG8((void CYFAR *)(CYREG_CLKDIST_LD), 0x02u);
 351              		.loc 1 257 0
 352 00a4 0532     		adds	r2, r2, #5
ARM GAS  C:\Users\Ian\AppData\Local\Temp\cceRKtdE.s 			page 13


 353 00a6 1370     		strb	r3, [r2]
 258:.\Generated_Source\PSoC5/cyfitter_cfg.c **** 	CY_SET_XTND_REG8((void CYFAR *)(CYREG_CLKDIST_DLY1), 0x04u);
 354              		.loc 1 258 0
 355 00a8 0222     		movs	r2, #2
 356 00aa 144B     		ldr	r3, .L22+40
 357 00ac 1A70     		strb	r2, [r3]
 259:.\Generated_Source\PSoC5/cyfitter_cfg.c **** 
 358              		.loc 1 259 0
 359 00ae 0422     		movs	r2, #4
 360 00b0 0A33     		adds	r3, r3, #10
 361 00b2 1A70     		strb	r2, [r3]
 261:.\Generated_Source\PSoC5/cyfitter_cfg.c **** 	CY_SET_XTND_REG8((void CYFAR *)(CYREG_PM_ACT_CFG1), ((CY_GET_XTND_REG8((void CYFAR *)CYREG_PM_ACT_
 362              		.loc 1 261 0
 363 00b4 124A     		ldr	r2, .L22+44
 364 00b6 1378     		ldrb	r3, [r2]	@ zero_extendqisi2
 365 00b8 43F00F03 		orr	r3, r3, #15
 366 00bc 1370     		strb	r3, [r2]
 262:.\Generated_Source\PSoC5/cyfitter_cfg.c **** 	CY_SET_XTND_REG8((void CYFAR *)(CYREG_PM_ACT_CFG0), ((CY_GET_XTND_REG8((void CYFAR *)CYREG_PM_ACT_
 367              		.loc 1 262 0
 368 00be 013A     		subs	r2, r2, #1
 369 00c0 1378     		ldrb	r3, [r2]	@ zero_extendqisi2
 370 00c2 43F00103 		orr	r3, r3, #1
 371 00c6 1370     		strb	r3, [r2]
 263:.\Generated_Source\PSoC5/cyfitter_cfg.c **** }
 372              		.loc 1 263 0
 373 00c8 013A     		subs	r2, r2, #1
 374 00ca 1378     		ldrb	r3, [r2]	@ zero_extendqisi2
 375 00cc 43F08003 		orr	r3, r3, #128
 376 00d0 1370     		strb	r3, [r2]
 377 00d2 38BD     		pop	{r3, r4, r5, pc}
 378              	.LVL27:
 379              	.L23:
 380              		.align	2
 381              	.L22:
 382 00d4 80400040 		.word	1073758336
 383 00d8 00410040 		.word	1073758464
 384 00dc 10050048 		.word	1207960848
 385 00e0 00430040 		.word	1073758976
 386 00e4 0F010049 		.word	1224737039
 387 00e8 A1460040 		.word	1073759905
 388 00ec 22420040 		.word	1073758754
 389 00f0 25420040 		.word	1073758757
 390 00f4 04400040 		.word	1073758212
 391 00f8 06400040 		.word	1073758214
 392 00fc 01400040 		.word	1073758209
 393 0100 A2430040 		.word	1073759138
 394              		.cfi_endproc
 395              	.LFE5:
 396              		.size	ClockSetup, .-ClockSetup
 397              		.section	.text.SetAnalogRoutingPumps,"ax",%progbits
 398              		.align	2
 399              		.global	SetAnalogRoutingPumps
 400              		.thumb
 401              		.thumb_func
 402              		.type	SetAnalogRoutingPumps, %function
 403              	SetAnalogRoutingPumps:
 404              	.LFB7:
ARM GAS  C:\Users\Ian\AppData\Local\Temp\cceRKtdE.s 			page 14


 297:.\Generated_Source\PSoC5/cyfitter_cfg.c **** }
 298:.\Generated_Source\PSoC5/cyfitter_cfg.c **** 
 299:.\Generated_Source\PSoC5/cyfitter_cfg.c **** 
 300:.\Generated_Source\PSoC5/cyfitter_cfg.c **** /*******************************************************************************
 301:.\Generated_Source\PSoC5/cyfitter_cfg.c **** * Function Name: SetAnalogRoutingPumps
 302:.\Generated_Source\PSoC5/cyfitter_cfg.c **** ********************************************************************************
 303:.\Generated_Source\PSoC5/cyfitter_cfg.c **** *
 304:.\Generated_Source\PSoC5/cyfitter_cfg.c **** * Summary:
 305:.\Generated_Source\PSoC5/cyfitter_cfg.c **** * Enables or disables the analog pumps feeding analog routing switches.
 306:.\Generated_Source\PSoC5/cyfitter_cfg.c **** * Intended to be called at startup, based on the Vdda system configuration;
 307:.\Generated_Source\PSoC5/cyfitter_cfg.c **** * may be called during operation when the user informs us that the Vdda voltage
 308:.\Generated_Source\PSoC5/cyfitter_cfg.c **** * crossed the pump threshold.
 309:.\Generated_Source\PSoC5/cyfitter_cfg.c **** *
 310:.\Generated_Source\PSoC5/cyfitter_cfg.c **** * Parameters:
 311:.\Generated_Source\PSoC5/cyfitter_cfg.c **** *  enabled - 1 to enable the pumps, 0 to disable the pumps
 312:.\Generated_Source\PSoC5/cyfitter_cfg.c **** *
 313:.\Generated_Source\PSoC5/cyfitter_cfg.c **** * Return:
 314:.\Generated_Source\PSoC5/cyfitter_cfg.c **** *  void
 315:.\Generated_Source\PSoC5/cyfitter_cfg.c **** *
 316:.\Generated_Source\PSoC5/cyfitter_cfg.c **** *******************************************************************************/
 317:.\Generated_Source\PSoC5/cyfitter_cfg.c **** void SetAnalogRoutingPumps(uint8 enabled)
 318:.\Generated_Source\PSoC5/cyfitter_cfg.c **** {
 405              		.loc 1 318 0
 406              		.cfi_startproc
 407              		@ args = 0, pretend = 0, frame = 0
 408              		@ frame_needed = 0, uses_anonymous_args = 0
 409              		@ link register save eliminated.
 410              	.LVL28:
 319:.\Generated_Source\PSoC5/cyfitter_cfg.c **** 	uint8 regValue = CY_GET_XTND_REG8((void CYFAR *)CYREG_PUMP_CR0);
 411              		.loc 1 319 0
 412 0000 054B     		ldr	r3, .L27
 413 0002 1B78     		ldrb	r3, [r3]	@ zero_extendqisi2
 414 0004 DBB2     		uxtb	r3, r3
 415              	.LVL29:
 320:.\Generated_Source\PSoC5/cyfitter_cfg.c **** 	if (enabled != 0u)
 416              		.loc 1 320 0
 417 0006 10B1     		cbz	r0, .L25
 321:.\Generated_Source\PSoC5/cyfitter_cfg.c **** 	{
 322:.\Generated_Source\PSoC5/cyfitter_cfg.c **** 		regValue |= 0x22u;
 418              		.loc 1 322 0
 419 0008 43F02203 		orr	r3, r3, #34
 420              	.LVL30:
 421 000c 01E0     		b	.L26
 422              	.L25:
 323:.\Generated_Source\PSoC5/cyfitter_cfg.c **** 	}
 324:.\Generated_Source\PSoC5/cyfitter_cfg.c **** 	else
 325:.\Generated_Source\PSoC5/cyfitter_cfg.c **** 	{
 326:.\Generated_Source\PSoC5/cyfitter_cfg.c **** 		regValue &= (uint8)~0x22u;
 423              		.loc 1 326 0
 424 000e 03F0DD03 		and	r3, r3, #221
 425              	.LVL31:
 426              	.L26:
 327:.\Generated_Source\PSoC5/cyfitter_cfg.c **** 	}
 328:.\Generated_Source\PSoC5/cyfitter_cfg.c **** 	CY_SET_XTND_REG8((void CYFAR *)CYREG_PUMP_CR0, regValue);
 427              		.loc 1 328 0
 428 0012 014A     		ldr	r2, .L27
 429 0014 1370     		strb	r3, [r2]
ARM GAS  C:\Users\Ian\AppData\Local\Temp\cceRKtdE.s 			page 15


 430 0016 7047     		bx	lr
 431              	.L28:
 432              		.align	2
 433              	.L27:
 434 0018 76580040 		.word	1073764470
 435              		.cfi_endproc
 436              	.LFE7:
 437              		.size	SetAnalogRoutingPumps, .-SetAnalogRoutingPumps
 438              		.section	.text.ADC_AMux_Set,"ax",%progbits
 439              		.align	2
 440              		.global	ADC_AMux_Set
 441              		.thumb
 442              		.thumb_func
 443              		.type	ADC_AMux_Set, %function
 444              	ADC_AMux_Set:
 445              	.LFB8:
 329:.\Generated_Source\PSoC5/cyfitter_cfg.c **** }
 330:.\Generated_Source\PSoC5/cyfitter_cfg.c **** 
 331:.\Generated_Source\PSoC5/cyfitter_cfg.c **** #define CY_AMUX_UNUSED CYREG_BOOST_SR
 332:.\Generated_Source\PSoC5/cyfitter_cfg.c **** /* This is an implementation detail of the AMux. Code that depends on it may be
 333:.\Generated_Source\PSoC5/cyfitter_cfg.c ****    incompatible with other versions of PSoC Creator. */
 334:.\Generated_Source\PSoC5/cyfitter_cfg.c **** uint8 CYXDATA * const CYCODE ADC_AMux__addrTable[2] = {
 335:.\Generated_Source\PSoC5/cyfitter_cfg.c **** 	(uint8 CYXDATA *)CYREG_DSM0_SW3, 
 336:.\Generated_Source\PSoC5/cyfitter_cfg.c **** 	(uint8 CYXDATA *)CY_AMUX_UNUSED, 
 337:.\Generated_Source\PSoC5/cyfitter_cfg.c **** };
 338:.\Generated_Source\PSoC5/cyfitter_cfg.c **** 
 339:.\Generated_Source\PSoC5/cyfitter_cfg.c **** /* This is an implementation detail of the AMux. Code that depends on it may be
 340:.\Generated_Source\PSoC5/cyfitter_cfg.c ****    incompatible with other versions of PSoC Creator. */
 341:.\Generated_Source\PSoC5/cyfitter_cfg.c **** const uint8 CYCODE ADC_AMux__maskTable[2] = {
 342:.\Generated_Source\PSoC5/cyfitter_cfg.c **** 	0x40u, 
 343:.\Generated_Source\PSoC5/cyfitter_cfg.c **** 	0x00u, 
 344:.\Generated_Source\PSoC5/cyfitter_cfg.c **** };
 345:.\Generated_Source\PSoC5/cyfitter_cfg.c **** 
 346:.\Generated_Source\PSoC5/cyfitter_cfg.c **** /*******************************************************************************
 347:.\Generated_Source\PSoC5/cyfitter_cfg.c **** * Function Name: ADC_AMux_Set
 348:.\Generated_Source\PSoC5/cyfitter_cfg.c **** ********************************************************************************
 349:.\Generated_Source\PSoC5/cyfitter_cfg.c **** * Summary:
 350:.\Generated_Source\PSoC5/cyfitter_cfg.c **** *  This function is used to set a particular channel as active on the AMux.
 351:.\Generated_Source\PSoC5/cyfitter_cfg.c **** *
 352:.\Generated_Source\PSoC5/cyfitter_cfg.c **** * Parameters:  
 353:.\Generated_Source\PSoC5/cyfitter_cfg.c **** *   channel - The mux channel input to set as active
 354:.\Generated_Source\PSoC5/cyfitter_cfg.c **** *
 355:.\Generated_Source\PSoC5/cyfitter_cfg.c **** * Return:
 356:.\Generated_Source\PSoC5/cyfitter_cfg.c **** *   void
 357:.\Generated_Source\PSoC5/cyfitter_cfg.c **** *
 358:.\Generated_Source\PSoC5/cyfitter_cfg.c **** *******************************************************************************/
 359:.\Generated_Source\PSoC5/cyfitter_cfg.c **** void ADC_AMux_Set(uint8 channel)
 360:.\Generated_Source\PSoC5/cyfitter_cfg.c **** {
 446              		.loc 1 360 0
 447              		.cfi_startproc
 448              		@ args = 0, pretend = 0, frame = 0
 449              		@ frame_needed = 0, uses_anonymous_args = 0
 450              		@ link register save eliminated.
 451              	.LVL32:
 361:.\Generated_Source\PSoC5/cyfitter_cfg.c **** 	if (channel < 2)
 452              		.loc 1 361 0
 453 0000 0128     		cmp	r0, #1
ARM GAS  C:\Users\Ian\AppData\Local\Temp\cceRKtdE.s 			page 16


 454 0002 07D8     		bhi	.L29
 362:.\Generated_Source\PSoC5/cyfitter_cfg.c **** 	{
 363:.\Generated_Source\PSoC5/cyfitter_cfg.c **** 		*ADC_AMux__addrTable[channel] |= ADC_AMux__maskTable[channel];
 455              		.loc 1 363 0
 456 0004 044B     		ldr	r3, .L31
 457 0006 53F82020 		ldr	r2, [r3, r0, lsl #2]
 458 000a 1844     		add	r0, r0, r3
 459              	.LVL33:
 460 000c 017A     		ldrb	r1, [r0, #8]	@ zero_extendqisi2
 461 000e 1378     		ldrb	r3, [r2]	@ zero_extendqisi2
 462 0010 0B43     		orrs	r3, r3, r1
 463 0012 1370     		strb	r3, [r2]
 464              	.L29:
 465 0014 7047     		bx	lr
 466              	.L32:
 467 0016 00BF     		.align	2
 468              	.L31:
 469 0018 00000000 		.word	.LANCHOR0
 470              		.cfi_endproc
 471              	.LFE8:
 472              		.size	ADC_AMux_Set, .-ADC_AMux_Set
 473              		.section	.text.ADC_AMux_Unset,"ax",%progbits
 474              		.align	2
 475              		.global	ADC_AMux_Unset
 476              		.thumb
 477              		.thumb_func
 478              		.type	ADC_AMux_Unset, %function
 479              	ADC_AMux_Unset:
 480              	.LFB9:
 364:.\Generated_Source\PSoC5/cyfitter_cfg.c **** 	}
 365:.\Generated_Source\PSoC5/cyfitter_cfg.c **** }
 366:.\Generated_Source\PSoC5/cyfitter_cfg.c **** 
 367:.\Generated_Source\PSoC5/cyfitter_cfg.c **** /*******************************************************************************
 368:.\Generated_Source\PSoC5/cyfitter_cfg.c **** * Function Name: ADC_AMux_Unset
 369:.\Generated_Source\PSoC5/cyfitter_cfg.c **** ********************************************************************************
 370:.\Generated_Source\PSoC5/cyfitter_cfg.c **** * Summary:
 371:.\Generated_Source\PSoC5/cyfitter_cfg.c **** *  This function is used to clear a particular channel from being active on the
 372:.\Generated_Source\PSoC5/cyfitter_cfg.c **** *  AMux.
 373:.\Generated_Source\PSoC5/cyfitter_cfg.c **** *
 374:.\Generated_Source\PSoC5/cyfitter_cfg.c **** * Parameters:  
 375:.\Generated_Source\PSoC5/cyfitter_cfg.c **** *   channel - The mux channel input to mark inactive
 376:.\Generated_Source\PSoC5/cyfitter_cfg.c **** *
 377:.\Generated_Source\PSoC5/cyfitter_cfg.c **** * Return:
 378:.\Generated_Source\PSoC5/cyfitter_cfg.c **** *   void
 379:.\Generated_Source\PSoC5/cyfitter_cfg.c **** *
 380:.\Generated_Source\PSoC5/cyfitter_cfg.c **** *******************************************************************************/
 381:.\Generated_Source\PSoC5/cyfitter_cfg.c **** void ADC_AMux_Unset(uint8 channel)
 382:.\Generated_Source\PSoC5/cyfitter_cfg.c **** {
 481              		.loc 1 382 0
 482              		.cfi_startproc
 483              		@ args = 0, pretend = 0, frame = 0
 484              		@ frame_needed = 0, uses_anonymous_args = 0
 485              		@ link register save eliminated.
 486              	.LVL34:
 383:.\Generated_Source\PSoC5/cyfitter_cfg.c **** 	if (channel < 2)
 487              		.loc 1 383 0
 488 0000 0128     		cmp	r0, #1
ARM GAS  C:\Users\Ian\AppData\Local\Temp\cceRKtdE.s 			page 17


 489 0002 08D8     		bhi	.L33
 384:.\Generated_Source\PSoC5/cyfitter_cfg.c **** 	{
 385:.\Generated_Source\PSoC5/cyfitter_cfg.c **** 		*ADC_AMux__addrTable[channel] &= (uint8)~ADC_AMux__maskTable[channel];
 490              		.loc 1 385 0
 491 0004 044B     		ldr	r3, .L35
 492 0006 53F82020 		ldr	r2, [r3, r0, lsl #2]
 493 000a 1844     		add	r0, r0, r3
 494              	.LVL35:
 495 000c 017A     		ldrb	r1, [r0, #8]	@ zero_extendqisi2
 496 000e 1378     		ldrb	r3, [r2]	@ zero_extendqisi2
 497 0010 23EA0103 		bic	r3, r3, r1
 498 0014 1370     		strb	r3, [r2]
 499              	.L33:
 500 0016 7047     		bx	lr
 501              	.L36:
 502              		.align	2
 503              	.L35:
 504 0018 00000000 		.word	.LANCHOR0
 505              		.cfi_endproc
 506              	.LFE9:
 507              		.size	ADC_AMux_Unset, .-ADC_AMux_Unset
 508              		.section	.text.cyfitter_cfg,"ax",%progbits
 509              		.align	2
 510              		.global	cyfitter_cfg
 511              		.thumb
 512              		.thumb_func
 513              		.type	cyfitter_cfg, %function
 514              	cyfitter_cfg:
 515              	.LFB10:
 386:.\Generated_Source\PSoC5/cyfitter_cfg.c **** 	}
 387:.\Generated_Source\PSoC5/cyfitter_cfg.c **** }
 388:.\Generated_Source\PSoC5/cyfitter_cfg.c **** 
 389:.\Generated_Source\PSoC5/cyfitter_cfg.c **** 
 390:.\Generated_Source\PSoC5/cyfitter_cfg.c **** 
 391:.\Generated_Source\PSoC5/cyfitter_cfg.c **** /*******************************************************************************
 392:.\Generated_Source\PSoC5/cyfitter_cfg.c **** * Function Name: cyfitter_cfg
 393:.\Generated_Source\PSoC5/cyfitter_cfg.c **** ********************************************************************************
 394:.\Generated_Source\PSoC5/cyfitter_cfg.c **** * Summary:
 395:.\Generated_Source\PSoC5/cyfitter_cfg.c **** *  This function is called by the start-up code for the selected device. It
 396:.\Generated_Source\PSoC5/cyfitter_cfg.c **** *  performs all of the necessary device configuration based on the design
 397:.\Generated_Source\PSoC5/cyfitter_cfg.c **** *  settings.  This includes settings from the Design Wide Resources (DWR) such
 398:.\Generated_Source\PSoC5/cyfitter_cfg.c **** *  as Clocks and Pins as well as any component configuration that is necessary.
 399:.\Generated_Source\PSoC5/cyfitter_cfg.c **** *
 400:.\Generated_Source\PSoC5/cyfitter_cfg.c **** * Parameters:  
 401:.\Generated_Source\PSoC5/cyfitter_cfg.c **** *   void
 402:.\Generated_Source\PSoC5/cyfitter_cfg.c **** *
 403:.\Generated_Source\PSoC5/cyfitter_cfg.c **** * Return:
 404:.\Generated_Source\PSoC5/cyfitter_cfg.c **** *   void
 405:.\Generated_Source\PSoC5/cyfitter_cfg.c **** *
 406:.\Generated_Source\PSoC5/cyfitter_cfg.c **** *******************************************************************************/
 407:.\Generated_Source\PSoC5/cyfitter_cfg.c **** 
 408:.\Generated_Source\PSoC5/cyfitter_cfg.c **** void cyfitter_cfg(void)
 409:.\Generated_Source\PSoC5/cyfitter_cfg.c **** {
 516              		.loc 1 409 0
 517              		.cfi_startproc
 518              		@ args = 0, pretend = 0, frame = 0
 519              		@ frame_needed = 0, uses_anonymous_args = 0
ARM GAS  C:\Users\Ian\AppData\Local\Temp\cceRKtdE.s 			page 18


 520 0000 70B5     		push	{r4, r5, r6, lr}
 521              		.cfi_def_cfa_offset 16
 522              		.cfi_offset 4, -16
 523              		.cfi_offset 5, -12
 524              		.cfi_offset 6, -8
 525              		.cfi_offset 14, -4
 410:.\Generated_Source\PSoC5/cyfitter_cfg.c **** #ifdef CYGlobalIntDisable
 411:.\Generated_Source\PSoC5/cyfitter_cfg.c **** 	/* Disable interrupts by default. Let user enable if/when they want. */
 412:.\Generated_Source\PSoC5/cyfitter_cfg.c **** 	CYGlobalIntDisable
 526              		.loc 1 412 0
 527              	@ 412 ".\Generated_Source\PSoC5\cyfitter_cfg.c" 1
 528 0002 72B6     		CPSID   i
 529              	@ 0 "" 2
 413:.\Generated_Source\PSoC5/cyfitter_cfg.c **** #endif
 414:.\Generated_Source\PSoC5/cyfitter_cfg.c **** 
 415:.\Generated_Source\PSoC5/cyfitter_cfg.c **** 	/* Enable/Disable Debug functionality based on settings from System DWR */
 416:.\Generated_Source\PSoC5/cyfitter_cfg.c **** 	CY_SET_XTND_REG8((void CYFAR *)CYREG_MLOGIC_DEBUG, (CY_GET_XTND_REG8((void CYFAR *)CYREG_MLOGIC_DE
 530              		.loc 1 416 0
 531              		.thumb
 532 0004 424A     		ldr	r2, .L43
 533 0006 1378     		ldrb	r3, [r2]	@ zero_extendqisi2
 534 0008 43F00403 		orr	r3, r3, #4
 535 000c 1370     		strb	r3, [r2]
 536              	.LVL36:
 537              	.LBB3:
 417:.\Generated_Source\PSoC5/cyfitter_cfg.c **** 
 418:.\Generated_Source\PSoC5/cyfitter_cfg.c **** 	{
 419:.\Generated_Source\PSoC5/cyfitter_cfg.c **** 
 420:.\Generated_Source\PSoC5/cyfitter_cfg.c **** 		CYPACKED typedef struct {
 421:.\Generated_Source\PSoC5/cyfitter_cfg.c **** 			void CYFAR *address;
 422:.\Generated_Source\PSoC5/cyfitter_cfg.c **** 			uint16 size;
 423:.\Generated_Source\PSoC5/cyfitter_cfg.c **** 		} CYPACKED_ATTR cfg_memset_t;
 424:.\Generated_Source\PSoC5/cyfitter_cfg.c **** 
 425:.\Generated_Source\PSoC5/cyfitter_cfg.c **** 
 426:.\Generated_Source\PSoC5/cyfitter_cfg.c **** 		CYPACKED typedef struct {
 427:.\Generated_Source\PSoC5/cyfitter_cfg.c **** 			void CYFAR *dest;
 428:.\Generated_Source\PSoC5/cyfitter_cfg.c **** 			const void CYFAR *src;
 429:.\Generated_Source\PSoC5/cyfitter_cfg.c **** 			uint16 size;
 430:.\Generated_Source\PSoC5/cyfitter_cfg.c **** 		} CYPACKED_ATTR cfg_memcpy_t;
 431:.\Generated_Source\PSoC5/cyfitter_cfg.c **** 
 432:.\Generated_Source\PSoC5/cyfitter_cfg.c **** 		static const cfg_memset_t CYCODE cfg_memset_list [] = {
 433:.\Generated_Source\PSoC5/cyfitter_cfg.c **** 			/* address, size */
 434:.\Generated_Source\PSoC5/cyfitter_cfg.c **** 			{(void CYFAR *)(CYREG_PRT0_DR), 16u},
 435:.\Generated_Source\PSoC5/cyfitter_cfg.c **** 			{(void CYFAR *)(CYREG_PRT3_DR), 16u},
 436:.\Generated_Source\PSoC5/cyfitter_cfg.c **** 			{(void CYFAR *)(CYREG_PRT6_DR), 16u},
 437:.\Generated_Source\PSoC5/cyfitter_cfg.c **** 			{(void CYFAR *)(CYREG_PRT12_DR), 16u},
 438:.\Generated_Source\PSoC5/cyfitter_cfg.c **** 			{(void CYFAR *)(CYREG_PRT15_DR), 16u},
 439:.\Generated_Source\PSoC5/cyfitter_cfg.c **** 			{(void CYFAR *)(CYDEV_UCFG_B0_P0_U0_BASE), 128u},
 440:.\Generated_Source\PSoC5/cyfitter_cfg.c **** 			{(void CYFAR *)(CYDEV_UCFG_B0_P0_ROUTE_BASE), 896u},
 441:.\Generated_Source\PSoC5/cyfitter_cfg.c **** 			{(void CYFAR *)(CYDEV_UCFG_B0_P2_ROUTE_BASE), 2816u},
 442:.\Generated_Source\PSoC5/cyfitter_cfg.c **** 			{(void CYFAR *)(CYDEV_UCFG_B1_P2_U0_BASE), 2048u},
 443:.\Generated_Source\PSoC5/cyfitter_cfg.c **** 			{(void CYFAR *)(CYDEV_UCFG_DSI0_BASE), 2560u},
 444:.\Generated_Source\PSoC5/cyfitter_cfg.c **** 			{(void CYFAR *)(CYDEV_UCFG_DSI12_BASE), 512u},
 445:.\Generated_Source\PSoC5/cyfitter_cfg.c **** 			{(void CYFAR *)(CYREG_BCTL0_MDCLK_EN), 32u},
 446:.\Generated_Source\PSoC5/cyfitter_cfg.c **** 		};
 447:.\Generated_Source\PSoC5/cyfitter_cfg.c **** 
 448:.\Generated_Source\PSoC5/cyfitter_cfg.c **** 		static const cfg_memcpy_t CYCODE cfg_memcpy_list [] = {
ARM GAS  C:\Users\Ian\AppData\Local\Temp\cceRKtdE.s 			page 19


 449:.\Generated_Source\PSoC5/cyfitter_cfg.c **** 			/* dest, src, size */
 450:.\Generated_Source\PSoC5/cyfitter_cfg.c **** 			{(void CYFAR *)(CYDEV_UCFG_B0_P0_U1_BASE), BS_UDB_1_5_1_CONFIG_VAL, 128u},
 451:.\Generated_Source\PSoC5/cyfitter_cfg.c **** 			{(void CYFAR *)(CYDEV_UCFG_B0_P2_U1_BASE), BS_UDB_1_3_1_CONFIG_VAL, 128u},
 452:.\Generated_Source\PSoC5/cyfitter_cfg.c **** 		};
 453:.\Generated_Source\PSoC5/cyfitter_cfg.c **** 
 454:.\Generated_Source\PSoC5/cyfitter_cfg.c **** 		uint8 CYDATA i;
 455:.\Generated_Source\PSoC5/cyfitter_cfg.c **** 
 456:.\Generated_Source\PSoC5/cyfitter_cfg.c **** 		/* Zero out critical memory blocks before beginning configuration */
 457:.\Generated_Source\PSoC5/cyfitter_cfg.c **** 		for (i = 0u; i < (sizeof(cfg_memset_list)/sizeof(cfg_memset_list[0])); i++)
 538              		.loc 1 457 0
 539 000e 0024     		movs	r4, #0
 540 0010 0AE0     		b	.L38
 541              	.LVL37:
 542              	.L39:
 543              	.LBB4:
 458:.\Generated_Source\PSoC5/cyfitter_cfg.c **** 		{
 459:.\Generated_Source\PSoC5/cyfitter_cfg.c **** 			const cfg_memset_t CYCODE * CYDATA ms = &cfg_memset_list[i];
 460:.\Generated_Source\PSoC5/cyfitter_cfg.c **** 			CYMEMZERO(ms->address, (size_t)(uint32)(ms->size));
 544              		.loc 1 460 0 discriminator 3
 545 0012 4049     		ldr	r1, .L43+4
 546 0014 6300     		lsls	r3, r4, #1
 547 0016 1A19     		adds	r2, r3, r4
 548 0018 5200     		lsls	r2, r2, #1
 549 001a 0A44     		add	r2, r2, r1
 550 001c D068     		ldr	r0, [r2, #12]	@ unaligned
 551 001e 118A     		ldrh	r1, [r2, #16]
 552 0020 FFF7FEFF 		bl	CYMEMZERO
 553              	.LVL38:
 554              	.LBE4:
 457:.\Generated_Source\PSoC5/cyfitter_cfg.c **** 		{
 555              		.loc 1 457 0 discriminator 3
 556 0024 0134     		adds	r4, r4, #1
 557              	.LVL39:
 558 0026 E4B2     		uxtb	r4, r4
 559              	.LVL40:
 560              	.L38:
 457:.\Generated_Source\PSoC5/cyfitter_cfg.c **** 		{
 561              		.loc 1 457 0 is_stmt 0 discriminator 1
 562 0028 0B2C     		cmp	r4, #11
 563 002a F2D9     		bls	.L39
 564 002c 0024     		movs	r4, #0
 565              	.LVL41:
 566 002e 10E0     		b	.L40
 567              	.LVL42:
 568              	.L41:
 569              	.LBB5:
 461:.\Generated_Source\PSoC5/cyfitter_cfg.c **** 		}
 462:.\Generated_Source\PSoC5/cyfitter_cfg.c **** 
 463:.\Generated_Source\PSoC5/cyfitter_cfg.c **** 		/* Copy device configuration data into registers */
 464:.\Generated_Source\PSoC5/cyfitter_cfg.c **** 		for (i = 0u; i < (sizeof(cfg_memcpy_list)/sizeof(cfg_memcpy_list[0])); i++)
 465:.\Generated_Source\PSoC5/cyfitter_cfg.c **** 		{
 466:.\Generated_Source\PSoC5/cyfitter_cfg.c **** 			const cfg_memcpy_t CYCODE * CYDATA mc = &cfg_memcpy_list[i];
 467:.\Generated_Source\PSoC5/cyfitter_cfg.c **** 			void * CYDATA destPtr = mc->dest;
 570              		.loc 1 467 0 is_stmt 1 discriminator 3
 571 0030 3849     		ldr	r1, .L43+4
 572 0032 A300     		lsls	r3, r4, #2
 573 0034 1A19     		adds	r2, r3, r4
ARM GAS  C:\Users\Ian\AppData\Local\Temp\cceRKtdE.s 			page 20


 574 0036 5200     		lsls	r2, r2, #1
 575 0038 0A44     		add	r2, r2, r1
 576 003a 52F8540F 		ldr	r0, [r2, #84]!	@ unaligned
 577              	.LVL43:
 468:.\Generated_Source\PSoC5/cyfitter_cfg.c **** 			const void * CYDATA srcPtr = mc->src;
 469:.\Generated_Source\PSoC5/cyfitter_cfg.c **** 			uint16 CYDATA numBytes = mc->size;
 578              		.loc 1 469 0 discriminator 3
 579 003e 2344     		add	r3, r3, r4
 580 0040 5B00     		lsls	r3, r3, #1
 581 0042 0B44     		add	r3, r3, r1
 582              	.LVL44:
 470:.\Generated_Source\PSoC5/cyfitter_cfg.c **** 			CYCONFIGCPY(destPtr, srcPtr, numBytes);
 583              		.loc 1 470 0 discriminator 3
 584 0044 5168     		ldr	r1, [r2, #4]	@ unaligned
 585              	.LVL45:
 586 0046 B3F85C20 		ldrh	r2, [r3, #92]
 587 004a FFF7FEFF 		bl	CYCONFIGCPY
 588              	.LVL46:
 589              	.LBE5:
 464:.\Generated_Source\PSoC5/cyfitter_cfg.c **** 		{
 590              		.loc 1 464 0 discriminator 3
 591 004e 0134     		adds	r4, r4, #1
 592              	.LVL47:
 593 0050 E4B2     		uxtb	r4, r4
 594              	.LVL48:
 595              	.L40:
 464:.\Generated_Source\PSoC5/cyfitter_cfg.c **** 		{
 596              		.loc 1 464 0 is_stmt 0 discriminator 1
 597 0052 012C     		cmp	r4, #1
 598 0054 ECD9     		bls	.L41
 471:.\Generated_Source\PSoC5/cyfitter_cfg.c **** 		}
 472:.\Generated_Source\PSoC5/cyfitter_cfg.c **** 
 473:.\Generated_Source\PSoC5/cyfitter_cfg.c **** 		cfg_write_bytes32(cy_cfg_addr_table, cy_cfg_data_table);
 599              		.loc 1 473 0 is_stmt 1
 600 0056 4FF09040 		mov	r0, #1207959552
 601 005a 2F49     		ldr	r1, .L43+8
 602 005c FFF7FEFF 		bl	cfg_write_bytes32
 603              	.LVL49:
 474:.\Generated_Source\PSoC5/cyfitter_cfg.c **** 
 475:.\Generated_Source\PSoC5/cyfitter_cfg.c **** 		/* Perform normal device configuration. Order is not critical for these items. */
 476:.\Generated_Source\PSoC5/cyfitter_cfg.c **** 		CY_SET_XTND_REG8((void CYFAR *)(CYREG_DSM0_CR3), 0x0Au);
 604              		.loc 1 476 0
 605 0060 0A25     		movs	r5, #10
 606 0062 2E4B     		ldr	r3, .L43+12
 607 0064 1D70     		strb	r5, [r3]
 477:.\Generated_Source\PSoC5/cyfitter_cfg.c **** 		CYMEMZERO((void CYFAR *)(CYREG_PHUB_CFGMEM0_CFG0), 4u);
 608              		.loc 1 477 0
 609 0066 2E48     		ldr	r0, .L43+16
 610 0068 0421     		movs	r1, #4
 611 006a FFF7FEFF 		bl	CYMEMZERO
 612              	.LVL50:
 478:.\Generated_Source\PSoC5/cyfitter_cfg.c **** 		CYMEMZERO((void CYFAR *)(CYREG_PHUB_CFGMEM1_CFG0), 4u);
 613              		.loc 1 478 0
 614 006e 2D48     		ldr	r0, .L43+20
 615 0070 0421     		movs	r1, #4
 616 0072 FFF7FEFF 		bl	CYMEMZERO
 617              	.LVL51:
ARM GAS  C:\Users\Ian\AppData\Local\Temp\cceRKtdE.s 			page 21


 479:.\Generated_Source\PSoC5/cyfitter_cfg.c **** 		CYMEMZERO((void CYFAR *)(CYREG_PHUB_CFGMEM2_CFG0), 4u);
 618              		.loc 1 479 0
 619 0076 2C48     		ldr	r0, .L43+24
 620 0078 0421     		movs	r1, #4
 621 007a FFF7FEFF 		bl	CYMEMZERO
 622              	.LVL52:
 480:.\Generated_Source\PSoC5/cyfitter_cfg.c **** 		CYMEMZERO((void CYFAR *)(CYREG_PHUB_CFGMEM3_CFG0), 4u);
 623              		.loc 1 480 0
 624 007e 2B48     		ldr	r0, .L43+28
 625 0080 0421     		movs	r1, #4
 626 0082 FFF7FEFF 		bl	CYMEMZERO
 627              	.LVL53:
 481:.\Generated_Source\PSoC5/cyfitter_cfg.c **** 		CYMEMZERO((void CYFAR *)(CYREG_PHUB_CFGMEM4_CFG0), 4u);
 628              		.loc 1 481 0
 629 0086 2A48     		ldr	r0, .L43+32
 630 0088 0421     		movs	r1, #4
 631 008a FFF7FEFF 		bl	CYMEMZERO
 632              	.LVL54:
 482:.\Generated_Source\PSoC5/cyfitter_cfg.c **** 
 483:.\Generated_Source\PSoC5/cyfitter_cfg.c **** 		/* Enable digital routing */
 484:.\Generated_Source\PSoC5/cyfitter_cfg.c **** 		CY_SET_XTND_REG8((void CYFAR *)CYREG_BCTL0_BANK_CTL, CY_GET_XTND_REG8((void CYFAR *)CYREG_BCTL0_B
 633              		.loc 1 484 0
 634 008e 294A     		ldr	r2, .L43+36
 635 0090 1378     		ldrb	r3, [r2]	@ zero_extendqisi2
 636 0092 43F00203 		orr	r3, r3, #2
 637 0096 1370     		strb	r3, [r2]
 485:.\Generated_Source\PSoC5/cyfitter_cfg.c **** 		CY_SET_XTND_REG8((void CYFAR *)CYREG_BCTL1_BANK_CTL, CY_GET_XTND_REG8((void CYFAR *)CYREG_BCTL1_B
 638              		.loc 1 485 0
 639 0098 1032     		adds	r2, r2, #16
 640 009a 1378     		ldrb	r3, [r2]	@ zero_extendqisi2
 641 009c 43F00203 		orr	r3, r3, #2
 642 00a0 1370     		strb	r3, [r2]
 486:.\Generated_Source\PSoC5/cyfitter_cfg.c **** 
 487:.\Generated_Source\PSoC5/cyfitter_cfg.c **** 		/* Enable UDB array */
 488:.\Generated_Source\PSoC5/cyfitter_cfg.c **** 		CY_SET_XTND_REG8((void CYFAR *)CYREG_PM_ACT_CFG0, CY_GET_XTND_REG8((void CYFAR *)CYREG_PM_ACT_CFG
 643              		.loc 1 488 0
 644 00a2 254C     		ldr	r4, .L43+40
 645              	.LVL55:
 646 00a4 2378     		ldrb	r3, [r4]	@ zero_extendqisi2
 647 00a6 43F04003 		orr	r3, r3, #64
 648 00aa 2370     		strb	r3, [r4]
 489:.\Generated_Source\PSoC5/cyfitter_cfg.c **** 		CY_SET_XTND_REG8((void CYFAR *)CYREG_PM_AVAIL_CR2, CY_GET_XTND_REG8((void CYFAR *)CYREG_PM_AVAIL_
 649              		.loc 1 489 0
 650 00ac A2F58632 		sub	r2, r2, #68608
 651 00b0 513A     		subs	r2, r2, #81
 652 00b2 1378     		ldrb	r3, [r2]	@ zero_extendqisi2
 653 00b4 43F01003 		orr	r3, r3, #16
 654 00b8 1370     		strb	r3, [r2]
 655              	.LBE3:
 490:.\Generated_Source\PSoC5/cyfitter_cfg.c **** 	}
 491:.\Generated_Source\PSoC5/cyfitter_cfg.c **** 
 492:.\Generated_Source\PSoC5/cyfitter_cfg.c **** 
 493:.\Generated_Source\PSoC5/cyfitter_cfg.c **** 	/* Perform second pass device configuration. These items must be configured in specific order afte
 494:.\Generated_Source\PSoC5/cyfitter_cfg.c **** 	CYCONFIGCPY((void CYFAR *)(CYREG_PRT1_DM0), (const void CYFAR *)(BS_IOPINS0_1_VAL), 8u);
 656              		.loc 1 494 0
 657 00ba 2048     		ldr	r0, .L43+44
 658 00bc 2049     		ldr	r1, .L43+48
ARM GAS  C:\Users\Ian\AppData\Local\Temp\cceRKtdE.s 			page 22


 659 00be 0822     		movs	r2, #8
 660 00c0 FFF7FEFF 		bl	CYCONFIGCPY
 661              	.LVL56:
 495:.\Generated_Source\PSoC5/cyfitter_cfg.c **** 	CYCONFIGCPY((void CYFAR *)(CYREG_PRT2_DR), (const void CYFAR *)(BS_IOPINS0_2_VAL), 10u);
 662              		.loc 1 495 0
 663 00c4 1F48     		ldr	r0, .L43+52
 664 00c6 2049     		ldr	r1, .L43+56
 665 00c8 2A46     		mov	r2, r5
 666 00ca FFF7FEFF 		bl	CYCONFIGCPY
 667              	.LVL57:
 496:.\Generated_Source\PSoC5/cyfitter_cfg.c **** 	CYCONFIGCPY((void CYFAR *)(CYREG_PRT4_DM0), (const void CYFAR *)(BS_IOPINS0_4_VAL), 8u);
 668              		.loc 1 496 0
 669 00ce 1F48     		ldr	r0, .L43+60
 670 00d0 1F49     		ldr	r1, .L43+64
 671 00d2 0822     		movs	r2, #8
 672 00d4 FFF7FEFF 		bl	CYCONFIGCPY
 673              	.LVL58:
 497:.\Generated_Source\PSoC5/cyfitter_cfg.c **** 	CYCONFIGCPY((void CYFAR *)(CYREG_PRT5_DM0), (const void CYFAR *)(BS_IOPINS0_5_VAL), 8u);
 674              		.loc 1 497 0
 675 00d8 1E48     		ldr	r0, .L43+68
 676 00da 1F49     		ldr	r1, .L43+72
 677 00dc 0822     		movs	r2, #8
 678 00de FFF7FEFF 		bl	CYCONFIGCPY
 679              	.LVL59:
 498:.\Generated_Source\PSoC5/cyfitter_cfg.c **** 	/* Switch Boost to the precision bandgap reference from its internal reference */
 499:.\Generated_Source\PSoC5/cyfitter_cfg.c **** 	CY_SET_REG8((void CYXDATA *)CYREG_BOOST_CR2, (CY_GET_REG8((void CYXDATA *)CYREG_BOOST_CR2) | 0x08u
 680              		.loc 1 499 0
 681 00e2 1E4A     		ldr	r2, .L43+76
 682 00e4 1378     		ldrb	r3, [r2]	@ zero_extendqisi2
 683 00e6 43F00803 		orr	r3, r3, #8
 684 00ea 1370     		strb	r3, [r2]
 500:.\Generated_Source\PSoC5/cyfitter_cfg.c **** 
 501:.\Generated_Source\PSoC5/cyfitter_cfg.c **** 	/* Set Flash Cycles based on max possible frequency in case a glitch occurs during ClockSetup(). *
 502:.\Generated_Source\PSoC5/cyfitter_cfg.c **** 	CY_SET_XTND_REG8((void CYFAR *)(CYREG_CACHE_CC_CTL), (((CYDEV_INSTRUCT_CACHE_ENABLED) != 0) ? 0x01
 685              		.loc 1 502 0
 686 00ec 1C4E     		ldr	r6, .L43+80
 687 00ee 0125     		movs	r5, #1
 688 00f0 3570     		strb	r5, [r6]
 503:.\Generated_Source\PSoC5/cyfitter_cfg.c **** 	/* Setup clocks based on selections from Clock DWR */
 504:.\Generated_Source\PSoC5/cyfitter_cfg.c **** 	ClockSetup();
 689              		.loc 1 504 0
 690 00f2 FFF7FEFF 		bl	ClockSetup
 691              	.LVL60:
 505:.\Generated_Source\PSoC5/cyfitter_cfg.c **** 	/* Set Flash Cycles based on newly configured 24.00MHz Bus Clock. */
 506:.\Generated_Source\PSoC5/cyfitter_cfg.c **** 	CY_SET_XTND_REG8((void CYFAR *)(CYREG_CACHE_CC_CTL), (((CYDEV_INSTRUCT_CACHE_ENABLED) != 0) ? 0x81
 692              		.loc 1 506 0
 693 00f6 8123     		movs	r3, #129
 694 00f8 3370     		strb	r3, [r6]
 507:.\Generated_Source\PSoC5/cyfitter_cfg.c **** 	CY_SET_XTND_REG8((void CYFAR *)(CYREG_PANTHER_WAITPIPE), 0x01u);
 695              		.loc 1 507 0
 696 00fa 1A4B     		ldr	r3, .L43+84
 697 00fc 1D70     		strb	r5, [r3]
 508:.\Generated_Source\PSoC5/cyfitter_cfg.c **** 
 509:.\Generated_Source\PSoC5/cyfitter_cfg.c **** 	/* Perform basic analog initialization to defaults */
 510:.\Generated_Source\PSoC5/cyfitter_cfg.c **** 	AnalogSetDefault();
 698              		.loc 1 510 0
 699 00fe FFF7FEFF 		bl	AnalogSetDefault
ARM GAS  C:\Users\Ian\AppData\Local\Temp\cceRKtdE.s 			page 23


 700              	.LVL61:
 511:.\Generated_Source\PSoC5/cyfitter_cfg.c **** 
 512:.\Generated_Source\PSoC5/cyfitter_cfg.c **** 	/* Configure alternate active mode */
 513:.\Generated_Source\PSoC5/cyfitter_cfg.c **** 	CYCONFIGCPY((void CYFAR *)CYDEV_PM_STBY_BASE, (const void CYFAR *)CYDEV_PM_ACT_BASE, 14u);
 701              		.loc 1 513 0
 702 0102 1948     		ldr	r0, .L43+88
 703 0104 2146     		mov	r1, r4
 704 0106 0E22     		movs	r2, #14
 705 0108 FFF7FEFF 		bl	CYCONFIGCPY
 706              	.LVL62:
 707 010c 70BD     		pop	{r4, r5, r6, pc}
 708              	.L44:
 709 010e 00BF     		.align	2
 710              	.L43:
 711 0110 E8460040 		.word	1073759976
 712 0114 00000000 		.word	.LANCHOR0
 713 0118 70000048 		.word	1207959664
 714 011c 83580040 		.word	1073764483
 715 0120 00760040 		.word	1073772032
 716 0124 08760040 		.word	1073772040
 717 0128 10760040 		.word	1073772048
 718 012c 18760040 		.word	1073772056
 719 0130 20760040 		.word	1073772064
 720 0134 03500140 		.word	1073827843
 721 0138 A0430040 		.word	1073759136
 722 013c 12510040 		.word	1073762578
 723 0140 EC040048 		.word	1207960812
 724 0144 20510040 		.word	1073762592
 725 0148 F4040048 		.word	1207960820
 726 014c 42510040 		.word	1073762626
 727 0150 00050048 		.word	1207960832
 728 0154 52510040 		.word	1073762642
 729 0158 08050048 		.word	1207960840
 730 015c 22430040 		.word	1073759010
 731 0160 00480040 		.word	1073760256
 732 0164 04000840 		.word	1074266116
 733 0168 B0430040 		.word	1073759152
 734              		.cfi_endproc
 735              	.LFE10:
 736              		.size	cyfitter_cfg, .-cyfitter_cfg
 737              		.global	ADC_AMux__maskTable
 738              		.global	ADC_AMux__addrTable
 739              		.section	.rodata
 740              		.align	2
 741              		.set	.LANCHOR0,. + 0
 742              		.type	ADC_AMux__addrTable, %object
 743              		.size	ADC_AMux__addrTable, 8
 744              	ADC_AMux__addrTable:
 745 0000 035B0040 		.word	1073765123
 746 0004 24430040 		.word	1073759012
 747              		.type	ADC_AMux__maskTable, %object
 748              		.size	ADC_AMux__maskTable, 2
 749              	ADC_AMux__maskTable:
 750 0008 40       		.byte	64
 751 0009 00       		.byte	0
 752 000a 0000     		.space	2
 753              		.type	cfg_memset_list.4855, %object
ARM GAS  C:\Users\Ian\AppData\Local\Temp\cceRKtdE.s 			page 24


 754              		.size	cfg_memset_list.4855, 72
 755              	cfg_memset_list.4855:
 756 000c 00510040 		.word	1073762560
 757 0010 1000     		.short	16
 758 0012 30510040 		.4byte	1073762608
 759 0016 1000     		.short	16
 760 0018 60510040 		.word	1073762656
 761 001c 1000     		.short	16
 762 001e C0510040 		.4byte	1073762752
 763 0022 1000     		.short	16
 764 0024 F0510040 		.word	1073762800
 765 0028 1000     		.short	16
 766 002a 00000140 		.4byte	1073807360
 767 002e 8000     		.short	128
 768 0030 00010140 		.word	1073807616
 769 0034 8003     		.short	896
 770 0036 00050140 		.4byte	1073808640
 771 003a 000B     		.short	2816
 772 003c 00140140 		.word	1073812480
 773 0040 0008     		.short	2048
 774 0042 00400140 		.4byte	1073823744
 775 0046 000A     		.short	2560
 776 0048 004C0140 		.word	1073826816
 777 004c 0002     		.short	512
 778 004e 00500140 		.4byte	1073827840
 779 0052 2000     		.short	32
 780              		.type	cfg_memcpy_list.4856, %object
 781              		.size	cfg_memcpy_list.4856, 20
 782              	cfg_memcpy_list.4856:
 783 0054 80000140 		.word	1073807488
 784 0058 EC030048 		.word	1207960556
 785 005c 8000     		.short	128
 786 005e 80040140 		.4byte	1073808512
 787 0062 6C040048 		.4byte	1207960684
 788 0066 8000     		.short	128
 789              		.text
 790              	.Letext0:
 791              		.file 2 "c:\\program files (x86)\\cypress\\psoc creator\\3.3\\psoc creator\\import\\gnu\\arm\\4.9.
 792              		.file 3 ".\\Generated_Source\\PSoC5\\cytypes.h"
 793              		.file 4 ".\\Generated_Source\\PSoC5\\CyLib.h"