ARM GAS  C:\Users\Ian\AppData\Local\Temp\ccxtF1i6.s 			page 1


   1              		.syntax unified
   2              		.cpu cortex-m3
   3              		.fpu softvfp
   4              		.eabi_attribute 20, 1
   5              		.eabi_attribute 21, 1
   6              		.eabi_attribute 23, 3
   7              		.eabi_attribute 24, 1
   8              		.eabi_attribute 25, 1
   9              		.eabi_attribute 26, 1
  10              		.eabi_attribute 30, 1
  11              		.eabi_attribute 34, 1
  12              		.eabi_attribute 18, 4
  13              		.thumb
  14              		.file	"cyPm.c"
  15              		.text
  16              	.Ltext0:
  17              		.cfi_sections	.debug_frame
  18              		.section	.text.CyPmHibSlpSaveSet,"ax",%progbits
  19              		.align	2
  20              		.thumb
  21              		.thumb_func
  22              		.type	CyPmHibSlpSaveSet, %function
  23              	CyPmHibSlpSaveSet:
  24              	.LFB11:
  25              		.file 1 ".\\Generated_Source\\PSoC5\\cyPm.c"
   1:.\Generated_Source\PSoC5/cyPm.c **** /*******************************************************************************
   2:.\Generated_Source\PSoC5/cyPm.c **** * File Name: cyPm.c
   3:.\Generated_Source\PSoC5/cyPm.c **** * Version 4.11
   4:.\Generated_Source\PSoC5/cyPm.c **** *
   5:.\Generated_Source\PSoC5/cyPm.c **** * Description:
   6:.\Generated_Source\PSoC5/cyPm.c **** *  Provides an API for the power management.
   7:.\Generated_Source\PSoC5/cyPm.c **** *
   8:.\Generated_Source\PSoC5/cyPm.c **** * Note:
   9:.\Generated_Source\PSoC5/cyPm.c **** *  Documentation of the API's in this file is located in the
  10:.\Generated_Source\PSoC5/cyPm.c **** *  System Reference Guide provided with PSoC Creator.
  11:.\Generated_Source\PSoC5/cyPm.c **** *
  12:.\Generated_Source\PSoC5/cyPm.c **** ********************************************************************************
  13:.\Generated_Source\PSoC5/cyPm.c **** * Copyright 2008-2014, Cypress Semiconductor Corporation.  All rights reserved.
  14:.\Generated_Source\PSoC5/cyPm.c **** * You may use this file only in accordance with the license, terms, conditions,
  15:.\Generated_Source\PSoC5/cyPm.c **** * disclaimers, and limitations in the end user license agreement accompanying
  16:.\Generated_Source\PSoC5/cyPm.c **** * the software package with which this file was provided.
  17:.\Generated_Source\PSoC5/cyPm.c **** *******************************************************************************/
  18:.\Generated_Source\PSoC5/cyPm.c **** 
  19:.\Generated_Source\PSoC5/cyPm.c **** #include "cyPm.h"
  20:.\Generated_Source\PSoC5/cyPm.c **** 
  21:.\Generated_Source\PSoC5/cyPm.c **** 
  22:.\Generated_Source\PSoC5/cyPm.c **** /*******************************************************************
  23:.\Generated_Source\PSoC5/cyPm.c **** * Place your includes, defines, and code here. Do not use the merge
  24:.\Generated_Source\PSoC5/cyPm.c **** * region below unless any component datasheet suggests doing so.
  25:.\Generated_Source\PSoC5/cyPm.c **** *******************************************************************/
  26:.\Generated_Source\PSoC5/cyPm.c **** /* `#START CY_PM_HEADER_INCLUDE` */
  27:.\Generated_Source\PSoC5/cyPm.c **** 
  28:.\Generated_Source\PSoC5/cyPm.c **** /* `#END` */
  29:.\Generated_Source\PSoC5/cyPm.c **** 
  30:.\Generated_Source\PSoC5/cyPm.c **** 
  31:.\Generated_Source\PSoC5/cyPm.c **** static CY_PM_BACKUP_STRUCT          cyPmBackup;
  32:.\Generated_Source\PSoC5/cyPm.c **** static CY_PM_CLOCK_BACKUP_STRUCT    cyPmClockBackup;
ARM GAS  C:\Users\Ian\AppData\Local\Temp\ccxtF1i6.s 			page 2


  33:.\Generated_Source\PSoC5/cyPm.c **** 
  34:.\Generated_Source\PSoC5/cyPm.c **** /* Convertion table between register's values and frequency in MHz  */
  35:.\Generated_Source\PSoC5/cyPm.c **** static const uint8 CYCODE cyPmImoFreqReg2Mhz[7u] = {12u, 6u, 24u, 3u, 48u, 62u, 74u};
  36:.\Generated_Source\PSoC5/cyPm.c **** 
  37:.\Generated_Source\PSoC5/cyPm.c **** /* Function Prototypes */
  38:.\Generated_Source\PSoC5/cyPm.c **** static void CyPmHibSaveSet(void);
  39:.\Generated_Source\PSoC5/cyPm.c **** static void CyPmHibRestore(void) ;
  40:.\Generated_Source\PSoC5/cyPm.c **** 
  41:.\Generated_Source\PSoC5/cyPm.c **** static void CyPmHibSlpSaveSet(void) ;
  42:.\Generated_Source\PSoC5/cyPm.c **** static void CyPmHibSlpRestore(void) ;
  43:.\Generated_Source\PSoC5/cyPm.c **** 
  44:.\Generated_Source\PSoC5/cyPm.c **** static void CyPmHviLviSaveDisable(void) ;
  45:.\Generated_Source\PSoC5/cyPm.c **** static void CyPmHviLviRestore(void) ;
  46:.\Generated_Source\PSoC5/cyPm.c **** 
  47:.\Generated_Source\PSoC5/cyPm.c **** 
  48:.\Generated_Source\PSoC5/cyPm.c **** /*******************************************************************************
  49:.\Generated_Source\PSoC5/cyPm.c **** * Function Name: CyPmSaveClocks
  50:.\Generated_Source\PSoC5/cyPm.c **** ********************************************************************************
  51:.\Generated_Source\PSoC5/cyPm.c **** *
  52:.\Generated_Source\PSoC5/cyPm.c **** * Summary:
  53:.\Generated_Source\PSoC5/cyPm.c **** *  This function is called in preparation for entering sleep or hibernate low
  54:.\Generated_Source\PSoC5/cyPm.c **** *  power modes. Saves all the states of the clocking system that do not persist
  55:.\Generated_Source\PSoC5/cyPm.c **** *  during sleep/hibernate or that need to be altered in preparation for
  56:.\Generated_Source\PSoC5/cyPm.c **** *  sleep/hibernate. Shutdowns all the digital and analog clock dividers for the
  57:.\Generated_Source\PSoC5/cyPm.c **** *  active power mode configuration.
  58:.\Generated_Source\PSoC5/cyPm.c **** *
  59:.\Generated_Source\PSoC5/cyPm.c **** *  Switches the master clock over to the IMO and shuts down the PLL and MHz
  60:.\Generated_Source\PSoC5/cyPm.c **** *  Crystal. The IMO frequency is set to either 12 MHz or 48 MHz to match the
  61:.\Generated_Source\PSoC5/cyPm.c **** *  Design-Wide Resources System Editor "Enable Fast IMO During Startup" setting.
  62:.\Generated_Source\PSoC5/cyPm.c **** *  The ILO and 32 KHz oscillators are not impacted. The current Flash wait state
  63:.\Generated_Source\PSoC5/cyPm.c **** *  setting is saved and the Flash wait state setting is set for the current IMO
  64:.\Generated_Source\PSoC5/cyPm.c **** *  speed.
  65:.\Generated_Source\PSoC5/cyPm.c **** *
  66:.\Generated_Source\PSoC5/cyPm.c **** *  Note If the Master Clock source is routed through the DSI inputs, then it
  67:.\Generated_Source\PSoC5/cyPm.c **** *  must be set manually to another source before using the
  68:.\Generated_Source\PSoC5/cyPm.c **** *  CyPmSaveClocks()/CyPmRestoreClocks() functions.
  69:.\Generated_Source\PSoC5/cyPm.c **** *
  70:.\Generated_Source\PSoC5/cyPm.c **** * Parameters:
  71:.\Generated_Source\PSoC5/cyPm.c **** *  None
  72:.\Generated_Source\PSoC5/cyPm.c **** *
  73:.\Generated_Source\PSoC5/cyPm.c **** * Return:
  74:.\Generated_Source\PSoC5/cyPm.c **** *  None
  75:.\Generated_Source\PSoC5/cyPm.c **** *
  76:.\Generated_Source\PSoC5/cyPm.c **** * Side Effects:
  77:.\Generated_Source\PSoC5/cyPm.c **** *  All peripheral clocks are going to be off after this API method call.
  78:.\Generated_Source\PSoC5/cyPm.c **** *
  79:.\Generated_Source\PSoC5/cyPm.c **** *******************************************************************************/
  80:.\Generated_Source\PSoC5/cyPm.c **** void CyPmSaveClocks(void) 
  81:.\Generated_Source\PSoC5/cyPm.c **** {
  82:.\Generated_Source\PSoC5/cyPm.c ****     /* Digital and analog clocks - save enable state and disable them all */
  83:.\Generated_Source\PSoC5/cyPm.c ****     cyPmClockBackup.enClkA = CY_PM_ACT_CFG1_REG & CY_PM_ACT_EN_CLK_A_MASK;
  84:.\Generated_Source\PSoC5/cyPm.c ****     cyPmClockBackup.enClkD = CY_PM_ACT_CFG2_REG;
  85:.\Generated_Source\PSoC5/cyPm.c ****     CY_PM_ACT_CFG1_REG &= ((uint8)(~CY_PM_ACT_EN_CLK_A_MASK));
  86:.\Generated_Source\PSoC5/cyPm.c ****     CY_PM_ACT_CFG2_REG &= ((uint8)(~CY_PM_ACT_EN_CLK_D_MASK));
  87:.\Generated_Source\PSoC5/cyPm.c **** 
  88:.\Generated_Source\PSoC5/cyPm.c ****     /* Save current flash wait cycles and set the maximum value */
  89:.\Generated_Source\PSoC5/cyPm.c ****     cyPmClockBackup.flashWaitCycles = CY_PM_CACHE_CR_CYCLES_MASK & CY_PM_CACHE_CR_REG;
ARM GAS  C:\Users\Ian\AppData\Local\Temp\ccxtF1i6.s 			page 3


  90:.\Generated_Source\PSoC5/cyPm.c ****     CyFlash_SetWaitCycles(CY_PM_MAX_FLASH_WAIT_CYCLES);
  91:.\Generated_Source\PSoC5/cyPm.c **** 
  92:.\Generated_Source\PSoC5/cyPm.c ****     /* IMO - save current IMO MHz OSC frequency and USB mode is on bit */
  93:.\Generated_Source\PSoC5/cyPm.c ****     cyPmClockBackup.imoFreq = CY_PM_FASTCLK_IMO_CR_REG & CY_PM_FASTCLK_IMO_CR_FREQ_MASK;
  94:.\Generated_Source\PSoC5/cyPm.c ****     cyPmClockBackup.imoUsbClk = CY_PM_FASTCLK_IMO_CR_REG & CY_PM_FASTCLK_IMO_CR_USB;
  95:.\Generated_Source\PSoC5/cyPm.c **** 
  96:.\Generated_Source\PSoC5/cyPm.c ****     /* IMO doubler - save enable state */
  97:.\Generated_Source\PSoC5/cyPm.c ****     if(0u != (CY_PM_FASTCLK_IMO_CR_REG & CY_PM_FASTCLK_IMO_CR_F2XON))
  98:.\Generated_Source\PSoC5/cyPm.c ****     {
  99:.\Generated_Source\PSoC5/cyPm.c ****         /* IMO doubler enabled - save and disable */
 100:.\Generated_Source\PSoC5/cyPm.c ****         cyPmClockBackup.imo2x = CY_PM_ENABLED;
 101:.\Generated_Source\PSoC5/cyPm.c ****     }
 102:.\Generated_Source\PSoC5/cyPm.c ****     else
 103:.\Generated_Source\PSoC5/cyPm.c ****     {
 104:.\Generated_Source\PSoC5/cyPm.c ****         /* IMO doubler disabled */
 105:.\Generated_Source\PSoC5/cyPm.c ****         cyPmClockBackup.imo2x = CY_PM_DISABLED;
 106:.\Generated_Source\PSoC5/cyPm.c ****     }
 107:.\Generated_Source\PSoC5/cyPm.c **** 
 108:.\Generated_Source\PSoC5/cyPm.c ****     /* Master clock - save source */
 109:.\Generated_Source\PSoC5/cyPm.c ****     cyPmClockBackup.masterClkSrc = CY_PM_CLKDIST_MSTR1_REG & CY_PM_MASTER_CLK_SRC_MASK;
 110:.\Generated_Source\PSoC5/cyPm.c **** 
 111:.\Generated_Source\PSoC5/cyPm.c ****     /* Switch Master clock's source from PLL's output to PLL's source */
 112:.\Generated_Source\PSoC5/cyPm.c ****     if(CY_MASTER_SOURCE_PLL == cyPmClockBackup.masterClkSrc)
 113:.\Generated_Source\PSoC5/cyPm.c ****     {
 114:.\Generated_Source\PSoC5/cyPm.c ****         switch (CY_PM_CLKDIST_CR_REG & CY_PM_CLKDIST_PLL_SRC_MASK)
 115:.\Generated_Source\PSoC5/cyPm.c ****         {
 116:.\Generated_Source\PSoC5/cyPm.c ****         case CY_PM_CLKDIST_PLL_SRC_IMO:
 117:.\Generated_Source\PSoC5/cyPm.c ****             CyMasterClk_SetSource(CY_MASTER_SOURCE_IMO);
 118:.\Generated_Source\PSoC5/cyPm.c ****             break;
 119:.\Generated_Source\PSoC5/cyPm.c **** 
 120:.\Generated_Source\PSoC5/cyPm.c ****         case CY_PM_CLKDIST_PLL_SRC_XTAL:
 121:.\Generated_Source\PSoC5/cyPm.c ****             CyMasterClk_SetSource(CY_MASTER_SOURCE_XTAL);
 122:.\Generated_Source\PSoC5/cyPm.c ****             break;
 123:.\Generated_Source\PSoC5/cyPm.c **** 
 124:.\Generated_Source\PSoC5/cyPm.c ****         case CY_PM_CLKDIST_PLL_SRC_DSI:
 125:.\Generated_Source\PSoC5/cyPm.c ****             CyMasterClk_SetSource(CY_MASTER_SOURCE_DSI);
 126:.\Generated_Source\PSoC5/cyPm.c ****             break;
 127:.\Generated_Source\PSoC5/cyPm.c **** 
 128:.\Generated_Source\PSoC5/cyPm.c ****         default:
 129:.\Generated_Source\PSoC5/cyPm.c ****             CYASSERT(0u != 0u);
 130:.\Generated_Source\PSoC5/cyPm.c ****             break;
 131:.\Generated_Source\PSoC5/cyPm.c ****         }
 132:.\Generated_Source\PSoC5/cyPm.c ****     }
 133:.\Generated_Source\PSoC5/cyPm.c **** 
 134:.\Generated_Source\PSoC5/cyPm.c ****     /* PLL - check enable state, disable if needed */
 135:.\Generated_Source\PSoC5/cyPm.c ****     if(0u != (CY_PM_FASTCLK_PLL_CFG0_REG & CY_PM_PLL_CFG0_ENABLE))
 136:.\Generated_Source\PSoC5/cyPm.c ****     {
 137:.\Generated_Source\PSoC5/cyPm.c ****         /* PLL is enabled - save state and disable */
 138:.\Generated_Source\PSoC5/cyPm.c ****         cyPmClockBackup.pllEnableState = CY_PM_ENABLED;
 139:.\Generated_Source\PSoC5/cyPm.c ****         CyPLL_OUT_Stop();
 140:.\Generated_Source\PSoC5/cyPm.c ****     }
 141:.\Generated_Source\PSoC5/cyPm.c ****     else
 142:.\Generated_Source\PSoC5/cyPm.c ****     {
 143:.\Generated_Source\PSoC5/cyPm.c ****         /* PLL is disabled - save state */
 144:.\Generated_Source\PSoC5/cyPm.c ****         cyPmClockBackup.pllEnableState = CY_PM_DISABLED;
 145:.\Generated_Source\PSoC5/cyPm.c ****     }
 146:.\Generated_Source\PSoC5/cyPm.c **** 
ARM GAS  C:\Users\Ian\AppData\Local\Temp\ccxtF1i6.s 			page 4


 147:.\Generated_Source\PSoC5/cyPm.c ****     /* IMO - set appropriate frequency for LPM */
 148:.\Generated_Source\PSoC5/cyPm.c ****     CyIMO_SetFreq(CY_PM_IMO_FREQ_LPM);
 149:.\Generated_Source\PSoC5/cyPm.c **** 
 150:.\Generated_Source\PSoC5/cyPm.c ****     /* IMO - save enable state and enable without wait to settle */
 151:.\Generated_Source\PSoC5/cyPm.c ****     if(0u != (CY_PM_ACT_CFG0_IMO & CY_PM_ACT_CFG0_REG))
 152:.\Generated_Source\PSoC5/cyPm.c ****     {
 153:.\Generated_Source\PSoC5/cyPm.c ****         /* IMO - save enabled state */
 154:.\Generated_Source\PSoC5/cyPm.c ****         cyPmClockBackup.imoEnable = CY_PM_ENABLED;
 155:.\Generated_Source\PSoC5/cyPm.c ****     }
 156:.\Generated_Source\PSoC5/cyPm.c ****     else
 157:.\Generated_Source\PSoC5/cyPm.c ****     {
 158:.\Generated_Source\PSoC5/cyPm.c ****         /* IMO - save disabled state */
 159:.\Generated_Source\PSoC5/cyPm.c ****         cyPmClockBackup.imoEnable = CY_PM_DISABLED;
 160:.\Generated_Source\PSoC5/cyPm.c **** 
 161:.\Generated_Source\PSoC5/cyPm.c ****         /* Enable the IMO. Use software delay instead of the FTW-based inside */
 162:.\Generated_Source\PSoC5/cyPm.c ****         CyIMO_Start(CY_PM_IMO_NO_WAIT_TO_SETTLE);
 163:.\Generated_Source\PSoC5/cyPm.c **** 
 164:.\Generated_Source\PSoC5/cyPm.c ****         /* Settling time of the IMO is of the order of less than 6us */
 165:.\Generated_Source\PSoC5/cyPm.c ****         CyDelayUs(6u);
 166:.\Generated_Source\PSoC5/cyPm.c ****     }
 167:.\Generated_Source\PSoC5/cyPm.c **** 
 168:.\Generated_Source\PSoC5/cyPm.c ****     /* IMO - save the current IMOCLK source and set to IMO if not yet */
 169:.\Generated_Source\PSoC5/cyPm.c ****     if(0u != (CY_PM_FASTCLK_IMO_CR_REG & CY_PM_FASTCLK_IMO_CR_XCLKEN))
 170:.\Generated_Source\PSoC5/cyPm.c ****     {
 171:.\Generated_Source\PSoC5/cyPm.c ****         /* DSI or XTAL CLK */
 172:.\Generated_Source\PSoC5/cyPm.c ****         cyPmClockBackup.imoClkSrc =
 173:.\Generated_Source\PSoC5/cyPm.c ****             (0u == (CY_PM_CLKDIST_CR_REG & CY_PM_CLKDIST_IMO2X_SRC)) ? CY_IMO_SOURCE_DSI : CY_IMO_S
 174:.\Generated_Source\PSoC5/cyPm.c **** 
 175:.\Generated_Source\PSoC5/cyPm.c ****         /* IMO -  set IMOCLK source to IMO */
 176:.\Generated_Source\PSoC5/cyPm.c ****         CyIMO_SetSource(CY_IMO_SOURCE_IMO);
 177:.\Generated_Source\PSoC5/cyPm.c ****     }
 178:.\Generated_Source\PSoC5/cyPm.c ****     else
 179:.\Generated_Source\PSoC5/cyPm.c ****     {
 180:.\Generated_Source\PSoC5/cyPm.c ****         /* IMO */
 181:.\Generated_Source\PSoC5/cyPm.c ****         cyPmClockBackup.imoClkSrc = CY_IMO_SOURCE_IMO;
 182:.\Generated_Source\PSoC5/cyPm.c ****     }
 183:.\Generated_Source\PSoC5/cyPm.c **** 
 184:.\Generated_Source\PSoC5/cyPm.c ****     /* Save clk_imo source */
 185:.\Generated_Source\PSoC5/cyPm.c ****     cyPmClockBackup.clkImoSrc = CY_PM_CLKDIST_CR_REG & CY_PM_CLKDIST_IMO_OUT_MASK;
 186:.\Generated_Source\PSoC5/cyPm.c **** 
 187:.\Generated_Source\PSoC5/cyPm.c ****     /* If IMOCLK2X or SPC OSC is source for clk_imo, set it to IMOCLK */
 188:.\Generated_Source\PSoC5/cyPm.c ****     if(CY_PM_CLKDIST_IMO_OUT_IMO != cyPmClockBackup.clkImoSrc)
 189:.\Generated_Source\PSoC5/cyPm.c ****     {
 190:.\Generated_Source\PSoC5/cyPm.c ****         /* Set IMOCLK to source for clk_imo */
 191:.\Generated_Source\PSoC5/cyPm.c ****         CY_PM_CLKDIST_CR_REG = (CY_PM_CLKDIST_CR_REG & ((uint8)(~CY_PM_CLKDIST_IMO_OUT_MASK))) |
 192:.\Generated_Source\PSoC5/cyPm.c ****                                 CY_PM_CLKDIST_IMO_OUT_IMO;
 193:.\Generated_Source\PSoC5/cyPm.c ****     }    /* Need to change nothing if IMOCLK is source clk_imo */
 194:.\Generated_Source\PSoC5/cyPm.c **** 
 195:.\Generated_Source\PSoC5/cyPm.c ****     /* IMO doubler - disable it (saved above) */
 196:.\Generated_Source\PSoC5/cyPm.c ****     if(0u != (CY_PM_FASTCLK_IMO_CR_REG & CY_PM_FASTCLK_IMO_CR_F2XON))
 197:.\Generated_Source\PSoC5/cyPm.c ****     {
 198:.\Generated_Source\PSoC5/cyPm.c ****         CyIMO_DisableDoubler();
 199:.\Generated_Source\PSoC5/cyPm.c ****     }
 200:.\Generated_Source\PSoC5/cyPm.c **** 
 201:.\Generated_Source\PSoC5/cyPm.c ****     /* Master clock - save divider and set it to divide-by-one (if no yet) */
 202:.\Generated_Source\PSoC5/cyPm.c ****     cyPmClockBackup.clkSyncDiv = CY_PM_CLKDIST_MSTR0_REG;
 203:.\Generated_Source\PSoC5/cyPm.c ****     if(CY_PM_DIV_BY_ONE != cyPmClockBackup.clkSyncDiv)
ARM GAS  C:\Users\Ian\AppData\Local\Temp\ccxtF1i6.s 			page 5


 204:.\Generated_Source\PSoC5/cyPm.c ****     {
 205:.\Generated_Source\PSoC5/cyPm.c ****         CyMasterClk_SetDivider(CY_PM_DIV_BY_ONE);
 206:.\Generated_Source\PSoC5/cyPm.c ****     }    /* No change if master clock divider is 1 */
 207:.\Generated_Source\PSoC5/cyPm.c **** 
 208:.\Generated_Source\PSoC5/cyPm.c ****     /* Master clock source - set it to IMO if not yet. */
 209:.\Generated_Source\PSoC5/cyPm.c ****     if(CY_MASTER_SOURCE_IMO != cyPmClockBackup.masterClkSrc)
 210:.\Generated_Source\PSoC5/cyPm.c ****     {
 211:.\Generated_Source\PSoC5/cyPm.c ****         CyMasterClk_SetSource(CY_MASTER_SOURCE_IMO);
 212:.\Generated_Source\PSoC5/cyPm.c ****     }    /* No change if master clock source is IMO */
 213:.\Generated_Source\PSoC5/cyPm.c **** 
 214:.\Generated_Source\PSoC5/cyPm.c ****     /* Bus clock - save divider and set it, if needed, to divide-by-one */
 215:.\Generated_Source\PSoC5/cyPm.c ****     cyPmClockBackup.clkBusDiv = (uint16) ((uint16) CY_PM_CLK_BUS_MSB_DIV_REG << 8u);
 216:.\Generated_Source\PSoC5/cyPm.c ****     cyPmClockBackup.clkBusDiv |= CY_PM_CLK_BUS_LSB_DIV_REG;
 217:.\Generated_Source\PSoC5/cyPm.c ****     if(CY_PM_BUS_CLK_DIV_BY_ONE != cyPmClockBackup.clkBusDiv)
 218:.\Generated_Source\PSoC5/cyPm.c ****     {
 219:.\Generated_Source\PSoC5/cyPm.c ****         CyBusClk_SetDivider(CY_PM_BUS_CLK_DIV_BY_ONE);
 220:.\Generated_Source\PSoC5/cyPm.c ****     }    /* Do nothing if saved and actual values are equal */
 221:.\Generated_Source\PSoC5/cyPm.c **** 
 222:.\Generated_Source\PSoC5/cyPm.c ****     /* Set number of wait cycles for flash according to CPU frequency in MHz */
 223:.\Generated_Source\PSoC5/cyPm.c ****     CyFlash_SetWaitCycles((uint8)CY_PM_GET_CPU_FREQ_MHZ);
 224:.\Generated_Source\PSoC5/cyPm.c **** 
 225:.\Generated_Source\PSoC5/cyPm.c ****     /* MHz ECO - check enable state and disable if needed */
 226:.\Generated_Source\PSoC5/cyPm.c ****     if(0u != (CY_PM_FASTCLK_XMHZ_CSR_REG & CY_PM_XMHZ_CSR_ENABLE))
 227:.\Generated_Source\PSoC5/cyPm.c ****     {
 228:.\Generated_Source\PSoC5/cyPm.c ****         /* MHz ECO is enabled - save state and disable */
 229:.\Generated_Source\PSoC5/cyPm.c ****         cyPmClockBackup.xmhzEnableState = CY_PM_ENABLED;
 230:.\Generated_Source\PSoC5/cyPm.c ****         CyXTAL_Stop();
 231:.\Generated_Source\PSoC5/cyPm.c ****     }
 232:.\Generated_Source\PSoC5/cyPm.c ****     else
 233:.\Generated_Source\PSoC5/cyPm.c ****     {
 234:.\Generated_Source\PSoC5/cyPm.c ****         /* MHz ECO is disabled - save state */
 235:.\Generated_Source\PSoC5/cyPm.c ****         cyPmClockBackup.xmhzEnableState = CY_PM_DISABLED;
 236:.\Generated_Source\PSoC5/cyPm.c ****     }
 237:.\Generated_Source\PSoC5/cyPm.c **** 
 238:.\Generated_Source\PSoC5/cyPm.c **** 
 239:.\Generated_Source\PSoC5/cyPm.c ****     /***************************************************************************
 240:.\Generated_Source\PSoC5/cyPm.c ****     * Save the enable state of delay between the system bus clock and each of the
 241:.\Generated_Source\PSoC5/cyPm.c ****     * 4 individual analog clocks. This bit non-retention and its value should
 242:.\Generated_Source\PSoC5/cyPm.c ****     * be restored on wakeup.
 243:.\Generated_Source\PSoC5/cyPm.c ****     ***************************************************************************/
 244:.\Generated_Source\PSoC5/cyPm.c ****     if(0u != (CY_PM_CLKDIST_DELAY_REG & CY_PM_CLKDIST_DELAY_EN))
 245:.\Generated_Source\PSoC5/cyPm.c ****     {
 246:.\Generated_Source\PSoC5/cyPm.c ****         cyPmClockBackup.clkDistDelay = CY_PM_ENABLED;
 247:.\Generated_Source\PSoC5/cyPm.c ****     }
 248:.\Generated_Source\PSoC5/cyPm.c ****     else
 249:.\Generated_Source\PSoC5/cyPm.c ****     {
 250:.\Generated_Source\PSoC5/cyPm.c ****         cyPmClockBackup.clkDistDelay = CY_PM_DISABLED;
 251:.\Generated_Source\PSoC5/cyPm.c ****     }
 252:.\Generated_Source\PSoC5/cyPm.c **** }
 253:.\Generated_Source\PSoC5/cyPm.c **** 
 254:.\Generated_Source\PSoC5/cyPm.c **** 
 255:.\Generated_Source\PSoC5/cyPm.c **** /*******************************************************************************
 256:.\Generated_Source\PSoC5/cyPm.c **** * Function Name: CyPmRestoreClocks
 257:.\Generated_Source\PSoC5/cyPm.c **** ********************************************************************************
 258:.\Generated_Source\PSoC5/cyPm.c **** *
 259:.\Generated_Source\PSoC5/cyPm.c **** * Summary:
 260:.\Generated_Source\PSoC5/cyPm.c **** *  Restores any state that was preserved by the last call to CyPmSaveClocks().
ARM GAS  C:\Users\Ian\AppData\Local\Temp\ccxtF1i6.s 			page 6


 261:.\Generated_Source\PSoC5/cyPm.c **** *  The Flash wait state setting is also restored.
 262:.\Generated_Source\PSoC5/cyPm.c **** *
 263:.\Generated_Source\PSoC5/cyPm.c **** *  Note If the Master Clock source is routed through the DSI inputs, then it
 264:.\Generated_Source\PSoC5/cyPm.c **** *  must be set manually to another source before using the
 265:.\Generated_Source\PSoC5/cyPm.c **** *  CyPmSaveClocks()/CyPmRestoreClocks() functions.
 266:.\Generated_Source\PSoC5/cyPm.c **** *
 267:.\Generated_Source\PSoC5/cyPm.c **** *  PSoC 3 and PSoC 5LP:
 268:.\Generated_Source\PSoC5/cyPm.c **** *  The merge region could be used to process state when the megahertz crystal is
 269:.\Generated_Source\PSoC5/cyPm.c **** *  not ready after a hold-off timeout.
 270:.\Generated_Source\PSoC5/cyPm.c **** *
 271:.\Generated_Source\PSoC5/cyPm.c **** *  PSoC 5:
 272:.\Generated_Source\PSoC5/cyPm.c **** *  The 130 ms is given for the megahertz crystal to stabilize. Its readiness is
 273:.\Generated_Source\PSoC5/cyPm.c **** *  not verified after a hold-off timeout.
 274:.\Generated_Source\PSoC5/cyPm.c **** *
 275:.\Generated_Source\PSoC5/cyPm.c **** * Parameters:
 276:.\Generated_Source\PSoC5/cyPm.c **** *  None
 277:.\Generated_Source\PSoC5/cyPm.c **** *
 278:.\Generated_Source\PSoC5/cyPm.c **** * Return:
 279:.\Generated_Source\PSoC5/cyPm.c **** *  None
 280:.\Generated_Source\PSoC5/cyPm.c **** *
 281:.\Generated_Source\PSoC5/cyPm.c **** *******************************************************************************/
 282:.\Generated_Source\PSoC5/cyPm.c **** void CyPmRestoreClocks(void) 
 283:.\Generated_Source\PSoC5/cyPm.c **** {
 284:.\Generated_Source\PSoC5/cyPm.c ****     cystatus status = CYRET_TIMEOUT;
 285:.\Generated_Source\PSoC5/cyPm.c ****     uint16 i;
 286:.\Generated_Source\PSoC5/cyPm.c ****     uint16 clkBusDivTmp;
 287:.\Generated_Source\PSoC5/cyPm.c **** 
 288:.\Generated_Source\PSoC5/cyPm.c **** 
 289:.\Generated_Source\PSoC5/cyPm.c ****     /* Convertion table between CyIMO_SetFreq() parameters and register's value */
 290:.\Generated_Source\PSoC5/cyPm.c ****     const uint8 CYCODE cyPmImoFreqMhz2Reg[7u] = {
 291:.\Generated_Source\PSoC5/cyPm.c ****         CY_IMO_FREQ_12MHZ, CY_IMO_FREQ_6MHZ,  CY_IMO_FREQ_24MHZ, CY_IMO_FREQ_3MHZ,
 292:.\Generated_Source\PSoC5/cyPm.c ****         CY_IMO_FREQ_48MHZ, 5u, 6u};
 293:.\Generated_Source\PSoC5/cyPm.c **** 
 294:.\Generated_Source\PSoC5/cyPm.c ****     /* Restore enable state of delay between system bus clock and ACLKs. */
 295:.\Generated_Source\PSoC5/cyPm.c ****     if(CY_PM_ENABLED == cyPmClockBackup.clkDistDelay)
 296:.\Generated_Source\PSoC5/cyPm.c ****     {
 297:.\Generated_Source\PSoC5/cyPm.c ****         /* Delay for both bandgap and delay line to settle out */
 298:.\Generated_Source\PSoC5/cyPm.c ****         CyDelayCycles((uint32)(CY_PM_CLK_DELAY_BANDGAP_SETTLE_US + CY_PM_CLK_DELAY_BIAS_SETTLE_US) 
 299:.\Generated_Source\PSoC5/cyPm.c ****                         CY_PM_GET_CPU_FREQ_MHZ);
 300:.\Generated_Source\PSoC5/cyPm.c **** 
 301:.\Generated_Source\PSoC5/cyPm.c ****         CY_PM_CLKDIST_DELAY_REG |= CY_PM_CLKDIST_DELAY_EN;
 302:.\Generated_Source\PSoC5/cyPm.c ****     }
 303:.\Generated_Source\PSoC5/cyPm.c **** 
 304:.\Generated_Source\PSoC5/cyPm.c ****     /* MHz ECO restore state */
 305:.\Generated_Source\PSoC5/cyPm.c ****     if(CY_PM_ENABLED == cyPmClockBackup.xmhzEnableState)
 306:.\Generated_Source\PSoC5/cyPm.c ****     {
 307:.\Generated_Source\PSoC5/cyPm.c ****         /***********************************************************************
 308:.\Generated_Source\PSoC5/cyPm.c ****         * Enabling XMHZ XTAL. The actual CyXTAL_Start() with a non zero wait
 309:.\Generated_Source\PSoC5/cyPm.c ****         * period uses FTW for period measurement. This could cause a problem
 310:.\Generated_Source\PSoC5/cyPm.c ****         * if CTW/FTW is used as a wake up time in the low power modes APIs.
 311:.\Generated_Source\PSoC5/cyPm.c ****         * So, the XTAL wait procedure is implemented with a software delay.
 312:.\Generated_Source\PSoC5/cyPm.c ****         ***********************************************************************/
 313:.\Generated_Source\PSoC5/cyPm.c **** 
 314:.\Generated_Source\PSoC5/cyPm.c ****         /* Enable XMHZ XTAL with no wait */
 315:.\Generated_Source\PSoC5/cyPm.c ****         (void) CyXTAL_Start(CY_PM_XTAL_MHZ_NO_WAIT);
 316:.\Generated_Source\PSoC5/cyPm.c **** 
 317:.\Generated_Source\PSoC5/cyPm.c ****         /* Read XERR bit to clear it */
ARM GAS  C:\Users\Ian\AppData\Local\Temp\ccxtF1i6.s 			page 7


 318:.\Generated_Source\PSoC5/cyPm.c ****         (void) CY_PM_FASTCLK_XMHZ_CSR_REG;
 319:.\Generated_Source\PSoC5/cyPm.c **** 
 320:.\Generated_Source\PSoC5/cyPm.c ****         /* Wait */
 321:.\Generated_Source\PSoC5/cyPm.c ****         for(i = CY_PM_MHZ_XTAL_WAIT_NUM_OF_200_US; i > 0u; i--)
 322:.\Generated_Source\PSoC5/cyPm.c ****         {
 323:.\Generated_Source\PSoC5/cyPm.c ****             /* Make a 200 microseconds delay */
 324:.\Generated_Source\PSoC5/cyPm.c ****             CyDelayCycles((uint32)CY_PM_WAIT_200_US * CY_PM_GET_CPU_FREQ_MHZ);
 325:.\Generated_Source\PSoC5/cyPm.c **** 
 326:.\Generated_Source\PSoC5/cyPm.c ****             /* High output indicates oscillator failure */
 327:.\Generated_Source\PSoC5/cyPm.c ****             if(0u == (CY_PM_FASTCLK_XMHZ_CSR_REG & CY_PM_XMHZ_CSR_XERR))
 328:.\Generated_Source\PSoC5/cyPm.c ****             {
 329:.\Generated_Source\PSoC5/cyPm.c ****                 status = CYRET_SUCCESS;
 330:.\Generated_Source\PSoC5/cyPm.c ****                 break;
 331:.\Generated_Source\PSoC5/cyPm.c ****             }
 332:.\Generated_Source\PSoC5/cyPm.c ****         }
 333:.\Generated_Source\PSoC5/cyPm.c **** 
 334:.\Generated_Source\PSoC5/cyPm.c ****         if(CYRET_TIMEOUT == status)
 335:.\Generated_Source\PSoC5/cyPm.c ****         {
 336:.\Generated_Source\PSoC5/cyPm.c ****             /*******************************************************************
 337:.\Generated_Source\PSoC5/cyPm.c ****             * Process the situation when megahertz crystal is not ready.
 338:.\Generated_Source\PSoC5/cyPm.c ****             * Time to stabilize the value is crystal specific.
 339:.\Generated_Source\PSoC5/cyPm.c ****             *******************************************************************/
 340:.\Generated_Source\PSoC5/cyPm.c ****            /* `#START_MHZ_ECO_TIMEOUT` */
 341:.\Generated_Source\PSoC5/cyPm.c **** 
 342:.\Generated_Source\PSoC5/cyPm.c ****            /* `#END` */
 343:.\Generated_Source\PSoC5/cyPm.c ****         }
 344:.\Generated_Source\PSoC5/cyPm.c ****     }   /* (CY_PM_ENABLED == cyPmClockBackup.xmhzEnableState) */
 345:.\Generated_Source\PSoC5/cyPm.c **** 
 346:.\Generated_Source\PSoC5/cyPm.c **** 
 347:.\Generated_Source\PSoC5/cyPm.c ****     /* Temprorary set maximum flash wait cycles */
 348:.\Generated_Source\PSoC5/cyPm.c ****     CyFlash_SetWaitCycles(CY_PM_MAX_FLASH_WAIT_CYCLES);
 349:.\Generated_Source\PSoC5/cyPm.c **** 
 350:.\Generated_Source\PSoC5/cyPm.c ****     /* XTAL and DSI clocks are ready to be source for Master clock. */
 351:.\Generated_Source\PSoC5/cyPm.c ****     if((CY_PM_MASTER_CLK_SRC_XTAL == cyPmClockBackup.masterClkSrc) ||
 352:.\Generated_Source\PSoC5/cyPm.c ****        (CY_PM_MASTER_CLK_SRC_DSI  == cyPmClockBackup.masterClkSrc))
 353:.\Generated_Source\PSoC5/cyPm.c ****     {
 354:.\Generated_Source\PSoC5/cyPm.c ****         /* Restore Master clock's divider */
 355:.\Generated_Source\PSoC5/cyPm.c ****         if(CY_PM_CLKDIST_MSTR0_REG != cyPmClockBackup.clkSyncDiv)
 356:.\Generated_Source\PSoC5/cyPm.c ****         {
 357:.\Generated_Source\PSoC5/cyPm.c ****             /* Restore Master clock divider */
 358:.\Generated_Source\PSoC5/cyPm.c ****             CyMasterClk_SetDivider(cyPmClockBackup.clkSyncDiv);
 359:.\Generated_Source\PSoC5/cyPm.c ****         }
 360:.\Generated_Source\PSoC5/cyPm.c **** 
 361:.\Generated_Source\PSoC5/cyPm.c ****         /* Restore Master clock source */
 362:.\Generated_Source\PSoC5/cyPm.c ****         CyMasterClk_SetSource(cyPmClockBackup.masterClkSrc);
 363:.\Generated_Source\PSoC5/cyPm.c ****     }
 364:.\Generated_Source\PSoC5/cyPm.c **** 
 365:.\Generated_Source\PSoC5/cyPm.c ****     /* IMO - restore IMO frequency */
 366:.\Generated_Source\PSoC5/cyPm.c ****     if((0u != (cyPmClockBackup.imoUsbClk & CY_PM_FASTCLK_IMO_CR_USB)) &&
 367:.\Generated_Source\PSoC5/cyPm.c ****         (CY_IMO_FREQ_24MHZ == cyPmImoFreqMhz2Reg[cyPmClockBackup.imoFreq]))
 368:.\Generated_Source\PSoC5/cyPm.c ****     {
 369:.\Generated_Source\PSoC5/cyPm.c ****         /* Restore IMO frequency (24 MHz) and trim it for USB */
 370:.\Generated_Source\PSoC5/cyPm.c ****         CyIMO_SetFreq(CY_IMO_FREQ_USB);
 371:.\Generated_Source\PSoC5/cyPm.c ****     }
 372:.\Generated_Source\PSoC5/cyPm.c ****     else
 373:.\Generated_Source\PSoC5/cyPm.c ****     {
 374:.\Generated_Source\PSoC5/cyPm.c ****         /* Restore IMO frequency */
ARM GAS  C:\Users\Ian\AppData\Local\Temp\ccxtF1i6.s 			page 8


 375:.\Generated_Source\PSoC5/cyPm.c ****         CyIMO_SetFreq(cyPmImoFreqMhz2Reg[cyPmClockBackup.imoFreq]);
 376:.\Generated_Source\PSoC5/cyPm.c **** 
 377:.\Generated_Source\PSoC5/cyPm.c ****         if(0u != (cyPmClockBackup.imoUsbClk & CY_PM_FASTCLK_IMO_CR_USB))
 378:.\Generated_Source\PSoC5/cyPm.c ****         {
 379:.\Generated_Source\PSoC5/cyPm.c ****             CY_PM_FASTCLK_IMO_CR_REG |= CY_PM_FASTCLK_IMO_CR_USB;
 380:.\Generated_Source\PSoC5/cyPm.c ****         }
 381:.\Generated_Source\PSoC5/cyPm.c ****         else
 382:.\Generated_Source\PSoC5/cyPm.c ****         {
 383:.\Generated_Source\PSoC5/cyPm.c ****             CY_PM_FASTCLK_IMO_CR_REG &= ((uint8)(~CY_PM_FASTCLK_IMO_CR_USB));
 384:.\Generated_Source\PSoC5/cyPm.c ****         }
 385:.\Generated_Source\PSoC5/cyPm.c ****     }
 386:.\Generated_Source\PSoC5/cyPm.c **** 
 387:.\Generated_Source\PSoC5/cyPm.c ****     /* IMO - restore enable state if needed */
 388:.\Generated_Source\PSoC5/cyPm.c ****     if((CY_PM_ENABLED == cyPmClockBackup.imoEnable) &&
 389:.\Generated_Source\PSoC5/cyPm.c ****        (0u == (CY_PM_ACT_CFG0_IMO & CY_PM_ACT_CFG0_REG)))
 390:.\Generated_Source\PSoC5/cyPm.c ****     {
 391:.\Generated_Source\PSoC5/cyPm.c ****         /* IMO - restore enabled state */
 392:.\Generated_Source\PSoC5/cyPm.c ****         CyIMO_Start(CY_PM_IMO_NO_WAIT_TO_SETTLE);
 393:.\Generated_Source\PSoC5/cyPm.c ****     }
 394:.\Generated_Source\PSoC5/cyPm.c **** 
 395:.\Generated_Source\PSoC5/cyPm.c ****     /* IMO - restore IMOCLK source */
 396:.\Generated_Source\PSoC5/cyPm.c ****     CyIMO_SetSource(cyPmClockBackup.imoClkSrc);
 397:.\Generated_Source\PSoC5/cyPm.c **** 
 398:.\Generated_Source\PSoC5/cyPm.c ****     /* Restore IMO doubler enable state (turned off by CyPmSaveClocks()) */
 399:.\Generated_Source\PSoC5/cyPm.c ****     if(CY_PM_ENABLED == cyPmClockBackup.imo2x)
 400:.\Generated_Source\PSoC5/cyPm.c ****     {
 401:.\Generated_Source\PSoC5/cyPm.c ****         CyIMO_EnableDoubler();
 402:.\Generated_Source\PSoC5/cyPm.c ****     }
 403:.\Generated_Source\PSoC5/cyPm.c **** 
 404:.\Generated_Source\PSoC5/cyPm.c ****     /* IMO - restore clk_imo source, if needed */
 405:.\Generated_Source\PSoC5/cyPm.c ****     if(cyPmClockBackup.clkImoSrc != (CY_PM_CLKDIST_CR_REG & CY_PM_CLKDIST_IMO_OUT_MASK))
 406:.\Generated_Source\PSoC5/cyPm.c ****     {
 407:.\Generated_Source\PSoC5/cyPm.c ****         CY_PM_CLKDIST_CR_REG = (CY_PM_CLKDIST_CR_REG & ((uint8)(~CY_PM_CLKDIST_IMO_OUT_MASK))) |
 408:.\Generated_Source\PSoC5/cyPm.c ****                                 cyPmClockBackup.clkImoSrc;
 409:.\Generated_Source\PSoC5/cyPm.c ****     }
 410:.\Generated_Source\PSoC5/cyPm.c **** 
 411:.\Generated_Source\PSoC5/cyPm.c **** 
 412:.\Generated_Source\PSoC5/cyPm.c ****     /* PLL restore state */
 413:.\Generated_Source\PSoC5/cyPm.c ****     if(CY_PM_ENABLED == cyPmClockBackup.pllEnableState)
 414:.\Generated_Source\PSoC5/cyPm.c ****     {
 415:.\Generated_Source\PSoC5/cyPm.c ****         /***********************************************************************
 416:.\Generated_Source\PSoC5/cyPm.c ****         * Enable PLL. The actual CyPLL_OUT_Start() without wait period uses FTW
 417:.\Generated_Source\PSoC5/cyPm.c ****         * for period measurement. This could cause a problem if CTW/FTW is used
 418:.\Generated_Source\PSoC5/cyPm.c ****         * as a wakeup time in the low power modes APIs. To omit this issue PLL
 419:.\Generated_Source\PSoC5/cyPm.c ****         * wait procedure is implemented with a software delay.
 420:.\Generated_Source\PSoC5/cyPm.c ****         ***********************************************************************/
 421:.\Generated_Source\PSoC5/cyPm.c ****         status = CYRET_TIMEOUT;
 422:.\Generated_Source\PSoC5/cyPm.c **** 
 423:.\Generated_Source\PSoC5/cyPm.c ****         /* Enable PLL */
 424:.\Generated_Source\PSoC5/cyPm.c ****         (void) CyPLL_OUT_Start(CY_PM_PLL_OUT_NO_WAIT);
 425:.\Generated_Source\PSoC5/cyPm.c **** 
 426:.\Generated_Source\PSoC5/cyPm.c ****         /* Read to clear lock status after delay */
 427:.\Generated_Source\PSoC5/cyPm.c ****         CyDelayUs((uint32)80u);
 428:.\Generated_Source\PSoC5/cyPm.c ****         (void) CY_PM_FASTCLK_PLL_SR_REG;
 429:.\Generated_Source\PSoC5/cyPm.c **** 
 430:.\Generated_Source\PSoC5/cyPm.c ****         /* It should take 250 us lock: 251-80 = 171 */
 431:.\Generated_Source\PSoC5/cyPm.c ****         for(i = 171u; i > 0u; i--)
ARM GAS  C:\Users\Ian\AppData\Local\Temp\ccxtF1i6.s 			page 9


 432:.\Generated_Source\PSoC5/cyPm.c ****         {
 433:.\Generated_Source\PSoC5/cyPm.c ****             CyDelayUs((uint32)1u);
 434:.\Generated_Source\PSoC5/cyPm.c **** 
 435:.\Generated_Source\PSoC5/cyPm.c ****             /* Accept PLL is OK after two consecutive polls indicate PLL lock */
 436:.\Generated_Source\PSoC5/cyPm.c ****             if((0u != (CY_PM_FASTCLK_PLL_SR_REG & CY_PM_FASTCLK_PLL_LOCKED)) &&
 437:.\Generated_Source\PSoC5/cyPm.c ****                (0u != (CY_PM_FASTCLK_PLL_SR_REG & CY_PM_FASTCLK_PLL_LOCKED)))
 438:.\Generated_Source\PSoC5/cyPm.c ****             {
 439:.\Generated_Source\PSoC5/cyPm.c ****                 status = CYRET_SUCCESS;
 440:.\Generated_Source\PSoC5/cyPm.c ****                 break;
 441:.\Generated_Source\PSoC5/cyPm.c ****             }
 442:.\Generated_Source\PSoC5/cyPm.c ****         }
 443:.\Generated_Source\PSoC5/cyPm.c **** 
 444:.\Generated_Source\PSoC5/cyPm.c ****         if(CYRET_TIMEOUT == status)
 445:.\Generated_Source\PSoC5/cyPm.c ****         {
 446:.\Generated_Source\PSoC5/cyPm.c ****             /*******************************************************************
 447:.\Generated_Source\PSoC5/cyPm.c ****             * Process the situation when PLL is not ready.
 448:.\Generated_Source\PSoC5/cyPm.c ****             *******************************************************************/
 449:.\Generated_Source\PSoC5/cyPm.c ****            /* `#START_PLL_TIMEOUT` */
 450:.\Generated_Source\PSoC5/cyPm.c **** 
 451:.\Generated_Source\PSoC5/cyPm.c ****            /* `#END` */
 452:.\Generated_Source\PSoC5/cyPm.c ****         }
 453:.\Generated_Source\PSoC5/cyPm.c ****     }   /* (CY_PM_ENABLED == cyPmClockBackup.pllEnableState) */
 454:.\Generated_Source\PSoC5/cyPm.c **** 
 455:.\Generated_Source\PSoC5/cyPm.c **** 
 456:.\Generated_Source\PSoC5/cyPm.c ****     /* PLL and IMO is ready to be source for Master clock */
 457:.\Generated_Source\PSoC5/cyPm.c ****     if((CY_PM_MASTER_CLK_SRC_IMO == cyPmClockBackup.masterClkSrc) ||
 458:.\Generated_Source\PSoC5/cyPm.c ****        (CY_PM_MASTER_CLK_SRC_PLL == cyPmClockBackup.masterClkSrc))
 459:.\Generated_Source\PSoC5/cyPm.c ****     {
 460:.\Generated_Source\PSoC5/cyPm.c ****         /* Restore Master clock divider */
 461:.\Generated_Source\PSoC5/cyPm.c ****         if(CY_PM_CLKDIST_MSTR0_REG != cyPmClockBackup.clkSyncDiv)
 462:.\Generated_Source\PSoC5/cyPm.c ****         {
 463:.\Generated_Source\PSoC5/cyPm.c ****             CyMasterClk_SetDivider(cyPmClockBackup.clkSyncDiv);
 464:.\Generated_Source\PSoC5/cyPm.c ****         }
 465:.\Generated_Source\PSoC5/cyPm.c **** 
 466:.\Generated_Source\PSoC5/cyPm.c ****         /* Restore Master clock source */
 467:.\Generated_Source\PSoC5/cyPm.c ****         CyMasterClk_SetSource(cyPmClockBackup.masterClkSrc);
 468:.\Generated_Source\PSoC5/cyPm.c ****     }
 469:.\Generated_Source\PSoC5/cyPm.c **** 
 470:.\Generated_Source\PSoC5/cyPm.c ****     /* IMO - disable if it was originally disabled */
 471:.\Generated_Source\PSoC5/cyPm.c ****     if((CY_PM_DISABLED == cyPmClockBackup.imoEnable) &&
 472:.\Generated_Source\PSoC5/cyPm.c ****        (0u != (CY_PM_ACT_CFG0_IMO & CY_PM_ACT_CFG0_REG)))
 473:.\Generated_Source\PSoC5/cyPm.c ****     {
 474:.\Generated_Source\PSoC5/cyPm.c ****         CyIMO_Stop();
 475:.\Generated_Source\PSoC5/cyPm.c ****     }
 476:.\Generated_Source\PSoC5/cyPm.c **** 
 477:.\Generated_Source\PSoC5/cyPm.c ****     /* Bus clock - restore divider, if needed */
 478:.\Generated_Source\PSoC5/cyPm.c ****     clkBusDivTmp = (uint16) ((uint16)CY_PM_CLK_BUS_MSB_DIV_REG << 8u);
 479:.\Generated_Source\PSoC5/cyPm.c ****     clkBusDivTmp |= CY_PM_CLK_BUS_LSB_DIV_REG;
 480:.\Generated_Source\PSoC5/cyPm.c ****     if(cyPmClockBackup.clkBusDiv != clkBusDivTmp)
 481:.\Generated_Source\PSoC5/cyPm.c ****     {
 482:.\Generated_Source\PSoC5/cyPm.c ****         CyBusClk_SetDivider(cyPmClockBackup.clkBusDiv);
 483:.\Generated_Source\PSoC5/cyPm.c ****     }
 484:.\Generated_Source\PSoC5/cyPm.c **** 
 485:.\Generated_Source\PSoC5/cyPm.c ****     /* Restore flash wait cycles */
 486:.\Generated_Source\PSoC5/cyPm.c ****     CY_PM_CACHE_CR_REG = ((CY_PM_CACHE_CR_REG & ((uint8)(~CY_PM_CACHE_CR_CYCLES_MASK))) |
 487:.\Generated_Source\PSoC5/cyPm.c ****                            cyPmClockBackup.flashWaitCycles);
 488:.\Generated_Source\PSoC5/cyPm.c **** 
ARM GAS  C:\Users\Ian\AppData\Local\Temp\ccxtF1i6.s 			page 10


 489:.\Generated_Source\PSoC5/cyPm.c ****     /* Digital and analog clocks - restore state */
 490:.\Generated_Source\PSoC5/cyPm.c ****     CY_PM_ACT_CFG1_REG = cyPmClockBackup.enClkA;
 491:.\Generated_Source\PSoC5/cyPm.c ****     CY_PM_ACT_CFG2_REG = cyPmClockBackup.enClkD;
 492:.\Generated_Source\PSoC5/cyPm.c **** }
 493:.\Generated_Source\PSoC5/cyPm.c **** 
 494:.\Generated_Source\PSoC5/cyPm.c **** 
 495:.\Generated_Source\PSoC5/cyPm.c **** /*******************************************************************************
 496:.\Generated_Source\PSoC5/cyPm.c **** * Function Name: CyPmAltAct
 497:.\Generated_Source\PSoC5/cyPm.c **** ********************************************************************************
 498:.\Generated_Source\PSoC5/cyPm.c **** *
 499:.\Generated_Source\PSoC5/cyPm.c **** * Summary:
 500:.\Generated_Source\PSoC5/cyPm.c **** *  Puts the part into the Alternate Active (Standby) state. The Alternate Active
 501:.\Generated_Source\PSoC5/cyPm.c **** *  state can allow for any of the capabilities of the device to be active, but
 502:.\Generated_Source\PSoC5/cyPm.c **** *  the operation of this function is dependent on the CPU being disabled during
 503:.\Generated_Source\PSoC5/cyPm.c **** *  the Alternate Active state. The configuration code and the component APIs
 504:.\Generated_Source\PSoC5/cyPm.c **** *  will configure the template for the Alternate Active state to be the same as
 505:.\Generated_Source\PSoC5/cyPm.c **** *  the Active state with the exception that the CPU will be disabled during
 506:.\Generated_Source\PSoC5/cyPm.c **** *  Alternate Active.
 507:.\Generated_Source\PSoC5/cyPm.c **** *
 508:.\Generated_Source\PSoC5/cyPm.c **** *  Note Before calling this function, you must manually configure the power mode
 509:.\Generated_Source\PSoC5/cyPm.c **** *  of the source clocks for the timer that is used as the wakeup timer.
 510:.\Generated_Source\PSoC5/cyPm.c **** *
 511:.\Generated_Source\PSoC5/cyPm.c **** *  PSoC 3:
 512:.\Generated_Source\PSoC5/cyPm.c **** *  Before switching to Alternate Active, if a wakeupTime other than NONE is
 513:.\Generated_Source\PSoC5/cyPm.c **** *  specified, then the appropriate timer state is configured as specified with
 514:.\Generated_Source\PSoC5/cyPm.c **** *  the interrupt for that timer disabled.  The wakeup source will be the
 515:.\Generated_Source\PSoC5/cyPm.c **** *  combination of the values specified in the wakeupSource and any timer
 516:.\Generated_Source\PSoC5/cyPm.c **** *  specified in the wakeupTime argument.  Once the wakeup condition is
 517:.\Generated_Source\PSoC5/cyPm.c **** *  satisfied, then all saved state is restored and the function returns in the
 518:.\Generated_Source\PSoC5/cyPm.c **** *  Active state.
 519:.\Generated_Source\PSoC5/cyPm.c **** *
 520:.\Generated_Source\PSoC5/cyPm.c **** *  Note that if the wakeupTime is made with a different value, the period before
 521:.\Generated_Source\PSoC5/cyPm.c **** *  the wakeup occurs can be significantly shorter than the specified time.  If
 522:.\Generated_Source\PSoC5/cyPm.c **** *  the next call is made with the same wakeupTime value, then the wakeup will
 523:.\Generated_Source\PSoC5/cyPm.c **** *  occur the specified period after the previous wakeup occurred.
 524:.\Generated_Source\PSoC5/cyPm.c **** *
 525:.\Generated_Source\PSoC5/cyPm.c **** *  If a wakeupTime other than NONE is specified, then upon exit the state of the
 526:.\Generated_Source\PSoC5/cyPm.c **** *  specified timer will be left as specified by wakeupTime with the timer
 527:.\Generated_Source\PSoC5/cyPm.c **** *  enabled and the interrupt disabled.  If the CTW, FTW or One PPS is already
 528:.\Generated_Source\PSoC5/cyPm.c **** *  configured for wakeup, for example with the SleepTimer or RTC components,
 529:.\Generated_Source\PSoC5/cyPm.c **** *  then specify NONE for the wakeupTime and include the appropriate source for
 530:.\Generated_Source\PSoC5/cyPm.c **** *  wakeupSource.
 531:.\Generated_Source\PSoC5/cyPm.c **** *
 532:.\Generated_Source\PSoC5/cyPm.c **** *  PSoC 5LP:
 533:.\Generated_Source\PSoC5/cyPm.c **** *  This function is used to both enter the Alternate Active mode and halt the
 534:.\Generated_Source\PSoC5/cyPm.c **** *  processor.  For PSoC 3 these two actions must be paired together.  With PSoC
 535:.\Generated_Source\PSoC5/cyPm.c **** *  5LP the processor can be halted independently with the __WFI() function from
 536:.\Generated_Source\PSoC5/cyPm.c **** *  the CMSIS library that is included in Creator.  This function should be used
 537:.\Generated_Source\PSoC5/cyPm.c **** *  instead when the action required is just to halt the processor until an
 538:.\Generated_Source\PSoC5/cyPm.c **** *  enabled interrupt occurs.
 539:.\Generated_Source\PSoC5/cyPm.c **** *
 540:.\Generated_Source\PSoC5/cyPm.c **** *  The wakeupTime parameter is not used for this device. It must be set to zero
 541:.\Generated_Source\PSoC5/cyPm.c **** *  (PM_ALT_ACT_TIME_NONE). The wake up time configuration can be done by a
 542:.\Generated_Source\PSoC5/cyPm.c **** *  separate component: the CTW wakeup interval should be configured with the
 543:.\Generated_Source\PSoC5/cyPm.c **** *  Sleep Timer component and one second interval should be configured with the
 544:.\Generated_Source\PSoC5/cyPm.c **** *  RTC component.
 545:.\Generated_Source\PSoC5/cyPm.c **** *
ARM GAS  C:\Users\Ian\AppData\Local\Temp\ccxtF1i6.s 			page 11


 546:.\Generated_Source\PSoC5/cyPm.c **** *  The wakeup behavior depends on the wakeupSource parameter in the following
 547:.\Generated_Source\PSoC5/cyPm.c **** *  manner: upon function execution the device will be switched from Active to
 548:.\Generated_Source\PSoC5/cyPm.c **** *  Alternate Active mode and then the CPU will be halted. When an enabled wakeup
 549:.\Generated_Source\PSoC5/cyPm.c **** *  event occurs the device will return to Active mode.  Similarly when an
 550:.\Generated_Source\PSoC5/cyPm.c **** *  enabled interrupt occurs the CPU will be started. These two actions will
 551:.\Generated_Source\PSoC5/cyPm.c **** *  occur together provided that the event that occurs is an enabled wakeup
 552:.\Generated_Source\PSoC5/cyPm.c **** *  source and also generates an interrupt. If just the wakeup event occurs then
 553:.\Generated_Source\PSoC5/cyPm.c **** *  the device will be in Active mode, but the CPU will remain halted waiting for
 554:.\Generated_Source\PSoC5/cyPm.c **** *  an interrupt. If an interrupt occurs from something other than a wakeup
 555:.\Generated_Source\PSoC5/cyPm.c **** *  source, then the CPU will restart with the device in Alternate Active mode
 556:.\Generated_Source\PSoC5/cyPm.c **** *  until a wakeup event occurs.
 557:.\Generated_Source\PSoC5/cyPm.c **** *
 558:.\Generated_Source\PSoC5/cyPm.c **** *  For example, if CyPmAltAct(PM_ALT_ACT_TIME_NONE, PM_ALT_ACT_SRC_PICU) is
 559:.\Generated_Source\PSoC5/cyPm.c **** *  called and PICU interrupt occurs, the CPU will be started and device will be
 560:.\Generated_Source\PSoC5/cyPm.c **** *  switched into Active mode. And if CyPmAltAct(PM_ALT_ACT_TIME_NONE,
 561:.\Generated_Source\PSoC5/cyPm.c **** *  PM_ALT_ACT_SRC_NONE) is called and PICU interrupt occurs, the CPU will be
 562:.\Generated_Source\PSoC5/cyPm.c **** *  started while device remains in Alternate Active mode.
 563:.\Generated_Source\PSoC5/cyPm.c **** *
 564:.\Generated_Source\PSoC5/cyPm.c **** * Parameters:
 565:.\Generated_Source\PSoC5/cyPm.c **** *  wakeupTime: Specifies a timer wakeup source and the frequency of that
 566:.\Generated_Source\PSoC5/cyPm.c **** *              source. For PSoC 5LP this parameter is ignored.
 567:.\Generated_Source\PSoC5/cyPm.c **** *
 568:.\Generated_Source\PSoC5/cyPm.c **** *           Define                      Time
 569:.\Generated_Source\PSoC5/cyPm.c **** *  PM_ALT_ACT_TIME_NONE             None
 570:.\Generated_Source\PSoC5/cyPm.c **** *  PM_ALT_ACT_TIME_ONE_PPS          One PPS: 1 second
 571:.\Generated_Source\PSoC5/cyPm.c **** *  PM_ALT_ACT_TIME_CTW_2MS          CTW: 2 ms
 572:.\Generated_Source\PSoC5/cyPm.c **** *  PM_ALT_ACT_TIME_CTW_4MS          CTW: 4 ms
 573:.\Generated_Source\PSoC5/cyPm.c **** *  PM_ALT_ACT_TIME_CTW_8MS          CTW: 8 ms
 574:.\Generated_Source\PSoC5/cyPm.c **** *  PM_ALT_ACT_TIME_CTW_16MS         CTW: 16 ms
 575:.\Generated_Source\PSoC5/cyPm.c **** *  PM_ALT_ACT_TIME_CTW_32MS         CTW: 32 ms
 576:.\Generated_Source\PSoC5/cyPm.c **** *  PM_ALT_ACT_TIME_CTW_64MS         CTW: 64 ms
 577:.\Generated_Source\PSoC5/cyPm.c **** *  PM_ALT_ACT_TIME_CTW_128MS        CTW: 128 ms
 578:.\Generated_Source\PSoC5/cyPm.c **** *  PM_ALT_ACT_TIME_CTW_256MS        CTW: 256 ms
 579:.\Generated_Source\PSoC5/cyPm.c **** *  PM_ALT_ACT_TIME_CTW_512MS        CTW: 512 ms
 580:.\Generated_Source\PSoC5/cyPm.c **** *  PM_ALT_ACT_TIME_CTW_1024MS       CTW: 1024 ms
 581:.\Generated_Source\PSoC5/cyPm.c **** *  PM_ALT_ACT_TIME_CTW_2048MS       CTW: 2048 ms
 582:.\Generated_Source\PSoC5/cyPm.c **** *  PM_ALT_ACT_TIME_CTW_4096MS       CTW: 4096 ms
 583:.\Generated_Source\PSoC5/cyPm.c **** *  PM_ALT_ACT_TIME_FTW(1-256)*       FTW: 10us to 2.56 ms
 584:.\Generated_Source\PSoC5/cyPm.c **** *
 585:.\Generated_Source\PSoC5/cyPm.c **** *  *Note:   PM_ALT_ACT_TIME_FTW() is a macro that takes an argument that
 586:.\Generated_Source\PSoC5/cyPm.c **** *           specifies how many increments of 10 us to delay.
 587:.\Generated_Source\PSoC5/cyPm.c ****             For PSoC 3 silicon the valid range of  values is 1 to 256.
 588:.\Generated_Source\PSoC5/cyPm.c **** *
 589:.\Generated_Source\PSoC5/cyPm.c **** *  wakeUpSource:    Specifies a bitwise mask of wakeup sources. In addition, if
 590:.\Generated_Source\PSoC5/cyPm.c **** *                   a wakeupTime has been specified, the associated timer will be
 591:.\Generated_Source\PSoC5/cyPm.c **** *                   included as a wakeup source.
 592:.\Generated_Source\PSoC5/cyPm.c **** *
 593:.\Generated_Source\PSoC5/cyPm.c **** *           Define                      Source
 594:.\Generated_Source\PSoC5/cyPm.c **** *  PM_ALT_ACT_SRC_NONE              None
 595:.\Generated_Source\PSoC5/cyPm.c **** *  PM_ALT_ACT_SRC_COMPARATOR0       Comparator 0
 596:.\Generated_Source\PSoC5/cyPm.c **** *  PM_ALT_ACT_SRC_COMPARATOR1       Comparator 1
 597:.\Generated_Source\PSoC5/cyPm.c **** *  PM_ALT_ACT_SRC_COMPARATOR2       Comparator 2
 598:.\Generated_Source\PSoC5/cyPm.c **** *  PM_ALT_ACT_SRC_COMPARATOR3       Comparator 3
 599:.\Generated_Source\PSoC5/cyPm.c **** *  PM_ALT_ACT_SRC_INTERRUPT         Interrupt
 600:.\Generated_Source\PSoC5/cyPm.c **** *  PM_ALT_ACT_SRC_PICU              PICU
 601:.\Generated_Source\PSoC5/cyPm.c **** *  PM_ALT_ACT_SRC_I2C               I2C
 602:.\Generated_Source\PSoC5/cyPm.c **** *  PM_ALT_ACT_SRC_BOOSTCONVERTER    Boost Converter
ARM GAS  C:\Users\Ian\AppData\Local\Temp\ccxtF1i6.s 			page 12


 603:.\Generated_Source\PSoC5/cyPm.c **** *  PM_ALT_ACT_SRC_FTW               Fast Timewheel*
 604:.\Generated_Source\PSoC5/cyPm.c **** *  PM_ALT_ACT_SRC_VD                High and Low Voltage Detection (HVI, LVI)*
 605:.\Generated_Source\PSoC5/cyPm.c **** *  PM_ALT_ACT_SRC_CTW               Central Timewheel**
 606:.\Generated_Source\PSoC5/cyPm.c **** *  PM_ALT_ACT_SRC_ONE_PPS           One PPS**
 607:.\Generated_Source\PSoC5/cyPm.c **** *  PM_ALT_ACT_SRC_LCD               LCD
 608:.\Generated_Source\PSoC5/cyPm.c **** *
 609:.\Generated_Source\PSoC5/cyPm.c **** *  *Note : FTW and HVI/LVI wakeup signals are in the same mask bit.
 610:.\Generated_Source\PSoC5/cyPm.c **** *  **Note: CTW and One PPS wakeup signals are in the same mask bit.
 611:.\Generated_Source\PSoC5/cyPm.c **** *
 612:.\Generated_Source\PSoC5/cyPm.c **** *  When specifying a Comparator as the wakeupSource, an instance specific define
 613:.\Generated_Source\PSoC5/cyPm.c **** *  that will track with the specific comparator that the instance
 614:.\Generated_Source\PSoC5/cyPm.c **** *  is placed into should be used. As an example, for a Comparator instance named MyComp the
 615:.\Generated_Source\PSoC5/cyPm.c **** *  value to OR into the mask is: MyComp_ctComp__CMP_MASK.
 616:.\Generated_Source\PSoC5/cyPm.c **** *
 617:.\Generated_Source\PSoC5/cyPm.c **** *  When CTW, FTW or One PPS is used as a wakeup source, the CyPmReadStatus()
 618:.\Generated_Source\PSoC5/cyPm.c **** *  function must be called upon wakeup with a corresponding parameter. Please
 619:.\Generated_Source\PSoC5/cyPm.c **** *  refer to the CyPmReadStatus() API in the System Reference Guide for more
 620:.\Generated_Source\PSoC5/cyPm.c **** *  information.
 621:.\Generated_Source\PSoC5/cyPm.c **** *
 622:.\Generated_Source\PSoC5/cyPm.c **** * Return:
 623:.\Generated_Source\PSoC5/cyPm.c **** *  None
 624:.\Generated_Source\PSoC5/cyPm.c **** *
 625:.\Generated_Source\PSoC5/cyPm.c **** * Reentrant:
 626:.\Generated_Source\PSoC5/cyPm.c **** *  No
 627:.\Generated_Source\PSoC5/cyPm.c **** *
 628:.\Generated_Source\PSoC5/cyPm.c **** * Side Effects:
 629:.\Generated_Source\PSoC5/cyPm.c **** *  If a wakeupTime other than NONE is specified, then upon exit the state of the
 630:.\Generated_Source\PSoC5/cyPm.c **** *  specified timer will be left as specified by wakeupTime with the timer
 631:.\Generated_Source\PSoC5/cyPm.c **** *  enabled and the interrupt disabled.  Also, the ILO 1 KHz (if CTW timer is
 632:.\Generated_Source\PSoC5/cyPm.c **** *  used as wakeup time) or ILO 100 KHz (if the FTW timer is used as wakeup time)
 633:.\Generated_Source\PSoC5/cyPm.c **** *  will be left started.
 634:.\Generated_Source\PSoC5/cyPm.c **** *
 635:.\Generated_Source\PSoC5/cyPm.c **** *******************************************************************************/
 636:.\Generated_Source\PSoC5/cyPm.c **** void CyPmAltAct(uint16 wakeupTime, uint16 wakeupSource) 
 637:.\Generated_Source\PSoC5/cyPm.c **** {
 638:.\Generated_Source\PSoC5/cyPm.c ****     #if(CY_PSOC5)
 639:.\Generated_Source\PSoC5/cyPm.c **** 
 640:.\Generated_Source\PSoC5/cyPm.c ****         /* Arguments expected to be 0 */
 641:.\Generated_Source\PSoC5/cyPm.c ****         CYASSERT(PM_ALT_ACT_TIME_NONE == wakeupTime);
 642:.\Generated_Source\PSoC5/cyPm.c **** 
 643:.\Generated_Source\PSoC5/cyPm.c ****         if(0u != wakeupTime)
 644:.\Generated_Source\PSoC5/cyPm.c ****         {
 645:.\Generated_Source\PSoC5/cyPm.c ****             /* To remove unreferenced local variable warning */
 646:.\Generated_Source\PSoC5/cyPm.c ****         }
 647:.\Generated_Source\PSoC5/cyPm.c **** 
 648:.\Generated_Source\PSoC5/cyPm.c ****     #endif /* (CY_PSOC5) */
 649:.\Generated_Source\PSoC5/cyPm.c **** 
 650:.\Generated_Source\PSoC5/cyPm.c **** 
 651:.\Generated_Source\PSoC5/cyPm.c ****     #if(CY_PSOC3)
 652:.\Generated_Source\PSoC5/cyPm.c **** 
 653:.\Generated_Source\PSoC5/cyPm.c ****         /* FTW - save current and set new configuration */
 654:.\Generated_Source\PSoC5/cyPm.c ****         if((wakeupTime >= PM_ALT_ACT_TIME_FTW(1u)) && (wakeupTime <= PM_ALT_ACT_TIME_FTW(256u)))
 655:.\Generated_Source\PSoC5/cyPm.c ****         {
 656:.\Generated_Source\PSoC5/cyPm.c ****             CyPmFtwSetInterval(PM_ALT_ACT_FTW_INTERVAL(wakeupTime));
 657:.\Generated_Source\PSoC5/cyPm.c **** 
 658:.\Generated_Source\PSoC5/cyPm.c ****             /* Include associated timer to wakeupSource */
 659:.\Generated_Source\PSoC5/cyPm.c ****             wakeupSource |= PM_ALT_ACT_SRC_FTW;
ARM GAS  C:\Users\Ian\AppData\Local\Temp\ccxtF1i6.s 			page 13


 660:.\Generated_Source\PSoC5/cyPm.c ****         }
 661:.\Generated_Source\PSoC5/cyPm.c **** 
 662:.\Generated_Source\PSoC5/cyPm.c ****         /* CTW - save current and set new configuration */
 663:.\Generated_Source\PSoC5/cyPm.c ****         if((wakeupTime >= PM_ALT_ACT_TIME_CTW_2MS) && (wakeupTime <= PM_ALT_ACT_TIME_CTW_4096MS))
 664:.\Generated_Source\PSoC5/cyPm.c ****         {
 665:.\Generated_Source\PSoC5/cyPm.c ****             /* Save current CTW configuration and set new one */
 666:.\Generated_Source\PSoC5/cyPm.c ****             CyPmCtwSetInterval((uint8)(wakeupTime - 1u));
 667:.\Generated_Source\PSoC5/cyPm.c **** 
 668:.\Generated_Source\PSoC5/cyPm.c ****             /* Include associated timer to wakeupSource */
 669:.\Generated_Source\PSoC5/cyPm.c ****             wakeupSource |= PM_ALT_ACT_SRC_CTW;
 670:.\Generated_Source\PSoC5/cyPm.c ****         }
 671:.\Generated_Source\PSoC5/cyPm.c **** 
 672:.\Generated_Source\PSoC5/cyPm.c ****         /* 1PPS - save current and set new configuration */
 673:.\Generated_Source\PSoC5/cyPm.c ****         if(PM_ALT_ACT_TIME_ONE_PPS == wakeupTime)
 674:.\Generated_Source\PSoC5/cyPm.c ****         {
 675:.\Generated_Source\PSoC5/cyPm.c ****             /* Save current 1PPS configuration and set new one */
 676:.\Generated_Source\PSoC5/cyPm.c ****             CyPmOppsSet();
 677:.\Generated_Source\PSoC5/cyPm.c **** 
 678:.\Generated_Source\PSoC5/cyPm.c ****             /* Include associated timer to wakeupSource */
 679:.\Generated_Source\PSoC5/cyPm.c ****             wakeupSource |= PM_ALT_ACT_SRC_ONE_PPS;
 680:.\Generated_Source\PSoC5/cyPm.c ****         }
 681:.\Generated_Source\PSoC5/cyPm.c **** 
 682:.\Generated_Source\PSoC5/cyPm.c ****     #endif /* (CY_PSOC3) */
 683:.\Generated_Source\PSoC5/cyPm.c **** 
 684:.\Generated_Source\PSoC5/cyPm.c **** 
 685:.\Generated_Source\PSoC5/cyPm.c ****     /* Save and set new wake up configuration */
 686:.\Generated_Source\PSoC5/cyPm.c **** 
 687:.\Generated_Source\PSoC5/cyPm.c ****     /* Interrupt, PICU, I2C, Boost converter, CTW/1PPS */
 688:.\Generated_Source\PSoC5/cyPm.c ****     cyPmBackup.wakeupCfg0 = CY_PM_WAKEUP_CFG0_REG;
 689:.\Generated_Source\PSoC5/cyPm.c ****     CY_PM_WAKEUP_CFG0_REG = (uint8) (wakeupSource >> 4u);
 690:.\Generated_Source\PSoC5/cyPm.c **** 
 691:.\Generated_Source\PSoC5/cyPm.c ****     /* Comparators */
 692:.\Generated_Source\PSoC5/cyPm.c ****     cyPmBackup.wakeupCfg1 = CY_PM_WAKEUP_CFG1_REG;
 693:.\Generated_Source\PSoC5/cyPm.c ****     CY_PM_WAKEUP_CFG1_REG = (((uint8) wakeupSource) & CY_PM_WAKEUP_SRC_CMPS_MASK);
 694:.\Generated_Source\PSoC5/cyPm.c **** 
 695:.\Generated_Source\PSoC5/cyPm.c ****     /* LCD */
 696:.\Generated_Source\PSoC5/cyPm.c ****     cyPmBackup.wakeupCfg2 = CY_PM_WAKEUP_CFG2_REG;
 697:.\Generated_Source\PSoC5/cyPm.c ****     CY_PM_WAKEUP_CFG2_REG = ((uint8) ((wakeupSource >> 12u) & 0x01u));
 698:.\Generated_Source\PSoC5/cyPm.c **** 
 699:.\Generated_Source\PSoC5/cyPm.c **** 
 700:.\Generated_Source\PSoC5/cyPm.c ****     /* Switch to the Alternate Active mode */
 701:.\Generated_Source\PSoC5/cyPm.c ****     CY_PM_MODE_CSR_REG = ((CY_PM_MODE_CSR_REG & ((uint8)(~CY_PM_MODE_CSR_MASK))) | CY_PM_MODE_CSR_A
 702:.\Generated_Source\PSoC5/cyPm.c **** 
 703:.\Generated_Source\PSoC5/cyPm.c ****     /* Recommended readback. */
 704:.\Generated_Source\PSoC5/cyPm.c ****     (void) CY_PM_MODE_CSR_REG;
 705:.\Generated_Source\PSoC5/cyPm.c **** 
 706:.\Generated_Source\PSoC5/cyPm.c ****     /* Two recommended NOPs to get into the mode. */
 707:.\Generated_Source\PSoC5/cyPm.c ****     CY_NOP;
 708:.\Generated_Source\PSoC5/cyPm.c ****     CY_NOP;
 709:.\Generated_Source\PSoC5/cyPm.c **** 
 710:.\Generated_Source\PSoC5/cyPm.c ****     /* Execute WFI instruction (for ARM-based devices only) */
 711:.\Generated_Source\PSoC5/cyPm.c ****     CY_PM_WFI;
 712:.\Generated_Source\PSoC5/cyPm.c **** 
 713:.\Generated_Source\PSoC5/cyPm.c ****     /* Point of return from Alternate Active Mode */
 714:.\Generated_Source\PSoC5/cyPm.c **** 
 715:.\Generated_Source\PSoC5/cyPm.c ****     /* Restore wake up configuration */
 716:.\Generated_Source\PSoC5/cyPm.c ****     CY_PM_WAKEUP_CFG0_REG = cyPmBackup.wakeupCfg0;
ARM GAS  C:\Users\Ian\AppData\Local\Temp\ccxtF1i6.s 			page 14


 717:.\Generated_Source\PSoC5/cyPm.c ****     CY_PM_WAKEUP_CFG1_REG = cyPmBackup.wakeupCfg1;
 718:.\Generated_Source\PSoC5/cyPm.c ****     CY_PM_WAKEUP_CFG2_REG = cyPmBackup.wakeupCfg2;
 719:.\Generated_Source\PSoC5/cyPm.c **** }
 720:.\Generated_Source\PSoC5/cyPm.c **** 
 721:.\Generated_Source\PSoC5/cyPm.c **** 
 722:.\Generated_Source\PSoC5/cyPm.c **** /*******************************************************************************
 723:.\Generated_Source\PSoC5/cyPm.c **** * Function Name: CyPmSleep
 724:.\Generated_Source\PSoC5/cyPm.c **** ********************************************************************************
 725:.\Generated_Source\PSoC5/cyPm.c **** *
 726:.\Generated_Source\PSoC5/cyPm.c **** * Summary:
 727:.\Generated_Source\PSoC5/cyPm.c **** *  Puts the part into the Sleep state.
 728:.\Generated_Source\PSoC5/cyPm.c **** *
 729:.\Generated_Source\PSoC5/cyPm.c **** *  Note Before calling this function, you must manually configure the power
 730:.\Generated_Source\PSoC5/cyPm.c **** *  mode of the source clocks for the timer that is used as the wakeup timer.
 731:.\Generated_Source\PSoC5/cyPm.c **** *
 732:.\Generated_Source\PSoC5/cyPm.c **** *  Note Before calling this function, you must prepare clock tree configuration
 733:.\Generated_Source\PSoC5/cyPm.c **** *  for the low power mode by calling CyPmSaveClocks(). And restore clock
 734:.\Generated_Source\PSoC5/cyPm.c **** *  configuration after CyPmSleep() execution by calling CyPmRestoreClocks(). See
 735:.\Generated_Source\PSoC5/cyPm.c **** *  Power Management section, Clock Configuration subsection of the System
 736:.\Generated_Source\PSoC5/cyPm.c **** *  Reference Guide for more information.
 737:.\Generated_Source\PSoC5/cyPm.c **** *
 738:.\Generated_Source\PSoC5/cyPm.c **** *  PSoC 3:
 739:.\Generated_Source\PSoC5/cyPm.c **** *  Before switching to Sleep, if a wakeupTime other than NONE is specified,
 740:.\Generated_Source\PSoC5/cyPm.c **** *  then the appropriate timer state is configured as specified with the
 741:.\Generated_Source\PSoC5/cyPm.c **** *  interrupt for that timer disabled.  The wakeup source will be a combination
 742:.\Generated_Source\PSoC5/cyPm.c **** *  of the values specified in the wakeupSource and any timer specified in the
 743:.\Generated_Source\PSoC5/cyPm.c **** *  wakeupTime argument.  Once the wakeup condition is satisfied, then all saved
 744:.\Generated_Source\PSoC5/cyPm.c **** *  state is restored and the function returns in the Active state.
 745:.\Generated_Source\PSoC5/cyPm.c **** *
 746:.\Generated_Source\PSoC5/cyPm.c **** *  Note that if the wakeupTime is made with a different value, the period before
 747:.\Generated_Source\PSoC5/cyPm.c **** *  the wakeup occurs can be significantly shorter than the specified time.  If
 748:.\Generated_Source\PSoC5/cyPm.c **** *  the next call is made with the same wakeupTime value, then the wakeup will
 749:.\Generated_Source\PSoC5/cyPm.c **** *  occur the specified period after the previous wakeup occurred.
 750:.\Generated_Source\PSoC5/cyPm.c **** *
 751:.\Generated_Source\PSoC5/cyPm.c **** *  If a wakeupTime other than NONE is specified, then upon exit the state of the
 752:.\Generated_Source\PSoC5/cyPm.c **** *  specified timer will be left as specified by wakeupTime with the timer
 753:.\Generated_Source\PSoC5/cyPm.c **** *  enabled and the interrupt disabled.  If the CTW or One PPS is already
 754:.\Generated_Source\PSoC5/cyPm.c **** *  configured for wakeup, for example with the SleepTimer or RTC components,
 755:.\Generated_Source\PSoC5/cyPm.c **** *  then specify NONE for the wakeupTime and include the appropriate source for
 756:.\Generated_Source\PSoC5/cyPm.c **** *  wakeupSource.
 757:.\Generated_Source\PSoC5/cyPm.c **** *
 758:.\Generated_Source\PSoC5/cyPm.c **** *  PSoC 5LP:
 759:.\Generated_Source\PSoC5/cyPm.c **** *  The wakeupTime parameter is not used and the only NONE can be specified.
 760:.\Generated_Source\PSoC5/cyPm.c **** *  The wakeup time must be configured with the component, SleepTimer for CTW
 761:.\Generated_Source\PSoC5/cyPm.c **** *  intervals and RTC for 1PPS interval. The component must be configured to
 762:.\Generated_Source\PSoC5/cyPm.c **** *  generate interrupt.
 763:.\Generated_Source\PSoC5/cyPm.c **** *
 764:.\Generated_Source\PSoC5/cyPm.c **** * Parameters:
 765:.\Generated_Source\PSoC5/cyPm.c **** *  wakeupTime:      Specifies a timer wakeup source and the frequency of that
 766:.\Generated_Source\PSoC5/cyPm.c **** *                   source. For PSoC 5LP, this parameter is ignored.
 767:.\Generated_Source\PSoC5/cyPm.c **** *
 768:.\Generated_Source\PSoC5/cyPm.c **** *           Define                      Time
 769:.\Generated_Source\PSoC5/cyPm.c **** *  PM_SLEEP_TIME_NONE               None
 770:.\Generated_Source\PSoC5/cyPm.c **** *  PM_SLEEP_TIME_ONE_PPS            One PPS: 1 second
 771:.\Generated_Source\PSoC5/cyPm.c **** *  PM_SLEEP_TIME_CTW_2MS            CTW: 2 ms
 772:.\Generated_Source\PSoC5/cyPm.c **** *  PM_SLEEP_TIME_CTW_4MS            CTW: 4 ms
 773:.\Generated_Source\PSoC5/cyPm.c **** *  PM_SLEEP_TIME_CTW_8MS            CTW: 8 ms
ARM GAS  C:\Users\Ian\AppData\Local\Temp\ccxtF1i6.s 			page 15


 774:.\Generated_Source\PSoC5/cyPm.c **** *  PM_SLEEP_TIME_CTW_16MS           CTW: 16 ms
 775:.\Generated_Source\PSoC5/cyPm.c **** *  PM_SLEEP_TIME_CTW_32MS           CTW: 32 ms
 776:.\Generated_Source\PSoC5/cyPm.c **** *  PM_SLEEP_TIME_CTW_64MS           CTW: 64 ms
 777:.\Generated_Source\PSoC5/cyPm.c **** *  PM_SLEEP_TIME_CTW_128MS          CTW: 128 ms
 778:.\Generated_Source\PSoC5/cyPm.c **** *  PM_SLEEP_TIME_CTW_256MS          CTW: 256 ms
 779:.\Generated_Source\PSoC5/cyPm.c **** *  PM_SLEEP_TIME_CTW_512MS          CTW: 512 ms
 780:.\Generated_Source\PSoC5/cyPm.c **** *  PM_SLEEP_TIME_CTW_1024MS         CTW: 1024 ms
 781:.\Generated_Source\PSoC5/cyPm.c **** *  PM_SLEEP_TIME_CTW_2048MS         CTW: 2048 ms
 782:.\Generated_Source\PSoC5/cyPm.c **** *  PM_SLEEP_TIME_CTW_4096MS         CTW: 4096 ms
 783:.\Generated_Source\PSoC5/cyPm.c **** *
 784:.\Generated_Source\PSoC5/cyPm.c **** *  wakeUpSource:    Specifies a bitwise mask of wakeup sources. In addition, if
 785:.\Generated_Source\PSoC5/cyPm.c **** *                   a wakeupTime has been specified the associated timer will be
 786:.\Generated_Source\PSoC5/cyPm.c **** *                   included as a wakeup source.
 787:.\Generated_Source\PSoC5/cyPm.c **** *
 788:.\Generated_Source\PSoC5/cyPm.c **** *           Define                      Source
 789:.\Generated_Source\PSoC5/cyPm.c **** *  PM_SLEEP_SRC_NONE                None
 790:.\Generated_Source\PSoC5/cyPm.c **** *  PM_SLEEP_SRC_COMPARATOR0         Comparator 0
 791:.\Generated_Source\PSoC5/cyPm.c **** *  PM_SLEEP_SRC_COMPARATOR1         Comparator 1
 792:.\Generated_Source\PSoC5/cyPm.c **** *  PM_SLEEP_SRC_COMPARATOR2         Comparator 2
 793:.\Generated_Source\PSoC5/cyPm.c **** *  PM_SLEEP_SRC_COMPARATOR3         Comparator 3
 794:.\Generated_Source\PSoC5/cyPm.c **** *  PM_SLEEP_SRC_PICU                PICU
 795:.\Generated_Source\PSoC5/cyPm.c **** *  PM_SLEEP_SRC_I2C                 I2C
 796:.\Generated_Source\PSoC5/cyPm.c **** *  PM_SLEEP_SRC_BOOSTCONVERTER      Boost Converter
 797:.\Generated_Source\PSoC5/cyPm.c **** *  PM_SLEEP_SRC_VD                  High and Low Voltage Detection (HVI, LVI)
 798:.\Generated_Source\PSoC5/cyPm.c **** *  PM_SLEEP_SRC_CTW                 Central Timewheel*
 799:.\Generated_Source\PSoC5/cyPm.c **** *  PM_SLEEP_SRC_ONE_PPS             One PPS*
 800:.\Generated_Source\PSoC5/cyPm.c **** *  PM_SLEEP_SRC_LCD                 LCD
 801:.\Generated_Source\PSoC5/cyPm.c **** *
 802:.\Generated_Source\PSoC5/cyPm.c **** *  *Note:   CTW and One PPS wakeup signals are in the same mask bit.
 803:.\Generated_Source\PSoC5/cyPm.c **** *
 804:.\Generated_Source\PSoC5/cyPm.c **** *  When specifying a Comparator as the wakeupSource an instance specific define
 805:.\Generated_Source\PSoC5/cyPm.c **** *  should be used that will track with the specific comparator that the instance
 806:.\Generated_Source\PSoC5/cyPm.c **** *  is placed into. As an example for a Comparator instance named MyComp the
 807:.\Generated_Source\PSoC5/cyPm.c **** *  value to OR into the mask is: MyComp_ctComp__CMP_MASK.
 808:.\Generated_Source\PSoC5/cyPm.c **** *
 809:.\Generated_Source\PSoC5/cyPm.c **** *  When CTW or One PPS is used as a wakeup source, the CyPmReadStatus()
 810:.\Generated_Source\PSoC5/cyPm.c **** *  function must be called upon wakeup with corresponding parameter. Please
 811:.\Generated_Source\PSoC5/cyPm.c **** *  refer to the CyPmReadStatus() API in the System Reference Guide for more
 812:.\Generated_Source\PSoC5/cyPm.c **** *  information.
 813:.\Generated_Source\PSoC5/cyPm.c **** *
 814:.\Generated_Source\PSoC5/cyPm.c **** * Return:
 815:.\Generated_Source\PSoC5/cyPm.c **** *  None
 816:.\Generated_Source\PSoC5/cyPm.c **** *
 817:.\Generated_Source\PSoC5/cyPm.c **** * Reentrant:
 818:.\Generated_Source\PSoC5/cyPm.c **** *  No
 819:.\Generated_Source\PSoC5/cyPm.c **** *
 820:.\Generated_Source\PSoC5/cyPm.c **** * Side Effects and Restrictions:
 821:.\Generated_Source\PSoC5/cyPm.c **** *  If a wakeupTime other than NONE is specified, then upon exit the state of the
 822:.\Generated_Source\PSoC5/cyPm.c **** *  specified timer will be left as specified by wakeupTime with the timer
 823:.\Generated_Source\PSoC5/cyPm.c **** *  enabled and the interrupt disabled. Also, the ILO 1 KHz (if CTW timer is
 824:.\Generated_Source\PSoC5/cyPm.c **** *  used as wake up time) will be left started.
 825:.\Generated_Source\PSoC5/cyPm.c **** *
 826:.\Generated_Source\PSoC5/cyPm.c **** *  The 1 kHz ILO clock is expected to be enabled for PSoC 3 and PSoC 5LP to
 827:.\Generated_Source\PSoC5/cyPm.c **** *  measure Hibernate/Sleep regulator settling time after a reset. The holdoff
 828:.\Generated_Source\PSoC5/cyPm.c **** *  delay is measured using rising edges of the 1 kHz ILO.
 829:.\Generated_Source\PSoC5/cyPm.c **** *
 830:.\Generated_Source\PSoC5/cyPm.c **** *  For PSoC 3 silicon hardware buzz should be disabled before entering a sleep
ARM GAS  C:\Users\Ian\AppData\Local\Temp\ccxtF1i6.s 			page 16


 831:.\Generated_Source\PSoC5/cyPm.c **** *  power mode. It is disabled by PSoC Creator during startup.
 832:.\Generated_Source\PSoC5/cyPm.c **** *  If a Low Voltage Interrupt (LVI), High Voltage Interrupt (HVI) or Brown Out
 833:.\Generated_Source\PSoC5/cyPm.c **** *  detect (power supply supervising capabilities) are required in a design
 834:.\Generated_Source\PSoC5/cyPm.c **** *  during sleep, use the Central Time Wheel (CTW) to periodically wake the
 835:.\Generated_Source\PSoC5/cyPm.c **** *  device, perform software buzz, and refresh the supervisory services. If LVI,
 836:.\Generated_Source\PSoC5/cyPm.c **** *  HVI, or Brown Out is not required, then CTW is not required.
 837:.\Generated_Source\PSoC5/cyPm.c **** *  Refer to the device errata for more information.
 838:.\Generated_Source\PSoC5/cyPm.c **** *
 839:.\Generated_Source\PSoC5/cyPm.c **** *******************************************************************************/
 840:.\Generated_Source\PSoC5/cyPm.c **** void CyPmSleep(uint8 wakeupTime, uint16 wakeupSource) 
 841:.\Generated_Source\PSoC5/cyPm.c **** {
 842:.\Generated_Source\PSoC5/cyPm.c ****     uint8 interruptState;
 843:.\Generated_Source\PSoC5/cyPm.c **** 
 844:.\Generated_Source\PSoC5/cyPm.c ****     /* Save current global interrupt enable and disable it */
 845:.\Generated_Source\PSoC5/cyPm.c ****     interruptState = CyEnterCriticalSection();
 846:.\Generated_Source\PSoC5/cyPm.c **** 
 847:.\Generated_Source\PSoC5/cyPm.c **** 
 848:.\Generated_Source\PSoC5/cyPm.c ****     /***********************************************************************
 849:.\Generated_Source\PSoC5/cyPm.c ****     * The Hibernate/Sleep regulator has a settling time after a reset.
 850:.\Generated_Source\PSoC5/cyPm.c ****     * During this time, the system ignores requests to enter Sleep and
 851:.\Generated_Source\PSoC5/cyPm.c ****     * Hibernate modes. The holdoff delay is measured using rising edges of
 852:.\Generated_Source\PSoC5/cyPm.c ****     * the 1 kHz ILO.
 853:.\Generated_Source\PSoC5/cyPm.c ****     ***********************************************************************/
 854:.\Generated_Source\PSoC5/cyPm.c ****     if(0u == (CY_PM_MODE_CSR_REG & CY_PM_MODE_CSR_PWRUP_PULSE_Q))
 855:.\Generated_Source\PSoC5/cyPm.c ****     {
 856:.\Generated_Source\PSoC5/cyPm.c ****         /* Disable hold off - no action on restore */
 857:.\Generated_Source\PSoC5/cyPm.c ****         CY_PM_PWRSYS_SLP_TR_REG &= CY_PM_PWRSYS_SLP_TR_HIBSLP_HOLDOFF_MASK;
 858:.\Generated_Source\PSoC5/cyPm.c ****     }
 859:.\Generated_Source\PSoC5/cyPm.c ****     else
 860:.\Generated_Source\PSoC5/cyPm.c ****     {
 861:.\Generated_Source\PSoC5/cyPm.c ****         /* Abort, device is not ready for low power mode entry */
 862:.\Generated_Source\PSoC5/cyPm.c **** 
 863:.\Generated_Source\PSoC5/cyPm.c ****         /* Restore global interrupt enable state */
 864:.\Generated_Source\PSoC5/cyPm.c ****         CyExitCriticalSection(interruptState);
 865:.\Generated_Source\PSoC5/cyPm.c **** 
 866:.\Generated_Source\PSoC5/cyPm.c ****         return;
 867:.\Generated_Source\PSoC5/cyPm.c ****     }
 868:.\Generated_Source\PSoC5/cyPm.c **** 
 869:.\Generated_Source\PSoC5/cyPm.c **** 
 870:.\Generated_Source\PSoC5/cyPm.c ****     /***********************************************************************
 871:.\Generated_Source\PSoC5/cyPm.c ****     * PSoC3 < TO6:
 872:.\Generated_Source\PSoC5/cyPm.c ****     * - Hardware buzz must be disabled before the sleep mode entry.
 873:.\Generated_Source\PSoC5/cyPm.c ****     * - Voltage supervision (HVI/LVI) requires hardware buzz, so they must
 874:.\Generated_Source\PSoC5/cyPm.c ****     *   be also disabled.
 875:.\Generated_Source\PSoC5/cyPm.c ****     *
 876:.\Generated_Source\PSoC5/cyPm.c ****     * PSoC3 >= TO6:
 877:.\Generated_Source\PSoC5/cyPm.c ****     * - Voltage supervision (HVI/LVI) requires hardware buzz, so hardware buzz must be
 878:.\Generated_Source\PSoC5/cyPm.c ****     *   enabled before the sleep mode entry and restored on the wakeup.
 879:.\Generated_Source\PSoC5/cyPm.c ****     ***********************************************************************/
 880:.\Generated_Source\PSoC5/cyPm.c ****     #if(CY_PSOC3)
 881:.\Generated_Source\PSoC5/cyPm.c **** 
 882:.\Generated_Source\PSoC5/cyPm.c ****         /* Silicon Revision ID is below TO6 */
 883:.\Generated_Source\PSoC5/cyPm.c ****         if(CYDEV_CHIP_REV_ACTUAL < 5u)
 884:.\Generated_Source\PSoC5/cyPm.c ****         {
 885:.\Generated_Source\PSoC5/cyPm.c ****             /* Hardware buzz expected to be disabled in Sleep mode */
 886:.\Generated_Source\PSoC5/cyPm.c ****             CYASSERT(0u == (CY_PM_PWRSYS_WAKE_TR2_REG & CY_PM_PWRSYS_WAKE_TR2_EN_BUZZ));
 887:.\Generated_Source\PSoC5/cyPm.c ****         }
ARM GAS  C:\Users\Ian\AppData\Local\Temp\ccxtF1i6.s 			page 17


 888:.\Generated_Source\PSoC5/cyPm.c **** 
 889:.\Generated_Source\PSoC5/cyPm.c **** 
 890:.\Generated_Source\PSoC5/cyPm.c ****         if(0u != (CY_PM_RESET_CR1_REG & (CY_PM_RESET_CR1_HVIA_EN |
 891:.\Generated_Source\PSoC5/cyPm.c ****             CY_PM_RESET_CR1_LVIA_EN | CY_PM_RESET_CR1_LVID_EN)))
 892:.\Generated_Source\PSoC5/cyPm.c ****         {
 893:.\Generated_Source\PSoC5/cyPm.c ****             if(CYDEV_CHIP_REV_ACTUAL < 5u)
 894:.\Generated_Source\PSoC5/cyPm.c ****             {
 895:.\Generated_Source\PSoC5/cyPm.c ****                 /* LVI/HVI requires hardware buzz to be enabled */
 896:.\Generated_Source\PSoC5/cyPm.c ****                 CYASSERT(0u != 0u);
 897:.\Generated_Source\PSoC5/cyPm.c ****             }
 898:.\Generated_Source\PSoC5/cyPm.c ****             else
 899:.\Generated_Source\PSoC5/cyPm.c ****             {
 900:.\Generated_Source\PSoC5/cyPm.c ****                 if (0u == (CY_PM_PWRSYS_WAKE_TR2_REG & CY_PM_PWRSYS_WAKE_TR2_EN_BUZZ))
 901:.\Generated_Source\PSoC5/cyPm.c ****                 {
 902:.\Generated_Source\PSoC5/cyPm.c ****                     cyPmBackup.hardwareBuzz = CY_PM_DISABLED;
 903:.\Generated_Source\PSoC5/cyPm.c ****                     CY_PM_PWRSYS_WAKE_TR2_REG |= CY_PM_PWRSYS_WAKE_TR2_EN_BUZZ;
 904:.\Generated_Source\PSoC5/cyPm.c ****                 }
 905:.\Generated_Source\PSoC5/cyPm.c ****                 else
 906:.\Generated_Source\PSoC5/cyPm.c ****                 {
 907:.\Generated_Source\PSoC5/cyPm.c ****                     cyPmBackup.hardwareBuzz = CY_PM_ENABLED;
 908:.\Generated_Source\PSoC5/cyPm.c ****                 }
 909:.\Generated_Source\PSoC5/cyPm.c ****             }
 910:.\Generated_Source\PSoC5/cyPm.c ****         }
 911:.\Generated_Source\PSoC5/cyPm.c **** 
 912:.\Generated_Source\PSoC5/cyPm.c ****     #endif /* (CY_PSOC3) */
 913:.\Generated_Source\PSoC5/cyPm.c **** 
 914:.\Generated_Source\PSoC5/cyPm.c **** 
 915:.\Generated_Source\PSoC5/cyPm.c ****     /*******************************************************************************
 916:.\Generated_Source\PSoC5/cyPm.c ****     * For ARM-based devices,interrupt is required for the CPU to wake up. The
 917:.\Generated_Source\PSoC5/cyPm.c ****     * Power Management implementation assumes that wakeup time is configured with a
 918:.\Generated_Source\PSoC5/cyPm.c ****     * separate component (component-based wakeup time configuration) for
 919:.\Generated_Source\PSoC5/cyPm.c ****     * interrupt to be issued on terminal count. For more information, refer to the
 920:.\Generated_Source\PSoC5/cyPm.c ****     * Wakeup Time Configuration section of System Reference Guide.
 921:.\Generated_Source\PSoC5/cyPm.c ****     *******************************************************************************/
 922:.\Generated_Source\PSoC5/cyPm.c ****     #if(CY_PSOC5)
 923:.\Generated_Source\PSoC5/cyPm.c **** 
 924:.\Generated_Source\PSoC5/cyPm.c ****         /* Arguments expected to be 0 */
 925:.\Generated_Source\PSoC5/cyPm.c ****         CYASSERT(PM_SLEEP_TIME_NONE == wakeupTime);
 926:.\Generated_Source\PSoC5/cyPm.c **** 
 927:.\Generated_Source\PSoC5/cyPm.c ****         if(0u != wakeupTime)
 928:.\Generated_Source\PSoC5/cyPm.c ****         {
 929:.\Generated_Source\PSoC5/cyPm.c ****             /* To remove unreferenced local variable warning */
 930:.\Generated_Source\PSoC5/cyPm.c ****         }
 931:.\Generated_Source\PSoC5/cyPm.c **** 
 932:.\Generated_Source\PSoC5/cyPm.c ****     #endif /* (CY_PSOC5) */
 933:.\Generated_Source\PSoC5/cyPm.c **** 
 934:.\Generated_Source\PSoC5/cyPm.c **** 
 935:.\Generated_Source\PSoC5/cyPm.c ****     CyPmHibSlpSaveSet();
 936:.\Generated_Source\PSoC5/cyPm.c **** 
 937:.\Generated_Source\PSoC5/cyPm.c **** 
 938:.\Generated_Source\PSoC5/cyPm.c ****     #if(CY_PSOC3)
 939:.\Generated_Source\PSoC5/cyPm.c **** 
 940:.\Generated_Source\PSoC5/cyPm.c ****         /* CTW - save current and set new configuration */
 941:.\Generated_Source\PSoC5/cyPm.c ****         if((wakeupTime >= PM_SLEEP_TIME_CTW_2MS) && (wakeupTime <= PM_SLEEP_TIME_CTW_4096MS))
 942:.\Generated_Source\PSoC5/cyPm.c ****         {
 943:.\Generated_Source\PSoC5/cyPm.c ****             /* Save current and set new configuration of CTW */
 944:.\Generated_Source\PSoC5/cyPm.c ****             CyPmCtwSetInterval((uint8)(wakeupTime - 1u));
ARM GAS  C:\Users\Ian\AppData\Local\Temp\ccxtF1i6.s 			page 18


 945:.\Generated_Source\PSoC5/cyPm.c **** 
 946:.\Generated_Source\PSoC5/cyPm.c ****             /* Include associated timer to wakeupSource */
 947:.\Generated_Source\PSoC5/cyPm.c ****             wakeupSource |= PM_SLEEP_SRC_CTW;
 948:.\Generated_Source\PSoC5/cyPm.c ****         }
 949:.\Generated_Source\PSoC5/cyPm.c **** 
 950:.\Generated_Source\PSoC5/cyPm.c ****         /* 1PPS - save current and set new configuration */
 951:.\Generated_Source\PSoC5/cyPm.c ****         if(PM_SLEEP_TIME_ONE_PPS == wakeupTime)
 952:.\Generated_Source\PSoC5/cyPm.c ****         {
 953:.\Generated_Source\PSoC5/cyPm.c ****             /* Save current and set new configuration of the 1PPS */
 954:.\Generated_Source\PSoC5/cyPm.c ****             CyPmOppsSet();
 955:.\Generated_Source\PSoC5/cyPm.c **** 
 956:.\Generated_Source\PSoC5/cyPm.c ****             /* Include associated timer to wakeupSource */
 957:.\Generated_Source\PSoC5/cyPm.c ****             wakeupSource |= PM_SLEEP_SRC_ONE_PPS;
 958:.\Generated_Source\PSoC5/cyPm.c ****         }
 959:.\Generated_Source\PSoC5/cyPm.c **** 
 960:.\Generated_Source\PSoC5/cyPm.c ****     #endif /* (CY_PSOC3) */
 961:.\Generated_Source\PSoC5/cyPm.c **** 
 962:.\Generated_Source\PSoC5/cyPm.c **** 
 963:.\Generated_Source\PSoC5/cyPm.c ****     /* Save and set new wake up configuration */
 964:.\Generated_Source\PSoC5/cyPm.c **** 
 965:.\Generated_Source\PSoC5/cyPm.c ****     /* Interrupt, PICU, I2C, Boost converter, CTW/1PPS */
 966:.\Generated_Source\PSoC5/cyPm.c ****     cyPmBackup.wakeupCfg0 = CY_PM_WAKEUP_CFG0_REG;
 967:.\Generated_Source\PSoC5/cyPm.c ****     CY_PM_WAKEUP_CFG0_REG = (uint8) (wakeupSource >> 4u);
 968:.\Generated_Source\PSoC5/cyPm.c **** 
 969:.\Generated_Source\PSoC5/cyPm.c ****     /* Comparators */
 970:.\Generated_Source\PSoC5/cyPm.c ****     cyPmBackup.wakeupCfg1 = CY_PM_WAKEUP_CFG1_REG;
 971:.\Generated_Source\PSoC5/cyPm.c ****     CY_PM_WAKEUP_CFG1_REG = (((uint8) wakeupSource) & CY_PM_WAKEUP_SRC_CMPS_MASK);
 972:.\Generated_Source\PSoC5/cyPm.c **** 
 973:.\Generated_Source\PSoC5/cyPm.c ****     /* LCD */
 974:.\Generated_Source\PSoC5/cyPm.c ****     cyPmBackup.wakeupCfg2 = CY_PM_WAKEUP_CFG2_REG;
 975:.\Generated_Source\PSoC5/cyPm.c ****     CY_PM_WAKEUP_CFG2_REG = ((uint8) ((wakeupSource >> 12u) & 0x01u));
 976:.\Generated_Source\PSoC5/cyPm.c **** 
 977:.\Generated_Source\PSoC5/cyPm.c **** 
 978:.\Generated_Source\PSoC5/cyPm.c ****     /*******************************************************************
 979:.\Generated_Source\PSoC5/cyPm.c ****     * Do not use the merge region below unless any component datasheet
 980:.\Generated_Source\PSoC5/cyPm.c ****     * suggests doing so.
 981:.\Generated_Source\PSoC5/cyPm.c ****     *******************************************************************/
 982:.\Generated_Source\PSoC5/cyPm.c ****     /* `#START CY_PM_JUST_BEFORE_SLEEP` */
 983:.\Generated_Source\PSoC5/cyPm.c **** 
 984:.\Generated_Source\PSoC5/cyPm.c ****     /* `#END` */
 985:.\Generated_Source\PSoC5/cyPm.c **** 
 986:.\Generated_Source\PSoC5/cyPm.c **** 
 987:.\Generated_Source\PSoC5/cyPm.c ****     /* Last moment IMO frequency change */
 988:.\Generated_Source\PSoC5/cyPm.c ****     if(0u == (CY_PM_FASTCLK_IMO_CR_REG & CY_PM_FASTCLK_IMO_CR_FREQ_MASK))
 989:.\Generated_Source\PSoC5/cyPm.c ****     {
 990:.\Generated_Source\PSoC5/cyPm.c ****         /* IMO frequency is 12 MHz */
 991:.\Generated_Source\PSoC5/cyPm.c ****         cyPmBackup.imoActFreq12Mhz = CY_PM_ENABLED;
 992:.\Generated_Source\PSoC5/cyPm.c ****     }
 993:.\Generated_Source\PSoC5/cyPm.c ****     else
 994:.\Generated_Source\PSoC5/cyPm.c ****     {
 995:.\Generated_Source\PSoC5/cyPm.c ****         /* IMO frequency is not 12 MHz */
 996:.\Generated_Source\PSoC5/cyPm.c ****         cyPmBackup.imoActFreq12Mhz = CY_PM_DISABLED;
 997:.\Generated_Source\PSoC5/cyPm.c **** 
 998:.\Generated_Source\PSoC5/cyPm.c ****         /* Save IMO frequency */
 999:.\Generated_Source\PSoC5/cyPm.c ****         cyPmBackup.imoActFreq = CY_PM_FASTCLK_IMO_CR_REG & CY_PM_FASTCLK_IMO_CR_FREQ_MASK;
1000:.\Generated_Source\PSoC5/cyPm.c **** 
1001:.\Generated_Source\PSoC5/cyPm.c ****         /* Set IMO frequency to 12 MHz */
ARM GAS  C:\Users\Ian\AppData\Local\Temp\ccxtF1i6.s 			page 19


1002:.\Generated_Source\PSoC5/cyPm.c ****         CY_PM_FASTCLK_IMO_CR_REG &= ((uint8) (~CY_PM_FASTCLK_IMO_CR_FREQ_MASK));
1003:.\Generated_Source\PSoC5/cyPm.c ****     }
1004:.\Generated_Source\PSoC5/cyPm.c **** 
1005:.\Generated_Source\PSoC5/cyPm.c ****     /* Switch to Sleep mode */
1006:.\Generated_Source\PSoC5/cyPm.c ****     CY_PM_MODE_CSR_REG = ((CY_PM_MODE_CSR_REG & ((uint8)(~CY_PM_MODE_CSR_MASK))) | CY_PM_MODE_CSR_S
1007:.\Generated_Source\PSoC5/cyPm.c **** 
1008:.\Generated_Source\PSoC5/cyPm.c ****     /* Recommended readback. */
1009:.\Generated_Source\PSoC5/cyPm.c ****     (void) CY_PM_MODE_CSR_REG;
1010:.\Generated_Source\PSoC5/cyPm.c **** 
1011:.\Generated_Source\PSoC5/cyPm.c ****     /* Two recommended NOPs to get into mode. */
1012:.\Generated_Source\PSoC5/cyPm.c ****     CY_NOP;
1013:.\Generated_Source\PSoC5/cyPm.c ****     CY_NOP;
1014:.\Generated_Source\PSoC5/cyPm.c **** 
1015:.\Generated_Source\PSoC5/cyPm.c ****     /* Execute WFI instruction (for ARM-based devices only) */
1016:.\Generated_Source\PSoC5/cyPm.c ****     CY_PM_WFI;
1017:.\Generated_Source\PSoC5/cyPm.c **** 
1018:.\Generated_Source\PSoC5/cyPm.c ****     /* Point of return from Sleep Mode */
1019:.\Generated_Source\PSoC5/cyPm.c **** 
1020:.\Generated_Source\PSoC5/cyPm.c ****     /* Restore last moment IMO frequency change */
1021:.\Generated_Source\PSoC5/cyPm.c ****     if(CY_PM_ENABLED != cyPmBackup.imoActFreq12Mhz)
1022:.\Generated_Source\PSoC5/cyPm.c ****     {
1023:.\Generated_Source\PSoC5/cyPm.c ****         CY_PM_FASTCLK_IMO_CR_REG  = (CY_PM_FASTCLK_IMO_CR_REG & ((uint8)(~CY_PM_FASTCLK_IMO_CR_FREQ
1024:.\Generated_Source\PSoC5/cyPm.c ****                                     cyPmBackup.imoActFreq;
1025:.\Generated_Source\PSoC5/cyPm.c ****     }
1026:.\Generated_Source\PSoC5/cyPm.c **** 
1027:.\Generated_Source\PSoC5/cyPm.c **** 
1028:.\Generated_Source\PSoC5/cyPm.c ****     /*******************************************************************
1029:.\Generated_Source\PSoC5/cyPm.c ****     * Do not use merge region below unless any component datasheet
1030:.\Generated_Source\PSoC5/cyPm.c ****     * suggest to do so.
1031:.\Generated_Source\PSoC5/cyPm.c ****     *******************************************************************/
1032:.\Generated_Source\PSoC5/cyPm.c ****     /* `#START CY_PM_JUST_AFTER_WAKEUP_FROM_SLEEP` */
1033:.\Generated_Source\PSoC5/cyPm.c **** 
1034:.\Generated_Source\PSoC5/cyPm.c ****     /* `#END` */
1035:.\Generated_Source\PSoC5/cyPm.c **** 
1036:.\Generated_Source\PSoC5/cyPm.c **** 
1037:.\Generated_Source\PSoC5/cyPm.c ****     /* Restore hardware configuration */
1038:.\Generated_Source\PSoC5/cyPm.c ****     CyPmHibSlpRestore();
1039:.\Generated_Source\PSoC5/cyPm.c **** 
1040:.\Generated_Source\PSoC5/cyPm.c **** 
1041:.\Generated_Source\PSoC5/cyPm.c ****     /* Disable hardware buzz, if it was previously enabled */
1042:.\Generated_Source\PSoC5/cyPm.c ****     #if(CY_PSOC3)
1043:.\Generated_Source\PSoC5/cyPm.c **** 
1044:.\Generated_Source\PSoC5/cyPm.c ****         if(0u != (CY_PM_RESET_CR1_REG & (CY_PM_RESET_CR1_HVIA_EN |
1045:.\Generated_Source\PSoC5/cyPm.c ****             CY_PM_RESET_CR1_LVIA_EN | CY_PM_RESET_CR1_LVID_EN)))
1046:.\Generated_Source\PSoC5/cyPm.c ****         {
1047:.\Generated_Source\PSoC5/cyPm.c ****             if(CYDEV_CHIP_REV_ACTUAL >= 5u)
1048:.\Generated_Source\PSoC5/cyPm.c ****             {
1049:.\Generated_Source\PSoC5/cyPm.c ****                 if (CY_PM_DISABLED == cyPmBackup.hardwareBuzz)
1050:.\Generated_Source\PSoC5/cyPm.c ****                 {
1051:.\Generated_Source\PSoC5/cyPm.c ****                     CY_PM_PWRSYS_WAKE_TR2_REG &= (uint8)(~CY_PM_PWRSYS_WAKE_TR2_EN_BUZZ);
1052:.\Generated_Source\PSoC5/cyPm.c ****                 }
1053:.\Generated_Source\PSoC5/cyPm.c ****             }
1054:.\Generated_Source\PSoC5/cyPm.c ****         }
1055:.\Generated_Source\PSoC5/cyPm.c **** 
1056:.\Generated_Source\PSoC5/cyPm.c ****     #endif /* (CY_PSOC3) */
1057:.\Generated_Source\PSoC5/cyPm.c **** 
1058:.\Generated_Source\PSoC5/cyPm.c **** 
ARM GAS  C:\Users\Ian\AppData\Local\Temp\ccxtF1i6.s 			page 20


1059:.\Generated_Source\PSoC5/cyPm.c ****     /* Restore current wake up configuration */
1060:.\Generated_Source\PSoC5/cyPm.c ****     CY_PM_WAKEUP_CFG0_REG = cyPmBackup.wakeupCfg0;
1061:.\Generated_Source\PSoC5/cyPm.c ****     CY_PM_WAKEUP_CFG1_REG = cyPmBackup.wakeupCfg1;
1062:.\Generated_Source\PSoC5/cyPm.c ****     CY_PM_WAKEUP_CFG2_REG = cyPmBackup.wakeupCfg2;
1063:.\Generated_Source\PSoC5/cyPm.c **** 
1064:.\Generated_Source\PSoC5/cyPm.c ****     /* Restore global interrupt enable state */
1065:.\Generated_Source\PSoC5/cyPm.c ****     CyExitCriticalSection(interruptState);
1066:.\Generated_Source\PSoC5/cyPm.c **** }
1067:.\Generated_Source\PSoC5/cyPm.c **** 
1068:.\Generated_Source\PSoC5/cyPm.c **** 
1069:.\Generated_Source\PSoC5/cyPm.c **** /*******************************************************************************
1070:.\Generated_Source\PSoC5/cyPm.c **** * Function Name: CyPmHibernate
1071:.\Generated_Source\PSoC5/cyPm.c **** ********************************************************************************
1072:.\Generated_Source\PSoC5/cyPm.c **** *
1073:.\Generated_Source\PSoC5/cyPm.c **** * Summary:
1074:.\Generated_Source\PSoC5/cyPm.c **** *  Puts the part into the Hibernate state.
1075:.\Generated_Source\PSoC5/cyPm.c **** *
1076:.\Generated_Source\PSoC5/cyPm.c **** *  PSoC 3 and PSoC 5LP:
1077:.\Generated_Source\PSoC5/cyPm.c **** *  Before switching to Hibernate, the current status of the PICU wakeup source
1078:.\Generated_Source\PSoC5/cyPm.c **** *  bit is saved and then set. This configures the device to wake up from the
1079:.\Generated_Source\PSoC5/cyPm.c **** *  PICU. Make sure you have at least one pin configured to generate PICU
1080:.\Generated_Source\PSoC5/cyPm.c **** *  interrupt. For pin Px.y, the register "PICU_INTTYPE_PICUx_INTTYPEy" controls
1081:.\Generated_Source\PSoC5/cyPm.c **** *  the PICU behavior. In the TRM, this register is "PICU[0..15]_INTTYPE[0..7]."
1082:.\Generated_Source\PSoC5/cyPm.c **** *  In the Pins component datasheet, this register is referred to as the IRQ
1083:.\Generated_Source\PSoC5/cyPm.c **** *  option. Once the wakeup occurs, the PICU wakeup source bit is restored and
1084:.\Generated_Source\PSoC5/cyPm.c **** *  the PSoC returns to the Active state.
1085:.\Generated_Source\PSoC5/cyPm.c **** *
1086:.\Generated_Source\PSoC5/cyPm.c **** * Parameters:
1087:.\Generated_Source\PSoC5/cyPm.c **** *  None
1088:.\Generated_Source\PSoC5/cyPm.c **** *
1089:.\Generated_Source\PSoC5/cyPm.c **** * Return:
1090:.\Generated_Source\PSoC5/cyPm.c **** *  None
1091:.\Generated_Source\PSoC5/cyPm.c **** *
1092:.\Generated_Source\PSoC5/cyPm.c **** * Reentrant:
1093:.\Generated_Source\PSoC5/cyPm.c **** *  No
1094:.\Generated_Source\PSoC5/cyPm.c **** *
1095:.\Generated_Source\PSoC5/cyPm.c **** * Side Effects:
1096:.\Generated_Source\PSoC5/cyPm.c **** *  Applications must wait 20 us before re-entering hibernate or sleep after
1097:.\Generated_Source\PSoC5/cyPm.c **** *  waking up from hibernate. The 20 us allows the sleep regulator time to
1098:.\Generated_Source\PSoC5/cyPm.c **** *  stabilize before the next hibernate / sleep event occurs. The 20 us
1099:.\Generated_Source\PSoC5/cyPm.c **** *  requirement begins when the device wakes up. There is no hardware check that
1100:.\Generated_Source\PSoC5/cyPm.c **** *  this requirement is met. The specified delay should be done on ISR entry.
1101:.\Generated_Source\PSoC5/cyPm.c **** *
1102:.\Generated_Source\PSoC5/cyPm.c **** *  After the wakeup PICU interrupt occurs, the Pin_ClearInterrupt() (where Pin is
1103:.\Generated_Source\PSoC5/cyPm.c **** *  instance name of the Pins component) function must be called to clear the
1104:.\Generated_Source\PSoC5/cyPm.c **** *  latched pin events to allow the proper Hibernate mode entry and to enable
1105:.\Generated_Source\PSoC5/cyPm.c **** *  detection of future events.
1106:.\Generated_Source\PSoC5/cyPm.c **** *
1107:.\Generated_Source\PSoC5/cyPm.c **** *  The 1 kHz ILO clock is expected to be enabled for PSoC 3 and PSoC 5LP to
1108:.\Generated_Source\PSoC5/cyPm.c **** *  measure Hibernate/Sleep regulator settling time after a reset. The holdoff
1109:.\Generated_Source\PSoC5/cyPm.c **** *  delay is measured using the rising edges of the 1 kHz ILO.
1110:.\Generated_Source\PSoC5/cyPm.c **** *
1111:.\Generated_Source\PSoC5/cyPm.c **** *******************************************************************************/
1112:.\Generated_Source\PSoC5/cyPm.c **** void CyPmHibernate(void) 
1113:.\Generated_Source\PSoC5/cyPm.c **** {
1114:.\Generated_Source\PSoC5/cyPm.c ****     uint8 interruptState;
1115:.\Generated_Source\PSoC5/cyPm.c **** 
ARM GAS  C:\Users\Ian\AppData\Local\Temp\ccxtF1i6.s 			page 21


1116:.\Generated_Source\PSoC5/cyPm.c ****     /* Save current global interrupt enable and disable it */
1117:.\Generated_Source\PSoC5/cyPm.c ****     interruptState = CyEnterCriticalSection();
1118:.\Generated_Source\PSoC5/cyPm.c **** 
1119:.\Generated_Source\PSoC5/cyPm.c ****         /***********************************************************************
1120:.\Generated_Source\PSoC5/cyPm.c ****         * The Hibernate/Sleep regulator has a settling time after a reset.
1121:.\Generated_Source\PSoC5/cyPm.c ****         * During this time, the system ignores requests to enter the Sleep and
1122:.\Generated_Source\PSoC5/cyPm.c ****         * Hibernate modes. The holdoff delay is measured using the rising edges of
1123:.\Generated_Source\PSoC5/cyPm.c ****         * the 1 kHz ILO.
1124:.\Generated_Source\PSoC5/cyPm.c ****         ***********************************************************************/
1125:.\Generated_Source\PSoC5/cyPm.c ****         if(0u == (CY_PM_MODE_CSR_REG & CY_PM_MODE_CSR_PWRUP_PULSE_Q))
1126:.\Generated_Source\PSoC5/cyPm.c ****         {
1127:.\Generated_Source\PSoC5/cyPm.c ****             /* Disable hold off - no action on restore */
1128:.\Generated_Source\PSoC5/cyPm.c ****             CY_PM_PWRSYS_SLP_TR_REG &= CY_PM_PWRSYS_SLP_TR_HIBSLP_HOLDOFF_MASK;
1129:.\Generated_Source\PSoC5/cyPm.c ****         }
1130:.\Generated_Source\PSoC5/cyPm.c ****         else
1131:.\Generated_Source\PSoC5/cyPm.c ****         {
1132:.\Generated_Source\PSoC5/cyPm.c ****             /* Abort, device is not ready for low power mode entry */
1133:.\Generated_Source\PSoC5/cyPm.c **** 
1134:.\Generated_Source\PSoC5/cyPm.c ****             /* Restore global interrupt enable state */
1135:.\Generated_Source\PSoC5/cyPm.c ****             CyExitCriticalSection(interruptState);
1136:.\Generated_Source\PSoC5/cyPm.c **** 
1137:.\Generated_Source\PSoC5/cyPm.c ****             return;
1138:.\Generated_Source\PSoC5/cyPm.c ****         }
1139:.\Generated_Source\PSoC5/cyPm.c **** 
1140:.\Generated_Source\PSoC5/cyPm.c ****     CyPmHibSaveSet();
1141:.\Generated_Source\PSoC5/cyPm.c **** 
1142:.\Generated_Source\PSoC5/cyPm.c **** 
1143:.\Generated_Source\PSoC5/cyPm.c ****     /* Save and enable only wakeup on PICU */
1144:.\Generated_Source\PSoC5/cyPm.c ****     cyPmBackup.wakeupCfg0 = CY_PM_WAKEUP_CFG0_REG;
1145:.\Generated_Source\PSoC5/cyPm.c ****     CY_PM_WAKEUP_CFG0_REG = CY_PM_WAKEUP_PICU;
1146:.\Generated_Source\PSoC5/cyPm.c **** 
1147:.\Generated_Source\PSoC5/cyPm.c ****     cyPmBackup.wakeupCfg1 = CY_PM_WAKEUP_CFG1_REG;
1148:.\Generated_Source\PSoC5/cyPm.c ****     CY_PM_WAKEUP_CFG1_REG = 0x00u;
1149:.\Generated_Source\PSoC5/cyPm.c **** 
1150:.\Generated_Source\PSoC5/cyPm.c ****     cyPmBackup.wakeupCfg2 = CY_PM_WAKEUP_CFG2_REG;
1151:.\Generated_Source\PSoC5/cyPm.c ****     CY_PM_WAKEUP_CFG2_REG = 0x00u;
1152:.\Generated_Source\PSoC5/cyPm.c **** 
1153:.\Generated_Source\PSoC5/cyPm.c **** 
1154:.\Generated_Source\PSoC5/cyPm.c ****     /* Last moment IMO frequency change */
1155:.\Generated_Source\PSoC5/cyPm.c ****     if(0u == (CY_PM_FASTCLK_IMO_CR_REG & CY_PM_FASTCLK_IMO_CR_FREQ_MASK))
1156:.\Generated_Source\PSoC5/cyPm.c ****     {
1157:.\Generated_Source\PSoC5/cyPm.c ****         /* IMO frequency is 12 MHz */
1158:.\Generated_Source\PSoC5/cyPm.c ****         cyPmBackup.imoActFreq12Mhz = CY_PM_ENABLED;
1159:.\Generated_Source\PSoC5/cyPm.c ****     }
1160:.\Generated_Source\PSoC5/cyPm.c ****     else
1161:.\Generated_Source\PSoC5/cyPm.c ****     {
1162:.\Generated_Source\PSoC5/cyPm.c ****         /* IMO frequency is not 12 MHz */
1163:.\Generated_Source\PSoC5/cyPm.c ****         cyPmBackup.imoActFreq12Mhz = CY_PM_DISABLED;
1164:.\Generated_Source\PSoC5/cyPm.c **** 
1165:.\Generated_Source\PSoC5/cyPm.c ****         /* Save IMO frequency */
1166:.\Generated_Source\PSoC5/cyPm.c ****         cyPmBackup.imoActFreq = CY_PM_FASTCLK_IMO_CR_REG & CY_PM_FASTCLK_IMO_CR_FREQ_MASK;
1167:.\Generated_Source\PSoC5/cyPm.c **** 
1168:.\Generated_Source\PSoC5/cyPm.c ****         /* Set IMO frequency to 12 MHz */
1169:.\Generated_Source\PSoC5/cyPm.c ****         CY_PM_FASTCLK_IMO_CR_REG &= ((uint8) (~CY_PM_FASTCLK_IMO_CR_FREQ_MASK));
1170:.\Generated_Source\PSoC5/cyPm.c ****     }
1171:.\Generated_Source\PSoC5/cyPm.c **** 
1172:.\Generated_Source\PSoC5/cyPm.c **** 
ARM GAS  C:\Users\Ian\AppData\Local\Temp\ccxtF1i6.s 			page 22


1173:.\Generated_Source\PSoC5/cyPm.c ****     /* Switch to Hibernate Mode */
1174:.\Generated_Source\PSoC5/cyPm.c ****     CY_PM_MODE_CSR_REG = (CY_PM_MODE_CSR_REG & ((uint8) (~CY_PM_MODE_CSR_MASK))) | CY_PM_MODE_CSR_H
1175:.\Generated_Source\PSoC5/cyPm.c **** 
1176:.\Generated_Source\PSoC5/cyPm.c ****     /* Recommended readback. */
1177:.\Generated_Source\PSoC5/cyPm.c ****     (void) CY_PM_MODE_CSR_REG;
1178:.\Generated_Source\PSoC5/cyPm.c **** 
1179:.\Generated_Source\PSoC5/cyPm.c ****     /* Two recommended NOPs to get into mode. */
1180:.\Generated_Source\PSoC5/cyPm.c ****     CY_NOP;
1181:.\Generated_Source\PSoC5/cyPm.c ****     CY_NOP;
1182:.\Generated_Source\PSoC5/cyPm.c **** 
1183:.\Generated_Source\PSoC5/cyPm.c ****     /* Execute WFI instruction (for ARM-based devices only) */
1184:.\Generated_Source\PSoC5/cyPm.c ****     CY_PM_WFI;
1185:.\Generated_Source\PSoC5/cyPm.c **** 
1186:.\Generated_Source\PSoC5/cyPm.c **** 
1187:.\Generated_Source\PSoC5/cyPm.c ****     /* Point of return from Hibernate mode */
1188:.\Generated_Source\PSoC5/cyPm.c **** 
1189:.\Generated_Source\PSoC5/cyPm.c **** 
1190:.\Generated_Source\PSoC5/cyPm.c ****     /* Restore last moment IMO frequency change */
1191:.\Generated_Source\PSoC5/cyPm.c ****     if(CY_PM_ENABLED != cyPmBackup.imoActFreq12Mhz)
1192:.\Generated_Source\PSoC5/cyPm.c ****     {
1193:.\Generated_Source\PSoC5/cyPm.c ****         CY_PM_FASTCLK_IMO_CR_REG  = (CY_PM_FASTCLK_IMO_CR_REG & ((uint8)(~CY_PM_FASTCLK_IMO_CR_FREQ
1194:.\Generated_Source\PSoC5/cyPm.c ****                                     cyPmBackup.imoActFreq;
1195:.\Generated_Source\PSoC5/cyPm.c ****     }
1196:.\Generated_Source\PSoC5/cyPm.c **** 
1197:.\Generated_Source\PSoC5/cyPm.c **** 
1198:.\Generated_Source\PSoC5/cyPm.c ****     /* Restore device for proper Hibernate mode exit*/
1199:.\Generated_Source\PSoC5/cyPm.c ****     CyPmHibRestore();
1200:.\Generated_Source\PSoC5/cyPm.c **** 
1201:.\Generated_Source\PSoC5/cyPm.c ****     /* Restore current wake up configuration */
1202:.\Generated_Source\PSoC5/cyPm.c ****     CY_PM_WAKEUP_CFG0_REG = cyPmBackup.wakeupCfg0;
1203:.\Generated_Source\PSoC5/cyPm.c ****     CY_PM_WAKEUP_CFG1_REG = cyPmBackup.wakeupCfg1;
1204:.\Generated_Source\PSoC5/cyPm.c ****     CY_PM_WAKEUP_CFG2_REG = cyPmBackup.wakeupCfg2;
1205:.\Generated_Source\PSoC5/cyPm.c **** 
1206:.\Generated_Source\PSoC5/cyPm.c ****     /* Restore global interrupt enable state */
1207:.\Generated_Source\PSoC5/cyPm.c ****     CyExitCriticalSection(interruptState);
1208:.\Generated_Source\PSoC5/cyPm.c **** }
1209:.\Generated_Source\PSoC5/cyPm.c **** 
1210:.\Generated_Source\PSoC5/cyPm.c **** 
1211:.\Generated_Source\PSoC5/cyPm.c **** /*******************************************************************************
1212:.\Generated_Source\PSoC5/cyPm.c **** * Function Name: CyPmReadStatus
1213:.\Generated_Source\PSoC5/cyPm.c **** ********************************************************************************
1214:.\Generated_Source\PSoC5/cyPm.c **** *
1215:.\Generated_Source\PSoC5/cyPm.c **** * Summary:
1216:.\Generated_Source\PSoC5/cyPm.c **** *  Manages the Power Manager Interrupt Status Register.  This register has the
1217:.\Generated_Source\PSoC5/cyPm.c **** *  interrupt status for the one pulse per second, central timewheel and fast
1218:.\Generated_Source\PSoC5/cyPm.c **** *  timewheel timers.  This hardware register clears on read.  To allow for only
1219:.\Generated_Source\PSoC5/cyPm.c **** *  clearing the bits of interest and preserving the other bits, this function
1220:.\Generated_Source\PSoC5/cyPm.c **** *  uses a shadow register that retains the state.  This function reads the
1221:.\Generated_Source\PSoC5/cyPm.c **** *  status register and ORs that value with the shadow register.  That is the
1222:.\Generated_Source\PSoC5/cyPm.c **** *  value that is returned.  Then the bits in the mask that are set are cleared
1223:.\Generated_Source\PSoC5/cyPm.c **** *  from this value and written back to the shadow register.
1224:.\Generated_Source\PSoC5/cyPm.c **** *
1225:.\Generated_Source\PSoC5/cyPm.c **** *  Note You must call this function within 1 ms (1 clock cycle of the ILO)
1226:.\Generated_Source\PSoC5/cyPm.c **** *  after a CTW event has occurred.
1227:.\Generated_Source\PSoC5/cyPm.c **** *
1228:.\Generated_Source\PSoC5/cyPm.c **** * Parameters:
1229:.\Generated_Source\PSoC5/cyPm.c **** *  mask: Bits in the shadow register to clear.
ARM GAS  C:\Users\Ian\AppData\Local\Temp\ccxtF1i6.s 			page 23


1230:.\Generated_Source\PSoC5/cyPm.c **** *
1231:.\Generated_Source\PSoC5/cyPm.c **** *       Define                      Source
1232:.\Generated_Source\PSoC5/cyPm.c **** *  CY_PM_FTW_INT                Fast Timewheel
1233:.\Generated_Source\PSoC5/cyPm.c **** *  CY_PM_CTW_INT                Central Timewheel
1234:.\Generated_Source\PSoC5/cyPm.c **** *  CY_PM_ONEPPS_INT             One Pulse Per Second
1235:.\Generated_Source\PSoC5/cyPm.c **** *
1236:.\Generated_Source\PSoC5/cyPm.c **** * Return:
1237:.\Generated_Source\PSoC5/cyPm.c **** *  Status.  Same bits values as the mask parameter.
1238:.\Generated_Source\PSoC5/cyPm.c **** *
1239:.\Generated_Source\PSoC5/cyPm.c **** *******************************************************************************/
1240:.\Generated_Source\PSoC5/cyPm.c **** uint8 CyPmReadStatus(uint8 mask) 
1241:.\Generated_Source\PSoC5/cyPm.c **** {
1242:.\Generated_Source\PSoC5/cyPm.c ****     static uint8 interruptStatus;
1243:.\Generated_Source\PSoC5/cyPm.c ****     uint8 interruptState;
1244:.\Generated_Source\PSoC5/cyPm.c ****     uint8 tmpStatus;
1245:.\Generated_Source\PSoC5/cyPm.c **** 
1246:.\Generated_Source\PSoC5/cyPm.c ****     /* Enter critical section */
1247:.\Generated_Source\PSoC5/cyPm.c ****     interruptState = CyEnterCriticalSection();
1248:.\Generated_Source\PSoC5/cyPm.c **** 
1249:.\Generated_Source\PSoC5/cyPm.c ****     /* Save value of register, copy it and clear desired bit */
1250:.\Generated_Source\PSoC5/cyPm.c ****     interruptStatus |= CY_PM_INT_SR_REG;
1251:.\Generated_Source\PSoC5/cyPm.c ****     tmpStatus = interruptStatus;
1252:.\Generated_Source\PSoC5/cyPm.c ****     interruptStatus &= ((uint8)(~mask));
1253:.\Generated_Source\PSoC5/cyPm.c **** 
1254:.\Generated_Source\PSoC5/cyPm.c ****     /* Exit critical section */
1255:.\Generated_Source\PSoC5/cyPm.c ****     CyExitCriticalSection(interruptState);
1256:.\Generated_Source\PSoC5/cyPm.c **** 
1257:.\Generated_Source\PSoC5/cyPm.c ****     return(tmpStatus);
1258:.\Generated_Source\PSoC5/cyPm.c **** }
1259:.\Generated_Source\PSoC5/cyPm.c **** 
1260:.\Generated_Source\PSoC5/cyPm.c **** 
1261:.\Generated_Source\PSoC5/cyPm.c **** /*******************************************************************************
1262:.\Generated_Source\PSoC5/cyPm.c **** * Function Name: CyPmHibSaveSet
1263:.\Generated_Source\PSoC5/cyPm.c **** ********************************************************************************
1264:.\Generated_Source\PSoC5/cyPm.c **** *
1265:.\Generated_Source\PSoC5/cyPm.c **** * Summary:
1266:.\Generated_Source\PSoC5/cyPm.c **** *  Prepare device for proper Hibernate low power mode entry:
1267:.\Generated_Source\PSoC5/cyPm.c **** *  - Disables I2C backup regulator
1268:.\Generated_Source\PSoC5/cyPm.c **** *  - Saves ILO power down mode state and enable it
1269:.\Generated_Source\PSoC5/cyPm.c **** *  - Saves state of 1 kHz and 100 kHz ILO and disable them
1270:.\Generated_Source\PSoC5/cyPm.c **** *  - Disables sleep regulator and shorts vccd to vpwrsleep
1271:.\Generated_Source\PSoC5/cyPm.c **** *  - Save LVI/HVI configuration and disable them - CyPmHviLviSaveDisable()
1272:.\Generated_Source\PSoC5/cyPm.c **** *  - CyPmHibSlpSaveSet() function is called
1273:.\Generated_Source\PSoC5/cyPm.c **** *
1274:.\Generated_Source\PSoC5/cyPm.c **** * Parameters:
1275:.\Generated_Source\PSoC5/cyPm.c **** *  None
1276:.\Generated_Source\PSoC5/cyPm.c **** *
1277:.\Generated_Source\PSoC5/cyPm.c **** * Return:
1278:.\Generated_Source\PSoC5/cyPm.c **** *  None
1279:.\Generated_Source\PSoC5/cyPm.c **** *
1280:.\Generated_Source\PSoC5/cyPm.c **** * Reentrant:
1281:.\Generated_Source\PSoC5/cyPm.c **** *  No
1282:.\Generated_Source\PSoC5/cyPm.c **** *
1283:.\Generated_Source\PSoC5/cyPm.c **** *******************************************************************************/
1284:.\Generated_Source\PSoC5/cyPm.c **** static void CyPmHibSaveSet(void) 
1285:.\Generated_Source\PSoC5/cyPm.c **** {
1286:.\Generated_Source\PSoC5/cyPm.c ****     /* I2C backup reg must be off when the sleep regulator is unavailable */
ARM GAS  C:\Users\Ian\AppData\Local\Temp\ccxtF1i6.s 			page 24


1287:.\Generated_Source\PSoC5/cyPm.c ****     if(0u != (CY_PM_PWRSYS_CR1_REG & CY_PM_PWRSYS_CR1_I2CREG_BACKUP))
1288:.\Generated_Source\PSoC5/cyPm.c ****     {
1289:.\Generated_Source\PSoC5/cyPm.c ****         /***********************************************************************
1290:.\Generated_Source\PSoC5/cyPm.c ****         * If the I2C backup regulator is enabled, all the fixed-function registers
1291:.\Generated_Source\PSoC5/cyPm.c ****         * store their values while the device is in the low power mode, otherwise their
1292:.\Generated_Source\PSoC5/cyPm.c ****         * configuration is lost. The I2C API makes a decision to restore or not
1293:.\Generated_Source\PSoC5/cyPm.c ****         * to restore I2C registers based on this. If this regulator will be
1294:.\Generated_Source\PSoC5/cyPm.c ****         * disabled and then enabled, I2C API will suppose that the I2C block
1295:.\Generated_Source\PSoC5/cyPm.c ****         * registers preserved their values, while this is not true. So, the
1296:.\Generated_Source\PSoC5/cyPm.c ****         * backup regulator is disabled. The I2C sleep APIs is responsible for
1297:.\Generated_Source\PSoC5/cyPm.c ****         * restoration.
1298:.\Generated_Source\PSoC5/cyPm.c ****         ***********************************************************************/
1299:.\Generated_Source\PSoC5/cyPm.c **** 
1300:.\Generated_Source\PSoC5/cyPm.c ****         /* Disable I2C backup register */
1301:.\Generated_Source\PSoC5/cyPm.c ****         CY_PM_PWRSYS_CR1_REG &= ((uint8)(~CY_PM_PWRSYS_CR1_I2CREG_BACKUP));
1302:.\Generated_Source\PSoC5/cyPm.c ****     }
1303:.\Generated_Source\PSoC5/cyPm.c **** 
1304:.\Generated_Source\PSoC5/cyPm.c **** 
1305:.\Generated_Source\PSoC5/cyPm.c ****     /* Save current ILO power mode and ensure low power mode */
1306:.\Generated_Source\PSoC5/cyPm.c ****     cyPmBackup.iloPowerMode = CyILO_SetPowerMode(CY_PM_POWERDOWN_MODE);
1307:.\Generated_Source\PSoC5/cyPm.c **** 
1308:.\Generated_Source\PSoC5/cyPm.c ****     /* Save current 1kHz ILO enable state. Disabled automatically. */
1309:.\Generated_Source\PSoC5/cyPm.c ****     cyPmBackup.ilo1kEnable = (0u == (CY_PM_SLOWCLK_ILO_CR0_REG & CY_PM_ILO_CR0_EN_1K)) ?
1310:.\Generated_Source\PSoC5/cyPm.c ****                                 CY_PM_DISABLED : CY_PM_ENABLED;
1311:.\Generated_Source\PSoC5/cyPm.c **** 
1312:.\Generated_Source\PSoC5/cyPm.c ****     /* Save current 100kHz ILO enable state. Disabled automatically. */
1313:.\Generated_Source\PSoC5/cyPm.c ****     cyPmBackup.ilo100kEnable = (0u == (CY_PM_SLOWCLK_ILO_CR0_REG & CY_PM_ILO_CR0_EN_100K)) ?
1314:.\Generated_Source\PSoC5/cyPm.c ****                                 CY_PM_DISABLED : CY_PM_ENABLED;
1315:.\Generated_Source\PSoC5/cyPm.c **** 
1316:.\Generated_Source\PSoC5/cyPm.c **** 
1317:.\Generated_Source\PSoC5/cyPm.c ****     /* Disable the sleep regulator and shorts vccd to vpwrsleep */
1318:.\Generated_Source\PSoC5/cyPm.c ****     if(0u == (CY_PM_PWRSYS_SLP_TR_REG & CY_PM_PWRSYS_SLP_TR_BYPASS))
1319:.\Generated_Source\PSoC5/cyPm.c ****     {
1320:.\Generated_Source\PSoC5/cyPm.c ****         /* Save current bypass state */
1321:.\Generated_Source\PSoC5/cyPm.c ****         cyPmBackup.slpTrBypass = CY_PM_DISABLED;
1322:.\Generated_Source\PSoC5/cyPm.c ****         CY_PM_PWRSYS_SLP_TR_REG |= CY_PM_PWRSYS_SLP_TR_BYPASS;
1323:.\Generated_Source\PSoC5/cyPm.c ****     }
1324:.\Generated_Source\PSoC5/cyPm.c ****     else
1325:.\Generated_Source\PSoC5/cyPm.c ****     {
1326:.\Generated_Source\PSoC5/cyPm.c ****         cyPmBackup.slpTrBypass = CY_PM_ENABLED;
1327:.\Generated_Source\PSoC5/cyPm.c ****     }
1328:.\Generated_Source\PSoC5/cyPm.c **** 
1329:.\Generated_Source\PSoC5/cyPm.c ****     /* LPCOMPs are always enabled (even when BOTH ext_vccd=1 and ext_vcca=1)*/
1330:.\Generated_Source\PSoC5/cyPm.c **** 
1331:.\Generated_Source\PSoC5/cyPm.c **** 
1332:.\Generated_Source\PSoC5/cyPm.c ****     /***************************************************************************
1333:.\Generated_Source\PSoC5/cyPm.c ****     * LVI/HVI must be disabled in Hibernate
1334:.\Generated_Source\PSoC5/cyPm.c ****     ***************************************************************************/
1335:.\Generated_Source\PSoC5/cyPm.c **** 
1336:.\Generated_Source\PSoC5/cyPm.c ****     /* Save LVI/HVI configuration and disable them */
1337:.\Generated_Source\PSoC5/cyPm.c ****     CyPmHviLviSaveDisable();
1338:.\Generated_Source\PSoC5/cyPm.c **** 
1339:.\Generated_Source\PSoC5/cyPm.c **** 
1340:.\Generated_Source\PSoC5/cyPm.c ****     /* Make the same preparations for Hibernate and Sleep modes */
1341:.\Generated_Source\PSoC5/cyPm.c ****     CyPmHibSlpSaveSet();
1342:.\Generated_Source\PSoC5/cyPm.c **** 
1343:.\Generated_Source\PSoC5/cyPm.c **** 
ARM GAS  C:\Users\Ian\AppData\Local\Temp\ccxtF1i6.s 			page 25


1344:.\Generated_Source\PSoC5/cyPm.c ****     /***************************************************************************
1345:.\Generated_Source\PSoC5/cyPm.c ****     * Save and set the power mode wakeup trim registers
1346:.\Generated_Source\PSoC5/cyPm.c ****     ***************************************************************************/
1347:.\Generated_Source\PSoC5/cyPm.c ****     cyPmBackup.wakeupTrim0 = CY_PM_PWRSYS_WAKE_TR0_REG;
1348:.\Generated_Source\PSoC5/cyPm.c ****     cyPmBackup.wakeupTrim1 = CY_PM_PWRSYS_WAKE_TR1_REG;
1349:.\Generated_Source\PSoC5/cyPm.c **** 
1350:.\Generated_Source\PSoC5/cyPm.c ****     CY_PM_PWRSYS_WAKE_TR0_REG = CY_PM_PWRSYS_WAKE_TR0;
1351:.\Generated_Source\PSoC5/cyPm.c ****     CY_PM_PWRSYS_WAKE_TR1_REG = CY_PM_PWRSYS_WAKE_TR1;
1352:.\Generated_Source\PSoC5/cyPm.c **** }
1353:.\Generated_Source\PSoC5/cyPm.c **** 
1354:.\Generated_Source\PSoC5/cyPm.c **** 
1355:.\Generated_Source\PSoC5/cyPm.c **** /*******************************************************************************
1356:.\Generated_Source\PSoC5/cyPm.c **** * Function Name: CyPmHibRestore
1357:.\Generated_Source\PSoC5/cyPm.c **** ********************************************************************************
1358:.\Generated_Source\PSoC5/cyPm.c **** *
1359:.\Generated_Source\PSoC5/cyPm.c **** * Summary:
1360:.\Generated_Source\PSoC5/cyPm.c **** *  Restores the device for the proper Hibernate mode exit:
1361:.\Generated_Source\PSoC5/cyPm.c **** *  - Restores LVI/HVI configuration - calsl CyPmHviLviRestore()
1362:.\Generated_Source\PSoC5/cyPm.c **** *  - CyPmHibSlpSaveRestore() function is called
1363:.\Generated_Source\PSoC5/cyPm.c **** *  - Restores ILO power down mode state and enables it
1364:.\Generated_Source\PSoC5/cyPm.c **** *  - Restores the state of 1 kHz and 100 kHz ILO and disables them
1365:.\Generated_Source\PSoC5/cyPm.c **** *  - Restores the sleep regulator settings
1366:.\Generated_Source\PSoC5/cyPm.c **** *
1367:.\Generated_Source\PSoC5/cyPm.c **** * Parameters:
1368:.\Generated_Source\PSoC5/cyPm.c **** *  None
1369:.\Generated_Source\PSoC5/cyPm.c **** *
1370:.\Generated_Source\PSoC5/cyPm.c **** * Return:
1371:.\Generated_Source\PSoC5/cyPm.c **** *  None
1372:.\Generated_Source\PSoC5/cyPm.c **** *
1373:.\Generated_Source\PSoC5/cyPm.c **** *******************************************************************************/
1374:.\Generated_Source\PSoC5/cyPm.c **** static void CyPmHibRestore(void) 
1375:.\Generated_Source\PSoC5/cyPm.c **** {
1376:.\Generated_Source\PSoC5/cyPm.c ****     /* Restore LVI/HVI configuration */
1377:.\Generated_Source\PSoC5/cyPm.c ****     CyPmHviLviRestore();
1378:.\Generated_Source\PSoC5/cyPm.c **** 
1379:.\Generated_Source\PSoC5/cyPm.c ****     /* Restore the same configuration for Hibernate and Sleep modes */
1380:.\Generated_Source\PSoC5/cyPm.c ****     CyPmHibSlpRestore();
1381:.\Generated_Source\PSoC5/cyPm.c **** 
1382:.\Generated_Source\PSoC5/cyPm.c ****     /* Restore 1kHz ILO enable state */
1383:.\Generated_Source\PSoC5/cyPm.c ****     if(CY_PM_ENABLED == cyPmBackup.ilo1kEnable)
1384:.\Generated_Source\PSoC5/cyPm.c ****     {
1385:.\Generated_Source\PSoC5/cyPm.c ****         /* Enable 1kHz ILO */
1386:.\Generated_Source\PSoC5/cyPm.c ****         CyILO_Start1K();
1387:.\Generated_Source\PSoC5/cyPm.c ****     }
1388:.\Generated_Source\PSoC5/cyPm.c **** 
1389:.\Generated_Source\PSoC5/cyPm.c ****     /* Restore 100kHz ILO enable state */
1390:.\Generated_Source\PSoC5/cyPm.c ****     if(CY_PM_ENABLED == cyPmBackup.ilo100kEnable)
1391:.\Generated_Source\PSoC5/cyPm.c ****     {
1392:.\Generated_Source\PSoC5/cyPm.c ****         /* Enable 100kHz ILO */
1393:.\Generated_Source\PSoC5/cyPm.c ****         CyILO_Start100K();
1394:.\Generated_Source\PSoC5/cyPm.c ****     }
1395:.\Generated_Source\PSoC5/cyPm.c **** 
1396:.\Generated_Source\PSoC5/cyPm.c ****     /* Restore ILO power mode */
1397:.\Generated_Source\PSoC5/cyPm.c ****     (void) CyILO_SetPowerMode(cyPmBackup.iloPowerMode);
1398:.\Generated_Source\PSoC5/cyPm.c **** 
1399:.\Generated_Source\PSoC5/cyPm.c **** 
1400:.\Generated_Source\PSoC5/cyPm.c ****     if(CY_PM_DISABLED == cyPmBackup.slpTrBypass)
ARM GAS  C:\Users\Ian\AppData\Local\Temp\ccxtF1i6.s 			page 26


1401:.\Generated_Source\PSoC5/cyPm.c ****     {
1402:.\Generated_Source\PSoC5/cyPm.c ****         /* Enable the sleep regulator */
1403:.\Generated_Source\PSoC5/cyPm.c ****         CY_PM_PWRSYS_SLP_TR_REG &= ((uint8)(~CY_PM_PWRSYS_SLP_TR_BYPASS));
1404:.\Generated_Source\PSoC5/cyPm.c ****     }
1405:.\Generated_Source\PSoC5/cyPm.c **** 
1406:.\Generated_Source\PSoC5/cyPm.c **** 
1407:.\Generated_Source\PSoC5/cyPm.c ****     /***************************************************************************
1408:.\Generated_Source\PSoC5/cyPm.c ****     * Restore the power mode wakeup trim registers
1409:.\Generated_Source\PSoC5/cyPm.c ****     ***************************************************************************/
1410:.\Generated_Source\PSoC5/cyPm.c ****     CY_PM_PWRSYS_WAKE_TR0_REG = cyPmBackup.wakeupTrim0;
1411:.\Generated_Source\PSoC5/cyPm.c ****     CY_PM_PWRSYS_WAKE_TR1_REG = cyPmBackup.wakeupTrim1;
1412:.\Generated_Source\PSoC5/cyPm.c **** }
1413:.\Generated_Source\PSoC5/cyPm.c **** 
1414:.\Generated_Source\PSoC5/cyPm.c **** 
1415:.\Generated_Source\PSoC5/cyPm.c **** /*******************************************************************************
1416:.\Generated_Source\PSoC5/cyPm.c **** * Function Name: CyPmCtwSetInterval
1417:.\Generated_Source\PSoC5/cyPm.c **** ********************************************************************************
1418:.\Generated_Source\PSoC5/cyPm.c **** *
1419:.\Generated_Source\PSoC5/cyPm.c **** * Summary:
1420:.\Generated_Source\PSoC5/cyPm.c **** *  Performs the CTW configuration:
1421:.\Generated_Source\PSoC5/cyPm.c **** *  - Disables the CTW interrupt
1422:.\Generated_Source\PSoC5/cyPm.c **** *  - Enables 1 kHz ILO
1423:.\Generated_Source\PSoC5/cyPm.c **** *  - Sets a new CTW interval
1424:.\Generated_Source\PSoC5/cyPm.c **** *
1425:.\Generated_Source\PSoC5/cyPm.c **** * Parameters:
1426:.\Generated_Source\PSoC5/cyPm.c **** *  ctwInterval: the CTW interval to be set.
1427:.\Generated_Source\PSoC5/cyPm.c **** *
1428:.\Generated_Source\PSoC5/cyPm.c **** * Return:
1429:.\Generated_Source\PSoC5/cyPm.c **** *  None
1430:.\Generated_Source\PSoC5/cyPm.c **** *
1431:.\Generated_Source\PSoC5/cyPm.c **** * Side Effects:
1432:.\Generated_Source\PSoC5/cyPm.c **** *  Enables ILO 1 KHz clock and leaves it enabled.
1433:.\Generated_Source\PSoC5/cyPm.c **** *
1434:.\Generated_Source\PSoC5/cyPm.c **** *******************************************************************************/
1435:.\Generated_Source\PSoC5/cyPm.c **** void CyPmCtwSetInterval(uint8 ctwInterval) 
1436:.\Generated_Source\PSoC5/cyPm.c **** {
1437:.\Generated_Source\PSoC5/cyPm.c ****     /* Disable CTW interrupt enable */
1438:.\Generated_Source\PSoC5/cyPm.c ****     CY_PM_TW_CFG2_REG &= ((uint8)(~CY_PM_CTW_IE));
1439:.\Generated_Source\PSoC5/cyPm.c **** 
1440:.\Generated_Source\PSoC5/cyPm.c ****     /* Enable 1kHz ILO (required for CTW operation) */
1441:.\Generated_Source\PSoC5/cyPm.c ****     CyILO_Start1K();
1442:.\Generated_Source\PSoC5/cyPm.c **** 
1443:.\Generated_Source\PSoC5/cyPm.c ****     /* Interval could be set only while CTW is disabled */
1444:.\Generated_Source\PSoC5/cyPm.c ****     if(0u != (CY_PM_TW_CFG2_REG & CY_PM_CTW_EN))
1445:.\Generated_Source\PSoC5/cyPm.c ****     {
1446:.\Generated_Source\PSoC5/cyPm.c ****         /* Set CTW interval if needed */
1447:.\Generated_Source\PSoC5/cyPm.c ****         if(CY_PM_TW_CFG1_REG != ctwInterval)
1448:.\Generated_Source\PSoC5/cyPm.c ****         {
1449:.\Generated_Source\PSoC5/cyPm.c ****             /* Disable the CTW, set new CTW interval and enable it again */
1450:.\Generated_Source\PSoC5/cyPm.c ****             CY_PM_TW_CFG2_REG &= ((uint8)(~CY_PM_CTW_EN));
1451:.\Generated_Source\PSoC5/cyPm.c ****             CY_PM_TW_CFG1_REG = ctwInterval;
1452:.\Generated_Source\PSoC5/cyPm.c ****             CY_PM_TW_CFG2_REG |= CY_PM_CTW_EN;
1453:.\Generated_Source\PSoC5/cyPm.c ****         }   /* Required interval is already set */
1454:.\Generated_Source\PSoC5/cyPm.c ****     }
1455:.\Generated_Source\PSoC5/cyPm.c ****     else
1456:.\Generated_Source\PSoC5/cyPm.c ****     {
1457:.\Generated_Source\PSoC5/cyPm.c ****         /* Set CTW interval if needed */
ARM GAS  C:\Users\Ian\AppData\Local\Temp\ccxtF1i6.s 			page 27


1458:.\Generated_Source\PSoC5/cyPm.c ****         if(CY_PM_TW_CFG1_REG != ctwInterval)
1459:.\Generated_Source\PSoC5/cyPm.c ****         {
1460:.\Generated_Source\PSoC5/cyPm.c ****             /* Set new CTW interval. Could be changed if CTW is disabled */
1461:.\Generated_Source\PSoC5/cyPm.c ****             CY_PM_TW_CFG1_REG = ctwInterval;
1462:.\Generated_Source\PSoC5/cyPm.c ****         }   /* Required interval is already set */
1463:.\Generated_Source\PSoC5/cyPm.c **** 
1464:.\Generated_Source\PSoC5/cyPm.c ****         /* Enable CTW */
1465:.\Generated_Source\PSoC5/cyPm.c ****         CY_PM_TW_CFG2_REG |= CY_PM_CTW_EN;
1466:.\Generated_Source\PSoC5/cyPm.c ****     }
1467:.\Generated_Source\PSoC5/cyPm.c **** }
1468:.\Generated_Source\PSoC5/cyPm.c **** 
1469:.\Generated_Source\PSoC5/cyPm.c **** 
1470:.\Generated_Source\PSoC5/cyPm.c **** /*******************************************************************************
1471:.\Generated_Source\PSoC5/cyPm.c **** * Function Name: CyPmOppsSet
1472:.\Generated_Source\PSoC5/cyPm.c **** ********************************************************************************
1473:.\Generated_Source\PSoC5/cyPm.c **** *
1474:.\Generated_Source\PSoC5/cyPm.c **** * Summary:
1475:.\Generated_Source\PSoC5/cyPm.c **** *  Performs 1PPS configuration:
1476:.\Generated_Source\PSoC5/cyPm.c **** *  - Starts 32 KHz XTAL
1477:.\Generated_Source\PSoC5/cyPm.c **** *  - Disables 1PPS interrupts
1478:.\Generated_Source\PSoC5/cyPm.c **** *  - Enables 1PPS
1479:.\Generated_Source\PSoC5/cyPm.c **** *
1480:.\Generated_Source\PSoC5/cyPm.c **** * Parameters:
1481:.\Generated_Source\PSoC5/cyPm.c **** *  None
1482:.\Generated_Source\PSoC5/cyPm.c **** *
1483:.\Generated_Source\PSoC5/cyPm.c **** * Return:
1484:.\Generated_Source\PSoC5/cyPm.c **** *  None
1485:.\Generated_Source\PSoC5/cyPm.c **** *
1486:.\Generated_Source\PSoC5/cyPm.c **** *******************************************************************************/
1487:.\Generated_Source\PSoC5/cyPm.c **** void CyPmOppsSet(void) 
1488:.\Generated_Source\PSoC5/cyPm.c **** {
1489:.\Generated_Source\PSoC5/cyPm.c ****     /* Enable 32kHz XTAL if needed */
1490:.\Generated_Source\PSoC5/cyPm.c ****     if(0u == (CY_PM_SLOWCLK_X32_CR_REG & CY_PM_X32_CR_X32EN))
1491:.\Generated_Source\PSoC5/cyPm.c ****     {
1492:.\Generated_Source\PSoC5/cyPm.c ****         /* Enable 32kHz XTAL */
1493:.\Generated_Source\PSoC5/cyPm.c ****         CyXTAL_32KHZ_Start();
1494:.\Generated_Source\PSoC5/cyPm.c ****     }
1495:.\Generated_Source\PSoC5/cyPm.c **** 
1496:.\Generated_Source\PSoC5/cyPm.c ****     /* Disable 1PPS interrupt enable */
1497:.\Generated_Source\PSoC5/cyPm.c ****     CY_PM_TW_CFG2_REG &= ((uint8)(~CY_PM_1PPS_IE));
1498:.\Generated_Source\PSoC5/cyPm.c **** 
1499:.\Generated_Source\PSoC5/cyPm.c ****     /* Enable 1PPS operation */
1500:.\Generated_Source\PSoC5/cyPm.c ****     CY_PM_TW_CFG2_REG |= CY_PM_1PPS_EN;
1501:.\Generated_Source\PSoC5/cyPm.c **** }
1502:.\Generated_Source\PSoC5/cyPm.c **** 
1503:.\Generated_Source\PSoC5/cyPm.c **** 
1504:.\Generated_Source\PSoC5/cyPm.c **** /*******************************************************************************
1505:.\Generated_Source\PSoC5/cyPm.c **** * Function Name: CyPmFtwSetInterval
1506:.\Generated_Source\PSoC5/cyPm.c **** ********************************************************************************
1507:.\Generated_Source\PSoC5/cyPm.c **** *
1508:.\Generated_Source\PSoC5/cyPm.c **** * Summary:
1509:.\Generated_Source\PSoC5/cyPm.c **** *  Performs the FTW configuration:
1510:.\Generated_Source\PSoC5/cyPm.c **** *  - Disables the FTW interrupt
1511:.\Generated_Source\PSoC5/cyPm.c **** *  - Enables 100 kHz ILO
1512:.\Generated_Source\PSoC5/cyPm.c **** *  - Sets a new FTW interval.
1513:.\Generated_Source\PSoC5/cyPm.c **** *
1514:.\Generated_Source\PSoC5/cyPm.c **** * Parameters:
ARM GAS  C:\Users\Ian\AppData\Local\Temp\ccxtF1i6.s 			page 28


1515:.\Generated_Source\PSoC5/cyPm.c **** *  ftwInterval - FTW counter interval.
1516:.\Generated_Source\PSoC5/cyPm.c **** *
1517:.\Generated_Source\PSoC5/cyPm.c **** * Return:
1518:.\Generated_Source\PSoC5/cyPm.c **** *  None
1519:.\Generated_Source\PSoC5/cyPm.c **** *
1520:.\Generated_Source\PSoC5/cyPm.c **** * Side Effects:
1521:.\Generated_Source\PSoC5/cyPm.c **** *  Enables the ILO 100 KHz clock and leaves it enabled.
1522:.\Generated_Source\PSoC5/cyPm.c **** *
1523:.\Generated_Source\PSoC5/cyPm.c **** *******************************************************************************/
1524:.\Generated_Source\PSoC5/cyPm.c **** void CyPmFtwSetInterval(uint8 ftwInterval) 
1525:.\Generated_Source\PSoC5/cyPm.c **** {
1526:.\Generated_Source\PSoC5/cyPm.c ****     /* Disable FTW interrupt enable */
1527:.\Generated_Source\PSoC5/cyPm.c ****     CY_PM_TW_CFG2_REG &= ((uint8)(~CY_PM_FTW_IE));
1528:.\Generated_Source\PSoC5/cyPm.c **** 
1529:.\Generated_Source\PSoC5/cyPm.c ****     /* Enable 100kHz ILO */
1530:.\Generated_Source\PSoC5/cyPm.c ****     CyILO_Start100K();
1531:.\Generated_Source\PSoC5/cyPm.c **** 
1532:.\Generated_Source\PSoC5/cyPm.c ****     /* Interval could be set only while FTW is disabled */
1533:.\Generated_Source\PSoC5/cyPm.c ****     if(0u != (CY_PM_TW_CFG2_REG & CY_PM_FTW_EN))
1534:.\Generated_Source\PSoC5/cyPm.c ****     {
1535:.\Generated_Source\PSoC5/cyPm.c ****         /* Disable FTW, set new FTW interval if needed and enable it again */
1536:.\Generated_Source\PSoC5/cyPm.c ****         if(CY_PM_TW_CFG0_REG != ftwInterval)
1537:.\Generated_Source\PSoC5/cyPm.c ****         {
1538:.\Generated_Source\PSoC5/cyPm.c ****             /* Disable CTW, set new CTW interval and enable it again */
1539:.\Generated_Source\PSoC5/cyPm.c ****             CY_PM_TW_CFG2_REG &= ((uint8)(~CY_PM_FTW_EN));
1540:.\Generated_Source\PSoC5/cyPm.c ****             CY_PM_TW_CFG0_REG = ftwInterval;
1541:.\Generated_Source\PSoC5/cyPm.c ****             CY_PM_TW_CFG2_REG |= CY_PM_FTW_EN;
1542:.\Generated_Source\PSoC5/cyPm.c ****         }   /* Required interval is already set */
1543:.\Generated_Source\PSoC5/cyPm.c ****     }
1544:.\Generated_Source\PSoC5/cyPm.c ****     else
1545:.\Generated_Source\PSoC5/cyPm.c ****     {
1546:.\Generated_Source\PSoC5/cyPm.c ****         /* Set new FTW counter interval if needed. FTW is disabled. */
1547:.\Generated_Source\PSoC5/cyPm.c ****         if(CY_PM_TW_CFG0_REG != ftwInterval)
1548:.\Generated_Source\PSoC5/cyPm.c ****         {
1549:.\Generated_Source\PSoC5/cyPm.c ****             /* Set new CTW interval. Could be changed if CTW is disabled */
1550:.\Generated_Source\PSoC5/cyPm.c ****             CY_PM_TW_CFG0_REG = ftwInterval;
1551:.\Generated_Source\PSoC5/cyPm.c ****         }   /* Required interval is already set */
1552:.\Generated_Source\PSoC5/cyPm.c **** 
1553:.\Generated_Source\PSoC5/cyPm.c ****         /* Enable FTW */
1554:.\Generated_Source\PSoC5/cyPm.c ****         CY_PM_TW_CFG2_REG |= CY_PM_FTW_EN;
1555:.\Generated_Source\PSoC5/cyPm.c ****     }
1556:.\Generated_Source\PSoC5/cyPm.c **** }
1557:.\Generated_Source\PSoC5/cyPm.c **** 
1558:.\Generated_Source\PSoC5/cyPm.c **** 
1559:.\Generated_Source\PSoC5/cyPm.c **** /*******************************************************************************
1560:.\Generated_Source\PSoC5/cyPm.c **** * Function Name: CyPmHibSlpSaveSet
1561:.\Generated_Source\PSoC5/cyPm.c **** ********************************************************************************
1562:.\Generated_Source\PSoC5/cyPm.c **** *
1563:.\Generated_Source\PSoC5/cyPm.c **** * Summary:
1564:.\Generated_Source\PSoC5/cyPm.c **** *  This API is used for preparing the device for the Sleep and Hibernate low power
1565:.\Generated_Source\PSoC5/cyPm.c **** *  modes entry:
1566:.\Generated_Source\PSoC5/cyPm.c **** *  - Saves the COMP, VIDAC, DSM, and SAR routing connections (PSoC 5)
1567:.\Generated_Source\PSoC5/cyPm.c **** *  - Saves the SC/CT routing connections (PSoC 3/5/5LP)
1568:.\Generated_Source\PSoC5/cyPm.c **** *  - Disables the Serial Wire Viewer (SWV) (PSoC 3)
1569:.\Generated_Source\PSoC5/cyPm.c **** *  - Saves the boost reference selection and sets it to internal
1570:.\Generated_Source\PSoC5/cyPm.c **** *
1571:.\Generated_Source\PSoC5/cyPm.c **** * Parameters:
ARM GAS  C:\Users\Ian\AppData\Local\Temp\ccxtF1i6.s 			page 29


1572:.\Generated_Source\PSoC5/cyPm.c **** *  None
1573:.\Generated_Source\PSoC5/cyPm.c **** *
1574:.\Generated_Source\PSoC5/cyPm.c **** * Return:
1575:.\Generated_Source\PSoC5/cyPm.c **** *  None
1576:.\Generated_Source\PSoC5/cyPm.c **** *
1577:.\Generated_Source\PSoC5/cyPm.c **** * Reentrant:
1578:.\Generated_Source\PSoC5/cyPm.c **** *  No
1579:.\Generated_Source\PSoC5/cyPm.c **** *
1580:.\Generated_Source\PSoC5/cyPm.c **** *******************************************************************************/
1581:.\Generated_Source\PSoC5/cyPm.c **** static void CyPmHibSlpSaveSet(void) 
1582:.\Generated_Source\PSoC5/cyPm.c **** {
  26              		.loc 1 1582 0
  27              		.cfi_startproc
  28              		@ args = 0, pretend = 0, frame = 0
  29              		@ frame_needed = 0, uses_anonymous_args = 0
  30 0000 2DE9F04F 		push	{r4, r5, r6, r7, r8, r9, r10, fp, lr}
  31              		.cfi_def_cfa_offset 36
  32              		.cfi_offset 4, -36
  33              		.cfi_offset 5, -32
  34              		.cfi_offset 6, -28
  35              		.cfi_offset 7, -24
  36              		.cfi_offset 8, -20
  37              		.cfi_offset 9, -16
  38              		.cfi_offset 10, -12
  39              		.cfi_offset 11, -8
  40              		.cfi_offset 14, -4
1583:.\Generated_Source\PSoC5/cyPm.c ****     /* Save SC/CT routing registers */
1584:.\Generated_Source\PSoC5/cyPm.c ****     cyPmBackup.scctData[0u]   = CY_GET_REG8(CYREG_SC0_SW0 );
  41              		.loc 1 1584 0
  42 0004 DFF8BCA1 		ldr	r10, .L5+96
  43 0008 9AF80020 		ldrb	r2, [r10]	@ zero_extendqisi2
  44 000c 554B     		ldr	r3, .L5
  45 000e 5A72     		strb	r2, [r3, #9]
1585:.\Generated_Source\PSoC5/cyPm.c ****     cyPmBackup.scctData[1u]   = CY_GET_REG8(CYREG_SC0_SW2 );
  46              		.loc 1 1585 0
  47 0010 DFF8B491 		ldr	r9, .L5+100
  48 0014 99F80020 		ldrb	r2, [r9]	@ zero_extendqisi2
  49 0018 9A72     		strb	r2, [r3, #10]
1586:.\Generated_Source\PSoC5/cyPm.c ****     cyPmBackup.scctData[2u]   = CY_GET_REG8(CYREG_SC0_SW3 );
  50              		.loc 1 1586 0
  51 001a 534A     		ldr	r2, .L5+4
  52 001c 1278     		ldrb	r2, [r2]	@ zero_extendqisi2
  53 001e DA72     		strb	r2, [r3, #11]
1587:.\Generated_Source\PSoC5/cyPm.c ****     cyPmBackup.scctData[3u]   = CY_GET_REG8(CYREG_SC0_SW4 );
  54              		.loc 1 1587 0
  55 0020 524A     		ldr	r2, .L5+8
  56 0022 1278     		ldrb	r2, [r2]	@ zero_extendqisi2
  57 0024 1A73     		strb	r2, [r3, #12]
1588:.\Generated_Source\PSoC5/cyPm.c ****     cyPmBackup.scctData[4u]   = CY_GET_REG8(CYREG_SC0_SW6 );
  58              		.loc 1 1588 0
  59 0026 524A     		ldr	r2, .L5+12
  60 0028 1278     		ldrb	r2, [r2]	@ zero_extendqisi2
  61 002a 5A73     		strb	r2, [r3, #13]
1589:.\Generated_Source\PSoC5/cyPm.c ****     cyPmBackup.scctData[5u]   = CY_GET_REG8(CYREG_SC0_SW8 );
  62              		.loc 1 1589 0
  63 002c 514A     		ldr	r2, .L5+16
  64 002e 1278     		ldrb	r2, [r2]	@ zero_extendqisi2
ARM GAS  C:\Users\Ian\AppData\Local\Temp\ccxtF1i6.s 			page 30


  65 0030 9A73     		strb	r2, [r3, #14]
1590:.\Generated_Source\PSoC5/cyPm.c ****     cyPmBackup.scctData[6u]   = CY_GET_REG8(CYREG_SC0_SW10);
  66              		.loc 1 1590 0
  67 0032 514A     		ldr	r2, .L5+20
  68 0034 1278     		ldrb	r2, [r2]	@ zero_extendqisi2
  69 0036 DA73     		strb	r2, [r3, #15]
1591:.\Generated_Source\PSoC5/cyPm.c **** 
1592:.\Generated_Source\PSoC5/cyPm.c ****     cyPmBackup.scctData[7u]   = CY_GET_REG8(CYREG_SC1_SW0 );
  70              		.loc 1 1592 0
  71 0038 504A     		ldr	r2, .L5+24
  72 003a 1278     		ldrb	r2, [r2]	@ zero_extendqisi2
  73 003c 1A74     		strb	r2, [r3, #16]
1593:.\Generated_Source\PSoC5/cyPm.c ****     cyPmBackup.scctData[8u]   = CY_GET_REG8(CYREG_SC1_SW2 );
  74              		.loc 1 1593 0
  75 003e 504A     		ldr	r2, .L5+28
  76 0040 1278     		ldrb	r2, [r2]	@ zero_extendqisi2
  77 0042 5A74     		strb	r2, [r3, #17]
1594:.\Generated_Source\PSoC5/cyPm.c ****     cyPmBackup.scctData[9u]   = CY_GET_REG8(CYREG_SC1_SW3 );
  78              		.loc 1 1594 0
  79 0044 4F4A     		ldr	r2, .L5+32
  80 0046 1278     		ldrb	r2, [r2]	@ zero_extendqisi2
  81 0048 9A74     		strb	r2, [r3, #18]
1595:.\Generated_Source\PSoC5/cyPm.c ****     cyPmBackup.scctData[10u]  = CY_GET_REG8(CYREG_SC1_SW4 );
  82              		.loc 1 1595 0
  83 004a 4F4A     		ldr	r2, .L5+36
  84 004c 1278     		ldrb	r2, [r2]	@ zero_extendqisi2
  85 004e DA74     		strb	r2, [r3, #19]
1596:.\Generated_Source\PSoC5/cyPm.c ****     cyPmBackup.scctData[11u]  = CY_GET_REG8(CYREG_SC1_SW6 );
  86              		.loc 1 1596 0
  87 0050 4E4A     		ldr	r2, .L5+40
  88 0052 1278     		ldrb	r2, [r2]	@ zero_extendqisi2
  89 0054 1A75     		strb	r2, [r3, #20]
1597:.\Generated_Source\PSoC5/cyPm.c ****     cyPmBackup.scctData[12u]  = CY_GET_REG8(CYREG_SC1_SW8 );
  90              		.loc 1 1597 0
  91 0056 4E4A     		ldr	r2, .L5+44
  92 0058 1278     		ldrb	r2, [r2]	@ zero_extendqisi2
  93 005a 5A75     		strb	r2, [r3, #21]
1598:.\Generated_Source\PSoC5/cyPm.c ****     cyPmBackup.scctData[13u]  = CY_GET_REG8(CYREG_SC1_SW10);
  94              		.loc 1 1598 0
  95 005c 4D4A     		ldr	r2, .L5+48
  96 005e 1278     		ldrb	r2, [r2]	@ zero_extendqisi2
  97 0060 9A75     		strb	r2, [r3, #22]
1599:.\Generated_Source\PSoC5/cyPm.c **** 
1600:.\Generated_Source\PSoC5/cyPm.c ****     cyPmBackup.scctData[14u]  = CY_GET_REG8(CYREG_SC2_SW0 );
  98              		.loc 1 1600 0
  99 0062 4D4A     		ldr	r2, .L5+52
 100 0064 1278     		ldrb	r2, [r2]	@ zero_extendqisi2
 101 0066 DA75     		strb	r2, [r3, #23]
1601:.\Generated_Source\PSoC5/cyPm.c ****     cyPmBackup.scctData[15u]  = CY_GET_REG8(CYREG_SC2_SW2 );
 102              		.loc 1 1601 0
 103 0068 4C4A     		ldr	r2, .L5+56
 104 006a 1278     		ldrb	r2, [r2]	@ zero_extendqisi2
 105 006c 1A76     		strb	r2, [r3, #24]
1602:.\Generated_Source\PSoC5/cyPm.c ****     cyPmBackup.scctData[16u]  = CY_GET_REG8(CYREG_SC2_SW3 );
 106              		.loc 1 1602 0
 107 006e 4C4A     		ldr	r2, .L5+60
 108 0070 1278     		ldrb	r2, [r2]	@ zero_extendqisi2
ARM GAS  C:\Users\Ian\AppData\Local\Temp\ccxtF1i6.s 			page 31


 109 0072 5A76     		strb	r2, [r3, #25]
1603:.\Generated_Source\PSoC5/cyPm.c ****     cyPmBackup.scctData[17u]  = CY_GET_REG8(CYREG_SC2_SW4 );
 110              		.loc 1 1603 0
 111 0074 DFF854B1 		ldr	fp, .L5+104
 112 0078 9BF80020 		ldrb	r2, [fp]	@ zero_extendqisi2
 113 007c 9A76     		strb	r2, [r3, #26]
1604:.\Generated_Source\PSoC5/cyPm.c ****     cyPmBackup.scctData[18u]  = CY_GET_REG8(CYREG_SC2_SW6 );
 114              		.loc 1 1604 0
 115 007e DFF85081 		ldr	r8, .L5+108
 116 0082 98F80020 		ldrb	r2, [r8]	@ zero_extendqisi2
 117 0086 DA76     		strb	r2, [r3, #27]
1605:.\Generated_Source\PSoC5/cyPm.c ****     cyPmBackup.scctData[19u]  = CY_GET_REG8(CYREG_SC2_SW8 );
 118              		.loc 1 1605 0
 119 0088 DFF848C1 		ldr	ip, .L5+112
 120 008c 9CF80020 		ldrb	r2, [ip]	@ zero_extendqisi2
 121 0090 1A77     		strb	r2, [r3, #28]
1606:.\Generated_Source\PSoC5/cyPm.c ****     cyPmBackup.scctData[20u]  = CY_GET_REG8(CYREG_SC2_SW10);
 122              		.loc 1 1606 0
 123 0092 DFF844E1 		ldr	lr, .L5+116
 124 0096 9EF80020 		ldrb	r2, [lr]	@ zero_extendqisi2
 125 009a 5A77     		strb	r2, [r3, #29]
1607:.\Generated_Source\PSoC5/cyPm.c **** 
1608:.\Generated_Source\PSoC5/cyPm.c ****     cyPmBackup.scctData[21u]  = CY_GET_REG8(CYREG_SC3_SW0 );
 126              		.loc 1 1608 0
 127 009c 414F     		ldr	r7, .L5+64
 128 009e 3A78     		ldrb	r2, [r7]	@ zero_extendqisi2
 129 00a0 9A77     		strb	r2, [r3, #30]
1609:.\Generated_Source\PSoC5/cyPm.c ****     cyPmBackup.scctData[22u]  = CY_GET_REG8(CYREG_SC3_SW2 );
 130              		.loc 1 1609 0
 131 00a2 414E     		ldr	r6, .L5+68
 132 00a4 3278     		ldrb	r2, [r6]	@ zero_extendqisi2
 133 00a6 DA77     		strb	r2, [r3, #31]
1610:.\Generated_Source\PSoC5/cyPm.c ****     cyPmBackup.scctData[23u]  = CY_GET_REG8(CYREG_SC3_SW3 );
 134              		.loc 1 1610 0
 135 00a8 404D     		ldr	r5, .L5+72
 136 00aa 2A78     		ldrb	r2, [r5]	@ zero_extendqisi2
 137 00ac 83F82020 		strb	r2, [r3, #32]
1611:.\Generated_Source\PSoC5/cyPm.c ****     cyPmBackup.scctData[24u]  = CY_GET_REG8(CYREG_SC3_SW4 );
 138              		.loc 1 1611 0
 139 00b0 3F4C     		ldr	r4, .L5+76
 140 00b2 2278     		ldrb	r2, [r4]	@ zero_extendqisi2
 141 00b4 83F82120 		strb	r2, [r3, #33]
1612:.\Generated_Source\PSoC5/cyPm.c ****     cyPmBackup.scctData[25u]  = CY_GET_REG8(CYREG_SC3_SW6 );
 142              		.loc 1 1612 0
 143 00b8 3E48     		ldr	r0, .L5+80
 144 00ba 0278     		ldrb	r2, [r0]	@ zero_extendqisi2
 145 00bc 83F82220 		strb	r2, [r3, #34]
1613:.\Generated_Source\PSoC5/cyPm.c ****     cyPmBackup.scctData[26u]  = CY_GET_REG8(CYREG_SC3_SW8 );
 146              		.loc 1 1613 0
 147 00c0 3D49     		ldr	r1, .L5+84
 148 00c2 0A78     		ldrb	r2, [r1]	@ zero_extendqisi2
 149 00c4 83F82320 		strb	r2, [r3, #35]
1614:.\Generated_Source\PSoC5/cyPm.c ****     cyPmBackup.scctData[27u]  = CY_GET_REG8(CYREG_SC3_SW10);
 150              		.loc 1 1614 0
 151 00c8 3C4A     		ldr	r2, .L5+88
 152 00ca 1278     		ldrb	r2, [r2]	@ zero_extendqisi2
 153 00cc 83F82420 		strb	r2, [r3, #36]
ARM GAS  C:\Users\Ian\AppData\Local\Temp\ccxtF1i6.s 			page 32


1615:.\Generated_Source\PSoC5/cyPm.c **** 
1616:.\Generated_Source\PSoC5/cyPm.c ****     CY_SET_REG8(CYREG_SC0_SW0 , 0u);
 154              		.loc 1 1616 0
 155 00d0 0023     		movs	r3, #0
 156 00d2 8AF80030 		strb	r3, [r10]
1617:.\Generated_Source\PSoC5/cyPm.c ****     CY_SET_REG8(CYREG_SC0_SW2 , 0u);
 157              		.loc 1 1617 0
 158 00d6 89F80030 		strb	r3, [r9]
1618:.\Generated_Source\PSoC5/cyPm.c ****     CY_SET_REG8(CYREG_SC0_SW3 , 0u);
 159              		.loc 1 1618 0
 160 00da 234A     		ldr	r2, .L5+4
 161 00dc 1370     		strb	r3, [r2]
1619:.\Generated_Source\PSoC5/cyPm.c ****     CY_SET_REG8(CYREG_SC0_SW4 , 0u);
 162              		.loc 1 1619 0
 163 00de 0132     		adds	r2, r2, #1
 164 00e0 1370     		strb	r3, [r2]
1620:.\Generated_Source\PSoC5/cyPm.c ****     CY_SET_REG8(CYREG_SC0_SW6 , 0u);
 165              		.loc 1 1620 0
 166 00e2 0232     		adds	r2, r2, #2
 167 00e4 1370     		strb	r3, [r2]
1621:.\Generated_Source\PSoC5/cyPm.c ****     CY_SET_REG8(CYREG_SC0_SW8 , 0u);
 168              		.loc 1 1621 0
 169 00e6 0232     		adds	r2, r2, #2
 170 00e8 1370     		strb	r3, [r2]
1622:.\Generated_Source\PSoC5/cyPm.c ****     CY_SET_REG8(CYREG_SC0_SW10, 0u);
 171              		.loc 1 1622 0
 172 00ea 0232     		adds	r2, r2, #2
 173 00ec 1370     		strb	r3, [r2]
1623:.\Generated_Source\PSoC5/cyPm.c **** 
1624:.\Generated_Source\PSoC5/cyPm.c ****     CY_SET_REG8(CYREG_SC1_SW0 , 0u);
 174              		.loc 1 1624 0
 175 00ee 0632     		adds	r2, r2, #6
 176 00f0 1370     		strb	r3, [r2]
1625:.\Generated_Source\PSoC5/cyPm.c ****     CY_SET_REG8(CYREG_SC1_SW2 , 0u);
 177              		.loc 1 1625 0
 178 00f2 0232     		adds	r2, r2, #2
 179 00f4 1370     		strb	r3, [r2]
1626:.\Generated_Source\PSoC5/cyPm.c ****     CY_SET_REG8(CYREG_SC1_SW3 , 0u);
 180              		.loc 1 1626 0
 181 00f6 0132     		adds	r2, r2, #1
 182 00f8 1370     		strb	r3, [r2]
1627:.\Generated_Source\PSoC5/cyPm.c ****     CY_SET_REG8(CYREG_SC1_SW4 , 0u);
 183              		.loc 1 1627 0
 184 00fa 0132     		adds	r2, r2, #1
 185 00fc 1370     		strb	r3, [r2]
1628:.\Generated_Source\PSoC5/cyPm.c ****     CY_SET_REG8(CYREG_SC1_SW6 , 0u);
 186              		.loc 1 1628 0
 187 00fe 0232     		adds	r2, r2, #2
 188 0100 1370     		strb	r3, [r2]
1629:.\Generated_Source\PSoC5/cyPm.c ****     CY_SET_REG8(CYREG_SC1_SW8 , 0u);
 189              		.loc 1 1629 0
 190 0102 0232     		adds	r2, r2, #2
 191 0104 1370     		strb	r3, [r2]
1630:.\Generated_Source\PSoC5/cyPm.c ****     CY_SET_REG8(CYREG_SC1_SW10, 0u);
 192              		.loc 1 1630 0
 193 0106 0232     		adds	r2, r2, #2
 194 0108 1370     		strb	r3, [r2]
ARM GAS  C:\Users\Ian\AppData\Local\Temp\ccxtF1i6.s 			page 33


1631:.\Generated_Source\PSoC5/cyPm.c **** 
1632:.\Generated_Source\PSoC5/cyPm.c ****     CY_SET_REG8(CYREG_SC2_SW0 , 0u);
 195              		.loc 1 1632 0
 196 010a 0632     		adds	r2, r2, #6
 197 010c 1370     		strb	r3, [r2]
1633:.\Generated_Source\PSoC5/cyPm.c ****     CY_SET_REG8(CYREG_SC2_SW2 , 0u);
 198              		.loc 1 1633 0
 199 010e 0232     		adds	r2, r2, #2
 200 0110 1370     		strb	r3, [r2]
1634:.\Generated_Source\PSoC5/cyPm.c ****     CY_SET_REG8(CYREG_SC2_SW3 , 0u);
 201              		.loc 1 1634 0
 202 0112 0132     		adds	r2, r2, #1
 203 0114 1370     		strb	r3, [r2]
1635:.\Generated_Source\PSoC5/cyPm.c ****     CY_SET_REG8(CYREG_SC2_SW4 , 0u);
 204              		.loc 1 1635 0
 205 0116 8BF80030 		strb	r3, [fp]
1636:.\Generated_Source\PSoC5/cyPm.c ****     CY_SET_REG8(CYREG_SC2_SW6 , 0u);
 206              		.loc 1 1636 0
 207 011a 88F80030 		strb	r3, [r8]
1637:.\Generated_Source\PSoC5/cyPm.c ****     CY_SET_REG8(CYREG_SC2_SW8 , 0u);
 208              		.loc 1 1637 0
 209 011e 8CF80030 		strb	r3, [ip]
1638:.\Generated_Source\PSoC5/cyPm.c ****     CY_SET_REG8(CYREG_SC2_SW10, 0u);
 210              		.loc 1 1638 0
 211 0122 8EF80030 		strb	r3, [lr]
1639:.\Generated_Source\PSoC5/cyPm.c **** 
1640:.\Generated_Source\PSoC5/cyPm.c ****     CY_SET_REG8(CYREG_SC3_SW0 , 0u);
 212              		.loc 1 1640 0
 213 0126 3B70     		strb	r3, [r7]
1641:.\Generated_Source\PSoC5/cyPm.c ****     CY_SET_REG8(CYREG_SC3_SW2 , 0u);
 214              		.loc 1 1641 0
 215 0128 3370     		strb	r3, [r6]
1642:.\Generated_Source\PSoC5/cyPm.c ****     CY_SET_REG8(CYREG_SC3_SW3 , 0u);
 216              		.loc 1 1642 0
 217 012a 2B70     		strb	r3, [r5]
1643:.\Generated_Source\PSoC5/cyPm.c ****     CY_SET_REG8(CYREG_SC3_SW4 , 0u);
 218              		.loc 1 1643 0
 219 012c 2370     		strb	r3, [r4]
1644:.\Generated_Source\PSoC5/cyPm.c ****     CY_SET_REG8(CYREG_SC3_SW6 , 0u);
 220              		.loc 1 1644 0
 221 012e 0370     		strb	r3, [r0]
1645:.\Generated_Source\PSoC5/cyPm.c ****     CY_SET_REG8(CYREG_SC3_SW8 , 0u);
 222              		.loc 1 1645 0
 223 0130 0B70     		strb	r3, [r1]
1646:.\Generated_Source\PSoC5/cyPm.c ****     CY_SET_REG8(CYREG_SC3_SW10, 0u);
 224              		.loc 1 1646 0
 225 0132 1732     		adds	r2, r2, #23
 226 0134 1370     		strb	r3, [r2]
1647:.\Generated_Source\PSoC5/cyPm.c **** 
1648:.\Generated_Source\PSoC5/cyPm.c **** 
1649:.\Generated_Source\PSoC5/cyPm.c ****     #if(CY_PSOC3)
1650:.\Generated_Source\PSoC5/cyPm.c **** 
1651:.\Generated_Source\PSoC5/cyPm.c ****         /* Serial Wire Viewer (SWV) workaround */
1652:.\Generated_Source\PSoC5/cyPm.c **** 
1653:.\Generated_Source\PSoC5/cyPm.c ****         /* Disable SWV before entering low power mode */
1654:.\Generated_Source\PSoC5/cyPm.c ****         if(0u != (CY_PM_MLOGIC_DBG_REG & CY_PM_MLOGIC_DBG_SWV_CLK_EN))
1655:.\Generated_Source\PSoC5/cyPm.c ****         {
ARM GAS  C:\Users\Ian\AppData\Local\Temp\ccxtF1i6.s 			page 34


1656:.\Generated_Source\PSoC5/cyPm.c ****             /* Save SWV clock enabled state */
1657:.\Generated_Source\PSoC5/cyPm.c ****             cyPmBackup.swvClkEnabled = CY_PM_ENABLED;
1658:.\Generated_Source\PSoC5/cyPm.c **** 
1659:.\Generated_Source\PSoC5/cyPm.c ****             /* Save current ports drive mode settings */
1660:.\Generated_Source\PSoC5/cyPm.c ****             cyPmBackup.prt1Dm = CY_PM_PRT1_PC3_REG & ((uint8)(~CY_PM_PRT1_PC3_DM_MASK));
1661:.\Generated_Source\PSoC5/cyPm.c **** 
1662:.\Generated_Source\PSoC5/cyPm.c ****             /* Set drive mode to strong output */
1663:.\Generated_Source\PSoC5/cyPm.c ****             CY_PM_PRT1_PC3_REG = (CY_PM_PRT1_PC3_REG & CY_PM_PRT1_PC3_DM_MASK) |
1664:.\Generated_Source\PSoC5/cyPm.c ****                                 CY_PM_PRT1_PC3_DM_STRONG;
1665:.\Generated_Source\PSoC5/cyPm.c **** 
1666:.\Generated_Source\PSoC5/cyPm.c ****             /* Disable SWV clocks */
1667:.\Generated_Source\PSoC5/cyPm.c ****             CY_PM_MLOGIC_DBG_REG &= ((uint8)(~CY_PM_MLOGIC_DBG_SWV_CLK_EN));
1668:.\Generated_Source\PSoC5/cyPm.c ****         }
1669:.\Generated_Source\PSoC5/cyPm.c ****         else
1670:.\Generated_Source\PSoC5/cyPm.c ****         {
1671:.\Generated_Source\PSoC5/cyPm.c ****             /* Save SWV clock disabled state */
1672:.\Generated_Source\PSoC5/cyPm.c ****             cyPmBackup.swvClkEnabled = CY_PM_DISABLED;
1673:.\Generated_Source\PSoC5/cyPm.c ****         }
1674:.\Generated_Source\PSoC5/cyPm.c **** 
1675:.\Generated_Source\PSoC5/cyPm.c ****     #endif  /* (CY_PSOC3) */
1676:.\Generated_Source\PSoC5/cyPm.c **** 
1677:.\Generated_Source\PSoC5/cyPm.c **** 
1678:.\Generated_Source\PSoC5/cyPm.c ****     /***************************************************************************
1679:.\Generated_Source\PSoC5/cyPm.c ****     * Save boost reference and set it to boost's internal by clearing the bit.
1680:.\Generated_Source\PSoC5/cyPm.c ****     * External (chip bandgap) reference is not available in Sleep and Hibernate.
1681:.\Generated_Source\PSoC5/cyPm.c ****     ***************************************************************************/
1682:.\Generated_Source\PSoC5/cyPm.c ****     if(0u != (CY_PM_BOOST_CR2_REG & CY_PM_BOOST_CR2_EREFSEL_EXT))
 227              		.loc 1 1682 0
 228 0136 224B     		ldr	r3, .L5+92
 229 0138 1B78     		ldrb	r3, [r3]	@ zero_extendqisi2
 230 013a 13F0080F 		tst	r3, #8
 231 013e 0AD0     		beq	.L2
1683:.\Generated_Source\PSoC5/cyPm.c ****     {
1684:.\Generated_Source\PSoC5/cyPm.c ****         cyPmBackup.boostRefExt = CY_PM_ENABLED;
 232              		.loc 1 1684 0
 233 0140 0122     		movs	r2, #1
 234 0142 084B     		ldr	r3, .L5
 235 0144 83F82E20 		strb	r2, [r3, #46]
1685:.\Generated_Source\PSoC5/cyPm.c ****         CY_PM_BOOST_CR2_REG &= ((uint8)(~CY_PM_BOOST_CR2_EREFSEL_EXT));
 236              		.loc 1 1685 0
 237 0148 1D4A     		ldr	r2, .L5+92
 238 014a 1378     		ldrb	r3, [r2]	@ zero_extendqisi2
 239 014c 03F0F703 		and	r3, r3, #247
 240 0150 1370     		strb	r3, [r2]
 241 0152 BDE8F08F 		pop	{r4, r5, r6, r7, r8, r9, r10, fp, pc}
 242              	.L2:
1686:.\Generated_Source\PSoC5/cyPm.c ****     }
1687:.\Generated_Source\PSoC5/cyPm.c ****     else
1688:.\Generated_Source\PSoC5/cyPm.c ****     {
1689:.\Generated_Source\PSoC5/cyPm.c ****         cyPmBackup.boostRefExt = CY_PM_DISABLED;
 243              		.loc 1 1689 0
 244 0156 0022     		movs	r2, #0
 245 0158 024B     		ldr	r3, .L5
 246 015a 83F82E20 		strb	r2, [r3, #46]
 247 015e BDE8F08F 		pop	{r4, r5, r6, r7, r8, r9, r10, fp, pc}
 248              	.L6:
 249 0162 00BF     		.align	2
ARM GAS  C:\Users\Ian\AppData\Local\Temp\ccxtF1i6.s 			page 35


 250              	.L5:
 251 0164 00000000 		.word	.LANCHOR0
 252 0168 035A0040 		.word	1073764867
 253 016c 045A0040 		.word	1073764868
 254 0170 065A0040 		.word	1073764870
 255 0174 085A0040 		.word	1073764872
 256 0178 0A5A0040 		.word	1073764874
 257 017c 105A0040 		.word	1073764880
 258 0180 125A0040 		.word	1073764882
 259 0184 135A0040 		.word	1073764883
 260 0188 145A0040 		.word	1073764884
 261 018c 165A0040 		.word	1073764886
 262 0190 185A0040 		.word	1073764888
 263 0194 1A5A0040 		.word	1073764890
 264 0198 205A0040 		.word	1073764896
 265 019c 225A0040 		.word	1073764898
 266 01a0 235A0040 		.word	1073764899
 267 01a4 305A0040 		.word	1073764912
 268 01a8 325A0040 		.word	1073764914
 269 01ac 335A0040 		.word	1073764915
 270 01b0 345A0040 		.word	1073764916
 271 01b4 365A0040 		.word	1073764918
 272 01b8 385A0040 		.word	1073764920
 273 01bc 3A5A0040 		.word	1073764922
 274 01c0 22430040 		.word	1073759010
 275 01c4 005A0040 		.word	1073764864
 276 01c8 025A0040 		.word	1073764866
 277 01cc 245A0040 		.word	1073764900
 278 01d0 265A0040 		.word	1073764902
 279 01d4 285A0040 		.word	1073764904
 280 01d8 2A5A0040 		.word	1073764906
 281              		.cfi_endproc
 282              	.LFE11:
 283              		.size	CyPmHibSlpSaveSet, .-CyPmHibSlpSaveSet
 284              		.section	.text.CyPmHibSlpRestore,"ax",%progbits
 285              		.align	2
 286              		.thumb
 287              		.thumb_func
 288              		.type	CyPmHibSlpRestore, %function
 289              	CyPmHibSlpRestore:
 290              	.LFB12:
1690:.\Generated_Source\PSoC5/cyPm.c ****     }
1691:.\Generated_Source\PSoC5/cyPm.c **** }
1692:.\Generated_Source\PSoC5/cyPm.c **** 
1693:.\Generated_Source\PSoC5/cyPm.c **** 
1694:.\Generated_Source\PSoC5/cyPm.c **** /*******************************************************************************
1695:.\Generated_Source\PSoC5/cyPm.c **** * Function Name: CyPmHibSlpRestore
1696:.\Generated_Source\PSoC5/cyPm.c **** ********************************************************************************
1697:.\Generated_Source\PSoC5/cyPm.c **** *
1698:.\Generated_Source\PSoC5/cyPm.c **** * Summary:
1699:.\Generated_Source\PSoC5/cyPm.c **** *  This API is used for restoring the device configurations after wakeup from the Sleep
1700:.\Generated_Source\PSoC5/cyPm.c **** *  and Hibernate low power modes:
1701:.\Generated_Source\PSoC5/cyPm.c **** *  - Restores the SC/CT routing connections
1702:.\Generated_Source\PSoC5/cyPm.c **** *  - Restores the enable state of the Serial Wire Viewer (SWV) (PSoC 3)
1703:.\Generated_Source\PSoC5/cyPm.c **** *  - Restores the  boost reference selection
1704:.\Generated_Source\PSoC5/cyPm.c **** *
1705:.\Generated_Source\PSoC5/cyPm.c **** * Parameters:
ARM GAS  C:\Users\Ian\AppData\Local\Temp\ccxtF1i6.s 			page 36


1706:.\Generated_Source\PSoC5/cyPm.c **** *  None
1707:.\Generated_Source\PSoC5/cyPm.c **** *
1708:.\Generated_Source\PSoC5/cyPm.c **** * Return:
1709:.\Generated_Source\PSoC5/cyPm.c **** *  None
1710:.\Generated_Source\PSoC5/cyPm.c **** *
1711:.\Generated_Source\PSoC5/cyPm.c **** *******************************************************************************/
1712:.\Generated_Source\PSoC5/cyPm.c **** static void CyPmHibSlpRestore(void) 
1713:.\Generated_Source\PSoC5/cyPm.c **** {
 291              		.loc 1 1713 0
 292              		.cfi_startproc
 293              		@ args = 0, pretend = 0, frame = 0
 294              		@ frame_needed = 0, uses_anonymous_args = 0
 295              		@ link register save eliminated.
1714:.\Generated_Source\PSoC5/cyPm.c ****     /* Restore SC/CT routing registers */
1715:.\Generated_Source\PSoC5/cyPm.c ****     CY_SET_REG8(CYREG_SC0_SW0 , cyPmBackup.scctData[0u] );
 296              		.loc 1 1715 0
 297 0000 324B     		ldr	r3, .L9
 298 0002 597A     		ldrb	r1, [r3, #9]	@ zero_extendqisi2
 299 0004 324A     		ldr	r2, .L9+4
 300 0006 1170     		strb	r1, [r2]
1716:.\Generated_Source\PSoC5/cyPm.c ****     CY_SET_REG8(CYREG_SC0_SW2 , cyPmBackup.scctData[1u] );
 301              		.loc 1 1716 0
 302 0008 997A     		ldrb	r1, [r3, #10]	@ zero_extendqisi2
 303 000a 0232     		adds	r2, r2, #2
 304 000c 1170     		strb	r1, [r2]
1717:.\Generated_Source\PSoC5/cyPm.c ****     CY_SET_REG8(CYREG_SC0_SW3 , cyPmBackup.scctData[2u] );
 305              		.loc 1 1717 0
 306 000e D97A     		ldrb	r1, [r3, #11]	@ zero_extendqisi2
 307 0010 0132     		adds	r2, r2, #1
 308 0012 1170     		strb	r1, [r2]
1718:.\Generated_Source\PSoC5/cyPm.c ****     CY_SET_REG8(CYREG_SC0_SW4 , cyPmBackup.scctData[3u] );
 309              		.loc 1 1718 0
 310 0014 197B     		ldrb	r1, [r3, #12]	@ zero_extendqisi2
 311 0016 0132     		adds	r2, r2, #1
 312 0018 1170     		strb	r1, [r2]
1719:.\Generated_Source\PSoC5/cyPm.c ****     CY_SET_REG8(CYREG_SC0_SW6 , cyPmBackup.scctData[4u] );
 313              		.loc 1 1719 0
 314 001a 597B     		ldrb	r1, [r3, #13]	@ zero_extendqisi2
 315 001c 0232     		adds	r2, r2, #2
 316 001e 1170     		strb	r1, [r2]
1720:.\Generated_Source\PSoC5/cyPm.c ****     CY_SET_REG8(CYREG_SC0_SW8 , cyPmBackup.scctData[5u] );
 317              		.loc 1 1720 0
 318 0020 997B     		ldrb	r1, [r3, #14]	@ zero_extendqisi2
 319 0022 0232     		adds	r2, r2, #2
 320 0024 1170     		strb	r1, [r2]
1721:.\Generated_Source\PSoC5/cyPm.c ****     CY_SET_REG8(CYREG_SC0_SW10, cyPmBackup.scctData[6u] );
 321              		.loc 1 1721 0
 322 0026 D97B     		ldrb	r1, [r3, #15]	@ zero_extendqisi2
 323 0028 0232     		adds	r2, r2, #2
 324 002a 1170     		strb	r1, [r2]
1722:.\Generated_Source\PSoC5/cyPm.c **** 
1723:.\Generated_Source\PSoC5/cyPm.c ****     CY_SET_REG8(CYREG_SC1_SW0 , cyPmBackup.scctData[7u] );
 325              		.loc 1 1723 0
 326 002c 197C     		ldrb	r1, [r3, #16]	@ zero_extendqisi2
 327 002e 0632     		adds	r2, r2, #6
 328 0030 1170     		strb	r1, [r2]
1724:.\Generated_Source\PSoC5/cyPm.c ****     CY_SET_REG8(CYREG_SC1_SW2 , cyPmBackup.scctData[8u] );
ARM GAS  C:\Users\Ian\AppData\Local\Temp\ccxtF1i6.s 			page 37


 329              		.loc 1 1724 0
 330 0032 597C     		ldrb	r1, [r3, #17]	@ zero_extendqisi2
 331 0034 0232     		adds	r2, r2, #2
 332 0036 1170     		strb	r1, [r2]
1725:.\Generated_Source\PSoC5/cyPm.c ****     CY_SET_REG8(CYREG_SC1_SW3 , cyPmBackup.scctData[9u] );
 333              		.loc 1 1725 0
 334 0038 997C     		ldrb	r1, [r3, #18]	@ zero_extendqisi2
 335 003a 0132     		adds	r2, r2, #1
 336 003c 1170     		strb	r1, [r2]
1726:.\Generated_Source\PSoC5/cyPm.c ****     CY_SET_REG8(CYREG_SC1_SW4 , cyPmBackup.scctData[10u]);
 337              		.loc 1 1726 0
 338 003e D97C     		ldrb	r1, [r3, #19]	@ zero_extendqisi2
 339 0040 0132     		adds	r2, r2, #1
 340 0042 1170     		strb	r1, [r2]
1727:.\Generated_Source\PSoC5/cyPm.c ****     CY_SET_REG8(CYREG_SC1_SW6 , cyPmBackup.scctData[11u]);
 341              		.loc 1 1727 0
 342 0044 197D     		ldrb	r1, [r3, #20]	@ zero_extendqisi2
 343 0046 0232     		adds	r2, r2, #2
 344 0048 1170     		strb	r1, [r2]
1728:.\Generated_Source\PSoC5/cyPm.c ****     CY_SET_REG8(CYREG_SC1_SW8 , cyPmBackup.scctData[12u]);
 345              		.loc 1 1728 0
 346 004a 597D     		ldrb	r1, [r3, #21]	@ zero_extendqisi2
 347 004c 0232     		adds	r2, r2, #2
 348 004e 1170     		strb	r1, [r2]
1729:.\Generated_Source\PSoC5/cyPm.c ****     CY_SET_REG8(CYREG_SC1_SW10, cyPmBackup.scctData[13u]);
 349              		.loc 1 1729 0
 350 0050 997D     		ldrb	r1, [r3, #22]	@ zero_extendqisi2
 351 0052 0232     		adds	r2, r2, #2
 352 0054 1170     		strb	r1, [r2]
1730:.\Generated_Source\PSoC5/cyPm.c **** 
1731:.\Generated_Source\PSoC5/cyPm.c ****     CY_SET_REG8(CYREG_SC2_SW0 , cyPmBackup.scctData[14u]);
 353              		.loc 1 1731 0
 354 0056 D97D     		ldrb	r1, [r3, #23]	@ zero_extendqisi2
 355 0058 0632     		adds	r2, r2, #6
 356 005a 1170     		strb	r1, [r2]
1732:.\Generated_Source\PSoC5/cyPm.c ****     CY_SET_REG8(CYREG_SC2_SW2 , cyPmBackup.scctData[15u]);
 357              		.loc 1 1732 0
 358 005c 197E     		ldrb	r1, [r3, #24]	@ zero_extendqisi2
 359 005e 0232     		adds	r2, r2, #2
 360 0060 1170     		strb	r1, [r2]
1733:.\Generated_Source\PSoC5/cyPm.c ****     CY_SET_REG8(CYREG_SC2_SW3 , cyPmBackup.scctData[16u]);
 361              		.loc 1 1733 0
 362 0062 597E     		ldrb	r1, [r3, #25]	@ zero_extendqisi2
 363 0064 0132     		adds	r2, r2, #1
 364 0066 1170     		strb	r1, [r2]
1734:.\Generated_Source\PSoC5/cyPm.c ****     CY_SET_REG8(CYREG_SC2_SW4 , cyPmBackup.scctData[17u]);
 365              		.loc 1 1734 0
 366 0068 997E     		ldrb	r1, [r3, #26]	@ zero_extendqisi2
 367 006a 0132     		adds	r2, r2, #1
 368 006c 1170     		strb	r1, [r2]
1735:.\Generated_Source\PSoC5/cyPm.c ****     CY_SET_REG8(CYREG_SC2_SW6 , cyPmBackup.scctData[18u]);
 369              		.loc 1 1735 0
 370 006e D97E     		ldrb	r1, [r3, #27]	@ zero_extendqisi2
 371 0070 0232     		adds	r2, r2, #2
 372 0072 1170     		strb	r1, [r2]
1736:.\Generated_Source\PSoC5/cyPm.c ****     CY_SET_REG8(CYREG_SC2_SW8 , cyPmBackup.scctData[19u]);
 373              		.loc 1 1736 0
ARM GAS  C:\Users\Ian\AppData\Local\Temp\ccxtF1i6.s 			page 38


 374 0074 197F     		ldrb	r1, [r3, #28]	@ zero_extendqisi2
 375 0076 0232     		adds	r2, r2, #2
 376 0078 1170     		strb	r1, [r2]
1737:.\Generated_Source\PSoC5/cyPm.c ****     CY_SET_REG8(CYREG_SC2_SW10, cyPmBackup.scctData[20u]);
 377              		.loc 1 1737 0
 378 007a 597F     		ldrb	r1, [r3, #29]	@ zero_extendqisi2
 379 007c 0232     		adds	r2, r2, #2
 380 007e 1170     		strb	r1, [r2]
1738:.\Generated_Source\PSoC5/cyPm.c **** 
1739:.\Generated_Source\PSoC5/cyPm.c ****     CY_SET_REG8(CYREG_SC3_SW0 , cyPmBackup.scctData[21u]);
 381              		.loc 1 1739 0
 382 0080 997F     		ldrb	r1, [r3, #30]	@ zero_extendqisi2
 383 0082 0632     		adds	r2, r2, #6
 384 0084 1170     		strb	r1, [r2]
1740:.\Generated_Source\PSoC5/cyPm.c ****     CY_SET_REG8(CYREG_SC3_SW2 , cyPmBackup.scctData[22u]);
 385              		.loc 1 1740 0
 386 0086 D97F     		ldrb	r1, [r3, #31]	@ zero_extendqisi2
 387 0088 0232     		adds	r2, r2, #2
 388 008a 1170     		strb	r1, [r2]
1741:.\Generated_Source\PSoC5/cyPm.c ****     CY_SET_REG8(CYREG_SC3_SW3 , cyPmBackup.scctData[23u]);
 389              		.loc 1 1741 0
 390 008c 93F82010 		ldrb	r1, [r3, #32]	@ zero_extendqisi2
 391 0090 0132     		adds	r2, r2, #1
 392 0092 1170     		strb	r1, [r2]
1742:.\Generated_Source\PSoC5/cyPm.c ****     CY_SET_REG8(CYREG_SC3_SW4 , cyPmBackup.scctData[24u]);
 393              		.loc 1 1742 0
 394 0094 93F82110 		ldrb	r1, [r3, #33]	@ zero_extendqisi2
 395 0098 0132     		adds	r2, r2, #1
 396 009a 1170     		strb	r1, [r2]
1743:.\Generated_Source\PSoC5/cyPm.c ****     CY_SET_REG8(CYREG_SC3_SW6 , cyPmBackup.scctData[25u]);
 397              		.loc 1 1743 0
 398 009c 93F82210 		ldrb	r1, [r3, #34]	@ zero_extendqisi2
 399 00a0 0232     		adds	r2, r2, #2
 400 00a2 1170     		strb	r1, [r2]
1744:.\Generated_Source\PSoC5/cyPm.c ****     CY_SET_REG8(CYREG_SC3_SW8 , cyPmBackup.scctData[26u]);
 401              		.loc 1 1744 0
 402 00a4 93F82310 		ldrb	r1, [r3, #35]	@ zero_extendqisi2
 403 00a8 0232     		adds	r2, r2, #2
 404 00aa 1170     		strb	r1, [r2]
1745:.\Generated_Source\PSoC5/cyPm.c ****     CY_SET_REG8(CYREG_SC3_SW10, cyPmBackup.scctData[27u]);
 405              		.loc 1 1745 0
 406 00ac 93F82410 		ldrb	r1, [r3, #36]	@ zero_extendqisi2
 407 00b0 0232     		adds	r2, r2, #2
 408 00b2 1170     		strb	r1, [r2]
1746:.\Generated_Source\PSoC5/cyPm.c **** 
1747:.\Generated_Source\PSoC5/cyPm.c **** 
1748:.\Generated_Source\PSoC5/cyPm.c ****     #if(CY_PSOC3)
1749:.\Generated_Source\PSoC5/cyPm.c **** 
1750:.\Generated_Source\PSoC5/cyPm.c ****         /* Serial Wire Viewer (SWV) workaround */
1751:.\Generated_Source\PSoC5/cyPm.c ****         if(CY_PM_ENABLED == cyPmBackup.swvClkEnabled)
1752:.\Generated_Source\PSoC5/cyPm.c ****         {
1753:.\Generated_Source\PSoC5/cyPm.c ****             /* Restore ports drive mode */
1754:.\Generated_Source\PSoC5/cyPm.c ****             CY_PM_PRT1_PC3_REG = (CY_PM_PRT1_PC3_REG & CY_PM_PRT1_PC3_DM_MASK) |
1755:.\Generated_Source\PSoC5/cyPm.c ****                                     cyPmBackup.prt1Dm;
1756:.\Generated_Source\PSoC5/cyPm.c **** 
1757:.\Generated_Source\PSoC5/cyPm.c ****             /* Enable SWV clocks */
1758:.\Generated_Source\PSoC5/cyPm.c ****             CY_PM_MLOGIC_DBG_REG |= CY_PM_MLOGIC_DBG_SWV_CLK_EN;
ARM GAS  C:\Users\Ian\AppData\Local\Temp\ccxtF1i6.s 			page 39


1759:.\Generated_Source\PSoC5/cyPm.c ****         }
1760:.\Generated_Source\PSoC5/cyPm.c **** 
1761:.\Generated_Source\PSoC5/cyPm.c ****     #endif /* (CY_PSOC3) */
1762:.\Generated_Source\PSoC5/cyPm.c **** 
1763:.\Generated_Source\PSoC5/cyPm.c **** 
1764:.\Generated_Source\PSoC5/cyPm.c ****     /* Restore boost reference */
1765:.\Generated_Source\PSoC5/cyPm.c ****     if(CY_PM_ENABLED == cyPmBackup.boostRefExt)
 409              		.loc 1 1765 0
 410 00b4 93F82E30 		ldrb	r3, [r3, #46]	@ zero_extendqisi2
 411 00b8 012B     		cmp	r3, #1
 412 00ba 06D1     		bne	.L7
1766:.\Generated_Source\PSoC5/cyPm.c ****     {
1767:.\Generated_Source\PSoC5/cyPm.c ****         CY_PM_BOOST_CR2_REG |= CY_PM_BOOST_CR2_EREFSEL_EXT;
 413              		.loc 1 1767 0
 414 00bc A2F5B852 		sub	r2, r2, #5888
 415 00c0 183A     		subs	r2, r2, #24
 416 00c2 1378     		ldrb	r3, [r2]	@ zero_extendqisi2
 417 00c4 43F00803 		orr	r3, r3, #8
 418 00c8 1370     		strb	r3, [r2]
 419              	.L7:
 420 00ca 7047     		bx	lr
 421              	.L10:
 422              		.align	2
 423              	.L9:
 424 00cc 00000000 		.word	.LANCHOR0
 425 00d0 005A0040 		.word	1073764864
 426              		.cfi_endproc
 427              	.LFE12:
 428              		.size	CyPmHibSlpRestore, .-CyPmHibSlpRestore
 429              		.section	.text.CyPmHviLviSaveDisable,"ax",%progbits
 430              		.align	2
 431              		.thumb
 432              		.thumb_func
 433              		.type	CyPmHviLviSaveDisable, %function
 434              	CyPmHviLviSaveDisable:
 435              	.LFB13:
1768:.\Generated_Source\PSoC5/cyPm.c ****     }
1769:.\Generated_Source\PSoC5/cyPm.c **** }
1770:.\Generated_Source\PSoC5/cyPm.c **** 
1771:.\Generated_Source\PSoC5/cyPm.c **** 
1772:.\Generated_Source\PSoC5/cyPm.c **** /*******************************************************************************
1773:.\Generated_Source\PSoC5/cyPm.c **** * Function Name: CyPmHviLviSaveDisable
1774:.\Generated_Source\PSoC5/cyPm.c **** ********************************************************************************
1775:.\Generated_Source\PSoC5/cyPm.c **** *
1776:.\Generated_Source\PSoC5/cyPm.c **** * Summary:
1777:.\Generated_Source\PSoC5/cyPm.c **** *  Saves analog and digital LVI and HVI configuration and disables them.
1778:.\Generated_Source\PSoC5/cyPm.c **** *
1779:.\Generated_Source\PSoC5/cyPm.c **** * Parameters:
1780:.\Generated_Source\PSoC5/cyPm.c **** *  None
1781:.\Generated_Source\PSoC5/cyPm.c **** *
1782:.\Generated_Source\PSoC5/cyPm.c **** * Return:
1783:.\Generated_Source\PSoC5/cyPm.c **** *  None
1784:.\Generated_Source\PSoC5/cyPm.c **** *
1785:.\Generated_Source\PSoC5/cyPm.c **** * Reentrant:
1786:.\Generated_Source\PSoC5/cyPm.c **** *  No
1787:.\Generated_Source\PSoC5/cyPm.c **** *
1788:.\Generated_Source\PSoC5/cyPm.c **** *******************************************************************************/
ARM GAS  C:\Users\Ian\AppData\Local\Temp\ccxtF1i6.s 			page 40


1789:.\Generated_Source\PSoC5/cyPm.c **** static void CyPmHviLviSaveDisable(void) 
1790:.\Generated_Source\PSoC5/cyPm.c **** {
 436              		.loc 1 1790 0
 437              		.cfi_startproc
 438              		@ args = 0, pretend = 0, frame = 0
 439              		@ frame_needed = 0, uses_anonymous_args = 0
 440 0000 08B5     		push	{r3, lr}
 441              		.cfi_def_cfa_offset 8
 442              		.cfi_offset 3, -8
 443              		.cfi_offset 14, -4
1791:.\Generated_Source\PSoC5/cyPm.c ****     if(0u != (CY_VD_LVI_HVI_CONTROL_REG & CY_VD_LVID_EN))
 444              		.loc 1 1791 0
 445 0002 234B     		ldr	r3, .L19
 446 0004 1B78     		ldrb	r3, [r3]	@ zero_extendqisi2
 447 0006 13F0010F 		tst	r3, #1
 448 000a 12D0     		beq	.L12
1792:.\Generated_Source\PSoC5/cyPm.c ****     {
1793:.\Generated_Source\PSoC5/cyPm.c ****         cyPmBackup.lvidEn = CY_PM_ENABLED;
 449              		.loc 1 1793 0
 450 000c 214B     		ldr	r3, .L19+4
 451 000e 0122     		movs	r2, #1
 452 0010 83F82520 		strb	r2, [r3, #37]
1794:.\Generated_Source\PSoC5/cyPm.c ****         cyPmBackup.lvidTrip = CY_VD_LVI_TRIP_REG & CY_VD_LVI_TRIP_LVID_MASK;
 453              		.loc 1 1794 0
 454 0014 204A     		ldr	r2, .L19+8
 455 0016 1278     		ldrb	r2, [r2]	@ zero_extendqisi2
 456 0018 02F00F02 		and	r2, r2, #15
 457 001c 83F82620 		strb	r2, [r3, #38]
1795:.\Generated_Source\PSoC5/cyPm.c **** 
1796:.\Generated_Source\PSoC5/cyPm.c ****         /* Save state of reset device at specified Vddd threshold */
1797:.\Generated_Source\PSoC5/cyPm.c ****         cyPmBackup.lvidRst = (0u == (CY_VD_PRES_CONTROL_REG & CY_VD_PRESD_EN)) ? \
 458              		.loc 1 1797 0
 459 0020 1E4A     		ldr	r2, .L19+12
 460 0022 1278     		ldrb	r2, [r2]	@ zero_extendqisi2
1798:.\Generated_Source\PSoC5/cyPm.c ****                              CY_PM_DISABLED : CY_PM_ENABLED;
 461              		.loc 1 1798 0
 462 0024 C2F38012 		ubfx	r2, r2, #6, #1
1797:.\Generated_Source\PSoC5/cyPm.c ****                              CY_PM_DISABLED : CY_PM_ENABLED;
 463              		.loc 1 1797 0
 464 0028 83F82A20 		strb	r2, [r3, #42]
1799:.\Generated_Source\PSoC5/cyPm.c **** 
1800:.\Generated_Source\PSoC5/cyPm.c ****         CyVdLvDigitDisable();
 465              		.loc 1 1800 0
 466 002c FFF7FEFF 		bl	CyVdLvDigitDisable
 467              	.LVL0:
 468 0030 03E0     		b	.L13
 469              	.L12:
1801:.\Generated_Source\PSoC5/cyPm.c ****     }
1802:.\Generated_Source\PSoC5/cyPm.c ****     else
1803:.\Generated_Source\PSoC5/cyPm.c ****     {
1804:.\Generated_Source\PSoC5/cyPm.c ****         cyPmBackup.lvidEn = CY_PM_DISABLED;
 470              		.loc 1 1804 0
 471 0032 0022     		movs	r2, #0
 472 0034 174B     		ldr	r3, .L19+4
 473 0036 83F82520 		strb	r2, [r3, #37]
 474              	.L13:
1805:.\Generated_Source\PSoC5/cyPm.c ****     }
ARM GAS  C:\Users\Ian\AppData\Local\Temp\ccxtF1i6.s 			page 41


1806:.\Generated_Source\PSoC5/cyPm.c **** 
1807:.\Generated_Source\PSoC5/cyPm.c ****     if(0u != (CY_VD_LVI_HVI_CONTROL_REG & CY_VD_LVIA_EN))
 475              		.loc 1 1807 0
 476 003a 154B     		ldr	r3, .L19
 477 003c 1B78     		ldrb	r3, [r3]	@ zero_extendqisi2
 478 003e 13F0020F 		tst	r3, #2
 479 0042 10D0     		beq	.L14
1808:.\Generated_Source\PSoC5/cyPm.c ****     {
1809:.\Generated_Source\PSoC5/cyPm.c ****         cyPmBackup.lviaEn = CY_PM_ENABLED;
 480              		.loc 1 1809 0
 481 0044 134B     		ldr	r3, .L19+4
 482 0046 0122     		movs	r2, #1
 483 0048 83F82720 		strb	r2, [r3, #39]
1810:.\Generated_Source\PSoC5/cyPm.c ****         cyPmBackup.lviaTrip = CY_VD_LVI_TRIP_REG >> 4u;
 484              		.loc 1 1810 0
 485 004c 124A     		ldr	r2, .L19+8
 486 004e 1278     		ldrb	r2, [r2]	@ zero_extendqisi2
 487 0050 1209     		lsrs	r2, r2, #4
 488 0052 83F82820 		strb	r2, [r3, #40]
1811:.\Generated_Source\PSoC5/cyPm.c **** 
1812:.\Generated_Source\PSoC5/cyPm.c ****         /* Save state of reset device at specified Vdda threshold */
1813:.\Generated_Source\PSoC5/cyPm.c ****         cyPmBackup.lviaRst = (0u == (CY_VD_PRES_CONTROL_REG & CY_VD_PRESA_EN)) ? \
 489              		.loc 1 1813 0
 490 0056 114A     		ldr	r2, .L19+12
 491 0058 1278     		ldrb	r2, [r2]	@ zero_extendqisi2
1814:.\Generated_Source\PSoC5/cyPm.c ****                              CY_PM_DISABLED : CY_PM_ENABLED;
 492              		.loc 1 1814 0
 493 005a D209     		lsrs	r2, r2, #7
1813:.\Generated_Source\PSoC5/cyPm.c ****                              CY_PM_DISABLED : CY_PM_ENABLED;
 494              		.loc 1 1813 0
 495 005c 83F82B20 		strb	r2, [r3, #43]
1815:.\Generated_Source\PSoC5/cyPm.c **** 
1816:.\Generated_Source\PSoC5/cyPm.c ****         CyVdLvAnalogDisable();
 496              		.loc 1 1816 0
 497 0060 FFF7FEFF 		bl	CyVdLvAnalogDisable
 498              	.LVL1:
 499 0064 03E0     		b	.L15
 500              	.L14:
1817:.\Generated_Source\PSoC5/cyPm.c ****     }
1818:.\Generated_Source\PSoC5/cyPm.c ****     else
1819:.\Generated_Source\PSoC5/cyPm.c ****     {
1820:.\Generated_Source\PSoC5/cyPm.c ****         cyPmBackup.lviaEn = CY_PM_DISABLED;
 501              		.loc 1 1820 0
 502 0066 0022     		movs	r2, #0
 503 0068 0A4B     		ldr	r3, .L19+4
 504 006a 83F82720 		strb	r2, [r3, #39]
 505              	.L15:
1821:.\Generated_Source\PSoC5/cyPm.c ****     }
1822:.\Generated_Source\PSoC5/cyPm.c **** 
1823:.\Generated_Source\PSoC5/cyPm.c ****     if(0u != (CY_VD_LVI_HVI_CONTROL_REG & CY_VD_HVIA_EN))
 506              		.loc 1 1823 0
 507 006e 084B     		ldr	r3, .L19
 508 0070 1B78     		ldrb	r3, [r3]	@ zero_extendqisi2
 509 0072 13F0040F 		tst	r3, #4
 510 0076 06D0     		beq	.L16
1824:.\Generated_Source\PSoC5/cyPm.c ****     {
1825:.\Generated_Source\PSoC5/cyPm.c ****         cyPmBackup.hviaEn = CY_PM_ENABLED;
ARM GAS  C:\Users\Ian\AppData\Local\Temp\ccxtF1i6.s 			page 42


 511              		.loc 1 1825 0
 512 0078 0122     		movs	r2, #1
 513 007a 064B     		ldr	r3, .L19+4
 514 007c 83F82920 		strb	r2, [r3, #41]
1826:.\Generated_Source\PSoC5/cyPm.c ****         CyVdHvAnalogDisable();
 515              		.loc 1 1826 0
 516 0080 FFF7FEFF 		bl	CyVdHvAnalogDisable
 517              	.LVL2:
 518 0084 08BD     		pop	{r3, pc}
 519              	.L16:
1827:.\Generated_Source\PSoC5/cyPm.c ****     }
1828:.\Generated_Source\PSoC5/cyPm.c ****     else
1829:.\Generated_Source\PSoC5/cyPm.c ****     {
1830:.\Generated_Source\PSoC5/cyPm.c ****         cyPmBackup.hviaEn = CY_PM_DISABLED;
 520              		.loc 1 1830 0
 521 0086 0022     		movs	r2, #0
 522 0088 024B     		ldr	r3, .L19+4
 523 008a 83F82920 		strb	r2, [r3, #41]
 524 008e 08BD     		pop	{r3, pc}
 525              	.L20:
 526              		.align	2
 527              	.L19:
 528 0090 F5460040 		.word	1073759989
 529 0094 00000000 		.word	.LANCHOR0
 530 0098 F4460040 		.word	1073759988
 531 009c F7460040 		.word	1073759991
 532              		.cfi_endproc
 533              	.LFE13:
 534              		.size	CyPmHviLviSaveDisable, .-CyPmHviLviSaveDisable
 535              		.section	.text.CyPmHibSaveSet,"ax",%progbits
 536              		.align	2
 537              		.thumb
 538              		.thumb_func
 539              		.type	CyPmHibSaveSet, %function
 540              	CyPmHibSaveSet:
 541              	.LFB6:
1285:.\Generated_Source\PSoC5/cyPm.c ****     /* I2C backup reg must be off when the sleep regulator is unavailable */
 542              		.loc 1 1285 0
 543              		.cfi_startproc
 544              		@ args = 0, pretend = 0, frame = 0
 545              		@ frame_needed = 0, uses_anonymous_args = 0
 546 0000 08B5     		push	{r3, lr}
 547              		.cfi_def_cfa_offset 8
 548              		.cfi_offset 3, -8
 549              		.cfi_offset 14, -4
1287:.\Generated_Source\PSoC5/cyPm.c ****     {
 550              		.loc 1 1287 0
 551 0002 1C4B     		ldr	r3, .L26
 552 0004 1B78     		ldrb	r3, [r3]	@ zero_extendqisi2
 553 0006 13F0040F 		tst	r3, #4
 554 000a 04D0     		beq	.L22
1301:.\Generated_Source\PSoC5/cyPm.c ****     }
 555              		.loc 1 1301 0
 556 000c 194A     		ldr	r2, .L26
 557 000e 1378     		ldrb	r3, [r2]	@ zero_extendqisi2
 558 0010 03F0FB03 		and	r3, r3, #251
 559 0014 1370     		strb	r3, [r2]
ARM GAS  C:\Users\Ian\AppData\Local\Temp\ccxtF1i6.s 			page 43


 560              	.L22:
1306:.\Generated_Source\PSoC5/cyPm.c **** 
 561              		.loc 1 1306 0
 562 0016 0120     		movs	r0, #1
 563 0018 FFF7FEFF 		bl	CyILO_SetPowerMode
 564              	.LVL3:
 565 001c 164B     		ldr	r3, .L26+4
 566 001e 1870     		strb	r0, [r3]
1309:.\Generated_Source\PSoC5/cyPm.c ****                                 CY_PM_DISABLED : CY_PM_ENABLED;
 567              		.loc 1 1309 0
 568 0020 1649     		ldr	r1, .L26+8
 569 0022 0A78     		ldrb	r2, [r1]	@ zero_extendqisi2
1310:.\Generated_Source\PSoC5/cyPm.c **** 
 570              		.loc 1 1310 0
 571 0024 C2F34002 		ubfx	r2, r2, #1, #1
1309:.\Generated_Source\PSoC5/cyPm.c ****                                 CY_PM_DISABLED : CY_PM_ENABLED;
 572              		.loc 1 1309 0
 573 0028 5A70     		strb	r2, [r3, #1]
1313:.\Generated_Source\PSoC5/cyPm.c ****                                 CY_PM_DISABLED : CY_PM_ENABLED;
 574              		.loc 1 1313 0
 575 002a 0A78     		ldrb	r2, [r1]	@ zero_extendqisi2
1314:.\Generated_Source\PSoC5/cyPm.c **** 
 576              		.loc 1 1314 0
 577 002c C2F38002 		ubfx	r2, r2, #2, #1
1313:.\Generated_Source\PSoC5/cyPm.c ****                                 CY_PM_DISABLED : CY_PM_ENABLED;
 578              		.loc 1 1313 0
 579 0030 9A70     		strb	r2, [r3, #2]
1318:.\Generated_Source\PSoC5/cyPm.c ****     {
 580              		.loc 1 1318 0
 581 0032 134B     		ldr	r3, .L26+12
 582 0034 1B78     		ldrb	r3, [r3]	@ zero_extendqisi2
 583 0036 13F0100F 		tst	r3, #16
 584 003a 08D1     		bne	.L23
1321:.\Generated_Source\PSoC5/cyPm.c ****         CY_PM_PWRSYS_SLP_TR_REG |= CY_PM_PWRSYS_SLP_TR_BYPASS;
 585              		.loc 1 1321 0
 586 003c 0022     		movs	r2, #0
 587 003e 0E4B     		ldr	r3, .L26+4
 588 0040 DA70     		strb	r2, [r3, #3]
1322:.\Generated_Source\PSoC5/cyPm.c ****     }
 589              		.loc 1 1322 0
 590 0042 0F4A     		ldr	r2, .L26+12
 591 0044 1378     		ldrb	r3, [r2]	@ zero_extendqisi2
 592 0046 43F01003 		orr	r3, r3, #16
 593 004a 1370     		strb	r3, [r2]
 594 004c 02E0     		b	.L24
 595              	.L23:
1326:.\Generated_Source\PSoC5/cyPm.c ****     }
 596              		.loc 1 1326 0
 597 004e 0122     		movs	r2, #1
 598 0050 094B     		ldr	r3, .L26+4
 599 0052 DA70     		strb	r2, [r3, #3]
 600              	.L24:
1337:.\Generated_Source\PSoC5/cyPm.c **** 
 601              		.loc 1 1337 0
 602 0054 FFF7FEFF 		bl	CyPmHviLviSaveDisable
 603              	.LVL4:
1341:.\Generated_Source\PSoC5/cyPm.c **** 
ARM GAS  C:\Users\Ian\AppData\Local\Temp\ccxtF1i6.s 			page 44


 604              		.loc 1 1341 0
 605 0058 FFF7FEFF 		bl	CyPmHibSlpSaveSet
 606              	.LVL5:
1347:.\Generated_Source\PSoC5/cyPm.c ****     cyPmBackup.wakeupTrim1 = CY_PM_PWRSYS_WAKE_TR1_REG;
 607              		.loc 1 1347 0
 608 005c 094A     		ldr	r2, .L26+16
 609 005e 1378     		ldrb	r3, [r2]	@ zero_extendqisi2
 610 0060 0549     		ldr	r1, .L26+4
 611 0062 CB71     		strb	r3, [r1, #7]
1348:.\Generated_Source\PSoC5/cyPm.c **** 
 612              		.loc 1 1348 0
 613 0064 084B     		ldr	r3, .L26+20
 614 0066 1878     		ldrb	r0, [r3]	@ zero_extendqisi2
 615 0068 0872     		strb	r0, [r1, #8]
1350:.\Generated_Source\PSoC5/cyPm.c ****     CY_PM_PWRSYS_WAKE_TR1_REG = CY_PM_PWRSYS_WAKE_TR1;
 616              		.loc 1 1350 0
 617 006a FF21     		movs	r1, #255
 618 006c 1170     		strb	r1, [r2]
1351:.\Generated_Source\PSoC5/cyPm.c **** }
 619              		.loc 1 1351 0
 620 006e B022     		movs	r2, #176
 621 0070 1A70     		strb	r2, [r3]
 622 0072 08BD     		pop	{r3, pc}
 623              	.L27:
 624              		.align	2
 625              	.L26:
 626 0074 31430040 		.word	1073759025
 627 0078 00000000 		.word	.LANCHOR0
 628 007c 00430040 		.word	1073758976
 629 0080 83460040 		.word	1073759875
 630 0084 85460040 		.word	1073759877
 631 0088 86460040 		.word	1073759878
 632              		.cfi_endproc
 633              	.LFE6:
 634              		.size	CyPmHibSaveSet, .-CyPmHibSaveSet
 635              		.section	.text.CyPmHviLviRestore,"ax",%progbits
 636              		.align	2
 637              		.thumb
 638              		.thumb_func
 639              		.type	CyPmHviLviRestore, %function
 640              	CyPmHviLviRestore:
 641              	.LFB14:
1831:.\Generated_Source\PSoC5/cyPm.c ****     }
1832:.\Generated_Source\PSoC5/cyPm.c **** }
1833:.\Generated_Source\PSoC5/cyPm.c **** 
1834:.\Generated_Source\PSoC5/cyPm.c **** 
1835:.\Generated_Source\PSoC5/cyPm.c **** /*******************************************************************************
1836:.\Generated_Source\PSoC5/cyPm.c **** * Function Name: CyPmHviLviRestore
1837:.\Generated_Source\PSoC5/cyPm.c **** ********************************************************************************
1838:.\Generated_Source\PSoC5/cyPm.c **** *
1839:.\Generated_Source\PSoC5/cyPm.c **** * Summary:
1840:.\Generated_Source\PSoC5/cyPm.c **** *  Restores the analog and digital LVI and HVI configuration.
1841:.\Generated_Source\PSoC5/cyPm.c **** *
1842:.\Generated_Source\PSoC5/cyPm.c **** * Parameters:
1843:.\Generated_Source\PSoC5/cyPm.c **** *  None
1844:.\Generated_Source\PSoC5/cyPm.c **** *
1845:.\Generated_Source\PSoC5/cyPm.c **** * Return:
ARM GAS  C:\Users\Ian\AppData\Local\Temp\ccxtF1i6.s 			page 45


1846:.\Generated_Source\PSoC5/cyPm.c **** *  None
1847:.\Generated_Source\PSoC5/cyPm.c **** *
1848:.\Generated_Source\PSoC5/cyPm.c **** * Reentrant:
1849:.\Generated_Source\PSoC5/cyPm.c **** *  No
1850:.\Generated_Source\PSoC5/cyPm.c **** *
1851:.\Generated_Source\PSoC5/cyPm.c **** *******************************************************************************/
1852:.\Generated_Source\PSoC5/cyPm.c **** static void CyPmHviLviRestore(void) 
1853:.\Generated_Source\PSoC5/cyPm.c **** {
 642              		.loc 1 1853 0
 643              		.cfi_startproc
 644              		@ args = 0, pretend = 0, frame = 0
 645              		@ frame_needed = 0, uses_anonymous_args = 0
 646 0000 08B5     		push	{r3, lr}
 647              		.cfi_def_cfa_offset 8
 648              		.cfi_offset 3, -8
 649              		.cfi_offset 14, -4
1854:.\Generated_Source\PSoC5/cyPm.c ****     /* Restore LVI/HVI configuration */
1855:.\Generated_Source\PSoC5/cyPm.c ****     if(CY_PM_ENABLED == cyPmBackup.lvidEn)
 650              		.loc 1 1855 0
 651 0002 104B     		ldr	r3, .L33
 652 0004 93F82530 		ldrb	r3, [r3, #37]	@ zero_extendqisi2
 653 0008 012B     		cmp	r3, #1
 654 000a 06D1     		bne	.L29
1856:.\Generated_Source\PSoC5/cyPm.c ****     {
1857:.\Generated_Source\PSoC5/cyPm.c ****         CyVdLvDigitEnable(cyPmBackup.lvidRst, cyPmBackup.lvidTrip);
 655              		.loc 1 1857 0
 656 000c 0D4B     		ldr	r3, .L33
 657 000e 93F82A00 		ldrb	r0, [r3, #42]	@ zero_extendqisi2
 658 0012 93F82610 		ldrb	r1, [r3, #38]	@ zero_extendqisi2
 659 0016 FFF7FEFF 		bl	CyVdLvDigitEnable
 660              	.LVL6:
 661              	.L29:
1858:.\Generated_Source\PSoC5/cyPm.c ****     }
1859:.\Generated_Source\PSoC5/cyPm.c **** 
1860:.\Generated_Source\PSoC5/cyPm.c ****     if(CY_PM_ENABLED == cyPmBackup.lviaEn)
 662              		.loc 1 1860 0
 663 001a 0A4B     		ldr	r3, .L33
 664 001c 93F82730 		ldrb	r3, [r3, #39]	@ zero_extendqisi2
 665 0020 012B     		cmp	r3, #1
 666 0022 06D1     		bne	.L30
1861:.\Generated_Source\PSoC5/cyPm.c ****     {
1862:.\Generated_Source\PSoC5/cyPm.c ****         CyVdLvAnalogEnable(cyPmBackup.lviaRst, cyPmBackup.lviaTrip);
 667              		.loc 1 1862 0
 668 0024 074B     		ldr	r3, .L33
 669 0026 93F82B00 		ldrb	r0, [r3, #43]	@ zero_extendqisi2
 670 002a 93F82810 		ldrb	r1, [r3, #40]	@ zero_extendqisi2
 671 002e FFF7FEFF 		bl	CyVdLvAnalogEnable
 672              	.LVL7:
 673              	.L30:
1863:.\Generated_Source\PSoC5/cyPm.c ****     }
1864:.\Generated_Source\PSoC5/cyPm.c **** 
1865:.\Generated_Source\PSoC5/cyPm.c ****     if(CY_PM_ENABLED == cyPmBackup.hviaEn)
 674              		.loc 1 1865 0
 675 0032 044B     		ldr	r3, .L33
 676 0034 93F82930 		ldrb	r3, [r3, #41]	@ zero_extendqisi2
 677 0038 012B     		cmp	r3, #1
 678 003a 01D1     		bne	.L28
ARM GAS  C:\Users\Ian\AppData\Local\Temp\ccxtF1i6.s 			page 46


1866:.\Generated_Source\PSoC5/cyPm.c ****     {
1867:.\Generated_Source\PSoC5/cyPm.c ****         CyVdHvAnalogEnable();
 679              		.loc 1 1867 0
 680 003c FFF7FEFF 		bl	CyVdHvAnalogEnable
 681              	.LVL8:
 682              	.L28:
 683 0040 08BD     		pop	{r3, pc}
 684              	.L34:
 685 0042 00BF     		.align	2
 686              	.L33:
 687 0044 00000000 		.word	.LANCHOR0
 688              		.cfi_endproc
 689              	.LFE14:
 690              		.size	CyPmHviLviRestore, .-CyPmHviLviRestore
 691              		.section	.text.CyPmHibRestore,"ax",%progbits
 692              		.align	2
 693              		.thumb
 694              		.thumb_func
 695              		.type	CyPmHibRestore, %function
 696              	CyPmHibRestore:
 697              	.LFB7:
1375:.\Generated_Source\PSoC5/cyPm.c ****     /* Restore LVI/HVI configuration */
 698              		.loc 1 1375 0
 699              		.cfi_startproc
 700              		@ args = 0, pretend = 0, frame = 0
 701              		@ frame_needed = 0, uses_anonymous_args = 0
 702 0000 10B5     		push	{r4, lr}
 703              		.cfi_def_cfa_offset 8
 704              		.cfi_offset 4, -8
 705              		.cfi_offset 14, -4
1377:.\Generated_Source\PSoC5/cyPm.c **** 
 706              		.loc 1 1377 0
 707 0002 FFF7FEFF 		bl	CyPmHviLviRestore
 708              	.LVL9:
1380:.\Generated_Source\PSoC5/cyPm.c **** 
 709              		.loc 1 1380 0
 710 0006 FFF7FEFF 		bl	CyPmHibSlpRestore
 711              	.LVL10:
1383:.\Generated_Source\PSoC5/cyPm.c ****     {
 712              		.loc 1 1383 0
 713 000a 0F4B     		ldr	r3, .L40
 714 000c 5B78     		ldrb	r3, [r3, #1]	@ zero_extendqisi2
 715 000e 012B     		cmp	r3, #1
 716 0010 01D1     		bne	.L36
1386:.\Generated_Source\PSoC5/cyPm.c ****     }
 717              		.loc 1 1386 0
 718 0012 FFF7FEFF 		bl	CyILO_Start1K
 719              	.LVL11:
 720              	.L36:
1390:.\Generated_Source\PSoC5/cyPm.c ****     {
 721              		.loc 1 1390 0
 722 0016 0C4B     		ldr	r3, .L40
 723 0018 9B78     		ldrb	r3, [r3, #2]	@ zero_extendqisi2
 724 001a 012B     		cmp	r3, #1
 725 001c 01D1     		bne	.L37
1393:.\Generated_Source\PSoC5/cyPm.c ****     }
 726              		.loc 1 1393 0
ARM GAS  C:\Users\Ian\AppData\Local\Temp\ccxtF1i6.s 			page 47


 727 001e FFF7FEFF 		bl	CyILO_Start100K
 728              	.LVL12:
 729              	.L37:
1397:.\Generated_Source\PSoC5/cyPm.c **** 
 730              		.loc 1 1397 0
 731 0022 094C     		ldr	r4, .L40
 732 0024 2078     		ldrb	r0, [r4]	@ zero_extendqisi2
 733 0026 FFF7FEFF 		bl	CyILO_SetPowerMode
 734              	.LVL13:
1400:.\Generated_Source\PSoC5/cyPm.c ****     {
 735              		.loc 1 1400 0
 736 002a E378     		ldrb	r3, [r4, #3]	@ zero_extendqisi2
 737 002c 23B9     		cbnz	r3, .L38
1403:.\Generated_Source\PSoC5/cyPm.c ****     }
 738              		.loc 1 1403 0
 739 002e 074A     		ldr	r2, .L40+4
 740 0030 1378     		ldrb	r3, [r2]	@ zero_extendqisi2
 741 0032 03F0EF03 		and	r3, r3, #239
 742 0036 1370     		strb	r3, [r2]
 743              	.L38:
1410:.\Generated_Source\PSoC5/cyPm.c ****     CY_PM_PWRSYS_WAKE_TR1_REG = cyPmBackup.wakeupTrim1;
 744              		.loc 1 1410 0
 745 0038 034B     		ldr	r3, .L40
 746 003a D979     		ldrb	r1, [r3, #7]	@ zero_extendqisi2
 747 003c 044A     		ldr	r2, .L40+8
 748 003e 1170     		strb	r1, [r2]
1411:.\Generated_Source\PSoC5/cyPm.c **** }
 749              		.loc 1 1411 0
 750 0040 1A7A     		ldrb	r2, [r3, #8]	@ zero_extendqisi2
 751 0042 044B     		ldr	r3, .L40+12
 752 0044 1A70     		strb	r2, [r3]
 753 0046 10BD     		pop	{r4, pc}
 754              	.L41:
 755              		.align	2
 756              	.L40:
 757 0048 00000000 		.word	.LANCHOR0
 758 004c 83460040 		.word	1073759875
 759 0050 85460040 		.word	1073759877
 760 0054 86460040 		.word	1073759878
 761              		.cfi_endproc
 762              	.LFE7:
 763              		.size	CyPmHibRestore, .-CyPmHibRestore
 764              		.section	.text.CyPmSaveClocks,"ax",%progbits
 765              		.align	2
 766              		.global	CyPmSaveClocks
 767              		.thumb
 768              		.thumb_func
 769              		.type	CyPmSaveClocks, %function
 770              	CyPmSaveClocks:
 771              	.LFB0:
  81:.\Generated_Source\PSoC5/cyPm.c ****     /* Digital and analog clocks - save enable state and disable them all */
 772              		.loc 1 81 0
 773              		.cfi_startproc
 774              		@ args = 0, pretend = 0, frame = 0
 775              		@ frame_needed = 0, uses_anonymous_args = 0
 776 0000 10B5     		push	{r4, lr}
 777              		.cfi_def_cfa_offset 8
ARM GAS  C:\Users\Ian\AppData\Local\Temp\ccxtF1i6.s 			page 48


 778              		.cfi_offset 4, -8
 779              		.cfi_offset 14, -4
  83:.\Generated_Source\PSoC5/cyPm.c ****     cyPmClockBackup.enClkD = CY_PM_ACT_CFG2_REG;
 780              		.loc 1 83 0
 781 0002 784A     		ldr	r2, .L69
 782 0004 1378     		ldrb	r3, [r2]	@ zero_extendqisi2
 783 0006 784C     		ldr	r4, .L69+4
 784 0008 03F00F03 		and	r3, r3, #15
 785 000c 84F83030 		strb	r3, [r4, #48]
  84:.\Generated_Source\PSoC5/cyPm.c ****     CY_PM_ACT_CFG1_REG &= ((uint8)(~CY_PM_ACT_EN_CLK_A_MASK));
 786              		.loc 1 84 0
 787 0010 764B     		ldr	r3, .L69+8
 788 0012 1978     		ldrb	r1, [r3]	@ zero_extendqisi2
 789 0014 84F83110 		strb	r1, [r4, #49]
  85:.\Generated_Source\PSoC5/cyPm.c ****     CY_PM_ACT_CFG2_REG &= ((uint8)(~CY_PM_ACT_EN_CLK_D_MASK));
 790              		.loc 1 85 0
 791 0018 1178     		ldrb	r1, [r2]	@ zero_extendqisi2
 792 001a 01F0F001 		and	r1, r1, #240
 793 001e 1170     		strb	r1, [r2]
  86:.\Generated_Source\PSoC5/cyPm.c **** 
 794              		.loc 1 86 0
 795 0020 1A78     		ldrb	r2, [r3]	@ zero_extendqisi2
 796 0022 0022     		movs	r2, #0
 797 0024 1A70     		strb	r2, [r3]
  89:.\Generated_Source\PSoC5/cyPm.c ****     CyFlash_SetWaitCycles(CY_PM_MAX_FLASH_WAIT_CYCLES);
 798              		.loc 1 89 0
 799 0026 03F25E43 		addw	r3, r3, #1118
 800 002a 1B78     		ldrb	r3, [r3]	@ zero_extendqisi2
 801 002c 03F0C003 		and	r3, r3, #192
 802 0030 84F83530 		strb	r3, [r4, #53]
  90:.\Generated_Source\PSoC5/cyPm.c **** 
 803              		.loc 1 90 0
 804 0034 3720     		movs	r0, #55
 805 0036 FFF7FEFF 		bl	CyFlash_SetWaitCycles
 806              	.LVL14:
  93:.\Generated_Source\PSoC5/cyPm.c ****     cyPmClockBackup.imoUsbClk = CY_PM_FASTCLK_IMO_CR_REG & CY_PM_FASTCLK_IMO_CR_USB;
 807              		.loc 1 93 0
 808 003a 6D4B     		ldr	r3, .L69+12
 809 003c 1A78     		ldrb	r2, [r3]	@ zero_extendqisi2
 810 003e 02F00702 		and	r2, r2, #7
 811 0042 84F83320 		strb	r2, [r4, #51]
  94:.\Generated_Source\PSoC5/cyPm.c **** 
 812              		.loc 1 94 0
 813 0046 1A78     		ldrb	r2, [r3]	@ zero_extendqisi2
 814 0048 02F04002 		and	r2, r2, #64
 815 004c 84F83420 		strb	r2, [r4, #52]
  97:.\Generated_Source\PSoC5/cyPm.c ****     {
 816              		.loc 1 97 0
 817 0050 1B78     		ldrb	r3, [r3]	@ zero_extendqisi2
 818 0052 13F0100F 		tst	r3, #16
 819 0056 03D0     		beq	.L43
 100:.\Generated_Source\PSoC5/cyPm.c ****     }
 820              		.loc 1 100 0
 821 0058 0122     		movs	r2, #1
 822 005a 84F83920 		strb	r2, [r4, #57]
 823 005e 03E0     		b	.L44
 824              	.L43:
ARM GAS  C:\Users\Ian\AppData\Local\Temp\ccxtF1i6.s 			page 49


 105:.\Generated_Source\PSoC5/cyPm.c ****     }
 825              		.loc 1 105 0
 826 0060 0022     		movs	r2, #0
 827 0062 614B     		ldr	r3, .L69+4
 828 0064 83F83920 		strb	r2, [r3, #57]
 829              	.L44:
 109:.\Generated_Source\PSoC5/cyPm.c **** 
 830              		.loc 1 109 0
 831 0068 624B     		ldr	r3, .L69+16
 832 006a 1B78     		ldrb	r3, [r3]	@ zero_extendqisi2
 833 006c 03F00303 		and	r3, r3, #3
 834 0070 5D4A     		ldr	r2, .L69+4
 835 0072 82F83230 		strb	r3, [r2, #50]
 112:.\Generated_Source\PSoC5/cyPm.c ****     {
 836              		.loc 1 112 0
 837 0076 012B     		cmp	r3, #1
 838 0078 19D1     		bne	.L45
 114:.\Generated_Source\PSoC5/cyPm.c ****         {
 839              		.loc 1 114 0
 840 007a 4FF04023 		mov	r3, #1073758208
 841 007e 1B78     		ldrb	r3, [r3]	@ zero_extendqisi2
 842 0080 03F00303 		and	r3, r3, #3
 843 0084 012B     		cmp	r3, #1
 844 0086 07D0     		beq	.L47
 845 0088 13B1     		cbz	r3, .L48
 846 008a 022B     		cmp	r3, #2
 847 008c 08D0     		beq	.L49
 848 008e 0BE0     		b	.L67
 849              	.L48:
 117:.\Generated_Source\PSoC5/cyPm.c ****             break;
 850              		.loc 1 117 0
 851 0090 0020     		movs	r0, #0
 852 0092 FFF7FEFF 		bl	CyMasterClk_SetSource
 853              	.LVL15:
 118:.\Generated_Source\PSoC5/cyPm.c **** 
 854              		.loc 1 118 0
 855 0096 0AE0     		b	.L45
 856              	.L47:
 121:.\Generated_Source\PSoC5/cyPm.c ****             break;
 857              		.loc 1 121 0
 858 0098 0220     		movs	r0, #2
 859 009a FFF7FEFF 		bl	CyMasterClk_SetSource
 860              	.LVL16:
 122:.\Generated_Source\PSoC5/cyPm.c **** 
 861              		.loc 1 122 0
 862 009e 06E0     		b	.L45
 863              	.L49:
 125:.\Generated_Source\PSoC5/cyPm.c ****             break;
 864              		.loc 1 125 0
 865 00a0 0320     		movs	r0, #3
 866 00a2 FFF7FEFF 		bl	CyMasterClk_SetSource
 867              	.LVL17:
 126:.\Generated_Source\PSoC5/cyPm.c **** 
 868              		.loc 1 126 0
 869 00a6 02E0     		b	.L45
 870              	.L67:
 129:.\Generated_Source\PSoC5/cyPm.c ****             break;
ARM GAS  C:\Users\Ian\AppData\Local\Temp\ccxtF1i6.s 			page 50


 871              		.loc 1 129 0 discriminator 1
 872 00a8 0020     		movs	r0, #0
 873 00aa FFF7FEFF 		bl	CyHalt
 874              	.LVL18:
 875              	.L45:
 135:.\Generated_Source\PSoC5/cyPm.c ****     {
 876              		.loc 1 135 0
 877 00ae 524B     		ldr	r3, .L69+20
 878 00b0 1B78     		ldrb	r3, [r3]	@ zero_extendqisi2
 879 00b2 13F0010F 		tst	r3, #1
 880 00b6 06D0     		beq	.L50
 138:.\Generated_Source\PSoC5/cyPm.c ****         CyPLL_OUT_Stop();
 881              		.loc 1 138 0
 882 00b8 0122     		movs	r2, #1
 883 00ba 4B4B     		ldr	r3, .L69+4
 884 00bc 83F83E20 		strb	r2, [r3, #62]
 139:.\Generated_Source\PSoC5/cyPm.c ****     }
 885              		.loc 1 139 0
 886 00c0 FFF7FEFF 		bl	CyPLL_OUT_Stop
 887              	.LVL19:
 888 00c4 03E0     		b	.L51
 889              	.L50:
 144:.\Generated_Source\PSoC5/cyPm.c ****     }
 890              		.loc 1 144 0
 891 00c6 0022     		movs	r2, #0
 892 00c8 474B     		ldr	r3, .L69+4
 893 00ca 83F83E20 		strb	r2, [r3, #62]
 894              	.L51:
 148:.\Generated_Source\PSoC5/cyPm.c **** 
 895              		.loc 1 148 0
 896 00ce 0420     		movs	r0, #4
 897 00d0 FFF7FEFF 		bl	CyIMO_SetFreq
 898              	.LVL20:
 151:.\Generated_Source\PSoC5/cyPm.c ****     {
 899              		.loc 1 151 0
 900 00d4 494B     		ldr	r3, .L69+24
 901 00d6 1B78     		ldrb	r3, [r3]	@ zero_extendqisi2
 902 00d8 13F0100F 		tst	r3, #16
 903 00dc 04D0     		beq	.L52
 154:.\Generated_Source\PSoC5/cyPm.c ****     }
 904              		.loc 1 154 0
 905 00de 0122     		movs	r2, #1
 906 00e0 414B     		ldr	r3, .L69+4
 907 00e2 83F83620 		strb	r2, [r3, #54]
 908 00e6 08E0     		b	.L53
 909              	.L52:
 159:.\Generated_Source\PSoC5/cyPm.c **** 
 910              		.loc 1 159 0
 911 00e8 0020     		movs	r0, #0
 912 00ea 3F4B     		ldr	r3, .L69+4
 913 00ec 83F83600 		strb	r0, [r3, #54]
 162:.\Generated_Source\PSoC5/cyPm.c **** 
 914              		.loc 1 162 0
 915 00f0 FFF7FEFF 		bl	CyIMO_Start
 916              	.LVL21:
 165:.\Generated_Source\PSoC5/cyPm.c ****     }
 917              		.loc 1 165 0
ARM GAS  C:\Users\Ian\AppData\Local\Temp\ccxtF1i6.s 			page 51


 918 00f4 0620     		movs	r0, #6
 919 00f6 FFF7FEFF 		bl	CyDelayUs
 920              	.LVL22:
 921              	.L53:
 169:.\Generated_Source\PSoC5/cyPm.c ****     {
 922              		.loc 1 169 0
 923 00fa 3D4B     		ldr	r3, .L69+12
 924 00fc 1B78     		ldrb	r3, [r3]	@ zero_extendqisi2
 925 00fe 13F0200F 		tst	r3, #32
 926 0102 0FD0     		beq	.L54
 173:.\Generated_Source\PSoC5/cyPm.c **** 
 927              		.loc 1 173 0
 928 0104 4FF04023 		mov	r3, #1073758208
 929 0108 1B78     		ldrb	r3, [r3]	@ zero_extendqisi2
 172:.\Generated_Source\PSoC5/cyPm.c ****             (0u == (CY_PM_CLKDIST_CR_REG & CY_PM_CLKDIST_IMO2X_SRC)) ? CY_IMO_SOURCE_DSI : CY_IMO_S
 930              		.loc 1 172 0
 931 010a 13F0400F 		tst	r3, #64
 932 010e 01D1     		bne	.L66
 933 0110 0222     		movs	r2, #2
 934 0112 00E0     		b	.L55
 935              	.L66:
 936 0114 0122     		movs	r2, #1
 937              	.L55:
 172:.\Generated_Source\PSoC5/cyPm.c ****             (0u == (CY_PM_CLKDIST_CR_REG & CY_PM_CLKDIST_IMO2X_SRC)) ? CY_IMO_SOURCE_DSI : CY_IMO_S
 938              		.loc 1 172 0 is_stmt 0 discriminator 4
 939 0116 344B     		ldr	r3, .L69+4
 940 0118 83F83720 		strb	r2, [r3, #55]
 176:.\Generated_Source\PSoC5/cyPm.c ****     }
 941              		.loc 1 176 0 is_stmt 1 discriminator 4
 942 011c 0020     		movs	r0, #0
 943 011e FFF7FEFF 		bl	CyIMO_SetSource
 944              	.LVL23:
 945 0122 03E0     		b	.L56
 946              	.L54:
 181:.\Generated_Source\PSoC5/cyPm.c ****     }
 947              		.loc 1 181 0
 948 0124 0022     		movs	r2, #0
 949 0126 304B     		ldr	r3, .L69+4
 950 0128 83F83720 		strb	r2, [r3, #55]
 951              	.L56:
 185:.\Generated_Source\PSoC5/cyPm.c **** 
 952              		.loc 1 185 0
 953 012c 4FF04023 		mov	r3, #1073758208
 954 0130 1B78     		ldrb	r3, [r3]	@ zero_extendqisi2
 955 0132 03F03003 		and	r3, r3, #48
 956 0136 2C4A     		ldr	r2, .L69+4
 957 0138 82F83830 		strb	r3, [r2, #56]
 188:.\Generated_Source\PSoC5/cyPm.c ****     {
 958              		.loc 1 188 0
 959 013c 2BB1     		cbz	r3, .L57
 191:.\Generated_Source\PSoC5/cyPm.c ****                                 CY_PM_CLKDIST_IMO_OUT_IMO;
 960              		.loc 1 191 0
 961 013e 4FF04022 		mov	r2, #1073758208
 962 0142 1378     		ldrb	r3, [r2]	@ zero_extendqisi2
 963 0144 03F0CF03 		and	r3, r3, #207
 964 0148 1370     		strb	r3, [r2]
 965              	.L57:
ARM GAS  C:\Users\Ian\AppData\Local\Temp\ccxtF1i6.s 			page 52


 196:.\Generated_Source\PSoC5/cyPm.c ****     {
 966              		.loc 1 196 0
 967 014a 294B     		ldr	r3, .L69+12
 968 014c 1B78     		ldrb	r3, [r3]	@ zero_extendqisi2
 969 014e 13F0100F 		tst	r3, #16
 970 0152 01D0     		beq	.L58
 198:.\Generated_Source\PSoC5/cyPm.c ****     }
 971              		.loc 1 198 0
 972 0154 FFF7FEFF 		bl	CyIMO_DisableDoubler
 973              	.LVL24:
 974              	.L58:
 202:.\Generated_Source\PSoC5/cyPm.c ****     if(CY_PM_DIV_BY_ONE != cyPmClockBackup.clkSyncDiv)
 975              		.loc 1 202 0
 976 0158 294B     		ldr	r3, .L69+28
 977 015a 1B78     		ldrb	r3, [r3]	@ zero_extendqisi2
 978 015c DBB2     		uxtb	r3, r3
 979 015e 224A     		ldr	r2, .L69+4
 980 0160 82F83A30 		strb	r3, [r2, #58]
 203:.\Generated_Source\PSoC5/cyPm.c ****     {
 981              		.loc 1 203 0
 982 0164 13B1     		cbz	r3, .L59
 205:.\Generated_Source\PSoC5/cyPm.c ****     }    /* No change if master clock divider is 1 */
 983              		.loc 1 205 0
 984 0166 0020     		movs	r0, #0
 985 0168 FFF7FEFF 		bl	CyMasterClk_SetDivider
 986              	.LVL25:
 987              	.L59:
 209:.\Generated_Source\PSoC5/cyPm.c ****     {
 988              		.loc 1 209 0
 989 016c 1E4B     		ldr	r3, .L69+4
 990 016e 93F83230 		ldrb	r3, [r3, #50]	@ zero_extendqisi2
 991 0172 13B1     		cbz	r3, .L60
 211:.\Generated_Source\PSoC5/cyPm.c ****     }    /* No change if master clock source is IMO */
 992              		.loc 1 211 0
 993 0174 0020     		movs	r0, #0
 994 0176 FFF7FEFF 		bl	CyMasterClk_SetSource
 995              	.LVL26:
 996              	.L60:
 215:.\Generated_Source\PSoC5/cyPm.c ****     cyPmClockBackup.clkBusDiv |= CY_PM_CLK_BUS_LSB_DIV_REG;
 997              		.loc 1 215 0
 998 017a 224B     		ldr	r3, .L69+32
 999 017c 1B78     		ldrb	r3, [r3]	@ zero_extendqisi2
 1000 017e 1B02     		lsls	r3, r3, #8
 1001 0180 194A     		ldr	r2, .L69+4
 1002 0182 9387     		strh	r3, [r2, #60]	@ movhi
 216:.\Generated_Source\PSoC5/cyPm.c ****     if(CY_PM_BUS_CLK_DIV_BY_ONE != cyPmClockBackup.clkBusDiv)
 1003              		.loc 1 216 0
 1004 0184 2049     		ldr	r1, .L69+36
 1005 0186 0978     		ldrb	r1, [r1]	@ zero_extendqisi2
 1006 0188 0B43     		orrs	r3, r3, r1
 1007 018a 9387     		strh	r3, [r2, #60]	@ movhi
 217:.\Generated_Source\PSoC5/cyPm.c ****     {
 1008              		.loc 1 217 0
 1009 018c 13B1     		cbz	r3, .L61
 219:.\Generated_Source\PSoC5/cyPm.c ****     }    /* Do nothing if saved and actual values are equal */
 1010              		.loc 1 219 0
 1011 018e 0020     		movs	r0, #0
ARM GAS  C:\Users\Ian\AppData\Local\Temp\ccxtF1i6.s 			page 53


 1012 0190 FFF7FEFF 		bl	CyBusClk_SetDivider
 1013              	.LVL27:
 1014              	.L61:
 223:.\Generated_Source\PSoC5/cyPm.c **** 
 1015              		.loc 1 223 0
 1016 0194 164B     		ldr	r3, .L69+12
 1017 0196 1B78     		ldrb	r3, [r3]	@ zero_extendqisi2
 1018 0198 03F00703 		and	r3, r3, #7
 1019 019c 1B4A     		ldr	r2, .L69+40
 1020 019e D05C     		ldrb	r0, [r2, r3]	@ zero_extendqisi2
 1021 01a0 FFF7FEFF 		bl	CyFlash_SetWaitCycles
 1022              	.LVL28:
 226:.\Generated_Source\PSoC5/cyPm.c ****     {
 1023              		.loc 1 226 0
 1024 01a4 1A4B     		ldr	r3, .L69+44
 1025 01a6 1B78     		ldrb	r3, [r3]	@ zero_extendqisi2
 1026 01a8 13F0010F 		tst	r3, #1
 1027 01ac 06D0     		beq	.L62
 229:.\Generated_Source\PSoC5/cyPm.c ****         CyXTAL_Stop();
 1028              		.loc 1 229 0
 1029 01ae 0122     		movs	r2, #1
 1030 01b0 0D4B     		ldr	r3, .L69+4
 1031 01b2 83F83F20 		strb	r2, [r3, #63]
 230:.\Generated_Source\PSoC5/cyPm.c ****     }
 1032              		.loc 1 230 0
 1033 01b6 FFF7FEFF 		bl	CyXTAL_Stop
 1034              	.LVL29:
 1035 01ba 03E0     		b	.L63
 1036              	.L62:
 235:.\Generated_Source\PSoC5/cyPm.c ****     }
 1037              		.loc 1 235 0
 1038 01bc 0022     		movs	r2, #0
 1039 01be 0A4B     		ldr	r3, .L69+4
 1040 01c0 83F83F20 		strb	r2, [r3, #63]
 1041              	.L63:
 244:.\Generated_Source\PSoC5/cyPm.c ****     {
 1042              		.loc 1 244 0
 1043 01c4 134B     		ldr	r3, .L69+48
 1044 01c6 1B78     		ldrb	r3, [r3]	@ zero_extendqisi2
 1045 01c8 13F0040F 		tst	r3, #4
 1046 01cc 04D0     		beq	.L64
 246:.\Generated_Source\PSoC5/cyPm.c ****     }
 1047              		.loc 1 246 0
 1048 01ce 0122     		movs	r2, #1
 1049 01d0 054B     		ldr	r3, .L69+4
 1050 01d2 83F84020 		strb	r2, [r3, #64]
 1051 01d6 10BD     		pop	{r4, pc}
 1052              	.L64:
 250:.\Generated_Source\PSoC5/cyPm.c ****     }
 1053              		.loc 1 250 0
 1054 01d8 0022     		movs	r2, #0
 1055 01da 034B     		ldr	r3, .L69+4
 1056 01dc 83F84020 		strb	r2, [r3, #64]
 1057 01e0 10BD     		pop	{r4, pc}
 1058              	.L70:
 1059 01e2 00BF     		.align	2
 1060              	.L69:
ARM GAS  C:\Users\Ian\AppData\Local\Temp\ccxtF1i6.s 			page 54


 1061 01e4 A1430040 		.word	1073759137
 1062 01e8 00000000 		.word	.LANCHOR0
 1063 01ec A2430040 		.word	1073759138
 1064 01f0 00420040 		.word	1073758720
 1065 01f4 05400040 		.word	1073758213
 1066 01f8 20420040 		.word	1073758752
 1067 01fc A0430040 		.word	1073759136
 1068 0200 04400040 		.word	1073758212
 1069 0204 07400040 		.word	1073758215
 1070 0208 06400040 		.word	1073758214
 1071 020c 00000000 		.word	.LANCHOR1
 1072 0210 10420040 		.word	1073758736
 1073 0214 0B400040 		.word	1073758219
 1074              		.cfi_endproc
 1075              	.LFE0:
 1076              		.size	CyPmSaveClocks, .-CyPmSaveClocks
 1077              		.section	.text.CyPmRestoreClocks,"ax",%progbits
 1078              		.align	2
 1079              		.global	CyPmRestoreClocks
 1080              		.thumb
 1081              		.thumb_func
 1082              		.type	CyPmRestoreClocks, %function
 1083              	CyPmRestoreClocks:
 1084              	.LFB1:
 283:.\Generated_Source\PSoC5/cyPm.c ****     cystatus status = CYRET_TIMEOUT;
 1085              		.loc 1 283 0
 1086              		.cfi_startproc
 1087              		@ args = 0, pretend = 0, frame = 8
 1088              		@ frame_needed = 0, uses_anonymous_args = 0
 1089 0000 10B5     		push	{r4, lr}
 1090              		.cfi_def_cfa_offset 8
 1091              		.cfi_offset 4, -8
 1092              		.cfi_offset 14, -4
 1093 0002 82B0     		sub	sp, sp, #8
 1094              		.cfi_def_cfa_offset 16
 1095              	.LVL30:
 290:.\Generated_Source\PSoC5/cyPm.c ****         CY_IMO_FREQ_12MHZ, CY_IMO_FREQ_6MHZ,  CY_IMO_FREQ_24MHZ, CY_IMO_FREQ_3MHZ,
 1096              		.loc 1 290 0
 1097 0004 854B     		ldr	r3, .L93
 1098 0006 53F8080F 		ldr	r0, [r3, #8]!	@ unaligned
 1099 000a 0090     		str	r0, [sp]	@ unaligned
 1100 000c 9A88     		ldrh	r2, [r3, #4]	@ unaligned
 1101 000e 9B79     		ldrb	r3, [r3, #6]	@ zero_extendqisi2
 1102 0010 ADF80420 		strh	r2, [sp, #4]	@ unaligned
 1103 0014 8DF80630 		strb	r3, [sp, #6]
 295:.\Generated_Source\PSoC5/cyPm.c ****     {
 1104              		.loc 1 295 0
 1105 0018 814B     		ldr	r3, .L93+4
 1106 001a 93F84030 		ldrb	r3, [r3, #64]	@ zero_extendqisi2
 1107 001e 012B     		cmp	r3, #1
 1108 0020 10D1     		bne	.L72
 299:.\Generated_Source\PSoC5/cyPm.c **** 
 1109              		.loc 1 299 0
 1110 0022 804B     		ldr	r3, .L93+8
 1111 0024 1B78     		ldrb	r3, [r3]	@ zero_extendqisi2
 1112 0026 03F00703 		and	r3, r3, #7
 1113 002a 7C4A     		ldr	r2, .L93
ARM GAS  C:\Users\Ian\AppData\Local\Temp\ccxtF1i6.s 			page 55


 1114 002c D05C     		ldrb	r0, [r2, r3]	@ zero_extendqisi2
 298:.\Generated_Source\PSoC5/cyPm.c ****                         CY_PM_GET_CPU_FREQ_MHZ);
 1115              		.loc 1 298 0
 1116 002e 00EB8000 		add	r0, r0, r0, lsl #2
 1117 0032 C0EB0010 		rsb	r0, r0, r0, lsl #4
 1118 0036 FFF7FEFF 		bl	CyDelayCycles
 1119              	.LVL31:
 301:.\Generated_Source\PSoC5/cyPm.c ****     }
 1120              		.loc 1 301 0
 1121 003a 7B4A     		ldr	r2, .L93+12
 1122 003c 1378     		ldrb	r3, [r2]	@ zero_extendqisi2
 1123 003e 43F00403 		orr	r3, r3, #4
 1124 0042 1370     		strb	r3, [r2]
 1125              	.L72:
 305:.\Generated_Source\PSoC5/cyPm.c ****     {
 1126              		.loc 1 305 0
 1127 0044 764B     		ldr	r3, .L93+4
 1128 0046 93F83F30 		ldrb	r3, [r3, #63]	@ zero_extendqisi2
 1129 004a 012B     		cmp	r3, #1
 1130 004c 1AD1     		bne	.L73
 315:.\Generated_Source\PSoC5/cyPm.c **** 
 1131              		.loc 1 315 0
 1132 004e 0020     		movs	r0, #0
 1133 0050 FFF7FEFF 		bl	CyXTAL_Start
 1134              	.LVL32:
 318:.\Generated_Source\PSoC5/cyPm.c **** 
 1135              		.loc 1 318 0
 1136 0054 754B     		ldr	r3, .L93+16
 1137 0056 1B78     		ldrb	r3, [r3]	@ zero_extendqisi2
 1138              	.LVL33:
 321:.\Generated_Source\PSoC5/cyPm.c ****         {
 1139              		.loc 1 321 0
 1140 0058 0524     		movs	r4, #5
 1141 005a 11E0     		b	.L74
 1142              	.LVL34:
 1143              	.L75:
 324:.\Generated_Source\PSoC5/cyPm.c **** 
 1144              		.loc 1 324 0
 1145 005c 714B     		ldr	r3, .L93+8
 1146 005e 1B78     		ldrb	r3, [r3]	@ zero_extendqisi2
 1147 0060 03F00703 		and	r3, r3, #7
 1148 0064 6D4A     		ldr	r2, .L93
 1149 0066 D35C     		ldrb	r3, [r2, r3]	@ zero_extendqisi2
 1150 0068 C820     		movs	r0, #200
 1151 006a 00FB03F0 		mul	r0, r0, r3
 1152 006e FFF7FEFF 		bl	CyDelayCycles
 1153              	.LVL35:
 327:.\Generated_Source\PSoC5/cyPm.c ****             {
 1154              		.loc 1 327 0
 1155 0072 6E4B     		ldr	r3, .L93+16
 1156 0074 1B78     		ldrb	r3, [r3]	@ zero_extendqisi2
 1157 0076 13F0800F 		tst	r3, #128
 1158 007a 03D0     		beq	.L73
 321:.\Generated_Source\PSoC5/cyPm.c ****         {
 1159              		.loc 1 321 0 discriminator 2
 1160 007c 013C     		subs	r4, r4, #1
 1161              	.LVL36:
ARM GAS  C:\Users\Ian\AppData\Local\Temp\ccxtF1i6.s 			page 56


 1162 007e A4B2     		uxth	r4, r4
 1163              	.LVL37:
 1164              	.L74:
 321:.\Generated_Source\PSoC5/cyPm.c ****         {
 1165              		.loc 1 321 0 is_stmt 0 discriminator 1
 1166 0080 002C     		cmp	r4, #0
 1167 0082 EBD1     		bne	.L75
 1168              	.LVL38:
 1169              	.L73:
 348:.\Generated_Source\PSoC5/cyPm.c **** 
 1170              		.loc 1 348 0 is_stmt 1
 1171 0084 3720     		movs	r0, #55
 1172 0086 FFF7FEFF 		bl	CyFlash_SetWaitCycles
 1173              	.LVL39:
 351:.\Generated_Source\PSoC5/cyPm.c ****        (CY_PM_MASTER_CLK_SRC_DSI  == cyPmClockBackup.masterClkSrc))
 1174              		.loc 1 351 0
 1175 008a 654B     		ldr	r3, .L93+4
 1176 008c 93F83230 		ldrb	r3, [r3, #50]	@ zero_extendqisi2
 1177 0090 023B     		subs	r3, r3, #2
 1178 0092 DBB2     		uxtb	r3, r3
 1179 0094 012B     		cmp	r3, #1
 1180 0096 0ED8     		bhi	.L76
 355:.\Generated_Source\PSoC5/cyPm.c ****         {
 1181              		.loc 1 355 0
 1182 0098 654B     		ldr	r3, .L93+20
 1183 009a 1B78     		ldrb	r3, [r3]	@ zero_extendqisi2
 1184 009c DBB2     		uxtb	r3, r3
 1185 009e 604A     		ldr	r2, .L93+4
 1186 00a0 92F83A00 		ldrb	r0, [r2, #58]	@ zero_extendqisi2
 1187 00a4 8342     		cmp	r3, r0
 1188 00a6 01D0     		beq	.L77
 358:.\Generated_Source\PSoC5/cyPm.c ****         }
 1189              		.loc 1 358 0
 1190 00a8 FFF7FEFF 		bl	CyMasterClk_SetDivider
 1191              	.LVL40:
 1192              	.L77:
 362:.\Generated_Source\PSoC5/cyPm.c ****     }
 1193              		.loc 1 362 0
 1194 00ac 5C4B     		ldr	r3, .L93+4
 1195 00ae 93F83200 		ldrb	r0, [r3, #50]	@ zero_extendqisi2
 1196 00b2 FFF7FEFF 		bl	CyMasterClk_SetSource
 1197              	.LVL41:
 1198              	.L76:
 366:.\Generated_Source\PSoC5/cyPm.c ****         (CY_IMO_FREQ_24MHZ == cyPmImoFreqMhz2Reg[cyPmClockBackup.imoFreq]))
 1199              		.loc 1 366 0
 1200 00b6 5A4B     		ldr	r3, .L93+4
 1201 00b8 93F83430 		ldrb	r3, [r3, #52]	@ zero_extendqisi2
 1202 00bc 13F0400F 		tst	r3, #64
 1203 00c0 0CD0     		beq	.L78
 367:.\Generated_Source\PSoC5/cyPm.c ****     {
 1204              		.loc 1 367 0 discriminator 1
 1205 00c2 574B     		ldr	r3, .L93+4
 1206 00c4 93F83330 		ldrb	r3, [r3, #51]	@ zero_extendqisi2
 1207 00c8 02AA     		add	r2, sp, #8
 1208 00ca 1344     		add	r3, r3, r2
 1209 00cc 13F8083C 		ldrb	r3, [r3, #-8]	@ zero_extendqisi2
 366:.\Generated_Source\PSoC5/cyPm.c ****         (CY_IMO_FREQ_24MHZ == cyPmImoFreqMhz2Reg[cyPmClockBackup.imoFreq]))
ARM GAS  C:\Users\Ian\AppData\Local\Temp\ccxtF1i6.s 			page 57


 1210              		.loc 1 366 0 discriminator 1
 1211 00d0 032B     		cmp	r3, #3
 1212 00d2 03D1     		bne	.L78
 370:.\Generated_Source\PSoC5/cyPm.c ****     }
 1213              		.loc 1 370 0
 1214 00d4 0820     		movs	r0, #8
 1215 00d6 FFF7FEFF 		bl	CyIMO_SetFreq
 1216              	.LVL42:
 1217 00da 18E0     		b	.L79
 1218              	.L78:
 375:.\Generated_Source\PSoC5/cyPm.c **** 
 1219              		.loc 1 375 0
 1220 00dc 504C     		ldr	r4, .L93+4
 1221 00de 94F83330 		ldrb	r3, [r4, #51]	@ zero_extendqisi2
 1222 00e2 02AA     		add	r2, sp, #8
 1223 00e4 1344     		add	r3, r3, r2
 1224 00e6 13F8080C 		ldrb	r0, [r3, #-8]	@ zero_extendqisi2
 1225 00ea FFF7FEFF 		bl	CyIMO_SetFreq
 1226              	.LVL43:
 377:.\Generated_Source\PSoC5/cyPm.c ****         {
 1227              		.loc 1 377 0
 1228 00ee 94F83430 		ldrb	r3, [r4, #52]	@ zero_extendqisi2
 1229 00f2 13F0400F 		tst	r3, #64
 1230 00f6 05D0     		beq	.L80
 379:.\Generated_Source\PSoC5/cyPm.c ****         }
 1231              		.loc 1 379 0
 1232 00f8 4A4A     		ldr	r2, .L93+8
 1233 00fa 1378     		ldrb	r3, [r2]	@ zero_extendqisi2
 1234 00fc 43F04003 		orr	r3, r3, #64
 1235 0100 1370     		strb	r3, [r2]
 1236 0102 04E0     		b	.L79
 1237              	.L80:
 383:.\Generated_Source\PSoC5/cyPm.c ****         }
 1238              		.loc 1 383 0
 1239 0104 474A     		ldr	r2, .L93+8
 1240 0106 1378     		ldrb	r3, [r2]	@ zero_extendqisi2
 1241 0108 03F0BF03 		and	r3, r3, #191
 1242 010c 1370     		strb	r3, [r2]
 1243              	.L79:
 388:.\Generated_Source\PSoC5/cyPm.c ****        (0u == (CY_PM_ACT_CFG0_IMO & CY_PM_ACT_CFG0_REG)))
 1244              		.loc 1 388 0
 1245 010e 444B     		ldr	r3, .L93+4
 1246 0110 93F83630 		ldrb	r3, [r3, #54]	@ zero_extendqisi2
 1247 0114 012B     		cmp	r3, #1
 1248 0116 07D1     		bne	.L81
 389:.\Generated_Source\PSoC5/cyPm.c ****     {
 1249              		.loc 1 389 0 discriminator 1
 1250 0118 464B     		ldr	r3, .L93+24
 1251 011a 1B78     		ldrb	r3, [r3]	@ zero_extendqisi2
 388:.\Generated_Source\PSoC5/cyPm.c ****        (0u == (CY_PM_ACT_CFG0_IMO & CY_PM_ACT_CFG0_REG)))
 1252              		.loc 1 388 0 discriminator 1
 1253 011c 13F0100F 		tst	r3, #16
 1254 0120 02D1     		bne	.L81
 392:.\Generated_Source\PSoC5/cyPm.c ****     }
 1255              		.loc 1 392 0
 1256 0122 0020     		movs	r0, #0
 1257 0124 FFF7FEFF 		bl	CyIMO_Start
ARM GAS  C:\Users\Ian\AppData\Local\Temp\ccxtF1i6.s 			page 58


 1258              	.LVL44:
 1259              	.L81:
 396:.\Generated_Source\PSoC5/cyPm.c **** 
 1260              		.loc 1 396 0
 1261 0128 3D4C     		ldr	r4, .L93+4
 1262 012a 94F83700 		ldrb	r0, [r4, #55]	@ zero_extendqisi2
 1263 012e FFF7FEFF 		bl	CyIMO_SetSource
 1264              	.LVL45:
 399:.\Generated_Source\PSoC5/cyPm.c ****     {
 1265              		.loc 1 399 0
 1266 0132 94F83930 		ldrb	r3, [r4, #57]	@ zero_extendqisi2
 1267 0136 012B     		cmp	r3, #1
 1268 0138 01D1     		bne	.L82
 401:.\Generated_Source\PSoC5/cyPm.c ****     }
 1269              		.loc 1 401 0
 1270 013a FFF7FEFF 		bl	CyIMO_EnableDoubler
 1271              	.LVL46:
 1272              	.L82:
 405:.\Generated_Source\PSoC5/cyPm.c ****     {
 1273              		.loc 1 405 0
 1274 013e 384B     		ldr	r3, .L93+4
 1275 0140 93F83830 		ldrb	r3, [r3, #56]	@ zero_extendqisi2
 1276 0144 4FF04022 		mov	r2, #1073758208
 1277 0148 1278     		ldrb	r2, [r2]	@ zero_extendqisi2
 1278 014a 02F03002 		and	r2, r2, #48
 1279 014e 9A42     		cmp	r2, r3
 1280 0150 06D0     		beq	.L83
 407:.\Generated_Source\PSoC5/cyPm.c ****                                 cyPmClockBackup.clkImoSrc;
 1281              		.loc 1 407 0
 1282 0152 4FF04021 		mov	r1, #1073758208
 1283 0156 0A78     		ldrb	r2, [r1]	@ zero_extendqisi2
 1284 0158 02F0CF02 		and	r2, r2, #207
 1285 015c 1343     		orrs	r3, r3, r2
 1286 015e 0B70     		strb	r3, [r1]
 1287              	.L83:
 413:.\Generated_Source\PSoC5/cyPm.c ****     {
 1288              		.loc 1 413 0
 1289 0160 2F4B     		ldr	r3, .L93+4
 1290 0162 93F83E30 		ldrb	r3, [r3, #62]	@ zero_extendqisi2
 1291 0166 012B     		cmp	r3, #1
 1292 0168 1AD1     		bne	.L84
 424:.\Generated_Source\PSoC5/cyPm.c **** 
 1293              		.loc 1 424 0
 1294 016a 0020     		movs	r0, #0
 1295 016c FFF7FEFF 		bl	CyPLL_OUT_Start
 1296              	.LVL47:
 427:.\Generated_Source\PSoC5/cyPm.c ****         (void) CY_PM_FASTCLK_PLL_SR_REG;
 1297              		.loc 1 427 0
 1298 0170 5020     		movs	r0, #80
 1299 0172 FFF7FEFF 		bl	CyDelayUs
 1300              	.LVL48:
 428:.\Generated_Source\PSoC5/cyPm.c **** 
 1301              		.loc 1 428 0
 1302 0176 304B     		ldr	r3, .L93+28
 1303 0178 1B78     		ldrb	r3, [r3]	@ zero_extendqisi2
 1304              	.LVL49:
 431:.\Generated_Source\PSoC5/cyPm.c ****         {
ARM GAS  C:\Users\Ian\AppData\Local\Temp\ccxtF1i6.s 			page 59


 1305              		.loc 1 431 0
 1306 017a AB24     		movs	r4, #171
 1307 017c 0EE0     		b	.L85
 1308              	.LVL50:
 1309              	.L87:
 433:.\Generated_Source\PSoC5/cyPm.c **** 
 1310              		.loc 1 433 0
 1311 017e 0120     		movs	r0, #1
 1312 0180 FFF7FEFF 		bl	CyDelayUs
 1313              	.LVL51:
 436:.\Generated_Source\PSoC5/cyPm.c ****                (0u != (CY_PM_FASTCLK_PLL_SR_REG & CY_PM_FASTCLK_PLL_LOCKED)))
 1314              		.loc 1 436 0
 1315 0184 2C4B     		ldr	r3, .L93+28
 1316 0186 1B78     		ldrb	r3, [r3]	@ zero_extendqisi2
 1317 0188 13F0010F 		tst	r3, #1
 1318 018c 04D0     		beq	.L86
 437:.\Generated_Source\PSoC5/cyPm.c ****             {
 1319              		.loc 1 437 0 discriminator 1
 1320 018e 2A4B     		ldr	r3, .L93+28
 1321 0190 1B78     		ldrb	r3, [r3]	@ zero_extendqisi2
 436:.\Generated_Source\PSoC5/cyPm.c ****                (0u != (CY_PM_FASTCLK_PLL_SR_REG & CY_PM_FASTCLK_PLL_LOCKED)))
 1322              		.loc 1 436 0 discriminator 1
 1323 0192 13F0010F 		tst	r3, #1
 1324 0196 03D1     		bne	.L84
 1325              	.L86:
 431:.\Generated_Source\PSoC5/cyPm.c ****         {
 1326              		.loc 1 431 0 discriminator 2
 1327 0198 013C     		subs	r4, r4, #1
 1328              	.LVL52:
 1329 019a A4B2     		uxth	r4, r4
 1330              	.LVL53:
 1331              	.L85:
 431:.\Generated_Source\PSoC5/cyPm.c ****         {
 1332              		.loc 1 431 0 is_stmt 0 discriminator 1
 1333 019c 002C     		cmp	r4, #0
 1334 019e EED1     		bne	.L87
 1335              	.LVL54:
 1336              	.L84:
 457:.\Generated_Source\PSoC5/cyPm.c ****        (CY_PM_MASTER_CLK_SRC_PLL == cyPmClockBackup.masterClkSrc))
 1337              		.loc 1 457 0 is_stmt 1
 1338 01a0 1F4B     		ldr	r3, .L93+4
 1339 01a2 93F83230 		ldrb	r3, [r3, #50]	@ zero_extendqisi2
 1340 01a6 012B     		cmp	r3, #1
 1341 01a8 0ED8     		bhi	.L88
 461:.\Generated_Source\PSoC5/cyPm.c ****         {
 1342              		.loc 1 461 0
 1343 01aa 214B     		ldr	r3, .L93+20
 1344 01ac 1B78     		ldrb	r3, [r3]	@ zero_extendqisi2
 1345 01ae DBB2     		uxtb	r3, r3
 1346 01b0 1B4A     		ldr	r2, .L93+4
 1347 01b2 92F83A00 		ldrb	r0, [r2, #58]	@ zero_extendqisi2
 1348 01b6 8342     		cmp	r3, r0
 1349 01b8 01D0     		beq	.L89
 463:.\Generated_Source\PSoC5/cyPm.c ****         }
 1350              		.loc 1 463 0
 1351 01ba FFF7FEFF 		bl	CyMasterClk_SetDivider
 1352              	.LVL55:
ARM GAS  C:\Users\Ian\AppData\Local\Temp\ccxtF1i6.s 			page 60


 1353              	.L89:
 467:.\Generated_Source\PSoC5/cyPm.c ****     }
 1354              		.loc 1 467 0
 1355 01be 184B     		ldr	r3, .L93+4
 1356 01c0 93F83200 		ldrb	r0, [r3, #50]	@ zero_extendqisi2
 1357 01c4 FFF7FEFF 		bl	CyMasterClk_SetSource
 1358              	.LVL56:
 1359              	.L88:
 471:.\Generated_Source\PSoC5/cyPm.c ****        (0u != (CY_PM_ACT_CFG0_IMO & CY_PM_ACT_CFG0_REG)))
 1360              		.loc 1 471 0
 1361 01c8 154B     		ldr	r3, .L93+4
 1362 01ca 93F83630 		ldrb	r3, [r3, #54]	@ zero_extendqisi2
 1363 01ce 33B9     		cbnz	r3, .L90
 472:.\Generated_Source\PSoC5/cyPm.c ****     {
 1364              		.loc 1 472 0 discriminator 1
 1365 01d0 184B     		ldr	r3, .L93+24
 1366 01d2 1B78     		ldrb	r3, [r3]	@ zero_extendqisi2
 471:.\Generated_Source\PSoC5/cyPm.c ****        (0u != (CY_PM_ACT_CFG0_IMO & CY_PM_ACT_CFG0_REG)))
 1367              		.loc 1 471 0 discriminator 1
 1368 01d4 13F0100F 		tst	r3, #16
 1369 01d8 01D0     		beq	.L90
 474:.\Generated_Source\PSoC5/cyPm.c ****     }
 1370              		.loc 1 474 0
 1371 01da FFF7FEFF 		bl	CyIMO_Stop
 1372              	.LVL57:
 1373              	.L90:
 478:.\Generated_Source\PSoC5/cyPm.c ****     clkBusDivTmp |= CY_PM_CLK_BUS_LSB_DIV_REG;
 1374              		.loc 1 478 0
 1375 01de 174B     		ldr	r3, .L93+32
 1376 01e0 1A78     		ldrb	r2, [r3]	@ zero_extendqisi2
 1377              	.LVL58:
 479:.\Generated_Source\PSoC5/cyPm.c ****     if(cyPmClockBackup.clkBusDiv != clkBusDivTmp)
 1378              		.loc 1 479 0
 1379 01e2 013B     		subs	r3, r3, #1
 1380 01e4 1B78     		ldrb	r3, [r3]	@ zero_extendqisi2
 1381 01e6 43EA0223 		orr	r3, r3, r2, lsl #8
 1382              	.LVL59:
 480:.\Generated_Source\PSoC5/cyPm.c ****     {
 1383              		.loc 1 480 0
 1384 01ea 0D4A     		ldr	r2, .L93+4
 1385 01ec 908F     		ldrh	r0, [r2, #60]
 1386 01ee 9842     		cmp	r0, r3
 1387 01f0 01D0     		beq	.L91
 482:.\Generated_Source\PSoC5/cyPm.c ****     }
 1388              		.loc 1 482 0
 1389 01f2 FFF7FEFF 		bl	CyBusClk_SetDivider
 1390              	.LVL60:
 1391              	.L91:
 486:.\Generated_Source\PSoC5/cyPm.c ****                            cyPmClockBackup.flashWaitCycles);
 1392              		.loc 1 486 0
 1393 01f6 1248     		ldr	r0, .L93+36
 1394 01f8 0278     		ldrb	r2, [r0]	@ zero_extendqisi2
 487:.\Generated_Source\PSoC5/cyPm.c **** 
 1395              		.loc 1 487 0
 1396 01fa 094B     		ldr	r3, .L93+4
 1397 01fc 93F83510 		ldrb	r1, [r3, #53]	@ zero_extendqisi2
 486:.\Generated_Source\PSoC5/cyPm.c ****                            cyPmClockBackup.flashWaitCycles);
ARM GAS  C:\Users\Ian\AppData\Local\Temp\ccxtF1i6.s 			page 61


 1398              		.loc 1 486 0
 1399 0200 02F03F02 		and	r2, r2, #63
 1400 0204 0A43     		orrs	r2, r2, r1
 1401 0206 0270     		strb	r2, [r0]
 490:.\Generated_Source\PSoC5/cyPm.c ****     CY_PM_ACT_CFG2_REG = cyPmClockBackup.enClkD;
 1402              		.loc 1 490 0
 1403 0208 93F83010 		ldrb	r1, [r3, #48]	@ zero_extendqisi2
 1404 020c 0D4A     		ldr	r2, .L93+40
 1405 020e 1170     		strb	r1, [r2]
 491:.\Generated_Source\PSoC5/cyPm.c **** }
 1406              		.loc 1 491 0
 1407 0210 93F83120 		ldrb	r2, [r3, #49]	@ zero_extendqisi2
 1408 0214 0C4B     		ldr	r3, .L93+44
 1409 0216 1A70     		strb	r2, [r3]
 492:.\Generated_Source\PSoC5/cyPm.c **** 
 1410              		.loc 1 492 0
 1411 0218 02B0     		add	sp, sp, #8
 1412              		.cfi_def_cfa_offset 8
 1413              		@ sp needed
 1414 021a 10BD     		pop	{r4, pc}
 1415              	.L94:
 1416              		.align	2
 1417              	.L93:
 1418 021c 00000000 		.word	.LANCHOR1
 1419 0220 00000000 		.word	.LANCHOR0
 1420 0224 00420040 		.word	1073758720
 1421 0228 0B400040 		.word	1073758219
 1422 022c 10420040 		.word	1073758736
 1423 0230 04400040 		.word	1073758212
 1424 0234 A0430040 		.word	1073759136
 1425 0238 25420040 		.word	1073758757
 1426 023c 07400040 		.word	1073758215
 1427 0240 00480040 		.word	1073760256
 1428 0244 A1430040 		.word	1073759137
 1429 0248 A2430040 		.word	1073759138
 1430              		.cfi_endproc
 1431              	.LFE1:
 1432              		.size	CyPmRestoreClocks, .-CyPmRestoreClocks
 1433              		.section	.text.CyPmAltAct,"ax",%progbits
 1434              		.align	2
 1435              		.global	CyPmAltAct
 1436              		.thumb
 1437              		.thumb_func
 1438              		.type	CyPmAltAct, %function
 1439              	CyPmAltAct:
 1440              	.LFB2:
 637:.\Generated_Source\PSoC5/cyPm.c ****     #if(CY_PSOC5)
 1441              		.loc 1 637 0
 1442              		.cfi_startproc
 1443              		@ args = 0, pretend = 0, frame = 0
 1444              		@ frame_needed = 0, uses_anonymous_args = 0
 1445              	.LVL61:
 1446 0000 38B5     		push	{r3, r4, r5, lr}
 1447              		.cfi_def_cfa_offset 16
 1448              		.cfi_offset 3, -16
 1449              		.cfi_offset 4, -12
 1450              		.cfi_offset 5, -8
ARM GAS  C:\Users\Ian\AppData\Local\Temp\ccxtF1i6.s 			page 62


 1451              		.cfi_offset 14, -4
 1452 0002 0C46     		mov	r4, r1
 641:.\Generated_Source\PSoC5/cyPm.c **** 
 1453              		.loc 1 641 0
 1454 0004 10B1     		cbz	r0, .L96
 641:.\Generated_Source\PSoC5/cyPm.c **** 
 1455              		.loc 1 641 0 is_stmt 0 discriminator 1
 1456 0006 0020     		movs	r0, #0
 1457              	.LVL62:
 1458 0008 FFF7FEFF 		bl	CyHalt
 1459              	.LVL63:
 1460              	.L96:
 688:.\Generated_Source\PSoC5/cyPm.c ****     CY_PM_WAKEUP_CFG0_REG = (uint8) (wakeupSource >> 4u);
 1461              		.loc 1 688 0 is_stmt 1
 1462 000c 124D     		ldr	r5, .L98
 1463 000e 2A78     		ldrb	r2, [r5]	@ zero_extendqisi2
 1464 0010 124B     		ldr	r3, .L98+4
 1465 0012 1A71     		strb	r2, [r3, #4]
 689:.\Generated_Source\PSoC5/cyPm.c **** 
 1466              		.loc 1 689 0
 1467 0014 C4F30712 		ubfx	r2, r4, #4, #8
 1468 0018 2A70     		strb	r2, [r5]
 692:.\Generated_Source\PSoC5/cyPm.c ****     CY_PM_WAKEUP_CFG1_REG = (((uint8) wakeupSource) & CY_PM_WAKEUP_SRC_CMPS_MASK);
 1469              		.loc 1 692 0
 1470 001a 1148     		ldr	r0, .L98+8
 1471 001c 0278     		ldrb	r2, [r0]	@ zero_extendqisi2
 1472 001e 5A71     		strb	r2, [r3, #5]
 693:.\Generated_Source\PSoC5/cyPm.c **** 
 1473              		.loc 1 693 0
 1474 0020 04F00F02 		and	r2, r4, #15
 1475 0024 0270     		strb	r2, [r0]
 696:.\Generated_Source\PSoC5/cyPm.c ****     CY_PM_WAKEUP_CFG2_REG = ((uint8) ((wakeupSource >> 12u) & 0x01u));
 1476              		.loc 1 696 0
 1477 0026 0F49     		ldr	r1, .L98+12
 1478 0028 0A78     		ldrb	r2, [r1]	@ zero_extendqisi2
 1479 002a 9A71     		strb	r2, [r3, #6]
 697:.\Generated_Source\PSoC5/cyPm.c **** 
 1480              		.loc 1 697 0
 1481 002c C4F30034 		ubfx	r4, r4, #12, #1
 1482 0030 0C70     		strb	r4, [r1]
 701:.\Generated_Source\PSoC5/cyPm.c **** 
 1483              		.loc 1 701 0
 1484 0032 0D4C     		ldr	r4, .L98+16
 1485 0034 2278     		ldrb	r2, [r4]	@ zero_extendqisi2
 1486 0036 02F0F802 		and	r2, r2, #248
 1487 003a 42F00102 		orr	r2, r2, #1
 1488 003e 2270     		strb	r2, [r4]
 704:.\Generated_Source\PSoC5/cyPm.c **** 
 1489              		.loc 1 704 0
 1490 0040 2278     		ldrb	r2, [r4]	@ zero_extendqisi2
 707:.\Generated_Source\PSoC5/cyPm.c ****     CY_NOP;
 1491              		.loc 1 707 0
 1492              	@ 707 ".\Generated_Source\PSoC5\cyPm.c" 1
 1493 0042 00BF     		NOP
 1494              	
 1495              	@ 0 "" 2
 708:.\Generated_Source\PSoC5/cyPm.c **** 
ARM GAS  C:\Users\Ian\AppData\Local\Temp\ccxtF1i6.s 			page 63


 1496              		.loc 1 708 0
 1497              	@ 708 ".\Generated_Source\PSoC5\cyPm.c" 1
 1498 0044 00BF     		NOP
 1499              	
 1500              	@ 0 "" 2
 711:.\Generated_Source\PSoC5/cyPm.c **** 
 1501              		.loc 1 711 0
 1502              	@ 711 ".\Generated_Source\PSoC5\cyPm.c" 1
 1503 0046 30BF     		WFI 
 1504              	
 1505              	@ 0 "" 2
 716:.\Generated_Source\PSoC5/cyPm.c ****     CY_PM_WAKEUP_CFG1_REG = cyPmBackup.wakeupCfg1;
 1506              		.loc 1 716 0
 1507              		.thumb
 1508 0048 1A79     		ldrb	r2, [r3, #4]	@ zero_extendqisi2
 1509 004a 2A70     		strb	r2, [r5]
 717:.\Generated_Source\PSoC5/cyPm.c ****     CY_PM_WAKEUP_CFG2_REG = cyPmBackup.wakeupCfg2;
 1510              		.loc 1 717 0
 1511 004c 5A79     		ldrb	r2, [r3, #5]	@ zero_extendqisi2
 1512 004e 0270     		strb	r2, [r0]
 718:.\Generated_Source\PSoC5/cyPm.c **** }
 1513              		.loc 1 718 0
 1514 0050 9B79     		ldrb	r3, [r3, #6]	@ zero_extendqisi2
 1515 0052 0B70     		strb	r3, [r1]
 1516 0054 38BD     		pop	{r3, r4, r5, pc}
 1517              	.L99:
 1518 0056 00BF     		.align	2
 1519              	.L98:
 1520 0058 98430040 		.word	1073759128
 1521 005c 00000000 		.word	.LANCHOR0
 1522 0060 99430040 		.word	1073759129
 1523 0064 9A430040 		.word	1073759130
 1524 0068 93430040 		.word	1073759123
 1525              		.cfi_endproc
 1526              	.LFE2:
 1527              		.size	CyPmAltAct, .-CyPmAltAct
 1528              		.section	.text.CyPmSleep,"ax",%progbits
 1529              		.align	2
 1530              		.global	CyPmSleep
 1531              		.thumb
 1532              		.thumb_func
 1533              		.type	CyPmSleep, %function
 1534              	CyPmSleep:
 1535              	.LFB3:
 841:.\Generated_Source\PSoC5/cyPm.c ****     uint8 interruptState;
 1536              		.loc 1 841 0
 1537              		.cfi_startproc
 1538              		@ args = 0, pretend = 0, frame = 0
 1539              		@ frame_needed = 0, uses_anonymous_args = 0
 1540              	.LVL64:
 1541 0000 70B5     		push	{r4, r5, r6, lr}
 1542              		.cfi_def_cfa_offset 16
 1543              		.cfi_offset 4, -16
 1544              		.cfi_offset 5, -12
 1545              		.cfi_offset 6, -8
 1546              		.cfi_offset 14, -4
 1547 0002 0646     		mov	r6, r0
ARM GAS  C:\Users\Ian\AppData\Local\Temp\ccxtF1i6.s 			page 64


 1548 0004 0C46     		mov	r4, r1
 845:.\Generated_Source\PSoC5/cyPm.c **** 
 1549              		.loc 1 845 0
 1550 0006 FFF7FEFF 		bl	CyEnterCriticalSection
 1551              	.LVL65:
 1552 000a 0546     		mov	r5, r0
 1553              	.LVL66:
 854:.\Generated_Source\PSoC5/cyPm.c ****     {
 1554              		.loc 1 854 0
 1555 000c 334B     		ldr	r3, .L109
 1556 000e 1B78     		ldrb	r3, [r3]	@ zero_extendqisi2
 1557 0010 13F0080F 		tst	r3, #8
 1558 0014 06D1     		bne	.L101
 857:.\Generated_Source\PSoC5/cyPm.c ****     }
 1559              		.loc 1 857 0
 1560 0016 324A     		ldr	r2, .L109+4
 1561 0018 1378     		ldrb	r3, [r2]	@ zero_extendqisi2
 1562 001a 03F01F03 		and	r3, r3, #31
 1563 001e 1370     		strb	r3, [r2]
 925:.\Generated_Source\PSoC5/cyPm.c **** 
 1564              		.loc 1 925 0
 1565 0020 36B1     		cbz	r6, .L103
 1566 0022 02E0     		b	.L102
 1567              	.L101:
 864:.\Generated_Source\PSoC5/cyPm.c **** 
 1568              		.loc 1 864 0
 1569 0024 FFF7FEFF 		bl	CyExitCriticalSection
 1570              	.LVL67:
 866:.\Generated_Source\PSoC5/cyPm.c ****     }
 1571              		.loc 1 866 0
 1572 0028 70BD     		pop	{r4, r5, r6, pc}
 1573              	.LVL68:
 1574              	.L102:
 925:.\Generated_Source\PSoC5/cyPm.c **** 
 1575              		.loc 1 925 0 discriminator 1
 1576 002a 0020     		movs	r0, #0
 1577              	.LVL69:
 1578 002c FFF7FEFF 		bl	CyHalt
 1579              	.LVL70:
 1580              	.L103:
 935:.\Generated_Source\PSoC5/cyPm.c **** 
 1581              		.loc 1 935 0
 1582 0030 FFF7FEFF 		bl	CyPmHibSlpSaveSet
 1583              	.LVL71:
 966:.\Generated_Source\PSoC5/cyPm.c ****     CY_PM_WAKEUP_CFG0_REG = (uint8) (wakeupSource >> 4u);
 1584              		.loc 1 966 0
 1585 0034 2B4A     		ldr	r2, .L109+8
 1586 0036 1178     		ldrb	r1, [r2]	@ zero_extendqisi2
 1587 0038 2B4B     		ldr	r3, .L109+12
 1588 003a 1971     		strb	r1, [r3, #4]
 967:.\Generated_Source\PSoC5/cyPm.c **** 
 1589              		.loc 1 967 0
 1590 003c C4F30711 		ubfx	r1, r4, #4, #8
 1591 0040 1170     		strb	r1, [r2]
 970:.\Generated_Source\PSoC5/cyPm.c ****     CY_PM_WAKEUP_CFG1_REG = (((uint8) wakeupSource) & CY_PM_WAKEUP_SRC_CMPS_MASK);
 1592              		.loc 1 970 0
 1593 0042 0132     		adds	r2, r2, #1
ARM GAS  C:\Users\Ian\AppData\Local\Temp\ccxtF1i6.s 			page 65


 1594 0044 1178     		ldrb	r1, [r2]	@ zero_extendqisi2
 1595 0046 5971     		strb	r1, [r3, #5]
 971:.\Generated_Source\PSoC5/cyPm.c **** 
 1596              		.loc 1 971 0
 1597 0048 04F00F01 		and	r1, r4, #15
 1598 004c 1170     		strb	r1, [r2]
 974:.\Generated_Source\PSoC5/cyPm.c ****     CY_PM_WAKEUP_CFG2_REG = ((uint8) ((wakeupSource >> 12u) & 0x01u));
 1599              		.loc 1 974 0
 1600 004e 0132     		adds	r2, r2, #1
 1601 0050 1178     		ldrb	r1, [r2]	@ zero_extendqisi2
 1602 0052 9971     		strb	r1, [r3, #6]
 975:.\Generated_Source\PSoC5/cyPm.c **** 
 1603              		.loc 1 975 0
 1604 0054 C4F30034 		ubfx	r4, r4, #12, #1
 1605 0058 1470     		strb	r4, [r2]
 988:.\Generated_Source\PSoC5/cyPm.c ****     {
 1606              		.loc 1 988 0
 1607 005a 244B     		ldr	r3, .L109+16
 1608 005c 1B78     		ldrb	r3, [r3]	@ zero_extendqisi2
 1609 005e 13F0070F 		tst	r3, #7
 1610 0062 04D1     		bne	.L105
 991:.\Generated_Source\PSoC5/cyPm.c ****     }
 1611              		.loc 1 991 0
 1612 0064 0122     		movs	r2, #1
 1613 0066 204B     		ldr	r3, .L109+12
 1614 0068 83F82D20 		strb	r2, [r3, #45]
 1615 006c 0DE0     		b	.L106
 1616              	.L105:
 996:.\Generated_Source\PSoC5/cyPm.c **** 
 1617              		.loc 1 996 0
 1618 006e 1E49     		ldr	r1, .L109+12
 1619 0070 0023     		movs	r3, #0
 1620 0072 81F82D30 		strb	r3, [r1, #45]
 999:.\Generated_Source\PSoC5/cyPm.c **** 
 1621              		.loc 1 999 0
 1622 0076 1D4B     		ldr	r3, .L109+16
 1623 0078 1A78     		ldrb	r2, [r3]	@ zero_extendqisi2
 1624 007a 02F00702 		and	r2, r2, #7
 1625 007e 81F82C20 		strb	r2, [r1, #44]
1002:.\Generated_Source\PSoC5/cyPm.c ****     }
 1626              		.loc 1 1002 0
 1627 0082 1A78     		ldrb	r2, [r3]	@ zero_extendqisi2
 1628 0084 02F0F802 		and	r2, r2, #248
 1629 0088 1A70     		strb	r2, [r3]
 1630              	.L106:
1006:.\Generated_Source\PSoC5/cyPm.c **** 
 1631              		.loc 1 1006 0
 1632 008a 144A     		ldr	r2, .L109
 1633 008c 1378     		ldrb	r3, [r2]	@ zero_extendqisi2
 1634 008e 03F0F803 		and	r3, r3, #248
 1635 0092 43F00303 		orr	r3, r3, #3
 1636 0096 1370     		strb	r3, [r2]
1009:.\Generated_Source\PSoC5/cyPm.c **** 
 1637              		.loc 1 1009 0
 1638 0098 1378     		ldrb	r3, [r2]	@ zero_extendqisi2
1012:.\Generated_Source\PSoC5/cyPm.c ****     CY_NOP;
 1639              		.loc 1 1012 0
ARM GAS  C:\Users\Ian\AppData\Local\Temp\ccxtF1i6.s 			page 66


 1640              	@ 1012 ".\Generated_Source\PSoC5\cyPm.c" 1
 1641 009a 00BF     		NOP
 1642              	
 1643              	@ 0 "" 2
1013:.\Generated_Source\PSoC5/cyPm.c **** 
 1644              		.loc 1 1013 0
 1645              	@ 1013 ".\Generated_Source\PSoC5\cyPm.c" 1
 1646 009c 00BF     		NOP
 1647              	
 1648              	@ 0 "" 2
1016:.\Generated_Source\PSoC5/cyPm.c **** 
 1649              		.loc 1 1016 0
 1650              	@ 1016 ".\Generated_Source\PSoC5\cyPm.c" 1
 1651 009e 30BF     		WFI 
 1652              	
 1653              	@ 0 "" 2
1021:.\Generated_Source\PSoC5/cyPm.c ****     {
 1654              		.loc 1 1021 0
 1655              		.thumb
 1656 00a0 114B     		ldr	r3, .L109+12
 1657 00a2 93F82D30 		ldrb	r3, [r3, #45]	@ zero_extendqisi2
 1658 00a6 012B     		cmp	r3, #1
 1659 00a8 08D0     		beq	.L107
1023:.\Generated_Source\PSoC5/cyPm.c ****                                     cyPmBackup.imoActFreq;
 1660              		.loc 1 1023 0
 1661 00aa 1049     		ldr	r1, .L109+16
 1662 00ac 0B78     		ldrb	r3, [r1]	@ zero_extendqisi2
1024:.\Generated_Source\PSoC5/cyPm.c ****     }
 1663              		.loc 1 1024 0
 1664 00ae 0E4A     		ldr	r2, .L109+12
 1665 00b0 92F82C20 		ldrb	r2, [r2, #44]	@ zero_extendqisi2
1023:.\Generated_Source\PSoC5/cyPm.c ****                                     cyPmBackup.imoActFreq;
 1666              		.loc 1 1023 0
 1667 00b4 03F0F803 		and	r3, r3, #248
 1668 00b8 1343     		orrs	r3, r3, r2
 1669 00ba 0B70     		strb	r3, [r1]
 1670              	.L107:
1038:.\Generated_Source\PSoC5/cyPm.c **** 
 1671              		.loc 1 1038 0
 1672 00bc FFF7FEFF 		bl	CyPmHibSlpRestore
 1673              	.LVL72:
1060:.\Generated_Source\PSoC5/cyPm.c ****     CY_PM_WAKEUP_CFG1_REG = cyPmBackup.wakeupCfg1;
 1674              		.loc 1 1060 0
 1675 00c0 094B     		ldr	r3, .L109+12
 1676 00c2 1979     		ldrb	r1, [r3, #4]	@ zero_extendqisi2
 1677 00c4 074A     		ldr	r2, .L109+8
 1678 00c6 1170     		strb	r1, [r2]
1061:.\Generated_Source\PSoC5/cyPm.c ****     CY_PM_WAKEUP_CFG2_REG = cyPmBackup.wakeupCfg2;
 1679              		.loc 1 1061 0
 1680 00c8 5979     		ldrb	r1, [r3, #5]	@ zero_extendqisi2
 1681 00ca 0132     		adds	r2, r2, #1
 1682 00cc 1170     		strb	r1, [r2]
1062:.\Generated_Source\PSoC5/cyPm.c **** 
 1683              		.loc 1 1062 0
 1684 00ce 9A79     		ldrb	r2, [r3, #6]	@ zero_extendqisi2
 1685 00d0 074B     		ldr	r3, .L109+20
 1686 00d2 1A70     		strb	r2, [r3]
ARM GAS  C:\Users\Ian\AppData\Local\Temp\ccxtF1i6.s 			page 67


1065:.\Generated_Source\PSoC5/cyPm.c **** }
 1687              		.loc 1 1065 0
 1688 00d4 2846     		mov	r0, r5
 1689 00d6 FFF7FEFF 		bl	CyExitCriticalSection
 1690              	.LVL73:
 1691 00da 70BD     		pop	{r4, r5, r6, pc}
 1692              	.L110:
 1693              		.align	2
 1694              	.L109:
 1695 00dc 93430040 		.word	1073759123
 1696 00e0 83460040 		.word	1073759875
 1697 00e4 98430040 		.word	1073759128
 1698 00e8 00000000 		.word	.LANCHOR0
 1699 00ec 00420040 		.word	1073758720
 1700 00f0 9A430040 		.word	1073759130
 1701              		.cfi_endproc
 1702              	.LFE3:
 1703              		.size	CyPmSleep, .-CyPmSleep
 1704              		.section	.text.CyPmHibernate,"ax",%progbits
 1705              		.align	2
 1706              		.global	CyPmHibernate
 1707              		.thumb
 1708              		.thumb_func
 1709              		.type	CyPmHibernate, %function
 1710              	CyPmHibernate:
 1711              	.LFB4:
1113:.\Generated_Source\PSoC5/cyPm.c ****     uint8 interruptState;
 1712              		.loc 1 1113 0
 1713              		.cfi_startproc
 1714              		@ args = 0, pretend = 0, frame = 0
 1715              		@ frame_needed = 0, uses_anonymous_args = 0
 1716 0000 10B5     		push	{r4, lr}
 1717              		.cfi_def_cfa_offset 8
 1718              		.cfi_offset 4, -8
 1719              		.cfi_offset 14, -4
1117:.\Generated_Source\PSoC5/cyPm.c **** 
 1720              		.loc 1 1117 0
 1721 0002 FFF7FEFF 		bl	CyEnterCriticalSection
 1722              	.LVL74:
 1723 0006 0446     		mov	r4, r0
 1724              	.LVL75:
1125:.\Generated_Source\PSoC5/cyPm.c ****         {
 1725              		.loc 1 1125 0
 1726 0008 2F4B     		ldr	r3, .L120
 1727 000a 1B78     		ldrb	r3, [r3]	@ zero_extendqisi2
 1728 000c 13F0080F 		tst	r3, #8
 1729 0010 1BD1     		bne	.L112
1128:.\Generated_Source\PSoC5/cyPm.c ****         }
 1730              		.loc 1 1128 0
 1731 0012 2E4A     		ldr	r2, .L120+4
 1732 0014 1378     		ldrb	r3, [r2]	@ zero_extendqisi2
 1733 0016 03F01F03 		and	r3, r3, #31
 1734 001a 1370     		strb	r3, [r2]
1140:.\Generated_Source\PSoC5/cyPm.c **** 
 1735              		.loc 1 1140 0
 1736 001c FFF7FEFF 		bl	CyPmHibSaveSet
 1737              	.LVL76:
ARM GAS  C:\Users\Ian\AppData\Local\Temp\ccxtF1i6.s 			page 68


1144:.\Generated_Source\PSoC5/cyPm.c ****     CY_PM_WAKEUP_CFG0_REG = CY_PM_WAKEUP_PICU;
 1738              		.loc 1 1144 0
 1739 0020 2B4A     		ldr	r2, .L120+8
 1740 0022 1178     		ldrb	r1, [r2]	@ zero_extendqisi2
 1741 0024 2B4B     		ldr	r3, .L120+12
 1742 0026 1971     		strb	r1, [r3, #4]
1145:.\Generated_Source\PSoC5/cyPm.c **** 
 1743              		.loc 1 1145 0
 1744 0028 0421     		movs	r1, #4
 1745 002a 1170     		strb	r1, [r2]
1147:.\Generated_Source\PSoC5/cyPm.c ****     CY_PM_WAKEUP_CFG1_REG = 0x00u;
 1746              		.loc 1 1147 0
 1747 002c 0132     		adds	r2, r2, #1
 1748 002e 1178     		ldrb	r1, [r2]	@ zero_extendqisi2
 1749 0030 5971     		strb	r1, [r3, #5]
1148:.\Generated_Source\PSoC5/cyPm.c **** 
 1750              		.loc 1 1148 0
 1751 0032 0021     		movs	r1, #0
 1752 0034 1170     		strb	r1, [r2]
1150:.\Generated_Source\PSoC5/cyPm.c ****     CY_PM_WAKEUP_CFG2_REG = 0x00u;
 1753              		.loc 1 1150 0
 1754 0036 0132     		adds	r2, r2, #1
 1755 0038 1078     		ldrb	r0, [r2]	@ zero_extendqisi2
 1756 003a 9871     		strb	r0, [r3, #6]
1151:.\Generated_Source\PSoC5/cyPm.c **** 
 1757              		.loc 1 1151 0
 1758 003c 1170     		strb	r1, [r2]
1155:.\Generated_Source\PSoC5/cyPm.c ****     {
 1759              		.loc 1 1155 0
 1760 003e 264B     		ldr	r3, .L120+16
 1761 0040 1B78     		ldrb	r3, [r3]	@ zero_extendqisi2
 1762 0042 13F0070F 		tst	r3, #7
 1763 0046 03D0     		beq	.L113
 1764 0048 07E0     		b	.L118
 1765              	.LVL77:
 1766              	.L112:
1135:.\Generated_Source\PSoC5/cyPm.c **** 
 1767              		.loc 1 1135 0
 1768 004a FFF7FEFF 		bl	CyExitCriticalSection
 1769              	.LVL78:
1137:.\Generated_Source\PSoC5/cyPm.c ****         }
 1770              		.loc 1 1137 0
 1771 004e 10BD     		pop	{r4, pc}
 1772              	.L113:
1158:.\Generated_Source\PSoC5/cyPm.c ****     }
 1773              		.loc 1 1158 0
 1774 0050 0122     		movs	r2, #1
 1775 0052 204B     		ldr	r3, .L120+12
 1776 0054 83F82D20 		strb	r2, [r3, #45]
 1777 0058 0DE0     		b	.L116
 1778              	.L118:
1163:.\Generated_Source\PSoC5/cyPm.c **** 
 1779              		.loc 1 1163 0
 1780 005a 1E49     		ldr	r1, .L120+12
 1781 005c 0023     		movs	r3, #0
 1782 005e 81F82D30 		strb	r3, [r1, #45]
1166:.\Generated_Source\PSoC5/cyPm.c **** 
ARM GAS  C:\Users\Ian\AppData\Local\Temp\ccxtF1i6.s 			page 69


 1783              		.loc 1 1166 0
 1784 0062 1D4B     		ldr	r3, .L120+16
 1785 0064 1A78     		ldrb	r2, [r3]	@ zero_extendqisi2
 1786 0066 02F00702 		and	r2, r2, #7
 1787 006a 81F82C20 		strb	r2, [r1, #44]
1169:.\Generated_Source\PSoC5/cyPm.c ****     }
 1788              		.loc 1 1169 0
 1789 006e 1A78     		ldrb	r2, [r3]	@ zero_extendqisi2
 1790 0070 02F0F802 		and	r2, r2, #248
 1791 0074 1A70     		strb	r2, [r3]
 1792              	.L116:
1174:.\Generated_Source\PSoC5/cyPm.c **** 
 1793              		.loc 1 1174 0
 1794 0076 144A     		ldr	r2, .L120
 1795 0078 1378     		ldrb	r3, [r2]	@ zero_extendqisi2
 1796 007a 03F0F803 		and	r3, r3, #248
 1797 007e 43F00403 		orr	r3, r3, #4
 1798 0082 1370     		strb	r3, [r2]
1177:.\Generated_Source\PSoC5/cyPm.c **** 
 1799              		.loc 1 1177 0
 1800 0084 1378     		ldrb	r3, [r2]	@ zero_extendqisi2
1180:.\Generated_Source\PSoC5/cyPm.c ****     CY_NOP;
 1801              		.loc 1 1180 0
 1802              	@ 1180 ".\Generated_Source\PSoC5\cyPm.c" 1
 1803 0086 00BF     		NOP
 1804              	
 1805              	@ 0 "" 2
1181:.\Generated_Source\PSoC5/cyPm.c **** 
 1806              		.loc 1 1181 0
 1807              	@ 1181 ".\Generated_Source\PSoC5\cyPm.c" 1
 1808 0088 00BF     		NOP
 1809              	
 1810              	@ 0 "" 2
1184:.\Generated_Source\PSoC5/cyPm.c **** 
 1811              		.loc 1 1184 0
 1812              	@ 1184 ".\Generated_Source\PSoC5\cyPm.c" 1
 1813 008a 30BF     		WFI 
 1814              	
 1815              	@ 0 "" 2
1191:.\Generated_Source\PSoC5/cyPm.c ****     {
 1816              		.loc 1 1191 0
 1817              		.thumb
 1818 008c 114B     		ldr	r3, .L120+12
 1819 008e 93F82D30 		ldrb	r3, [r3, #45]	@ zero_extendqisi2
 1820 0092 012B     		cmp	r3, #1
 1821 0094 08D0     		beq	.L117
1193:.\Generated_Source\PSoC5/cyPm.c ****                                     cyPmBackup.imoActFreq;
 1822              		.loc 1 1193 0
 1823 0096 1049     		ldr	r1, .L120+16
 1824 0098 0B78     		ldrb	r3, [r1]	@ zero_extendqisi2
1194:.\Generated_Source\PSoC5/cyPm.c ****     }
 1825              		.loc 1 1194 0
 1826 009a 0E4A     		ldr	r2, .L120+12
 1827 009c 92F82C20 		ldrb	r2, [r2, #44]	@ zero_extendqisi2
1193:.\Generated_Source\PSoC5/cyPm.c ****                                     cyPmBackup.imoActFreq;
 1828              		.loc 1 1193 0
 1829 00a0 03F0F803 		and	r3, r3, #248
ARM GAS  C:\Users\Ian\AppData\Local\Temp\ccxtF1i6.s 			page 70


 1830 00a4 1343     		orrs	r3, r3, r2
 1831 00a6 0B70     		strb	r3, [r1]
 1832              	.L117:
1199:.\Generated_Source\PSoC5/cyPm.c **** 
 1833              		.loc 1 1199 0
 1834 00a8 FFF7FEFF 		bl	CyPmHibRestore
 1835              	.LVL79:
1202:.\Generated_Source\PSoC5/cyPm.c ****     CY_PM_WAKEUP_CFG1_REG = cyPmBackup.wakeupCfg1;
 1836              		.loc 1 1202 0
 1837 00ac 094B     		ldr	r3, .L120+12
 1838 00ae 1979     		ldrb	r1, [r3, #4]	@ zero_extendqisi2
 1839 00b0 074A     		ldr	r2, .L120+8
 1840 00b2 1170     		strb	r1, [r2]
1203:.\Generated_Source\PSoC5/cyPm.c ****     CY_PM_WAKEUP_CFG2_REG = cyPmBackup.wakeupCfg2;
 1841              		.loc 1 1203 0
 1842 00b4 5979     		ldrb	r1, [r3, #5]	@ zero_extendqisi2
 1843 00b6 0132     		adds	r2, r2, #1
 1844 00b8 1170     		strb	r1, [r2]
1204:.\Generated_Source\PSoC5/cyPm.c **** 
 1845              		.loc 1 1204 0
 1846 00ba 9A79     		ldrb	r2, [r3, #6]	@ zero_extendqisi2
 1847 00bc 074B     		ldr	r3, .L120+20
 1848 00be 1A70     		strb	r2, [r3]
1207:.\Generated_Source\PSoC5/cyPm.c **** }
 1849              		.loc 1 1207 0
 1850 00c0 2046     		mov	r0, r4
 1851 00c2 FFF7FEFF 		bl	CyExitCriticalSection
 1852              	.LVL80:
 1853 00c6 10BD     		pop	{r4, pc}
 1854              	.L121:
 1855              		.align	2
 1856              	.L120:
 1857 00c8 93430040 		.word	1073759123
 1858 00cc 83460040 		.word	1073759875
 1859 00d0 98430040 		.word	1073759128
 1860 00d4 00000000 		.word	.LANCHOR0
 1861 00d8 00420040 		.word	1073758720
 1862 00dc 9A430040 		.word	1073759130
 1863              		.cfi_endproc
 1864              	.LFE4:
 1865              		.size	CyPmHibernate, .-CyPmHibernate
 1866              		.section	.text.CyPmReadStatus,"ax",%progbits
 1867              		.align	2
 1868              		.global	CyPmReadStatus
 1869              		.thumb
 1870              		.thumb_func
 1871              		.type	CyPmReadStatus, %function
 1872              	CyPmReadStatus:
 1873              	.LFB5:
1241:.\Generated_Source\PSoC5/cyPm.c ****     static uint8 interruptStatus;
 1874              		.loc 1 1241 0
 1875              		.cfi_startproc
 1876              		@ args = 0, pretend = 0, frame = 0
 1877              		@ frame_needed = 0, uses_anonymous_args = 0
 1878              	.LVL81:
 1879 0000 38B5     		push	{r3, r4, r5, lr}
 1880              		.cfi_def_cfa_offset 16
ARM GAS  C:\Users\Ian\AppData\Local\Temp\ccxtF1i6.s 			page 71


 1881              		.cfi_offset 3, -16
 1882              		.cfi_offset 4, -12
 1883              		.cfi_offset 5, -8
 1884              		.cfi_offset 14, -4
 1885 0002 0546     		mov	r5, r0
1247:.\Generated_Source\PSoC5/cyPm.c **** 
 1886              		.loc 1 1247 0
 1887 0004 FFF7FEFF 		bl	CyEnterCriticalSection
 1888              	.LVL82:
1250:.\Generated_Source\PSoC5/cyPm.c ****     tmpStatus = interruptStatus;
 1889              		.loc 1 1250 0
 1890 0008 064B     		ldr	r3, .L124
 1891 000a 1C78     		ldrb	r4, [r3]	@ zero_extendqisi2
 1892 000c 064A     		ldr	r2, .L124+4
 1893 000e 92F84230 		ldrb	r3, [r2, #66]	@ zero_extendqisi2
 1894 0012 1C43     		orrs	r4, r4, r3
 1895              	.LVL83:
1252:.\Generated_Source\PSoC5/cyPm.c **** 
 1896              		.loc 1 1252 0
 1897 0014 24EA0505 		bic	r5, r4, r5
 1898 0018 82F84250 		strb	r5, [r2, #66]
1255:.\Generated_Source\PSoC5/cyPm.c **** 
 1899              		.loc 1 1255 0
 1900 001c FFF7FEFF 		bl	CyExitCriticalSection
 1901              	.LVL84:
1258:.\Generated_Source\PSoC5/cyPm.c **** 
 1902              		.loc 1 1258 0
 1903 0020 2046     		mov	r0, r4
 1904 0022 38BD     		pop	{r3, r4, r5, pc}
 1905              	.LVL85:
 1906              	.L125:
 1907              		.align	2
 1908              	.L124:
 1909 0024 90430040 		.word	1073759120
 1910 0028 00000000 		.word	.LANCHOR0
 1911              		.cfi_endproc
 1912              	.LFE5:
 1913              		.size	CyPmReadStatus, .-CyPmReadStatus
 1914              		.section	.text.CyPmCtwSetInterval,"ax",%progbits
 1915              		.align	2
 1916              		.global	CyPmCtwSetInterval
 1917              		.thumb
 1918              		.thumb_func
 1919              		.type	CyPmCtwSetInterval, %function
 1920              	CyPmCtwSetInterval:
 1921              	.LFB8:
1436:.\Generated_Source\PSoC5/cyPm.c ****     /* Disable CTW interrupt enable */
 1922              		.loc 1 1436 0
 1923              		.cfi_startproc
 1924              		@ args = 0, pretend = 0, frame = 0
 1925              		@ frame_needed = 0, uses_anonymous_args = 0
 1926              	.LVL86:
 1927 0000 38B5     		push	{r3, r4, r5, lr}
 1928              		.cfi_def_cfa_offset 16
 1929              		.cfi_offset 3, -16
 1930              		.cfi_offset 4, -12
 1931              		.cfi_offset 5, -8
ARM GAS  C:\Users\Ian\AppData\Local\Temp\ccxtF1i6.s 			page 72


 1932              		.cfi_offset 14, -4
 1933 0002 0546     		mov	r5, r0
1438:.\Generated_Source\PSoC5/cyPm.c **** 
 1934              		.loc 1 1438 0
 1935 0004 134C     		ldr	r4, .L131
 1936 0006 2378     		ldrb	r3, [r4]	@ zero_extendqisi2
 1937 0008 03F0F703 		and	r3, r3, #247
 1938 000c 2370     		strb	r3, [r4]
1441:.\Generated_Source\PSoC5/cyPm.c **** 
 1939              		.loc 1 1441 0
 1940 000e FFF7FEFF 		bl	CyILO_Start1K
 1941              	.LVL87:
1444:.\Generated_Source\PSoC5/cyPm.c ****     {
 1942              		.loc 1 1444 0
 1943 0012 2378     		ldrb	r3, [r4]	@ zero_extendqisi2
 1944 0014 13F0040F 		tst	r3, #4
 1945 0018 0FD0     		beq	.L127
1447:.\Generated_Source\PSoC5/cyPm.c ****         {
 1946              		.loc 1 1447 0
 1947 001a 0F4B     		ldr	r3, .L131+4
 1948 001c 1B78     		ldrb	r3, [r3]	@ zero_extendqisi2
 1949 001e DBB2     		uxtb	r3, r3
 1950 0020 AB42     		cmp	r3, r5
 1951 0022 16D0     		beq	.L126
1450:.\Generated_Source\PSoC5/cyPm.c ****             CY_PM_TW_CFG1_REG = ctwInterval;
 1952              		.loc 1 1450 0
 1953 0024 2278     		ldrb	r2, [r4]	@ zero_extendqisi2
 1954 0026 02F0FB02 		and	r2, r2, #251
 1955 002a 2270     		strb	r2, [r4]
1451:.\Generated_Source\PSoC5/cyPm.c ****             CY_PM_TW_CFG2_REG |= CY_PM_CTW_EN;
 1956              		.loc 1 1451 0
 1957 002c 0A4A     		ldr	r2, .L131+4
 1958 002e 1570     		strb	r5, [r2]
1452:.\Generated_Source\PSoC5/cyPm.c ****         }   /* Required interval is already set */
 1959              		.loc 1 1452 0
 1960 0030 2278     		ldrb	r2, [r4]	@ zero_extendqisi2
 1961 0032 42F00402 		orr	r2, r2, #4
 1962 0036 2270     		strb	r2, [r4]
 1963 0038 38BD     		pop	{r3, r4, r5, pc}
 1964              	.L127:
1458:.\Generated_Source\PSoC5/cyPm.c ****         {
 1965              		.loc 1 1458 0
 1966 003a 074B     		ldr	r3, .L131+4
 1967 003c 1B78     		ldrb	r3, [r3]	@ zero_extendqisi2
 1968 003e DBB2     		uxtb	r3, r3
 1969 0040 AB42     		cmp	r3, r5
 1970 0042 01D0     		beq	.L129
1461:.\Generated_Source\PSoC5/cyPm.c ****         }   /* Required interval is already set */
 1971              		.loc 1 1461 0
 1972 0044 044B     		ldr	r3, .L131+4
 1973 0046 1D70     		strb	r5, [r3]
 1974              	.L129:
1465:.\Generated_Source\PSoC5/cyPm.c ****     }
 1975              		.loc 1 1465 0
 1976 0048 024A     		ldr	r2, .L131
 1977 004a 1378     		ldrb	r3, [r2]	@ zero_extendqisi2
 1978 004c 43F00403 		orr	r3, r3, #4
ARM GAS  C:\Users\Ian\AppData\Local\Temp\ccxtF1i6.s 			page 73


 1979 0050 1370     		strb	r3, [r2]
 1980              	.L126:
 1981 0052 38BD     		pop	{r3, r4, r5, pc}
 1982              	.L132:
 1983              		.align	2
 1984              	.L131:
 1985 0054 82430040 		.word	1073759106
 1986 0058 81430040 		.word	1073759105
 1987              		.cfi_endproc
 1988              	.LFE8:
 1989              		.size	CyPmCtwSetInterval, .-CyPmCtwSetInterval
 1990              		.section	.text.CyPmOppsSet,"ax",%progbits
 1991              		.align	2
 1992              		.global	CyPmOppsSet
 1993              		.thumb
 1994              		.thumb_func
 1995              		.type	CyPmOppsSet, %function
 1996              	CyPmOppsSet:
 1997              	.LFB9:
1488:.\Generated_Source\PSoC5/cyPm.c ****     /* Enable 32kHz XTAL if needed */
 1998              		.loc 1 1488 0
 1999              		.cfi_startproc
 2000              		@ args = 0, pretend = 0, frame = 0
 2001              		@ frame_needed = 0, uses_anonymous_args = 0
 2002 0000 08B5     		push	{r3, lr}
 2003              		.cfi_def_cfa_offset 8
 2004              		.cfi_offset 3, -8
 2005              		.cfi_offset 14, -4
1490:.\Generated_Source\PSoC5/cyPm.c ****     {
 2006              		.loc 1 1490 0
 2007 0002 084B     		ldr	r3, .L136
 2008 0004 1B78     		ldrb	r3, [r3]	@ zero_extendqisi2
 2009 0006 13F0010F 		tst	r3, #1
 2010 000a 01D1     		bne	.L134
1493:.\Generated_Source\PSoC5/cyPm.c ****     }
 2011              		.loc 1 1493 0
 2012 000c FFF7FEFF 		bl	CyXTAL_32KHZ_Start
 2013              	.LVL88:
 2014              	.L134:
1497:.\Generated_Source\PSoC5/cyPm.c **** 
 2015              		.loc 1 1497 0
 2016 0010 054B     		ldr	r3, .L136+4
 2017 0012 1A78     		ldrb	r2, [r3]	@ zero_extendqisi2
 2018 0014 02F0DF02 		and	r2, r2, #223
 2019 0018 1A70     		strb	r2, [r3]
1500:.\Generated_Source\PSoC5/cyPm.c **** }
 2020              		.loc 1 1500 0
 2021 001a 1A78     		ldrb	r2, [r3]	@ zero_extendqisi2
 2022 001c 42F01002 		orr	r2, r2, #16
 2023 0020 1A70     		strb	r2, [r3]
 2024 0022 08BD     		pop	{r3, pc}
 2025              	.L137:
 2026              		.align	2
 2027              	.L136:
 2028 0024 08430040 		.word	1073758984
 2029 0028 82430040 		.word	1073759106
 2030              		.cfi_endproc
ARM GAS  C:\Users\Ian\AppData\Local\Temp\ccxtF1i6.s 			page 74


 2031              	.LFE9:
 2032              		.size	CyPmOppsSet, .-CyPmOppsSet
 2033              		.section	.text.CyPmFtwSetInterval,"ax",%progbits
 2034              		.align	2
 2035              		.global	CyPmFtwSetInterval
 2036              		.thumb
 2037              		.thumb_func
 2038              		.type	CyPmFtwSetInterval, %function
 2039              	CyPmFtwSetInterval:
 2040              	.LFB10:
1525:.\Generated_Source\PSoC5/cyPm.c ****     /* Disable FTW interrupt enable */
 2041              		.loc 1 1525 0
 2042              		.cfi_startproc
 2043              		@ args = 0, pretend = 0, frame = 0
 2044              		@ frame_needed = 0, uses_anonymous_args = 0
 2045              	.LVL89:
 2046 0000 38B5     		push	{r3, r4, r5, lr}
 2047              		.cfi_def_cfa_offset 16
 2048              		.cfi_offset 3, -16
 2049              		.cfi_offset 4, -12
 2050              		.cfi_offset 5, -8
 2051              		.cfi_offset 14, -4
 2052 0002 0546     		mov	r5, r0
1527:.\Generated_Source\PSoC5/cyPm.c **** 
 2053              		.loc 1 1527 0
 2054 0004 134C     		ldr	r4, .L143
 2055 0006 2378     		ldrb	r3, [r4]	@ zero_extendqisi2
 2056 0008 03F0FD03 		and	r3, r3, #253
 2057 000c 2370     		strb	r3, [r4]
1530:.\Generated_Source\PSoC5/cyPm.c **** 
 2058              		.loc 1 1530 0
 2059 000e FFF7FEFF 		bl	CyILO_Start100K
 2060              	.LVL90:
1533:.\Generated_Source\PSoC5/cyPm.c ****     {
 2061              		.loc 1 1533 0
 2062 0012 2378     		ldrb	r3, [r4]	@ zero_extendqisi2
 2063 0014 13F0010F 		tst	r3, #1
 2064 0018 0FD0     		beq	.L139
1536:.\Generated_Source\PSoC5/cyPm.c ****         {
 2065              		.loc 1 1536 0
 2066 001a 0F4B     		ldr	r3, .L143+4
 2067 001c 1B78     		ldrb	r3, [r3]	@ zero_extendqisi2
 2068 001e DBB2     		uxtb	r3, r3
 2069 0020 AB42     		cmp	r3, r5
 2070 0022 16D0     		beq	.L138
1539:.\Generated_Source\PSoC5/cyPm.c ****             CY_PM_TW_CFG0_REG = ftwInterval;
 2071              		.loc 1 1539 0
 2072 0024 2278     		ldrb	r2, [r4]	@ zero_extendqisi2
 2073 0026 02F0FE02 		and	r2, r2, #254
 2074 002a 2270     		strb	r2, [r4]
1540:.\Generated_Source\PSoC5/cyPm.c ****             CY_PM_TW_CFG2_REG |= CY_PM_FTW_EN;
 2075              		.loc 1 1540 0
 2076 002c 0A4A     		ldr	r2, .L143+4
 2077 002e 1570     		strb	r5, [r2]
1541:.\Generated_Source\PSoC5/cyPm.c ****         }   /* Required interval is already set */
 2078              		.loc 1 1541 0
 2079 0030 2278     		ldrb	r2, [r4]	@ zero_extendqisi2
ARM GAS  C:\Users\Ian\AppData\Local\Temp\ccxtF1i6.s 			page 75


 2080 0032 42F00102 		orr	r2, r2, #1
 2081 0036 2270     		strb	r2, [r4]
 2082 0038 38BD     		pop	{r3, r4, r5, pc}
 2083              	.L139:
1547:.\Generated_Source\PSoC5/cyPm.c ****         {
 2084              		.loc 1 1547 0
 2085 003a 074B     		ldr	r3, .L143+4
 2086 003c 1B78     		ldrb	r3, [r3]	@ zero_extendqisi2
 2087 003e DBB2     		uxtb	r3, r3
 2088 0040 AB42     		cmp	r3, r5
 2089 0042 01D0     		beq	.L141
1550:.\Generated_Source\PSoC5/cyPm.c ****         }   /* Required interval is already set */
 2090              		.loc 1 1550 0
 2091 0044 044B     		ldr	r3, .L143+4
 2092 0046 1D70     		strb	r5, [r3]
 2093              	.L141:
1554:.\Generated_Source\PSoC5/cyPm.c ****     }
 2094              		.loc 1 1554 0
 2095 0048 024A     		ldr	r2, .L143
 2096 004a 1378     		ldrb	r3, [r2]	@ zero_extendqisi2
 2097 004c 43F00103 		orr	r3, r3, #1
 2098 0050 1370     		strb	r3, [r2]
 2099              	.L138:
 2100 0052 38BD     		pop	{r3, r4, r5, pc}
 2101              	.L144:
 2102              		.align	2
 2103              	.L143:
 2104 0054 82430040 		.word	1073759106
 2105 0058 80430040 		.word	1073759104
 2106              		.cfi_endproc
 2107              	.LFE10:
 2108              		.size	CyPmFtwSetInterval, .-CyPmFtwSetInterval
 2109              		.section	.rodata
 2110              		.align	2
 2111              		.set	.LANCHOR1,. + 0
 2112              		.type	cyPmImoFreqReg2Mhz, %object
 2113              		.size	cyPmImoFreqReg2Mhz, 7
 2114              	cyPmImoFreqReg2Mhz:
 2115 0000 0C       		.byte	12
 2116 0001 06       		.byte	6
 2117 0002 18       		.byte	24
 2118 0003 03       		.byte	3
 2119 0004 30       		.byte	48
 2120 0005 3E       		.byte	62
 2121 0006 4A       		.byte	74
 2122 0007 00       		.space	1
 2123              	.LC0:
 2124 0008 02       		.byte	2
 2125 0009 01       		.byte	1
 2126 000a 03       		.byte	3
 2127 000b 00       		.byte	0
 2128 000c 04       		.byte	4
 2129 000d 05       		.byte	5
 2130 000e 06       		.byte	6
 2131 000f 00       		.bss
 2132              		.align	2
 2133              		.set	.LANCHOR0,. + 0
ARM GAS  C:\Users\Ian\AppData\Local\Temp\ccxtF1i6.s 			page 76


 2134              		.type	cyPmBackup, %object
 2135              		.size	cyPmBackup, 47
 2136              	cyPmBackup:
 2137 0000 00000000 		.space	47
 2137      00000000 
 2137      00000000 
 2137      00000000 
 2137      00000000 
 2138 002f 00       		.space	1
 2139              		.type	cyPmClockBackup, %object
 2140              		.size	cyPmClockBackup, 18
 2141              	cyPmClockBackup:
 2142 0030 00000000 		.space	18
 2142      00000000 
 2142      00000000 
 2142      00000000 
 2142      0000
 2143              		.type	interruptStatus.4805, %object
 2144              		.size	interruptStatus.4805, 1
 2145              	interruptStatus.4805:
 2146 0042 00       		.space	1
 2147 0043 00       		.text
 2148              	.Letext0:
 2149              		.file 2 ".\\Generated_Source\\PSoC5\\cytypes.h"
 2150              		.file 3 ".\\Generated_Source\\PSoC5\\cyPm.h"
 2151              		.file 4 ".\\Generated_Source\\PSoC5\\CyLib.h"
 2152              		.file 5 ".\\Generated_Source\\PSoC5\\CyFlash.h"
 2153              		.section	.debug_info,"",%progbits
 2154              	.Ldebug_info0:
 2155 0000 100A0000 		.4byte	0xa10
 2156 0004 0400     		.2byte	0x4
 2157 0006 00000000 		.4byte	.Ldebug_abbrev0
 2158 000a 04       		.byte	0x4
 2159 000b 01       		.uleb128 0x1
 2160 000c 89050000 		.4byte	.LASF113
 2161 0010 01       		.byte	0x1
 2162 0011 AE010000 		.4byte	.LASF114
 2163 0015 76060000 		.4byte	.LASF115
 2164 0019 00000000 		.4byte	.Ldebug_ranges0+0
 2165 001d 00000000 		.4byte	0
 2166 0021 00000000 		.4byte	.Ldebug_line0
 2167 0025 02       		.uleb128 0x2
 2168 0026 01       		.byte	0x1
 2169 0027 06       		.byte	0x6
 2170 0028 33010000 		.4byte	.LASF0
 2171 002c 02       		.uleb128 0x2
 2172 002d 01       		.byte	0x1
 2173 002e 08       		.byte	0x8
 2174 002f 5C040000 		.4byte	.LASF1
 2175 0033 02       		.uleb128 0x2
 2176 0034 02       		.byte	0x2
 2177 0035 05       		.byte	0x5
 2178 0036 95040000 		.4byte	.LASF2
 2179 003a 02       		.uleb128 0x2
 2180 003b 02       		.byte	0x2
 2181 003c 07       		.byte	0x7
 2182 003d C1020000 		.4byte	.LASF3
ARM GAS  C:\Users\Ian\AppData\Local\Temp\ccxtF1i6.s 			page 77


 2183 0041 02       		.uleb128 0x2
 2184 0042 04       		.byte	0x4
 2185 0043 05       		.byte	0x5
 2186 0044 6C010000 		.4byte	.LASF4
 2187 0048 02       		.uleb128 0x2
 2188 0049 04       		.byte	0x4
 2189 004a 07       		.byte	0x7
 2190 004b 32020000 		.4byte	.LASF5
 2191 004f 02       		.uleb128 0x2
 2192 0050 08       		.byte	0x8
 2193 0051 05       		.byte	0x5
 2194 0052 25010000 		.4byte	.LASF6
 2195 0056 02       		.uleb128 0x2
 2196 0057 08       		.byte	0x8
 2197 0058 07       		.byte	0x7
 2198 0059 A2000000 		.4byte	.LASF7
 2199 005d 03       		.uleb128 0x3
 2200 005e 04       		.byte	0x4
 2201 005f 05       		.byte	0x5
 2202 0060 696E7400 		.ascii	"int\000"
 2203 0064 02       		.uleb128 0x2
 2204 0065 04       		.byte	0x4
 2205 0066 07       		.byte	0x7
 2206 0067 04020000 		.4byte	.LASF8
 2207 006b 04       		.uleb128 0x4
 2208 006c 87010000 		.4byte	.LASF9
 2209 0070 02       		.byte	0x2
 2210 0071 5B       		.byte	0x5b
 2211 0072 2C000000 		.4byte	0x2c
 2212 0076 04       		.uleb128 0x4
 2213 0077 14000000 		.4byte	.LASF10
 2214 007b 02       		.byte	0x2
 2215 007c 5C       		.byte	0x5c
 2216 007d 3A000000 		.4byte	0x3a
 2217 0081 04       		.uleb128 0x4
 2218 0082 CE010000 		.4byte	.LASF11
 2219 0086 02       		.byte	0x2
 2220 0087 5D       		.byte	0x5d
 2221 0088 48000000 		.4byte	0x48
 2222 008c 02       		.uleb128 0x2
 2223 008d 04       		.byte	0x4
 2224 008e 04       		.byte	0x4
 2225 008f FD030000 		.4byte	.LASF12
 2226 0093 02       		.uleb128 0x2
 2227 0094 08       		.byte	0x8
 2228 0095 04       		.byte	0x4
 2229 0096 A7010000 		.4byte	.LASF13
 2230 009a 02       		.uleb128 0x2
 2231 009b 01       		.byte	0x1
 2232 009c 08       		.byte	0x8
 2233 009d BF040000 		.4byte	.LASF14
 2234 00a1 04       		.uleb128 0x4
 2235 00a2 6D060000 		.4byte	.LASF15
 2236 00a6 02       		.byte	0x2
 2237 00a7 E8       		.byte	0xe8
 2238 00a8 48000000 		.4byte	0x48
 2239 00ac 04       		.uleb128 0x4
ARM GAS  C:\Users\Ian\AppData\Local\Temp\ccxtF1i6.s 			page 78


 2240 00ad 44040000 		.4byte	.LASF16
 2241 00b1 02       		.byte	0x2
 2242 00b2 F0       		.byte	0xf0
 2243 00b3 B7000000 		.4byte	0xb7
 2244 00b7 05       		.uleb128 0x5
 2245 00b8 6B000000 		.4byte	0x6b
 2246 00bc 02       		.uleb128 0x2
 2247 00bd 04       		.byte	0x4
 2248 00be 07       		.byte	0x7
 2249 00bf 86030000 		.4byte	.LASF17
 2250 00c3 06       		.uleb128 0x6
 2251 00c4 4B020000 		.4byte	.LASF34
 2252 00c8 12       		.byte	0x12
 2253 00c9 03       		.byte	0x3
 2254 00ca F1       		.byte	0xf1
 2255 00cb 87010000 		.4byte	0x187
 2256 00cf 07       		.uleb128 0x7
 2257 00d0 A2030000 		.4byte	.LASF18
 2258 00d4 03       		.byte	0x3
 2259 00d5 F4       		.byte	0xf4
 2260 00d6 6B000000 		.4byte	0x6b
 2261 00da 00       		.byte	0
 2262 00db 07       		.uleb128 0x7
 2263 00dc A9030000 		.4byte	.LASF19
 2264 00e0 03       		.byte	0x3
 2265 00e1 F5       		.byte	0xf5
 2266 00e2 6B000000 		.4byte	0x6b
 2267 00e6 01       		.byte	0x1
 2268 00e7 07       		.uleb128 0x7
 2269 00e8 51000000 		.4byte	.LASF20
 2270 00ec 03       		.byte	0x3
 2271 00ed F6       		.byte	0xf6
 2272 00ee 6B000000 		.4byte	0x6b
 2273 00f2 02       		.byte	0x2
 2274 00f3 07       		.uleb128 0x7
 2275 00f4 2A020000 		.4byte	.LASF21
 2276 00f8 03       		.byte	0x3
 2277 00f9 F7       		.byte	0xf7
 2278 00fa 6B000000 		.4byte	0x6b
 2279 00fe 03       		.byte	0x3
 2280 00ff 07       		.uleb128 0x7
 2281 0100 E2000000 		.4byte	.LASF22
 2282 0104 03       		.byte	0x3
 2283 0105 F8       		.byte	0xf8
 2284 0106 6B000000 		.4byte	0x6b
 2285 010a 04       		.byte	0x4
 2286 010b 07       		.uleb128 0x7
 2287 010c E0020000 		.4byte	.LASF23
 2288 0110 03       		.byte	0x3
 2289 0111 F9       		.byte	0xf9
 2290 0112 6B000000 		.4byte	0x6b
 2291 0116 05       		.byte	0x5
 2292 0117 07       		.uleb128 0x7
 2293 0118 29070000 		.4byte	.LASF24
 2294 011c 03       		.byte	0x3
 2295 011d FA       		.byte	0xfa
 2296 011e 6B000000 		.4byte	0x6b
ARM GAS  C:\Users\Ian\AppData\Local\Temp\ccxtF1i6.s 			page 79


 2297 0122 06       		.byte	0x6
 2298 0123 07       		.uleb128 0x7
 2299 0124 F3030000 		.4byte	.LASF25
 2300 0128 03       		.byte	0x3
 2301 0129 FB       		.byte	0xfb
 2302 012a 6B000000 		.4byte	0x6b
 2303 012e 07       		.byte	0x7
 2304 012f 07       		.uleb128 0x7
 2305 0130 40030000 		.4byte	.LASF26
 2306 0134 03       		.byte	0x3
 2307 0135 FC       		.byte	0xfc
 2308 0136 6B000000 		.4byte	0x6b
 2309 013a 08       		.byte	0x8
 2310 013b 07       		.uleb128 0x7
 2311 013c 66010000 		.4byte	.LASF27
 2312 0140 03       		.byte	0x3
 2313 0141 FD       		.byte	0xfd
 2314 0142 6B000000 		.4byte	0x6b
 2315 0146 09       		.byte	0x9
 2316 0147 07       		.uleb128 0x7
 2317 0148 85000000 		.4byte	.LASF28
 2318 014c 03       		.byte	0x3
 2319 014d FE       		.byte	0xfe
 2320 014e 6B000000 		.4byte	0x6b
 2321 0152 0A       		.byte	0xa
 2322 0153 07       		.uleb128 0x7
 2323 0154 3F010000 		.4byte	.LASF29
 2324 0158 03       		.byte	0x3
 2325 0159 FF       		.byte	0xff
 2326 015a 76000000 		.4byte	0x76
 2327 015e 0C       		.byte	0xc
 2328 015f 08       		.uleb128 0x8
 2329 0160 7A040000 		.4byte	.LASF30
 2330 0164 03       		.byte	0x3
 2331 0165 0001     		.2byte	0x100
 2332 0167 6B000000 		.4byte	0x6b
 2333 016b 0E       		.byte	0xe
 2334 016c 08       		.uleb128 0x8
 2335 016d D5010000 		.4byte	.LASF31
 2336 0171 03       		.byte	0x3
 2337 0172 0101     		.2byte	0x101
 2338 0174 6B000000 		.4byte	0x6b
 2339 0178 0F       		.byte	0xf
 2340 0179 08       		.uleb128 0x8
 2341 017a 62050000 		.4byte	.LASF32
 2342 017e 03       		.byte	0x3
 2343 017f 0201     		.2byte	0x102
 2344 0181 6B000000 		.4byte	0x6b
 2345 0185 10       		.byte	0x10
 2346 0186 00       		.byte	0
 2347 0187 09       		.uleb128 0x9
 2348 0188 A7020000 		.4byte	.LASF33
 2349 018c 03       		.byte	0x3
 2350 018d 0401     		.2byte	0x104
 2351 018f C3000000 		.4byte	0xc3
 2352 0193 0A       		.uleb128 0xa
 2353 0194 78020000 		.4byte	.LASF35
ARM GAS  C:\Users\Ian\AppData\Local\Temp\ccxtF1i6.s 			page 80


 2354 0198 2F       		.byte	0x2f
 2355 0199 03       		.byte	0x3
 2356 019a 0701     		.2byte	0x107
 2357 019c A5020000 		.4byte	0x2a5
 2358 01a0 08       		.uleb128 0x8
 2359 01a1 18010000 		.4byte	.LASF36
 2360 01a5 03       		.byte	0x3
 2361 01a6 0901     		.2byte	0x109
 2362 01a8 6B000000 		.4byte	0x6b
 2363 01ac 00       		.byte	0
 2364 01ad 08       		.uleb128 0x8
 2365 01ae 89040000 		.4byte	.LASF37
 2366 01b2 03       		.byte	0x3
 2367 01b3 0A01     		.2byte	0x10a
 2368 01b5 6B000000 		.4byte	0x6b
 2369 01b9 01       		.byte	0x1
 2370 01ba 08       		.uleb128 0x8
 2371 01bb B1040000 		.4byte	.LASF38
 2372 01bf 03       		.byte	0x3
 2373 01c0 0B01     		.2byte	0x10b
 2374 01c2 6B000000 		.4byte	0x6b
 2375 01c6 02       		.byte	0x2
 2376 01c7 08       		.uleb128 0x8
 2377 01c8 66030000 		.4byte	.LASF39
 2378 01cc 03       		.byte	0x3
 2379 01cd 0D01     		.2byte	0x10d
 2380 01cf 6B000000 		.4byte	0x6b
 2381 01d3 03       		.byte	0x3
 2382 01d4 08       		.uleb128 0x8
 2383 01d5 06030000 		.4byte	.LASF40
 2384 01d9 03       		.byte	0x3
 2385 01da 1701     		.2byte	0x117
 2386 01dc 6B000000 		.4byte	0x6b
 2387 01e0 04       		.byte	0x4
 2388 01e1 08       		.uleb128 0x8
 2389 01e2 11030000 		.4byte	.LASF41
 2390 01e6 03       		.byte	0x3
 2391 01e7 1801     		.2byte	0x118
 2392 01e9 6B000000 		.4byte	0x6b
 2393 01ed 05       		.byte	0x5
 2394 01ee 08       		.uleb128 0x8
 2395 01ef 1C030000 		.4byte	.LASF42
 2396 01f3 03       		.byte	0x3
 2397 01f4 1901     		.2byte	0x119
 2398 01f6 6B000000 		.4byte	0x6b
 2399 01fa 06       		.byte	0x6
 2400 01fb 08       		.uleb128 0x8
 2401 01fc 39000000 		.4byte	.LASF43
 2402 0200 03       		.byte	0x3
 2403 0201 1B01     		.2byte	0x11b
 2404 0203 6B000000 		.4byte	0x6b
 2405 0207 07       		.byte	0x7
 2406 0208 08       		.uleb128 0x8
 2407 0209 45000000 		.4byte	.LASF44
 2408 020d 03       		.byte	0x3
 2409 020e 1C01     		.2byte	0x11c
 2410 0210 6B000000 		.4byte	0x6b
ARM GAS  C:\Users\Ian\AppData\Local\Temp\ccxtF1i6.s 			page 81


 2411 0214 08       		.byte	0x8
 2412 0215 08       		.uleb128 0x8
 2413 0216 11020000 		.4byte	.LASF45
 2414 021a 03       		.byte	0x3
 2415 021b 1E01     		.2byte	0x11e
 2416 021d A5020000 		.4byte	0x2a5
 2417 0221 09       		.byte	0x9
 2418 0222 08       		.uleb128 0x8
 2419 0223 44020000 		.4byte	.LASF46
 2420 0227 03       		.byte	0x3
 2421 0228 2101     		.2byte	0x121
 2422 022a 6B000000 		.4byte	0x6b
 2423 022e 25       		.byte	0x25
 2424 022f 08       		.uleb128 0x8
 2425 0230 20070000 		.4byte	.LASF47
 2426 0234 03       		.byte	0x3
 2427 0235 2201     		.2byte	0x122
 2428 0237 6B000000 		.4byte	0x6b
 2429 023b 26       		.byte	0x26
 2430 023c 08       		.uleb128 0x8
 2431 023d 17060000 		.4byte	.LASF48
 2432 0241 03       		.byte	0x3
 2433 0242 2301     		.2byte	0x123
 2434 0244 6B000000 		.4byte	0x6b
 2435 0248 27       		.byte	0x27
 2436 0249 08       		.uleb128 0x8
 2437 024a D9000000 		.4byte	.LASF49
 2438 024e 03       		.byte	0x3
 2439 024f 2401     		.2byte	0x124
 2440 0251 6B000000 		.4byte	0x6b
 2441 0255 28       		.byte	0x28
 2442 0256 08       		.uleb128 0x8
 2443 0257 FF000000 		.4byte	.LASF50
 2444 025b 03       		.byte	0x3
 2445 025c 2501     		.2byte	0x125
 2446 025e 6B000000 		.4byte	0x6b
 2447 0262 29       		.byte	0x29
 2448 0263 08       		.uleb128 0x8
 2449 0264 23040000 		.4byte	.LASF51
 2450 0268 03       		.byte	0x3
 2451 0269 2601     		.2byte	0x126
 2452 026b 6B000000 		.4byte	0x6b
 2453 026f 2A       		.byte	0x2a
 2454 0270 08       		.uleb128 0x8
 2455 0271 EE060000 		.4byte	.LASF52
 2456 0275 03       		.byte	0x3
 2457 0276 2701     		.2byte	0x127
 2458 0278 6B000000 		.4byte	0x6b
 2459 027c 2B       		.byte	0x2b
 2460 027d 08       		.uleb128 0x8
 2461 027e F9010000 		.4byte	.LASF53
 2462 0282 03       		.byte	0x3
 2463 0283 2901     		.2byte	0x129
 2464 0285 6B000000 		.4byte	0x6b
 2465 0289 2C       		.byte	0x2c
 2466 028a 08       		.uleb128 0x8
 2467 028b EC040000 		.4byte	.LASF54
ARM GAS  C:\Users\Ian\AppData\Local\Temp\ccxtF1i6.s 			page 82


 2468 028f 03       		.byte	0x3
 2469 0290 2A01     		.2byte	0x12a
 2470 0292 6B000000 		.4byte	0x6b
 2471 0296 2D       		.byte	0x2d
 2472 0297 08       		.uleb128 0x8
 2473 0298 34030000 		.4byte	.LASF55
 2474 029c 03       		.byte	0x3
 2475 029d 2C01     		.2byte	0x12c
 2476 029f 6B000000 		.4byte	0x6b
 2477 02a3 2E       		.byte	0x2e
 2478 02a4 00       		.byte	0
 2479 02a5 0B       		.uleb128 0xb
 2480 02a6 6B000000 		.4byte	0x6b
 2481 02aa B5020000 		.4byte	0x2b5
 2482 02ae 0C       		.uleb128 0xc
 2483 02af BC000000 		.4byte	0xbc
 2484 02b3 1B       		.byte	0x1b
 2485 02b4 00       		.byte	0
 2486 02b5 09       		.uleb128 0x9
 2487 02b6 5E000000 		.4byte	.LASF56
 2488 02ba 03       		.byte	0x3
 2489 02bb 2E01     		.2byte	0x12e
 2490 02bd 93010000 		.4byte	0x193
 2491 02c1 0D       		.uleb128 0xd
 2492 02c2 9F040000 		.4byte	.LASF57
 2493 02c6 01       		.byte	0x1
 2494 02c7 2D06     		.2byte	0x62d
 2495 02c9 00000000 		.4byte	.LFB11
 2496 02cd DC010000 		.4byte	.LFE11-.LFB11
 2497 02d1 01       		.uleb128 0x1
 2498 02d2 9C       		.byte	0x9c
 2499 02d3 0D       		.uleb128 0xd
 2500 02d4 27000000 		.4byte	.LASF58
 2501 02d8 01       		.byte	0x1
 2502 02d9 B006     		.2byte	0x6b0
 2503 02db 00000000 		.4byte	.LFB12
 2504 02df D4000000 		.4byte	.LFE12-.LFB12
 2505 02e3 01       		.uleb128 0x1
 2506 02e4 9C       		.byte	0x9c
 2507 02e5 0E       		.uleb128 0xe
 2508 02e6 B9000000 		.4byte	.LASF59
 2509 02ea 01       		.byte	0x1
 2510 02eb FD06     		.2byte	0x6fd
 2511 02ed 00000000 		.4byte	.LFB13
 2512 02f1 A0000000 		.4byte	.LFE13-.LFB13
 2513 02f5 01       		.uleb128 0x1
 2514 02f6 9C       		.byte	0x9c
 2515 02f7 17030000 		.4byte	0x317
 2516 02fb 0F       		.uleb128 0xf
 2517 02fc 30000000 		.4byte	.LVL0
 2518 0300 8E080000 		.4byte	0x88e
 2519 0304 0F       		.uleb128 0xf
 2520 0305 64000000 		.4byte	.LVL1
 2521 0309 95080000 		.4byte	0x895
 2522 030d 0F       		.uleb128 0xf
 2523 030e 84000000 		.4byte	.LVL2
 2524 0312 9C080000 		.4byte	0x89c
ARM GAS  C:\Users\Ian\AppData\Local\Temp\ccxtF1i6.s 			page 83


 2525 0316 00       		.byte	0
 2526 0317 0E       		.uleb128 0xe
 2527 0318 40060000 		.4byte	.LASF60
 2528 031c 01       		.byte	0x1
 2529 031d 0405     		.2byte	0x504
 2530 031f 00000000 		.4byte	.LFB6
 2531 0323 8C000000 		.4byte	.LFE6-.LFB6
 2532 0327 01       		.uleb128 0x1
 2533 0328 9C       		.byte	0x9c
 2534 0329 53030000 		.4byte	0x353
 2535 032d 10       		.uleb128 0x10
 2536 032e 1C000000 		.4byte	.LVL3
 2537 0332 A3080000 		.4byte	0x8a3
 2538 0336 40030000 		.4byte	0x340
 2539 033a 11       		.uleb128 0x11
 2540 033b 01       		.uleb128 0x1
 2541 033c 50       		.byte	0x50
 2542 033d 01       		.uleb128 0x1
 2543 033e 31       		.byte	0x31
 2544 033f 00       		.byte	0
 2545 0340 0F       		.uleb128 0xf
 2546 0341 58000000 		.4byte	.LVL4
 2547 0345 E5020000 		.4byte	0x2e5
 2548 0349 0F       		.uleb128 0xf
 2549 034a 5C000000 		.4byte	.LVL5
 2550 034e C1020000 		.4byte	0x2c1
 2551 0352 00       		.byte	0
 2552 0353 0E       		.uleb128 0xe
 2553 0354 75010000 		.4byte	.LASF61
 2554 0358 01       		.byte	0x1
 2555 0359 3C07     		.2byte	0x73c
 2556 035b 00000000 		.4byte	.LFB14
 2557 035f 48000000 		.4byte	.LFE14-.LFB14
 2558 0363 01       		.uleb128 0x1
 2559 0364 9C       		.byte	0x9c
 2560 0365 85030000 		.4byte	0x385
 2561 0369 0F       		.uleb128 0xf
 2562 036a 1A000000 		.4byte	.LVL6
 2563 036e B8080000 		.4byte	0x8b8
 2564 0372 0F       		.uleb128 0xf
 2565 0373 32000000 		.4byte	.LVL7
 2566 0377 CE080000 		.4byte	0x8ce
 2567 037b 0F       		.uleb128 0xf
 2568 037c 40000000 		.4byte	.LVL8
 2569 0380 E4080000 		.4byte	0x8e4
 2570 0384 00       		.byte	0
 2571 0385 0E       		.uleb128 0xe
 2572 0386 E5010000 		.4byte	.LASF62
 2573 038a 01       		.byte	0x1
 2574 038b 5E05     		.2byte	0x55e
 2575 038d 00000000 		.4byte	.LFB7
 2576 0391 58000000 		.4byte	.LFE7-.LFB7
 2577 0395 01       		.uleb128 0x1
 2578 0396 9C       		.byte	0x9c
 2579 0397 C9030000 		.4byte	0x3c9
 2580 039b 0F       		.uleb128 0xf
 2581 039c 06000000 		.4byte	.LVL9
ARM GAS  C:\Users\Ian\AppData\Local\Temp\ccxtF1i6.s 			page 84


 2582 03a0 53030000 		.4byte	0x353
 2583 03a4 0F       		.uleb128 0xf
 2584 03a5 0A000000 		.4byte	.LVL10
 2585 03a9 D3020000 		.4byte	0x2d3
 2586 03ad 0F       		.uleb128 0xf
 2587 03ae 16000000 		.4byte	.LVL11
 2588 03b2 EB080000 		.4byte	0x8eb
 2589 03b6 0F       		.uleb128 0xf
 2590 03b7 22000000 		.4byte	.LVL12
 2591 03bb F2080000 		.4byte	0x8f2
 2592 03bf 0F       		.uleb128 0xf
 2593 03c0 2A000000 		.4byte	.LVL13
 2594 03c4 A3080000 		.4byte	0x8a3
 2595 03c8 00       		.byte	0
 2596 03c9 12       		.uleb128 0x12
 2597 03ca 4A030000 		.4byte	.LASF63
 2598 03ce 01       		.byte	0x1
 2599 03cf 50       		.byte	0x50
 2600 03d0 00000000 		.4byte	.LFB0
 2601 03d4 18020000 		.4byte	.LFE0-.LFB0
 2602 03d8 01       		.uleb128 0x1
 2603 03d9 9C       		.byte	0x9c
 2604 03da E8040000 		.4byte	0x4e8
 2605 03de 10       		.uleb128 0x10
 2606 03df 3A000000 		.4byte	.LVL14
 2607 03e3 F9080000 		.4byte	0x8f9
 2608 03e7 F2030000 		.4byte	0x3f2
 2609 03eb 11       		.uleb128 0x11
 2610 03ec 01       		.uleb128 0x1
 2611 03ed 50       		.byte	0x50
 2612 03ee 02       		.uleb128 0x2
 2613 03ef 08       		.byte	0x8
 2614 03f0 37       		.byte	0x37
 2615 03f1 00       		.byte	0
 2616 03f2 10       		.uleb128 0x10
 2617 03f3 96000000 		.4byte	.LVL15
 2618 03f7 0A090000 		.4byte	0x90a
 2619 03fb 05040000 		.4byte	0x405
 2620 03ff 11       		.uleb128 0x11
 2621 0400 01       		.uleb128 0x1
 2622 0401 50       		.byte	0x50
 2623 0402 01       		.uleb128 0x1
 2624 0403 30       		.byte	0x30
 2625 0404 00       		.byte	0
 2626 0405 10       		.uleb128 0x10
 2627 0406 9E000000 		.4byte	.LVL16
 2628 040a 0A090000 		.4byte	0x90a
 2629 040e 18040000 		.4byte	0x418
 2630 0412 11       		.uleb128 0x11
 2631 0413 01       		.uleb128 0x1
 2632 0414 50       		.byte	0x50
 2633 0415 01       		.uleb128 0x1
 2634 0416 32       		.byte	0x32
 2635 0417 00       		.byte	0
 2636 0418 10       		.uleb128 0x10
 2637 0419 A6000000 		.4byte	.LVL17
 2638 041d 0A090000 		.4byte	0x90a
ARM GAS  C:\Users\Ian\AppData\Local\Temp\ccxtF1i6.s 			page 85


 2639 0421 2B040000 		.4byte	0x42b
 2640 0425 11       		.uleb128 0x11
 2641 0426 01       		.uleb128 0x1
 2642 0427 50       		.byte	0x50
 2643 0428 01       		.uleb128 0x1
 2644 0429 33       		.byte	0x33
 2645 042a 00       		.byte	0
 2646 042b 10       		.uleb128 0x10
 2647 042c AE000000 		.4byte	.LVL18
 2648 0430 1B090000 		.4byte	0x91b
 2649 0434 3E040000 		.4byte	0x43e
 2650 0438 11       		.uleb128 0x11
 2651 0439 01       		.uleb128 0x1
 2652 043a 50       		.byte	0x50
 2653 043b 01       		.uleb128 0x1
 2654 043c 30       		.byte	0x30
 2655 043d 00       		.byte	0
 2656 043e 0F       		.uleb128 0xf
 2657 043f C4000000 		.4byte	.LVL19
 2658 0443 2C090000 		.4byte	0x92c
 2659 0447 10       		.uleb128 0x10
 2660 0448 D4000000 		.4byte	.LVL20
 2661 044c 33090000 		.4byte	0x933
 2662 0450 5A040000 		.4byte	0x45a
 2663 0454 11       		.uleb128 0x11
 2664 0455 01       		.uleb128 0x1
 2665 0456 50       		.byte	0x50
 2666 0457 01       		.uleb128 0x1
 2667 0458 34       		.byte	0x34
 2668 0459 00       		.byte	0
 2669 045a 10       		.uleb128 0x10
 2670 045b F4000000 		.4byte	.LVL21
 2671 045f 44090000 		.4byte	0x944
 2672 0463 6D040000 		.4byte	0x46d
 2673 0467 11       		.uleb128 0x11
 2674 0468 01       		.uleb128 0x1
 2675 0469 50       		.byte	0x50
 2676 046a 01       		.uleb128 0x1
 2677 046b 30       		.byte	0x30
 2678 046c 00       		.byte	0
 2679 046d 10       		.uleb128 0x10
 2680 046e FA000000 		.4byte	.LVL22
 2681 0472 55090000 		.4byte	0x955
 2682 0476 80040000 		.4byte	0x480
 2683 047a 11       		.uleb128 0x11
 2684 047b 01       		.uleb128 0x1
 2685 047c 50       		.byte	0x50
 2686 047d 01       		.uleb128 0x1
 2687 047e 36       		.byte	0x36
 2688 047f 00       		.byte	0
 2689 0480 10       		.uleb128 0x10
 2690 0481 22010000 		.4byte	.LVL23
 2691 0485 66090000 		.4byte	0x966
 2692 0489 93040000 		.4byte	0x493
 2693 048d 11       		.uleb128 0x11
 2694 048e 01       		.uleb128 0x1
 2695 048f 50       		.byte	0x50
ARM GAS  C:\Users\Ian\AppData\Local\Temp\ccxtF1i6.s 			page 86


 2696 0490 01       		.uleb128 0x1
 2697 0491 30       		.byte	0x30
 2698 0492 00       		.byte	0
 2699 0493 0F       		.uleb128 0xf
 2700 0494 58010000 		.4byte	.LVL24
 2701 0498 77090000 		.4byte	0x977
 2702 049c 10       		.uleb128 0x10
 2703 049d 6C010000 		.4byte	.LVL25
 2704 04a1 7E090000 		.4byte	0x97e
 2705 04a5 AF040000 		.4byte	0x4af
 2706 04a9 11       		.uleb128 0x11
 2707 04aa 01       		.uleb128 0x1
 2708 04ab 50       		.byte	0x50
 2709 04ac 01       		.uleb128 0x1
 2710 04ad 30       		.byte	0x30
 2711 04ae 00       		.byte	0
 2712 04af 10       		.uleb128 0x10
 2713 04b0 7A010000 		.4byte	.LVL26
 2714 04b4 0A090000 		.4byte	0x90a
 2715 04b8 C2040000 		.4byte	0x4c2
 2716 04bc 11       		.uleb128 0x11
 2717 04bd 01       		.uleb128 0x1
 2718 04be 50       		.byte	0x50
 2719 04bf 01       		.uleb128 0x1
 2720 04c0 30       		.byte	0x30
 2721 04c1 00       		.byte	0
 2722 04c2 10       		.uleb128 0x10
 2723 04c3 94010000 		.4byte	.LVL27
 2724 04c7 8F090000 		.4byte	0x98f
 2725 04cb D5040000 		.4byte	0x4d5
 2726 04cf 11       		.uleb128 0x11
 2727 04d0 01       		.uleb128 0x1
 2728 04d1 50       		.byte	0x50
 2729 04d2 01       		.uleb128 0x1
 2730 04d3 30       		.byte	0x30
 2731 04d4 00       		.byte	0
 2732 04d5 0F       		.uleb128 0xf
 2733 04d6 A4010000 		.4byte	.LVL28
 2734 04da F9080000 		.4byte	0x8f9
 2735 04de 0F       		.uleb128 0xf
 2736 04df BA010000 		.4byte	.LVL29
 2737 04e3 A0090000 		.4byte	0x9a0
 2738 04e7 00       		.byte	0
 2739 04e8 13       		.uleb128 0x13
 2740 04e9 90000000 		.4byte	.LASF64
 2741 04ed 01       		.byte	0x1
 2742 04ee 1A01     		.2byte	0x11a
 2743 04f0 00000000 		.4byte	.LFB1
 2744 04f4 4C020000 		.4byte	.LFE1-.LFB1
 2745 04f8 01       		.uleb128 0x1
 2746 04f9 9C       		.byte	0x9c
 2747 04fa 23060000 		.4byte	0x623
 2748 04fe 14       		.uleb128 0x14
 2749 04ff 82050000 		.4byte	.LASF65
 2750 0503 01       		.byte	0x1
 2751 0504 1C01     		.2byte	0x11c
 2752 0506 A1000000 		.4byte	0xa1
ARM GAS  C:\Users\Ian\AppData\Local\Temp\ccxtF1i6.s 			page 87


 2753 050a 10       		.byte	0x10
 2754 050b 15       		.uleb128 0x15
 2755 050c 6900     		.ascii	"i\000"
 2756 050e 01       		.byte	0x1
 2757 050f 1D01     		.2byte	0x11d
 2758 0511 76000000 		.4byte	0x76
 2759 0515 00000000 		.4byte	.LLST0
 2760 0519 16       		.uleb128 0x16
 2761 051a 27030000 		.4byte	.LASF66
 2762 051e 01       		.byte	0x1
 2763 051f 1E01     		.2byte	0x11e
 2764 0521 76000000 		.4byte	0x76
 2765 0525 4D000000 		.4byte	.LLST1
 2766 0529 17       		.uleb128 0x17
 2767 052a 8F030000 		.4byte	.LASF67
 2768 052e 01       		.byte	0x1
 2769 052f 2201     		.2byte	0x122
 2770 0531 33060000 		.4byte	0x633
 2771 0535 02       		.uleb128 0x2
 2772 0536 91       		.byte	0x91
 2773 0537 70       		.sleb128 -16
 2774 0538 0F       		.uleb128 0xf
 2775 0539 3A000000 		.4byte	.LVL31
 2776 053d A7090000 		.4byte	0x9a7
 2777 0541 10       		.uleb128 0x10
 2778 0542 54000000 		.4byte	.LVL32
 2779 0546 B8090000 		.4byte	0x9b8
 2780 054a 54050000 		.4byte	0x554
 2781 054e 11       		.uleb128 0x11
 2782 054f 01       		.uleb128 0x1
 2783 0550 50       		.byte	0x50
 2784 0551 01       		.uleb128 0x1
 2785 0552 30       		.byte	0x30
 2786 0553 00       		.byte	0
 2787 0554 0F       		.uleb128 0xf
 2788 0555 72000000 		.4byte	.LVL35
 2789 0559 A7090000 		.4byte	0x9a7
 2790 055d 10       		.uleb128 0x10
 2791 055e 8A000000 		.4byte	.LVL39
 2792 0562 F9080000 		.4byte	0x8f9
 2793 0566 71050000 		.4byte	0x571
 2794 056a 11       		.uleb128 0x11
 2795 056b 01       		.uleb128 0x1
 2796 056c 50       		.byte	0x50
 2797 056d 02       		.uleb128 0x2
 2798 056e 08       		.byte	0x8
 2799 056f 37       		.byte	0x37
 2800 0570 00       		.byte	0
 2801 0571 0F       		.uleb128 0xf
 2802 0572 AC000000 		.4byte	.LVL40
 2803 0576 7E090000 		.4byte	0x97e
 2804 057a 0F       		.uleb128 0xf
 2805 057b B6000000 		.4byte	.LVL41
 2806 057f 0A090000 		.4byte	0x90a
 2807 0583 10       		.uleb128 0x10
 2808 0584 DA000000 		.4byte	.LVL42
 2809 0588 33090000 		.4byte	0x933
ARM GAS  C:\Users\Ian\AppData\Local\Temp\ccxtF1i6.s 			page 88


 2810 058c 96050000 		.4byte	0x596
 2811 0590 11       		.uleb128 0x11
 2812 0591 01       		.uleb128 0x1
 2813 0592 50       		.byte	0x50
 2814 0593 01       		.uleb128 0x1
 2815 0594 38       		.byte	0x38
 2816 0595 00       		.byte	0
 2817 0596 0F       		.uleb128 0xf
 2818 0597 EE000000 		.4byte	.LVL43
 2819 059b 33090000 		.4byte	0x933
 2820 059f 10       		.uleb128 0x10
 2821 05a0 28010000 		.4byte	.LVL44
 2822 05a4 44090000 		.4byte	0x944
 2823 05a8 B2050000 		.4byte	0x5b2
 2824 05ac 11       		.uleb128 0x11
 2825 05ad 01       		.uleb128 0x1
 2826 05ae 50       		.byte	0x50
 2827 05af 01       		.uleb128 0x1
 2828 05b0 30       		.byte	0x30
 2829 05b1 00       		.byte	0
 2830 05b2 0F       		.uleb128 0xf
 2831 05b3 32010000 		.4byte	.LVL45
 2832 05b7 66090000 		.4byte	0x966
 2833 05bb 0F       		.uleb128 0xf
 2834 05bc 3E010000 		.4byte	.LVL46
 2835 05c0 CD090000 		.4byte	0x9cd
 2836 05c4 10       		.uleb128 0x10
 2837 05c5 70010000 		.4byte	.LVL47
 2838 05c9 D4090000 		.4byte	0x9d4
 2839 05cd D7050000 		.4byte	0x5d7
 2840 05d1 11       		.uleb128 0x11
 2841 05d2 01       		.uleb128 0x1
 2842 05d3 50       		.byte	0x50
 2843 05d4 01       		.uleb128 0x1
 2844 05d5 30       		.byte	0x30
 2845 05d6 00       		.byte	0
 2846 05d7 10       		.uleb128 0x10
 2847 05d8 76010000 		.4byte	.LVL48
 2848 05dc 55090000 		.4byte	0x955
 2849 05e0 EB050000 		.4byte	0x5eb
 2850 05e4 11       		.uleb128 0x11
 2851 05e5 01       		.uleb128 0x1
 2852 05e6 50       		.byte	0x50
 2853 05e7 02       		.uleb128 0x2
 2854 05e8 08       		.byte	0x8
 2855 05e9 50       		.byte	0x50
 2856 05ea 00       		.byte	0
 2857 05eb 10       		.uleb128 0x10
 2858 05ec 84010000 		.4byte	.LVL51
 2859 05f0 55090000 		.4byte	0x955
 2860 05f4 FE050000 		.4byte	0x5fe
 2861 05f8 11       		.uleb128 0x11
 2862 05f9 01       		.uleb128 0x1
 2863 05fa 50       		.byte	0x50
 2864 05fb 01       		.uleb128 0x1
 2865 05fc 31       		.byte	0x31
 2866 05fd 00       		.byte	0
ARM GAS  C:\Users\Ian\AppData\Local\Temp\ccxtF1i6.s 			page 89


 2867 05fe 0F       		.uleb128 0xf
 2868 05ff BE010000 		.4byte	.LVL55
 2869 0603 7E090000 		.4byte	0x97e
 2870 0607 0F       		.uleb128 0xf
 2871 0608 C8010000 		.4byte	.LVL56
 2872 060c 0A090000 		.4byte	0x90a
 2873 0610 0F       		.uleb128 0xf
 2874 0611 DE010000 		.4byte	.LVL57
 2875 0615 E9090000 		.4byte	0x9e9
 2876 0619 0F       		.uleb128 0xf
 2877 061a F6010000 		.4byte	.LVL60
 2878 061e 8F090000 		.4byte	0x98f
 2879 0622 00       		.byte	0
 2880 0623 0B       		.uleb128 0xb
 2881 0624 6B000000 		.4byte	0x6b
 2882 0628 33060000 		.4byte	0x633
 2883 062c 0C       		.uleb128 0xc
 2884 062d BC000000 		.4byte	0xbc
 2885 0631 06       		.byte	0x6
 2886 0632 00       		.byte	0
 2887 0633 18       		.uleb128 0x18
 2888 0634 23060000 		.4byte	0x623
 2889 0638 13       		.uleb128 0x13
 2890 0639 2B040000 		.4byte	.LASF68
 2891 063d 01       		.byte	0x1
 2892 063e 7C02     		.2byte	0x27c
 2893 0640 00000000 		.4byte	.LFB2
 2894 0644 6C000000 		.4byte	.LFE2-.LFB2
 2895 0648 01       		.uleb128 0x1
 2896 0649 9C       		.byte	0x9c
 2897 064a 7E060000 		.4byte	0x67e
 2898 064e 19       		.uleb128 0x19
 2899 064f 4F060000 		.4byte	.LASF69
 2900 0653 01       		.byte	0x1
 2901 0654 7C02     		.2byte	0x27c
 2902 0656 76000000 		.4byte	0x76
 2903 065a 6F000000 		.4byte	.LLST2
 2904 065e 19       		.uleb128 0x19
 2905 065f C0030000 		.4byte	.LASF70
 2906 0663 01       		.byte	0x1
 2907 0664 7C02     		.2byte	0x27c
 2908 0666 76000000 		.4byte	0x76
 2909 066a 90000000 		.4byte	.LLST3
 2910 066e 1A       		.uleb128 0x1a
 2911 066f 0C000000 		.4byte	.LVL63
 2912 0673 1B090000 		.4byte	0x91b
 2913 0677 11       		.uleb128 0x11
 2914 0678 01       		.uleb128 0x1
 2915 0679 50       		.byte	0x50
 2916 067a 01       		.uleb128 0x1
 2917 067b 30       		.byte	0x30
 2918 067c 00       		.byte	0
 2919 067d 00       		.byte	0
 2920 067e 13       		.uleb128 0x13
 2921 067f 19040000 		.4byte	.LASF71
 2922 0683 01       		.byte	0x1
 2923 0684 4803     		.2byte	0x348
ARM GAS  C:\Users\Ian\AppData\Local\Temp\ccxtF1i6.s 			page 90


 2924 0686 00000000 		.4byte	.LFB3
 2925 068a F4000000 		.4byte	.LFE3-.LFB3
 2926 068e 01       		.uleb128 0x1
 2927 068f 9C       		.byte	0x9c
 2928 0690 0C070000 		.4byte	0x70c
 2929 0694 19       		.uleb128 0x19
 2930 0695 4F060000 		.4byte	.LASF69
 2931 0699 01       		.byte	0x1
 2932 069a 4803     		.2byte	0x348
 2933 069c 6B000000 		.4byte	0x6b
 2934 06a0 B1000000 		.4byte	.LLST4
 2935 06a4 19       		.uleb128 0x19
 2936 06a5 C0030000 		.4byte	.LASF70
 2937 06a9 01       		.byte	0x1
 2938 06aa 4803     		.2byte	0x348
 2939 06ac 76000000 		.4byte	0x76
 2940 06b0 D2000000 		.4byte	.LLST5
 2941 06b4 16       		.uleb128 0x16
 2942 06b5 49010000 		.4byte	.LASF72
 2943 06b9 01       		.byte	0x1
 2944 06ba 4A03     		.2byte	0x34a
 2945 06bc 6B000000 		.4byte	0x6b
 2946 06c0 F3000000 		.4byte	.LLST6
 2947 06c4 0F       		.uleb128 0xf
 2948 06c5 0A000000 		.4byte	.LVL65
 2949 06c9 F0090000 		.4byte	0x9f0
 2950 06cd 0F       		.uleb128 0xf
 2951 06ce 28000000 		.4byte	.LVL67
 2952 06d2 FB090000 		.4byte	0x9fb
 2953 06d6 10       		.uleb128 0x10
 2954 06d7 30000000 		.4byte	.LVL70
 2955 06db 1B090000 		.4byte	0x91b
 2956 06df E9060000 		.4byte	0x6e9
 2957 06e3 11       		.uleb128 0x11
 2958 06e4 01       		.uleb128 0x1
 2959 06e5 50       		.byte	0x50
 2960 06e6 01       		.uleb128 0x1
 2961 06e7 30       		.byte	0x30
 2962 06e8 00       		.byte	0
 2963 06e9 0F       		.uleb128 0xf
 2964 06ea 34000000 		.4byte	.LVL71
 2965 06ee C1020000 		.4byte	0x2c1
 2966 06f2 0F       		.uleb128 0xf
 2967 06f3 C0000000 		.4byte	.LVL72
 2968 06f7 D3020000 		.4byte	0x2d3
 2969 06fb 1A       		.uleb128 0x1a
 2970 06fc DA000000 		.4byte	.LVL73
 2971 0700 FB090000 		.4byte	0x9fb
 2972 0704 11       		.uleb128 0x11
 2973 0705 01       		.uleb128 0x1
 2974 0706 50       		.byte	0x50
 2975 0707 02       		.uleb128 0x2
 2976 0708 75       		.byte	0x75
 2977 0709 00       		.sleb128 0
 2978 070a 00       		.byte	0
 2979 070b 00       		.byte	0
 2980 070c 13       		.uleb128 0x13
ARM GAS  C:\Users\Ian\AppData\Local\Temp\ccxtF1i6.s 			page 91


 2981 070d FC040000 		.4byte	.LASF73
 2982 0711 01       		.byte	0x1
 2983 0712 5804     		.2byte	0x458
 2984 0714 00000000 		.4byte	.LFB4
 2985 0718 E0000000 		.4byte	.LFE4-.LFB4
 2986 071c 01       		.uleb128 0x1
 2987 071d 9C       		.byte	0x9c
 2988 071e 67070000 		.4byte	0x767
 2989 0722 16       		.uleb128 0x16
 2990 0723 49010000 		.4byte	.LASF72
 2991 0727 01       		.byte	0x1
 2992 0728 5A04     		.2byte	0x45a
 2993 072a 6B000000 		.4byte	0x6b
 2994 072e 11010000 		.4byte	.LLST7
 2995 0732 0F       		.uleb128 0xf
 2996 0733 06000000 		.4byte	.LVL74
 2997 0737 F0090000 		.4byte	0x9f0
 2998 073b 0F       		.uleb128 0xf
 2999 073c 20000000 		.4byte	.LVL76
 3000 0740 17030000 		.4byte	0x317
 3001 0744 0F       		.uleb128 0xf
 3002 0745 4E000000 		.4byte	.LVL78
 3003 0749 FB090000 		.4byte	0x9fb
 3004 074d 0F       		.uleb128 0xf
 3005 074e AC000000 		.4byte	.LVL79
 3006 0752 85030000 		.4byte	0x385
 3007 0756 1A       		.uleb128 0x1a
 3008 0757 C6000000 		.4byte	.LVL80
 3009 075b FB090000 		.4byte	0x9fb
 3010 075f 11       		.uleb128 0x11
 3011 0760 01       		.uleb128 0x1
 3012 0761 50       		.byte	0x50
 3013 0762 02       		.uleb128 0x2
 3014 0763 74       		.byte	0x74
 3015 0764 00       		.sleb128 0
 3016 0765 00       		.byte	0
 3017 0766 00       		.byte	0
 3018 0767 1B       		.uleb128 0x1b
 3019 0768 3F050000 		.4byte	.LASF116
 3020 076c 01       		.byte	0x1
 3021 076d D804     		.2byte	0x4d8
 3022 076f 6B000000 		.4byte	0x6b
 3023 0773 00000000 		.4byte	.LFB5
 3024 0777 2C000000 		.4byte	.LFE5-.LFB5
 3025 077b 01       		.uleb128 0x1
 3026 077c 9C       		.byte	0x9c
 3027 077d D6070000 		.4byte	0x7d6
 3028 0781 19       		.uleb128 0x19
 3029 0782 F4010000 		.4byte	.LASF74
 3030 0786 01       		.byte	0x1
 3031 0787 D804     		.2byte	0x4d8
 3032 0789 6B000000 		.4byte	0x6b
 3033 078d 2F010000 		.4byte	.LLST8
 3034 0791 17       		.uleb128 0x17
 3035 0792 33070000 		.4byte	.LASF75
 3036 0796 01       		.byte	0x1
 3037 0797 DA04     		.2byte	0x4da
ARM GAS  C:\Users\Ian\AppData\Local\Temp\ccxtF1i6.s 			page 92


 3038 0799 6B000000 		.4byte	0x6b
 3039 079d 05       		.uleb128 0x5
 3040 079e 03       		.byte	0x3
 3041 079f 42000000 		.4byte	interruptStatus.4805
 3042 07a3 16       		.uleb128 0x16
 3043 07a4 49010000 		.4byte	.LASF72
 3044 07a8 01       		.byte	0x1
 3045 07a9 DB04     		.2byte	0x4db
 3046 07ab 6B000000 		.4byte	0x6b
 3047 07af 50010000 		.4byte	.LLST9
 3048 07b3 16       		.uleb128 0x16
 3049 07b4 CF000000 		.4byte	.LASF76
 3050 07b8 01       		.byte	0x1
 3051 07b9 DC04     		.2byte	0x4dc
 3052 07bb 6B000000 		.4byte	0x6b
 3053 07bf 63010000 		.4byte	.LLST10
 3054 07c3 0F       		.uleb128 0xf
 3055 07c4 08000000 		.4byte	.LVL82
 3056 07c8 F0090000 		.4byte	0x9f0
 3057 07cc 0F       		.uleb128 0xf
 3058 07cd 20000000 		.4byte	.LVL84
 3059 07d1 FB090000 		.4byte	0x9fb
 3060 07d5 00       		.byte	0
 3061 07d6 13       		.uleb128 0x13
 3062 07d7 6F050000 		.4byte	.LASF77
 3063 07db 01       		.byte	0x1
 3064 07dc 9B05     		.2byte	0x59b
 3065 07de 00000000 		.4byte	.LFB8
 3066 07e2 5C000000 		.4byte	.LFE8-.LFB8
 3067 07e6 01       		.uleb128 0x1
 3068 07e7 9C       		.byte	0x9c
 3069 07e8 06080000 		.4byte	0x806
 3070 07ec 19       		.uleb128 0x19
 3071 07ed D4020000 		.4byte	.LASF78
 3072 07f1 01       		.byte	0x1
 3073 07f2 9B05     		.2byte	0x59b
 3074 07f4 6B000000 		.4byte	0x6b
 3075 07f8 81010000 		.4byte	.LLST11
 3076 07fc 0F       		.uleb128 0xf
 3077 07fd 12000000 		.4byte	.LVL87
 3078 0801 EB080000 		.4byte	0x8eb
 3079 0805 00       		.byte	0
 3080 0806 13       		.uleb128 0x13
 3081 0807 50040000 		.4byte	.LASF79
 3082 080b 01       		.byte	0x1
 3083 080c CF05     		.2byte	0x5cf
 3084 080e 00000000 		.4byte	.LFB9
 3085 0812 2C000000 		.4byte	.LFE9-.LFB9
 3086 0816 01       		.uleb128 0x1
 3087 0817 9C       		.byte	0x9c
 3088 0818 26080000 		.4byte	0x826
 3089 081c 0F       		.uleb128 0xf
 3090 081d 10000000 		.4byte	.LVL88
 3091 0821 0C0A0000 		.4byte	0xa0c
 3092 0825 00       		.byte	0
 3093 0826 13       		.uleb128 0x13
 3094 0827 EC000000 		.4byte	.LASF80
ARM GAS  C:\Users\Ian\AppData\Local\Temp\ccxtF1i6.s 			page 93


 3095 082b 01       		.byte	0x1
 3096 082c F405     		.2byte	0x5f4
 3097 082e 00000000 		.4byte	.LFB10
 3098 0832 5C000000 		.4byte	.LFE10-.LFB10
 3099 0836 01       		.uleb128 0x1
 3100 0837 9C       		.byte	0x9c
 3101 0838 56080000 		.4byte	0x856
 3102 083c 19       		.uleb128 0x19
 3103 083d 20050000 		.4byte	.LASF81
 3104 0841 01       		.byte	0x1
 3105 0842 F405     		.2byte	0x5f4
 3106 0844 6B000000 		.4byte	0x6b
 3107 0848 A2010000 		.4byte	.LLST12
 3108 084c 0F       		.uleb128 0xf
 3109 084d 12000000 		.4byte	.LVL90
 3110 0851 F2080000 		.4byte	0x8f2
 3111 0855 00       		.byte	0
 3112 0856 1C       		.uleb128 0x1c
 3113 0857 15070000 		.4byte	.LASF82
 3114 085b 01       		.byte	0x1
 3115 085c 1F       		.byte	0x1f
 3116 085d B5020000 		.4byte	0x2b5
 3117 0861 05       		.uleb128 0x5
 3118 0862 03       		.byte	0x3
 3119 0863 00000000 		.4byte	cyPmBackup
 3120 0867 1C       		.uleb128 0x1c
 3121 0868 6A040000 		.4byte	.LASF83
 3122 086c 01       		.byte	0x1
 3123 086d 20       		.byte	0x20
 3124 086e 87010000 		.4byte	0x187
 3125 0872 05       		.uleb128 0x5
 3126 0873 03       		.byte	0x3
 3127 0874 30000000 		.4byte	cyPmClockBackup
 3128 0878 1C       		.uleb128 0x1c
 3129 0879 2C050000 		.4byte	.LASF84
 3130 087d 01       		.byte	0x1
 3131 087e 23       		.byte	0x23
 3132 087f 89080000 		.4byte	0x889
 3133 0883 05       		.uleb128 0x5
 3134 0884 03       		.byte	0x3
 3135 0885 00000000 		.4byte	cyPmImoFreqReg2Mhz
 3136 0889 18       		.uleb128 0x18
 3137 088a 23060000 		.4byte	0x623
 3138 088e 1D       		.uleb128 0x1d
 3139 088f D9040000 		.4byte	.LASF85
 3140 0893 04       		.byte	0x4
 3141 0894 9D       		.byte	0x9d
 3142 0895 1D       		.uleb128 0x1d
 3143 0896 00000000 		.4byte	.LASF86
 3144 089a 04       		.byte	0x4
 3145 089b 9E       		.byte	0x9e
 3146 089c 1D       		.uleb128 0x1d
 3147 089d 72030000 		.4byte	.LASF87
 3148 08a1 04       		.byte	0x4
 3149 08a2 A0       		.byte	0xa0
 3150 08a3 1E       		.uleb128 0x1e
 3151 08a4 89020000 		.4byte	.LASF106
ARM GAS  C:\Users\Ian\AppData\Local\Temp\ccxtF1i6.s 			page 94


 3152 08a8 04       		.byte	0x4
 3153 08a9 5F       		.byte	0x5f
 3154 08aa 6B000000 		.4byte	0x6b
 3155 08ae B8080000 		.4byte	0x8b8
 3156 08b2 1F       		.uleb128 0x1f
 3157 08b3 6B000000 		.4byte	0x6b
 3158 08b7 00       		.byte	0
 3159 08b8 20       		.uleb128 0x20
 3160 08b9 06010000 		.4byte	.LASF88
 3161 08bd 04       		.byte	0x4
 3162 08be 9B       		.byte	0x9b
 3163 08bf CE080000 		.4byte	0x8ce
 3164 08c3 1F       		.uleb128 0x1f
 3165 08c4 6B000000 		.4byte	0x6b
 3166 08c8 1F       		.uleb128 0x1f
 3167 08c9 6B000000 		.4byte	0x6b
 3168 08cd 00       		.byte	0
 3169 08ce 20       		.uleb128 0x20
 3170 08cf 5A060000 		.4byte	.LASF89
 3171 08d3 04       		.byte	0x4
 3172 08d4 9C       		.byte	0x9c
 3173 08d5 E4080000 		.4byte	0x8e4
 3174 08d9 1F       		.uleb128 0x1f
 3175 08da 6B000000 		.4byte	0x6b
 3176 08de 1F       		.uleb128 0x1f
 3177 08df 6B000000 		.4byte	0x6b
 3178 08e3 00       		.byte	0
 3179 08e4 1D       		.uleb128 0x1d
 3180 08e5 F6060000 		.4byte	.LASF90
 3181 08e9 04       		.byte	0x4
 3182 08ea 9F       		.byte	0x9f
 3183 08eb 1D       		.uleb128 0x1d
 3184 08ec 58010000 		.4byte	.LASF91
 3185 08f0 04       		.byte	0x4
 3186 08f1 58       		.byte	0x58
 3187 08f2 1D       		.uleb128 0x1d
 3188 08f3 B0030000 		.4byte	.LASF92
 3189 08f7 04       		.byte	0x4
 3190 08f8 5A       		.byte	0x5a
 3191 08f9 20       		.uleb128 0x20
 3192 08fa 0A050000 		.4byte	.LASF93
 3193 08fe 05       		.byte	0x5
 3194 08ff 4B       		.byte	0x4b
 3195 0900 0A090000 		.4byte	0x90a
 3196 0904 1F       		.uleb128 0x1f
 3197 0905 6B000000 		.4byte	0x6b
 3198 0909 00       		.byte	0
 3199 090a 20       		.uleb128 0x20
 3200 090b F0020000 		.4byte	.LASF94
 3201 090f 04       		.byte	0x4
 3202 0910 4E       		.byte	0x4e
 3203 0911 1B090000 		.4byte	0x91b
 3204 0915 1F       		.uleb128 0x1f
 3205 0916 6B000000 		.4byte	0x6b
 3206 091a 00       		.byte	0
 3207 091b 20       		.uleb128 0x20
 3208 091c 49040000 		.4byte	.LASF95
ARM GAS  C:\Users\Ian\AppData\Local\Temp\ccxtF1i6.s 			page 95


 3209 0920 04       		.byte	0x4
 3210 0921 80       		.byte	0x80
 3211 0922 2C090000 		.4byte	0x92c
 3212 0926 1F       		.uleb128 0x1f
 3213 0927 6B000000 		.4byte	0x6b
 3214 092b 00       		.byte	0
 3215 092c 1D       		.uleb128 0x1d
 3216 092d CD030000 		.4byte	.LASF96
 3217 0931 04       		.byte	0x4
 3218 0932 43       		.byte	0x43
 3219 0933 20       		.uleb128 0x20
 3220 0934 1E060000 		.4byte	.LASF97
 3221 0938 04       		.byte	0x4
 3222 0939 49       		.byte	0x49
 3223 093a 44090000 		.4byte	0x944
 3224 093e 1F       		.uleb128 0x1f
 3225 093f 6B000000 		.4byte	0x6b
 3226 0943 00       		.byte	0
 3227 0944 20       		.uleb128 0x20
 3228 0945 1B000000 		.4byte	.LASF98
 3229 0949 04       		.byte	0x4
 3230 094a 47       		.byte	0x47
 3231 094b 55090000 		.4byte	0x955
 3232 094f 1F       		.uleb128 0x1f
 3233 0950 6B000000 		.4byte	0x6b
 3234 0954 00       		.byte	0
 3235 0955 20       		.uleb128 0x20
 3236 0956 9D010000 		.4byte	.LASF99
 3237 095a 04       		.byte	0x4
 3238 095b 78       		.byte	0x78
 3239 095c 66090000 		.4byte	0x966
 3240 0960 1F       		.uleb128 0x1f
 3241 0961 76000000 		.4byte	0x76
 3242 0965 00       		.byte	0
 3243 0966 20       		.uleb128 0x20
 3244 0967 1A020000 		.4byte	.LASF100
 3245 096b 04       		.byte	0x4
 3246 096c 4A       		.byte	0x4a
 3247 096d 77090000 		.4byte	0x977
 3248 0971 1F       		.uleb128 0x1f
 3249 0972 6B000000 		.4byte	0x6b
 3250 0976 00       		.byte	0
 3251 0977 1D       		.uleb128 0x1d
 3252 0978 C4040000 		.4byte	.LASF101
 3253 097c 04       		.byte	0x4
 3254 097d 4C       		.byte	0x4c
 3255 097e 20       		.uleb128 0x20
 3256 097f DC030000 		.4byte	.LASF102
 3257 0983 04       		.byte	0x4
 3258 0984 4F       		.byte	0x4f
 3259 0985 8F090000 		.4byte	0x98f
 3260 0989 1F       		.uleb128 0x1f
 3261 098a 6B000000 		.4byte	0x6b
 3262 098e 00       		.byte	0
 3263 098f 20       		.uleb128 0x20
 3264 0990 4E050000 		.4byte	.LASF103
 3265 0994 04       		.byte	0x4
ARM GAS  C:\Users\Ian\AppData\Local\Temp\ccxtF1i6.s 			page 96


 3266 0995 50       		.byte	0x50
 3267 0996 A0090000 		.4byte	0x9a0
 3268 099a 1F       		.uleb128 0x1f
 3269 099b 76000000 		.4byte	0x76
 3270 099f 00       		.byte	0
 3271 09a0 1D       		.uleb128 0x1d
 3272 09a1 09070000 		.4byte	.LASF104
 3273 09a5 04       		.byte	0x4
 3274 09a6 67       		.byte	0x67
 3275 09a7 20       		.uleb128 0x20
 3276 09a8 36040000 		.4byte	.LASF105
 3277 09ac 04       		.byte	0x4
 3278 09ad 7A       		.byte	0x7a
 3279 09ae B8090000 		.4byte	0x9b8
 3280 09b2 1F       		.uleb128 0x1f
 3281 09b3 81000000 		.4byte	0x81
 3282 09b7 00       		.byte	0
 3283 09b8 1E       		.uleb128 0x1e
 3284 09b9 59030000 		.4byte	.LASF107
 3285 09bd 04       		.byte	0x4
 3286 09be 66       		.byte	0x66
 3287 09bf A1000000 		.4byte	0xa1
 3288 09c3 CD090000 		.4byte	0x9cd
 3289 09c7 1F       		.uleb128 0x1f
 3290 09c8 6B000000 		.4byte	0x6b
 3291 09cc 00       		.byte	0
 3292 09cd 1D       		.uleb128 0x1d
 3293 09ce 2C060000 		.4byte	.LASF108
 3294 09d2 04       		.byte	0x4
 3295 09d3 4B       		.byte	0x4b
 3296 09d4 1E       		.uleb128 0x1e
 3297 09d5 8D010000 		.4byte	.LASF109
 3298 09d9 04       		.byte	0x4
 3299 09da 42       		.byte	0x42
 3300 09db A1000000 		.4byte	0xa1
 3301 09df E9090000 		.4byte	0x9e9
 3302 09e3 1F       		.uleb128 0x1f
 3303 09e4 6B000000 		.4byte	0x6b
 3304 09e8 00       		.byte	0
 3305 09e9 1D       		.uleb128 0x1d
 3306 09ea 9C020000 		.4byte	.LASF110
 3307 09ee 04       		.byte	0x4
 3308 09ef 48       		.byte	0x48
 3309 09f0 21       		.uleb128 0x21
 3310 09f1 61020000 		.4byte	.LASF117
 3311 09f5 04       		.byte	0x4
 3312 09f6 7E       		.byte	0x7e
 3313 09f7 6B000000 		.4byte	0x6b
 3314 09fb 20       		.uleb128 0x20
 3315 09fc 03040000 		.4byte	.LASF111
 3316 0a00 04       		.byte	0x4
 3317 0a01 7F       		.byte	0x7f
 3318 0a02 0C0A0000 		.4byte	0xa0c
 3319 0a06 1F       		.uleb128 0x1f
 3320 0a07 6B000000 		.4byte	0x6b
 3321 0a0b 00       		.byte	0
 3322 0a0c 1D       		.uleb128 0x1d
ARM GAS  C:\Users\Ian\AppData\Local\Temp\ccxtF1i6.s 			page 97


 3323 0a0d 72000000 		.4byte	.LASF112
 3324 0a11 04       		.byte	0x4
 3325 0a12 63       		.byte	0x63
 3326 0a13 00       		.byte	0
 3327              		.section	.debug_abbrev,"",%progbits
 3328              	.Ldebug_abbrev0:
 3329 0000 01       		.uleb128 0x1
 3330 0001 11       		.uleb128 0x11
 3331 0002 01       		.byte	0x1
 3332 0003 25       		.uleb128 0x25
 3333 0004 0E       		.uleb128 0xe
 3334 0005 13       		.uleb128 0x13
 3335 0006 0B       		.uleb128 0xb
 3336 0007 03       		.uleb128 0x3
 3337 0008 0E       		.uleb128 0xe
 3338 0009 1B       		.uleb128 0x1b
 3339 000a 0E       		.uleb128 0xe
 3340 000b 55       		.uleb128 0x55
 3341 000c 17       		.uleb128 0x17
 3342 000d 11       		.uleb128 0x11
 3343 000e 01       		.uleb128 0x1
 3344 000f 10       		.uleb128 0x10
 3345 0010 17       		.uleb128 0x17
 3346 0011 00       		.byte	0
 3347 0012 00       		.byte	0
 3348 0013 02       		.uleb128 0x2
 3349 0014 24       		.uleb128 0x24
 3350 0015 00       		.byte	0
 3351 0016 0B       		.uleb128 0xb
 3352 0017 0B       		.uleb128 0xb
 3353 0018 3E       		.uleb128 0x3e
 3354 0019 0B       		.uleb128 0xb
 3355 001a 03       		.uleb128 0x3
 3356 001b 0E       		.uleb128 0xe
 3357 001c 00       		.byte	0
 3358 001d 00       		.byte	0
 3359 001e 03       		.uleb128 0x3
 3360 001f 24       		.uleb128 0x24
 3361 0020 00       		.byte	0
 3362 0021 0B       		.uleb128 0xb
 3363 0022 0B       		.uleb128 0xb
 3364 0023 3E       		.uleb128 0x3e
 3365 0024 0B       		.uleb128 0xb
 3366 0025 03       		.uleb128 0x3
 3367 0026 08       		.uleb128 0x8
 3368 0027 00       		.byte	0
 3369 0028 00       		.byte	0
 3370 0029 04       		.uleb128 0x4
 3371 002a 16       		.uleb128 0x16
 3372 002b 00       		.byte	0
 3373 002c 03       		.uleb128 0x3
 3374 002d 0E       		.uleb128 0xe
 3375 002e 3A       		.uleb128 0x3a
 3376 002f 0B       		.uleb128 0xb
 3377 0030 3B       		.uleb128 0x3b
 3378 0031 0B       		.uleb128 0xb
 3379 0032 49       		.uleb128 0x49
ARM GAS  C:\Users\Ian\AppData\Local\Temp\ccxtF1i6.s 			page 98


 3380 0033 13       		.uleb128 0x13
 3381 0034 00       		.byte	0
 3382 0035 00       		.byte	0
 3383 0036 05       		.uleb128 0x5
 3384 0037 35       		.uleb128 0x35
 3385 0038 00       		.byte	0
 3386 0039 49       		.uleb128 0x49
 3387 003a 13       		.uleb128 0x13
 3388 003b 00       		.byte	0
 3389 003c 00       		.byte	0
 3390 003d 06       		.uleb128 0x6
 3391 003e 13       		.uleb128 0x13
 3392 003f 01       		.byte	0x1
 3393 0040 03       		.uleb128 0x3
 3394 0041 0E       		.uleb128 0xe
 3395 0042 0B       		.uleb128 0xb
 3396 0043 0B       		.uleb128 0xb
 3397 0044 3A       		.uleb128 0x3a
 3398 0045 0B       		.uleb128 0xb
 3399 0046 3B       		.uleb128 0x3b
 3400 0047 0B       		.uleb128 0xb
 3401 0048 01       		.uleb128 0x1
 3402 0049 13       		.uleb128 0x13
 3403 004a 00       		.byte	0
 3404 004b 00       		.byte	0
 3405 004c 07       		.uleb128 0x7
 3406 004d 0D       		.uleb128 0xd
 3407 004e 00       		.byte	0
 3408 004f 03       		.uleb128 0x3
 3409 0050 0E       		.uleb128 0xe
 3410 0051 3A       		.uleb128 0x3a
 3411 0052 0B       		.uleb128 0xb
 3412 0053 3B       		.uleb128 0x3b
 3413 0054 0B       		.uleb128 0xb
 3414 0055 49       		.uleb128 0x49
 3415 0056 13       		.uleb128 0x13
 3416 0057 38       		.uleb128 0x38
 3417 0058 0B       		.uleb128 0xb
 3418 0059 00       		.byte	0
 3419 005a 00       		.byte	0
 3420 005b 08       		.uleb128 0x8
 3421 005c 0D       		.uleb128 0xd
 3422 005d 00       		.byte	0
 3423 005e 03       		.uleb128 0x3
 3424 005f 0E       		.uleb128 0xe
 3425 0060 3A       		.uleb128 0x3a
 3426 0061 0B       		.uleb128 0xb
 3427 0062 3B       		.uleb128 0x3b
 3428 0063 05       		.uleb128 0x5
 3429 0064 49       		.uleb128 0x49
 3430 0065 13       		.uleb128 0x13
 3431 0066 38       		.uleb128 0x38
 3432 0067 0B       		.uleb128 0xb
 3433 0068 00       		.byte	0
 3434 0069 00       		.byte	0
 3435 006a 09       		.uleb128 0x9
 3436 006b 16       		.uleb128 0x16
ARM GAS  C:\Users\Ian\AppData\Local\Temp\ccxtF1i6.s 			page 99


 3437 006c 00       		.byte	0
 3438 006d 03       		.uleb128 0x3
 3439 006e 0E       		.uleb128 0xe
 3440 006f 3A       		.uleb128 0x3a
 3441 0070 0B       		.uleb128 0xb
 3442 0071 3B       		.uleb128 0x3b
 3443 0072 05       		.uleb128 0x5
 3444 0073 49       		.uleb128 0x49
 3445 0074 13       		.uleb128 0x13
 3446 0075 00       		.byte	0
 3447 0076 00       		.byte	0
 3448 0077 0A       		.uleb128 0xa
 3449 0078 13       		.uleb128 0x13
 3450 0079 01       		.byte	0x1
 3451 007a 03       		.uleb128 0x3
 3452 007b 0E       		.uleb128 0xe
 3453 007c 0B       		.uleb128 0xb
 3454 007d 0B       		.uleb128 0xb
 3455 007e 3A       		.uleb128 0x3a
 3456 007f 0B       		.uleb128 0xb
 3457 0080 3B       		.uleb128 0x3b
 3458 0081 05       		.uleb128 0x5
 3459 0082 01       		.uleb128 0x1
 3460 0083 13       		.uleb128 0x13
 3461 0084 00       		.byte	0
 3462 0085 00       		.byte	0
 3463 0086 0B       		.uleb128 0xb
 3464 0087 01       		.uleb128 0x1
 3465 0088 01       		.byte	0x1
 3466 0089 49       		.uleb128 0x49
 3467 008a 13       		.uleb128 0x13
 3468 008b 01       		.uleb128 0x1
 3469 008c 13       		.uleb128 0x13
 3470 008d 00       		.byte	0
 3471 008e 00       		.byte	0
 3472 008f 0C       		.uleb128 0xc
 3473 0090 21       		.uleb128 0x21
 3474 0091 00       		.byte	0
 3475 0092 49       		.uleb128 0x49
 3476 0093 13       		.uleb128 0x13
 3477 0094 2F       		.uleb128 0x2f
 3478 0095 0B       		.uleb128 0xb
 3479 0096 00       		.byte	0
 3480 0097 00       		.byte	0
 3481 0098 0D       		.uleb128 0xd
 3482 0099 2E       		.uleb128 0x2e
 3483 009a 00       		.byte	0
 3484 009b 03       		.uleb128 0x3
 3485 009c 0E       		.uleb128 0xe
 3486 009d 3A       		.uleb128 0x3a
 3487 009e 0B       		.uleb128 0xb
 3488 009f 3B       		.uleb128 0x3b
 3489 00a0 05       		.uleb128 0x5
 3490 00a1 27       		.uleb128 0x27
 3491 00a2 19       		.uleb128 0x19
 3492 00a3 11       		.uleb128 0x11
 3493 00a4 01       		.uleb128 0x1
ARM GAS  C:\Users\Ian\AppData\Local\Temp\ccxtF1i6.s 			page 100


 3494 00a5 12       		.uleb128 0x12
 3495 00a6 06       		.uleb128 0x6
 3496 00a7 40       		.uleb128 0x40
 3497 00a8 18       		.uleb128 0x18
 3498 00a9 9742     		.uleb128 0x2117
 3499 00ab 19       		.uleb128 0x19
 3500 00ac 00       		.byte	0
 3501 00ad 00       		.byte	0
 3502 00ae 0E       		.uleb128 0xe
 3503 00af 2E       		.uleb128 0x2e
 3504 00b0 01       		.byte	0x1
 3505 00b1 03       		.uleb128 0x3
 3506 00b2 0E       		.uleb128 0xe
 3507 00b3 3A       		.uleb128 0x3a
 3508 00b4 0B       		.uleb128 0xb
 3509 00b5 3B       		.uleb128 0x3b
 3510 00b6 05       		.uleb128 0x5
 3511 00b7 27       		.uleb128 0x27
 3512 00b8 19       		.uleb128 0x19
 3513 00b9 11       		.uleb128 0x11
 3514 00ba 01       		.uleb128 0x1
 3515 00bb 12       		.uleb128 0x12
 3516 00bc 06       		.uleb128 0x6
 3517 00bd 40       		.uleb128 0x40
 3518 00be 18       		.uleb128 0x18
 3519 00bf 9742     		.uleb128 0x2117
 3520 00c1 19       		.uleb128 0x19
 3521 00c2 01       		.uleb128 0x1
 3522 00c3 13       		.uleb128 0x13
 3523 00c4 00       		.byte	0
 3524 00c5 00       		.byte	0
 3525 00c6 0F       		.uleb128 0xf
 3526 00c7 898201   		.uleb128 0x4109
 3527 00ca 00       		.byte	0
 3528 00cb 11       		.uleb128 0x11
 3529 00cc 01       		.uleb128 0x1
 3530 00cd 31       		.uleb128 0x31
 3531 00ce 13       		.uleb128 0x13
 3532 00cf 00       		.byte	0
 3533 00d0 00       		.byte	0
 3534 00d1 10       		.uleb128 0x10
 3535 00d2 898201   		.uleb128 0x4109
 3536 00d5 01       		.byte	0x1
 3537 00d6 11       		.uleb128 0x11
 3538 00d7 01       		.uleb128 0x1
 3539 00d8 31       		.uleb128 0x31
 3540 00d9 13       		.uleb128 0x13
 3541 00da 01       		.uleb128 0x1
 3542 00db 13       		.uleb128 0x13
 3543 00dc 00       		.byte	0
 3544 00dd 00       		.byte	0
 3545 00de 11       		.uleb128 0x11
 3546 00df 8A8201   		.uleb128 0x410a
 3547 00e2 00       		.byte	0
 3548 00e3 02       		.uleb128 0x2
 3549 00e4 18       		.uleb128 0x18
 3550 00e5 9142     		.uleb128 0x2111
ARM GAS  C:\Users\Ian\AppData\Local\Temp\ccxtF1i6.s 			page 101


 3551 00e7 18       		.uleb128 0x18
 3552 00e8 00       		.byte	0
 3553 00e9 00       		.byte	0
 3554 00ea 12       		.uleb128 0x12
 3555 00eb 2E       		.uleb128 0x2e
 3556 00ec 01       		.byte	0x1
 3557 00ed 3F       		.uleb128 0x3f
 3558 00ee 19       		.uleb128 0x19
 3559 00ef 03       		.uleb128 0x3
 3560 00f0 0E       		.uleb128 0xe
 3561 00f1 3A       		.uleb128 0x3a
 3562 00f2 0B       		.uleb128 0xb
 3563 00f3 3B       		.uleb128 0x3b
 3564 00f4 0B       		.uleb128 0xb
 3565 00f5 27       		.uleb128 0x27
 3566 00f6 19       		.uleb128 0x19
 3567 00f7 11       		.uleb128 0x11
 3568 00f8 01       		.uleb128 0x1
 3569 00f9 12       		.uleb128 0x12
 3570 00fa 06       		.uleb128 0x6
 3571 00fb 40       		.uleb128 0x40
 3572 00fc 18       		.uleb128 0x18
 3573 00fd 9742     		.uleb128 0x2117
 3574 00ff 19       		.uleb128 0x19
 3575 0100 01       		.uleb128 0x1
 3576 0101 13       		.uleb128 0x13
 3577 0102 00       		.byte	0
 3578 0103 00       		.byte	0
 3579 0104 13       		.uleb128 0x13
 3580 0105 2E       		.uleb128 0x2e
 3581 0106 01       		.byte	0x1
 3582 0107 3F       		.uleb128 0x3f
 3583 0108 19       		.uleb128 0x19
 3584 0109 03       		.uleb128 0x3
 3585 010a 0E       		.uleb128 0xe
 3586 010b 3A       		.uleb128 0x3a
 3587 010c 0B       		.uleb128 0xb
 3588 010d 3B       		.uleb128 0x3b
 3589 010e 05       		.uleb128 0x5
 3590 010f 27       		.uleb128 0x27
 3591 0110 19       		.uleb128 0x19
 3592 0111 11       		.uleb128 0x11
 3593 0112 01       		.uleb128 0x1
 3594 0113 12       		.uleb128 0x12
 3595 0114 06       		.uleb128 0x6
 3596 0115 40       		.uleb128 0x40
 3597 0116 18       		.uleb128 0x18
 3598 0117 9742     		.uleb128 0x2117
 3599 0119 19       		.uleb128 0x19
 3600 011a 01       		.uleb128 0x1
 3601 011b 13       		.uleb128 0x13
 3602 011c 00       		.byte	0
 3603 011d 00       		.byte	0
 3604 011e 14       		.uleb128 0x14
 3605 011f 34       		.uleb128 0x34
 3606 0120 00       		.byte	0
 3607 0121 03       		.uleb128 0x3
ARM GAS  C:\Users\Ian\AppData\Local\Temp\ccxtF1i6.s 			page 102


 3608 0122 0E       		.uleb128 0xe
 3609 0123 3A       		.uleb128 0x3a
 3610 0124 0B       		.uleb128 0xb
 3611 0125 3B       		.uleb128 0x3b
 3612 0126 05       		.uleb128 0x5
 3613 0127 49       		.uleb128 0x49
 3614 0128 13       		.uleb128 0x13
 3615 0129 1C       		.uleb128 0x1c
 3616 012a 0B       		.uleb128 0xb
 3617 012b 00       		.byte	0
 3618 012c 00       		.byte	0
 3619 012d 15       		.uleb128 0x15
 3620 012e 34       		.uleb128 0x34
 3621 012f 00       		.byte	0
 3622 0130 03       		.uleb128 0x3
 3623 0131 08       		.uleb128 0x8
 3624 0132 3A       		.uleb128 0x3a
 3625 0133 0B       		.uleb128 0xb
 3626 0134 3B       		.uleb128 0x3b
 3627 0135 05       		.uleb128 0x5
 3628 0136 49       		.uleb128 0x49
 3629 0137 13       		.uleb128 0x13
 3630 0138 02       		.uleb128 0x2
 3631 0139 17       		.uleb128 0x17
 3632 013a 00       		.byte	0
 3633 013b 00       		.byte	0
 3634 013c 16       		.uleb128 0x16
 3635 013d 34       		.uleb128 0x34
 3636 013e 00       		.byte	0
 3637 013f 03       		.uleb128 0x3
 3638 0140 0E       		.uleb128 0xe
 3639 0141 3A       		.uleb128 0x3a
 3640 0142 0B       		.uleb128 0xb
 3641 0143 3B       		.uleb128 0x3b
 3642 0144 05       		.uleb128 0x5
 3643 0145 49       		.uleb128 0x49
 3644 0146 13       		.uleb128 0x13
 3645 0147 02       		.uleb128 0x2
 3646 0148 17       		.uleb128 0x17
 3647 0149 00       		.byte	0
 3648 014a 00       		.byte	0
 3649 014b 17       		.uleb128 0x17
 3650 014c 34       		.uleb128 0x34
 3651 014d 00       		.byte	0
 3652 014e 03       		.uleb128 0x3
 3653 014f 0E       		.uleb128 0xe
 3654 0150 3A       		.uleb128 0x3a
 3655 0151 0B       		.uleb128 0xb
 3656 0152 3B       		.uleb128 0x3b
 3657 0153 05       		.uleb128 0x5
 3658 0154 49       		.uleb128 0x49
 3659 0155 13       		.uleb128 0x13
 3660 0156 02       		.uleb128 0x2
 3661 0157 18       		.uleb128 0x18
 3662 0158 00       		.byte	0
 3663 0159 00       		.byte	0
 3664 015a 18       		.uleb128 0x18
ARM GAS  C:\Users\Ian\AppData\Local\Temp\ccxtF1i6.s 			page 103


 3665 015b 26       		.uleb128 0x26
 3666 015c 00       		.byte	0
 3667 015d 49       		.uleb128 0x49
 3668 015e 13       		.uleb128 0x13
 3669 015f 00       		.byte	0
 3670 0160 00       		.byte	0
 3671 0161 19       		.uleb128 0x19
 3672 0162 05       		.uleb128 0x5
 3673 0163 00       		.byte	0
 3674 0164 03       		.uleb128 0x3
 3675 0165 0E       		.uleb128 0xe
 3676 0166 3A       		.uleb128 0x3a
 3677 0167 0B       		.uleb128 0xb
 3678 0168 3B       		.uleb128 0x3b
 3679 0169 05       		.uleb128 0x5
 3680 016a 49       		.uleb128 0x49
 3681 016b 13       		.uleb128 0x13
 3682 016c 02       		.uleb128 0x2
 3683 016d 17       		.uleb128 0x17
 3684 016e 00       		.byte	0
 3685 016f 00       		.byte	0
 3686 0170 1A       		.uleb128 0x1a
 3687 0171 898201   		.uleb128 0x4109
 3688 0174 01       		.byte	0x1
 3689 0175 11       		.uleb128 0x11
 3690 0176 01       		.uleb128 0x1
 3691 0177 31       		.uleb128 0x31
 3692 0178 13       		.uleb128 0x13
 3693 0179 00       		.byte	0
 3694 017a 00       		.byte	0
 3695 017b 1B       		.uleb128 0x1b
 3696 017c 2E       		.uleb128 0x2e
 3697 017d 01       		.byte	0x1
 3698 017e 3F       		.uleb128 0x3f
 3699 017f 19       		.uleb128 0x19
 3700 0180 03       		.uleb128 0x3
 3701 0181 0E       		.uleb128 0xe
 3702 0182 3A       		.uleb128 0x3a
 3703 0183 0B       		.uleb128 0xb
 3704 0184 3B       		.uleb128 0x3b
 3705 0185 05       		.uleb128 0x5
 3706 0186 27       		.uleb128 0x27
 3707 0187 19       		.uleb128 0x19
 3708 0188 49       		.uleb128 0x49
 3709 0189 13       		.uleb128 0x13
 3710 018a 11       		.uleb128 0x11
 3711 018b 01       		.uleb128 0x1
 3712 018c 12       		.uleb128 0x12
 3713 018d 06       		.uleb128 0x6
 3714 018e 40       		.uleb128 0x40
 3715 018f 18       		.uleb128 0x18
 3716 0190 9742     		.uleb128 0x2117
 3717 0192 19       		.uleb128 0x19
 3718 0193 01       		.uleb128 0x1
 3719 0194 13       		.uleb128 0x13
 3720 0195 00       		.byte	0
 3721 0196 00       		.byte	0
ARM GAS  C:\Users\Ian\AppData\Local\Temp\ccxtF1i6.s 			page 104


 3722 0197 1C       		.uleb128 0x1c
 3723 0198 34       		.uleb128 0x34
 3724 0199 00       		.byte	0
 3725 019a 03       		.uleb128 0x3
 3726 019b 0E       		.uleb128 0xe
 3727 019c 3A       		.uleb128 0x3a
 3728 019d 0B       		.uleb128 0xb
 3729 019e 3B       		.uleb128 0x3b
 3730 019f 0B       		.uleb128 0xb
 3731 01a0 49       		.uleb128 0x49
 3732 01a1 13       		.uleb128 0x13
 3733 01a2 02       		.uleb128 0x2
 3734 01a3 18       		.uleb128 0x18
 3735 01a4 00       		.byte	0
 3736 01a5 00       		.byte	0
 3737 01a6 1D       		.uleb128 0x1d
 3738 01a7 2E       		.uleb128 0x2e
 3739 01a8 00       		.byte	0
 3740 01a9 3F       		.uleb128 0x3f
 3741 01aa 19       		.uleb128 0x19
 3742 01ab 03       		.uleb128 0x3
 3743 01ac 0E       		.uleb128 0xe
 3744 01ad 3A       		.uleb128 0x3a
 3745 01ae 0B       		.uleb128 0xb
 3746 01af 3B       		.uleb128 0x3b
 3747 01b0 0B       		.uleb128 0xb
 3748 01b1 27       		.uleb128 0x27
 3749 01b2 19       		.uleb128 0x19
 3750 01b3 3C       		.uleb128 0x3c
 3751 01b4 19       		.uleb128 0x19
 3752 01b5 00       		.byte	0
 3753 01b6 00       		.byte	0
 3754 01b7 1E       		.uleb128 0x1e
 3755 01b8 2E       		.uleb128 0x2e
 3756 01b9 01       		.byte	0x1
 3757 01ba 3F       		.uleb128 0x3f
 3758 01bb 19       		.uleb128 0x19
 3759 01bc 03       		.uleb128 0x3
 3760 01bd 0E       		.uleb128 0xe
 3761 01be 3A       		.uleb128 0x3a
 3762 01bf 0B       		.uleb128 0xb
 3763 01c0 3B       		.uleb128 0x3b
 3764 01c1 0B       		.uleb128 0xb
 3765 01c2 27       		.uleb128 0x27
 3766 01c3 19       		.uleb128 0x19
 3767 01c4 49       		.uleb128 0x49
 3768 01c5 13       		.uleb128 0x13
 3769 01c6 3C       		.uleb128 0x3c
 3770 01c7 19       		.uleb128 0x19
 3771 01c8 01       		.uleb128 0x1
 3772 01c9 13       		.uleb128 0x13
 3773 01ca 00       		.byte	0
 3774 01cb 00       		.byte	0
 3775 01cc 1F       		.uleb128 0x1f
 3776 01cd 05       		.uleb128 0x5
 3777 01ce 00       		.byte	0
 3778 01cf 49       		.uleb128 0x49
ARM GAS  C:\Users\Ian\AppData\Local\Temp\ccxtF1i6.s 			page 105


 3779 01d0 13       		.uleb128 0x13
 3780 01d1 00       		.byte	0
 3781 01d2 00       		.byte	0
 3782 01d3 20       		.uleb128 0x20
 3783 01d4 2E       		.uleb128 0x2e
 3784 01d5 01       		.byte	0x1
 3785 01d6 3F       		.uleb128 0x3f
 3786 01d7 19       		.uleb128 0x19
 3787 01d8 03       		.uleb128 0x3
 3788 01d9 0E       		.uleb128 0xe
 3789 01da 3A       		.uleb128 0x3a
 3790 01db 0B       		.uleb128 0xb
 3791 01dc 3B       		.uleb128 0x3b
 3792 01dd 0B       		.uleb128 0xb
 3793 01de 27       		.uleb128 0x27
 3794 01df 19       		.uleb128 0x19
 3795 01e0 3C       		.uleb128 0x3c
 3796 01e1 19       		.uleb128 0x19
 3797 01e2 01       		.uleb128 0x1
 3798 01e3 13       		.uleb128 0x13
 3799 01e4 00       		.byte	0
 3800 01e5 00       		.byte	0
 3801 01e6 21       		.uleb128 0x21
 3802 01e7 2E       		.uleb128 0x2e
 3803 01e8 00       		.byte	0
 3804 01e9 3F       		.uleb128 0x3f
 3805 01ea 19       		.uleb128 0x19
 3806 01eb 03       		.uleb128 0x3
 3807 01ec 0E       		.uleb128 0xe
 3808 01ed 3A       		.uleb128 0x3a
 3809 01ee 0B       		.uleb128 0xb
 3810 01ef 3B       		.uleb128 0x3b
 3811 01f0 0B       		.uleb128 0xb
 3812 01f1 27       		.uleb128 0x27
 3813 01f2 19       		.uleb128 0x19
 3814 01f3 49       		.uleb128 0x49
 3815 01f4 13       		.uleb128 0x13
 3816 01f5 3C       		.uleb128 0x3c
 3817 01f6 19       		.uleb128 0x19
 3818 01f7 00       		.byte	0
 3819 01f8 00       		.byte	0
 3820 01f9 00       		.byte	0
 3821              		.section	.debug_loc,"",%progbits
 3822              	.Ldebug_loc0:
 3823              	.LLST0:
 3824 0000 58000000 		.4byte	.LVL33
 3825 0004 5C000000 		.4byte	.LVL34
 3826 0008 0200     		.2byte	0x2
 3827 000a 35       		.byte	0x35
 3828 000b 9F       		.byte	0x9f
 3829 000c 5C000000 		.4byte	.LVL34
 3830 0010 7E000000 		.4byte	.LVL36
 3831 0014 0100     		.2byte	0x1
 3832 0016 54       		.byte	0x54
 3833 0017 80000000 		.4byte	.LVL37
 3834 001b 84000000 		.4byte	.LVL38
 3835 001f 0100     		.2byte	0x1
ARM GAS  C:\Users\Ian\AppData\Local\Temp\ccxtF1i6.s 			page 106


 3836 0021 54       		.byte	0x54
 3837 0022 7A010000 		.4byte	.LVL49
 3838 0026 7E010000 		.4byte	.LVL50
 3839 002a 0300     		.2byte	0x3
 3840 002c 08       		.byte	0x8
 3841 002d AB       		.byte	0xab
 3842 002e 9F       		.byte	0x9f
 3843 002f 7E010000 		.4byte	.LVL50
 3844 0033 9A010000 		.4byte	.LVL52
 3845 0037 0100     		.2byte	0x1
 3846 0039 54       		.byte	0x54
 3847 003a 9C010000 		.4byte	.LVL53
 3848 003e A0010000 		.4byte	.LVL54
 3849 0042 0100     		.2byte	0x1
 3850 0044 54       		.byte	0x54
 3851 0045 00000000 		.4byte	0
 3852 0049 00000000 		.4byte	0
 3853              	.LLST1:
 3854 004d E2010000 		.4byte	.LVL58
 3855 0051 EA010000 		.4byte	.LVL59
 3856 0055 0500     		.2byte	0x5
 3857 0057 72       		.byte	0x72
 3858 0058 00       		.sleb128 0
 3859 0059 38       		.byte	0x38
 3860 005a 24       		.byte	0x24
 3861 005b 9F       		.byte	0x9f
 3862 005c EA010000 		.4byte	.LVL59
 3863 0060 F5010000 		.4byte	.LVL60-1
 3864 0064 0100     		.2byte	0x1
 3865 0066 53       		.byte	0x53
 3866 0067 00000000 		.4byte	0
 3867 006b 00000000 		.4byte	0
 3868              	.LLST2:
 3869 006f 00000000 		.4byte	.LVL61
 3870 0073 08000000 		.4byte	.LVL62
 3871 0077 0100     		.2byte	0x1
 3872 0079 50       		.byte	0x50
 3873 007a 08000000 		.4byte	.LVL62
 3874 007e 6C000000 		.4byte	.LFE2
 3875 0082 0400     		.2byte	0x4
 3876 0084 F3       		.byte	0xf3
 3877 0085 01       		.uleb128 0x1
 3878 0086 50       		.byte	0x50
 3879 0087 9F       		.byte	0x9f
 3880 0088 00000000 		.4byte	0
 3881 008c 00000000 		.4byte	0
 3882              	.LLST3:
 3883 0090 00000000 		.4byte	.LVL61
 3884 0094 0B000000 		.4byte	.LVL63-1
 3885 0098 0100     		.2byte	0x1
 3886 009a 51       		.byte	0x51
 3887 009b 0B000000 		.4byte	.LVL63-1
 3888 009f 6C000000 		.4byte	.LFE2
 3889 00a3 0400     		.2byte	0x4
 3890 00a5 F3       		.byte	0xf3
 3891 00a6 01       		.uleb128 0x1
 3892 00a7 51       		.byte	0x51
ARM GAS  C:\Users\Ian\AppData\Local\Temp\ccxtF1i6.s 			page 107


 3893 00a8 9F       		.byte	0x9f
 3894 00a9 00000000 		.4byte	0
 3895 00ad 00000000 		.4byte	0
 3896              	.LLST4:
 3897 00b1 00000000 		.4byte	.LVL64
 3898 00b5 09000000 		.4byte	.LVL65-1
 3899 00b9 0100     		.2byte	0x1
 3900 00bb 50       		.byte	0x50
 3901 00bc 09000000 		.4byte	.LVL65-1
 3902 00c0 F4000000 		.4byte	.LFE3
 3903 00c4 0400     		.2byte	0x4
 3904 00c6 F3       		.byte	0xf3
 3905 00c7 01       		.uleb128 0x1
 3906 00c8 50       		.byte	0x50
 3907 00c9 9F       		.byte	0x9f
 3908 00ca 00000000 		.4byte	0
 3909 00ce 00000000 		.4byte	0
 3910              	.LLST5:
 3911 00d2 00000000 		.4byte	.LVL64
 3912 00d6 09000000 		.4byte	.LVL65-1
 3913 00da 0100     		.2byte	0x1
 3914 00dc 51       		.byte	0x51
 3915 00dd 09000000 		.4byte	.LVL65-1
 3916 00e1 F4000000 		.4byte	.LFE3
 3917 00e5 0400     		.2byte	0x4
 3918 00e7 F3       		.byte	0xf3
 3919 00e8 01       		.uleb128 0x1
 3920 00e9 51       		.byte	0x51
 3921 00ea 9F       		.byte	0x9f
 3922 00eb 00000000 		.4byte	0
 3923 00ef 00000000 		.4byte	0
 3924              	.LLST6:
 3925 00f3 0C000000 		.4byte	.LVL66
 3926 00f7 27000000 		.4byte	.LVL67-1
 3927 00fb 0100     		.2byte	0x1
 3928 00fd 50       		.byte	0x50
 3929 00fe 2A000000 		.4byte	.LVL68
 3930 0102 2C000000 		.4byte	.LVL69
 3931 0106 0100     		.2byte	0x1
 3932 0108 50       		.byte	0x50
 3933 0109 00000000 		.4byte	0
 3934 010d 00000000 		.4byte	0
 3935              	.LLST7:
 3936 0111 08000000 		.4byte	.LVL75
 3937 0115 1F000000 		.4byte	.LVL76-1
 3938 0119 0100     		.2byte	0x1
 3939 011b 50       		.byte	0x50
 3940 011c 4A000000 		.4byte	.LVL77
 3941 0120 4D000000 		.4byte	.LVL78-1
 3942 0124 0100     		.2byte	0x1
 3943 0126 50       		.byte	0x50
 3944 0127 00000000 		.4byte	0
 3945 012b 00000000 		.4byte	0
 3946              	.LLST8:
 3947 012f 00000000 		.4byte	.LVL81
 3948 0133 07000000 		.4byte	.LVL82-1
 3949 0137 0100     		.2byte	0x1
ARM GAS  C:\Users\Ian\AppData\Local\Temp\ccxtF1i6.s 			page 108


 3950 0139 50       		.byte	0x50
 3951 013a 07000000 		.4byte	.LVL82-1
 3952 013e 2C000000 		.4byte	.LFE5
 3953 0142 0400     		.2byte	0x4
 3954 0144 F3       		.byte	0xf3
 3955 0145 01       		.uleb128 0x1
 3956 0146 50       		.byte	0x50
 3957 0147 9F       		.byte	0x9f
 3958 0148 00000000 		.4byte	0
 3959 014c 00000000 		.4byte	0
 3960              	.LLST9:
 3961 0150 08000000 		.4byte	.LVL82
 3962 0154 1F000000 		.4byte	.LVL84-1
 3963 0158 0100     		.2byte	0x1
 3964 015a 50       		.byte	0x50
 3965 015b 00000000 		.4byte	0
 3966 015f 00000000 		.4byte	0
 3967              	.LLST10:
 3968 0163 14000000 		.4byte	.LVL83
 3969 0167 24000000 		.4byte	.LVL85
 3970 016b 0100     		.2byte	0x1
 3971 016d 54       		.byte	0x54
 3972 016e 24000000 		.4byte	.LVL85
 3973 0172 2C000000 		.4byte	.LFE5
 3974 0176 0100     		.2byte	0x1
 3975 0178 50       		.byte	0x50
 3976 0179 00000000 		.4byte	0
 3977 017d 00000000 		.4byte	0
 3978              	.LLST11:
 3979 0181 00000000 		.4byte	.LVL86
 3980 0185 11000000 		.4byte	.LVL87-1
 3981 0189 0100     		.2byte	0x1
 3982 018b 50       		.byte	0x50
 3983 018c 11000000 		.4byte	.LVL87-1
 3984 0190 5C000000 		.4byte	.LFE8
 3985 0194 0400     		.2byte	0x4
 3986 0196 F3       		.byte	0xf3
 3987 0197 01       		.uleb128 0x1
 3988 0198 50       		.byte	0x50
 3989 0199 9F       		.byte	0x9f
 3990 019a 00000000 		.4byte	0
 3991 019e 00000000 		.4byte	0
 3992              	.LLST12:
 3993 01a2 00000000 		.4byte	.LVL89
 3994 01a6 11000000 		.4byte	.LVL90-1
 3995 01aa 0100     		.2byte	0x1
 3996 01ac 50       		.byte	0x50
 3997 01ad 11000000 		.4byte	.LVL90-1
 3998 01b1 5C000000 		.4byte	.LFE10
 3999 01b5 0400     		.2byte	0x4
 4000 01b7 F3       		.byte	0xf3
 4001 01b8 01       		.uleb128 0x1
 4002 01b9 50       		.byte	0x50
 4003 01ba 9F       		.byte	0x9f
 4004 01bb 00000000 		.4byte	0
 4005 01bf 00000000 		.4byte	0
 4006              		.section	.debug_aranges,"",%progbits
ARM GAS  C:\Users\Ian\AppData\Local\Temp\ccxtF1i6.s 			page 109


 4007 0000 8C000000 		.4byte	0x8c
 4008 0004 0200     		.2byte	0x2
 4009 0006 00000000 		.4byte	.Ldebug_info0
 4010 000a 04       		.byte	0x4
 4011 000b 00       		.byte	0
 4012 000c 0000     		.2byte	0
 4013 000e 0000     		.2byte	0
 4014 0010 00000000 		.4byte	.LFB11
 4015 0014 DC010000 		.4byte	.LFE11-.LFB11
 4016 0018 00000000 		.4byte	.LFB12
 4017 001c D4000000 		.4byte	.LFE12-.LFB12
 4018 0020 00000000 		.4byte	.LFB13
 4019 0024 A0000000 		.4byte	.LFE13-.LFB13
 4020 0028 00000000 		.4byte	.LFB6
 4021 002c 8C000000 		.4byte	.LFE6-.LFB6
 4022 0030 00000000 		.4byte	.LFB14
 4023 0034 48000000 		.4byte	.LFE14-.LFB14
 4024 0038 00000000 		.4byte	.LFB7
 4025 003c 58000000 		.4byte	.LFE7-.LFB7
 4026 0040 00000000 		.4byte	.LFB0
 4027 0044 18020000 		.4byte	.LFE0-.LFB0
 4028 0048 00000000 		.4byte	.LFB1
 4029 004c 4C020000 		.4byte	.LFE1-.LFB1
 4030 0050 00000000 		.4byte	.LFB2
 4031 0054 6C000000 		.4byte	.LFE2-.LFB2
 4032 0058 00000000 		.4byte	.LFB3
 4033 005c F4000000 		.4byte	.LFE3-.LFB3
 4034 0060 00000000 		.4byte	.LFB4
 4035 0064 E0000000 		.4byte	.LFE4-.LFB4
 4036 0068 00000000 		.4byte	.LFB5
 4037 006c 2C000000 		.4byte	.LFE5-.LFB5
 4038 0070 00000000 		.4byte	.LFB8
 4039 0074 5C000000 		.4byte	.LFE8-.LFB8
 4040 0078 00000000 		.4byte	.LFB9
 4041 007c 2C000000 		.4byte	.LFE9-.LFB9
 4042 0080 00000000 		.4byte	.LFB10
 4043 0084 5C000000 		.4byte	.LFE10-.LFB10
 4044 0088 00000000 		.4byte	0
 4045 008c 00000000 		.4byte	0
 4046              		.section	.debug_ranges,"",%progbits
 4047              	.Ldebug_ranges0:
 4048 0000 00000000 		.4byte	.LFB11
 4049 0004 DC010000 		.4byte	.LFE11
 4050 0008 00000000 		.4byte	.LFB12
 4051 000c D4000000 		.4byte	.LFE12
 4052 0010 00000000 		.4byte	.LFB13
 4053 0014 A0000000 		.4byte	.LFE13
 4054 0018 00000000 		.4byte	.LFB6
 4055 001c 8C000000 		.4byte	.LFE6
 4056 0020 00000000 		.4byte	.LFB14
 4057 0024 48000000 		.4byte	.LFE14
 4058 0028 00000000 		.4byte	.LFB7
 4059 002c 58000000 		.4byte	.LFE7
 4060 0030 00000000 		.4byte	.LFB0
 4061 0034 18020000 		.4byte	.LFE0
 4062 0038 00000000 		.4byte	.LFB1
 4063 003c 4C020000 		.4byte	.LFE1
ARM GAS  C:\Users\Ian\AppData\Local\Temp\ccxtF1i6.s 			page 110


 4064 0040 00000000 		.4byte	.LFB2
 4065 0044 6C000000 		.4byte	.LFE2
 4066 0048 00000000 		.4byte	.LFB3
 4067 004c F4000000 		.4byte	.LFE3
 4068 0050 00000000 		.4byte	.LFB4
 4069 0054 E0000000 		.4byte	.LFE4
 4070 0058 00000000 		.4byte	.LFB5
 4071 005c 2C000000 		.4byte	.LFE5
 4072 0060 00000000 		.4byte	.LFB8
 4073 0064 5C000000 		.4byte	.LFE8
 4074 0068 00000000 		.4byte	.LFB9
 4075 006c 2C000000 		.4byte	.LFE9
 4076 0070 00000000 		.4byte	.LFB10
 4077 0074 5C000000 		.4byte	.LFE10
 4078 0078 00000000 		.4byte	0
 4079 007c 00000000 		.4byte	0
 4080              		.section	.debug_line,"",%progbits
 4081              	.Ldebug_line0:
 4082 0000 50030000 		.section	.debug_str,"MS",%progbits,1
 4082      02006500 
 4082      00000201 
 4082      FB0E0D00 
 4082      01010101 
 4083              	.LASF86:
 4084 0000 43795664 		.ascii	"CyVdLvAnalogDisable\000"
 4084      4C76416E 
 4084      616C6F67 
 4084      44697361 
 4084      626C6500 
 4085              	.LASF10:
 4086 0014 75696E74 		.ascii	"uint16\000"
 4086      313600
 4087              	.LASF98:
 4088 001b 4379494D 		.ascii	"CyIMO_Start\000"
 4088      4F5F5374 
 4088      61727400 
 4089              	.LASF58:
 4090 0027 4379506D 		.ascii	"CyPmHibSlpRestore\000"
 4090      48696253 
 4090      6C705265 
 4090      73746F72 
 4090      6500
 4091              	.LASF43:
 4092 0039 77616B65 		.ascii	"wakeupTrim0\000"
 4092      75705472 
 4092      696D3000 
 4093              	.LASF44:
 4094 0045 77616B65 		.ascii	"wakeupTrim1\000"
 4094      75705472 
 4094      696D3100 
 4095              	.LASF20:
 4096 0051 6D617374 		.ascii	"masterClkSrc\000"
 4096      6572436C 
 4096      6B537263 
 4096      00
 4097              	.LASF56:
 4098 005e 43595F50 		.ascii	"CY_PM_BACKUP_STRUCT\000"
ARM GAS  C:\Users\Ian\AppData\Local\Temp\ccxtF1i6.s 			page 111


 4098      4D5F4241 
 4098      434B5550 
 4098      5F535452 
 4098      55435400 
 4099              	.LASF112:
 4100 0072 43795854 		.ascii	"CyXTAL_32KHZ_Start\000"
 4100      414C5F33 
 4100      324B485A 
 4100      5F537461 
 4100      727400
 4101              	.LASF28:
 4102 0085 636C6B53 		.ascii	"clkSyncDiv\000"
 4102      796E6344 
 4102      697600
 4103              	.LASF64:
 4104 0090 4379506D 		.ascii	"CyPmRestoreClocks\000"
 4104      52657374 
 4104      6F726543 
 4104      6C6F636B 
 4104      7300
 4105              	.LASF7:
 4106 00a2 6C6F6E67 		.ascii	"long long unsigned int\000"
 4106      206C6F6E 
 4106      6720756E 
 4106      7369676E 
 4106      65642069 
 4107              	.LASF59:
 4108 00b9 4379506D 		.ascii	"CyPmHviLviSaveDisable\000"
 4108      4876694C 
 4108      76695361 
 4108      76654469 
 4108      7361626C 
 4109              	.LASF76:
 4110 00cf 746D7053 		.ascii	"tmpStatus\000"
 4110      74617475 
 4110      7300
 4111              	.LASF49:
 4112 00d9 6C766961 		.ascii	"lviaTrip\000"
 4112      54726970 
 4112      00
 4113              	.LASF22:
 4114 00e2 696D6F55 		.ascii	"imoUsbClk\000"
 4114      7362436C 
 4114      6B00
 4115              	.LASF80:
 4116 00ec 4379506D 		.ascii	"CyPmFtwSetInterval\000"
 4116      46747753 
 4116      6574496E 
 4116      74657276 
 4116      616C00
 4117              	.LASF50:
 4118 00ff 68766961 		.ascii	"hviaEn\000"
 4118      456E00
 4119              	.LASF88:
 4120 0106 43795664 		.ascii	"CyVdLvDigitEnable\000"
 4120      4C764469 
 4120      67697445 
ARM GAS  C:\Users\Ian\AppData\Local\Temp\ccxtF1i6.s 			page 112


 4120      6E61626C 
 4120      6500
 4121              	.LASF36:
 4122 0118 696C6F50 		.ascii	"iloPowerMode\000"
 4122      6F776572 
 4122      4D6F6465 
 4122      00
 4123              	.LASF6:
 4124 0125 6C6F6E67 		.ascii	"long long int\000"
 4124      206C6F6E 
 4124      6720696E 
 4124      7400
 4125              	.LASF0:
 4126 0133 7369676E 		.ascii	"signed char\000"
 4126      65642063 
 4126      68617200 
 4127              	.LASF29:
 4128 013f 636C6B42 		.ascii	"clkBusDiv\000"
 4128      75734469 
 4128      7600
 4129              	.LASF72:
 4130 0149 696E7465 		.ascii	"interruptState\000"
 4130      72727570 
 4130      74537461 
 4130      746500
 4131              	.LASF91:
 4132 0158 4379494C 		.ascii	"CyILO_Start1K\000"
 4132      4F5F5374 
 4132      61727431 
 4132      4B00
 4133              	.LASF27:
 4134 0166 696D6F32 		.ascii	"imo2x\000"
 4134      7800
 4135              	.LASF4:
 4136 016c 6C6F6E67 		.ascii	"long int\000"
 4136      20696E74 
 4136      00
 4137              	.LASF61:
 4138 0175 4379506D 		.ascii	"CyPmHviLviRestore\000"
 4138      4876694C 
 4138      76695265 
 4138      73746F72 
 4138      6500
 4139              	.LASF9:
 4140 0187 75696E74 		.ascii	"uint8\000"
 4140      3800
 4141              	.LASF109:
 4142 018d 4379504C 		.ascii	"CyPLL_OUT_Start\000"
 4142      4C5F4F55 
 4142      545F5374 
 4142      61727400 
 4143              	.LASF99:
 4144 019d 43794465 		.ascii	"CyDelayUs\000"
 4144      6C617955 
 4144      7300
 4145              	.LASF13:
 4146 01a7 646F7562 		.ascii	"double\000"
ARM GAS  C:\Users\Ian\AppData\Local\Temp\ccxtF1i6.s 			page 113


 4146      6C6500
 4147              	.LASF114:
 4148 01ae 2E5C4765 		.ascii	".\\Generated_Source\\PSoC5\\cyPm.c\000"
 4148      6E657261 
 4148      7465645F 
 4148      536F7572 
 4148      63655C50 
 4149              	.LASF11:
 4150 01ce 75696E74 		.ascii	"uint32\000"
 4150      333200
 4151              	.LASF31:
 4152 01d5 786D687A 		.ascii	"xmhzEnableState\000"
 4152      456E6162 
 4152      6C655374 
 4152      61746500 
 4153              	.LASF62:
 4154 01e5 4379506D 		.ascii	"CyPmHibRestore\000"
 4154      48696252 
 4154      6573746F 
 4154      726500
 4155              	.LASF74:
 4156 01f4 6D61736B 		.ascii	"mask\000"
 4156      00
 4157              	.LASF53:
 4158 01f9 696D6F41 		.ascii	"imoActFreq\000"
 4158      63744672 
 4158      657100
 4159              	.LASF8:
 4160 0204 756E7369 		.ascii	"unsigned int\000"
 4160      676E6564 
 4160      20696E74 
 4160      00
 4161              	.LASF45:
 4162 0211 73636374 		.ascii	"scctData\000"
 4162      44617461 
 4162      00
 4163              	.LASF100:
 4164 021a 4379494D 		.ascii	"CyIMO_SetSource\000"
 4164      4F5F5365 
 4164      74536F75 
 4164      72636500 
 4165              	.LASF21:
 4166 022a 696D6F46 		.ascii	"imoFreq\000"
 4166      72657100 
 4167              	.LASF5:
 4168 0232 6C6F6E67 		.ascii	"long unsigned int\000"
 4168      20756E73 
 4168      69676E65 
 4168      6420696E 
 4168      7400
 4169              	.LASF46:
 4170 0244 6C766964 		.ascii	"lvidEn\000"
 4170      456E00
 4171              	.LASF34:
 4172 024b 6379506D 		.ascii	"cyPmClockBackupStruct\000"
 4172      436C6F63 
 4172      6B426163 
ARM GAS  C:\Users\Ian\AppData\Local\Temp\ccxtF1i6.s 			page 114


 4172      6B757053 
 4172      74727563 
 4173              	.LASF117:
 4174 0261 4379456E 		.ascii	"CyEnterCriticalSection\000"
 4174      74657243 
 4174      72697469 
 4174      63616C53 
 4174      65637469 
 4175              	.LASF35:
 4176 0278 6379506D 		.ascii	"cyPmBackupStruct\000"
 4176      4261636B 
 4176      75705374 
 4176      72756374 
 4176      00
 4177              	.LASF106:
 4178 0289 4379494C 		.ascii	"CyILO_SetPowerMode\000"
 4178      4F5F5365 
 4178      74506F77 
 4178      65724D6F 
 4178      646500
 4179              	.LASF110:
 4180 029c 4379494D 		.ascii	"CyIMO_Stop\000"
 4180      4F5F5374 
 4180      6F7000
 4181              	.LASF33:
 4182 02a7 43595F50 		.ascii	"CY_PM_CLOCK_BACKUP_STRUCT\000"
 4182      4D5F434C 
 4182      4F434B5F 
 4182      4241434B 
 4182      55505F53 
 4183              	.LASF3:
 4184 02c1 73686F72 		.ascii	"short unsigned int\000"
 4184      7420756E 
 4184      7369676E 
 4184      65642069 
 4184      6E7400
 4185              	.LASF78:
 4186 02d4 63747749 		.ascii	"ctwInterval\000"
 4186      6E746572 
 4186      76616C00 
 4187              	.LASF23:
 4188 02e0 666C6173 		.ascii	"flashWaitCycles\000"
 4188      68576169 
 4188      74437963 
 4188      6C657300 
 4189              	.LASF94:
 4190 02f0 43794D61 		.ascii	"CyMasterClk_SetSource\000"
 4190      73746572 
 4190      436C6B5F 
 4190      53657453 
 4190      6F757263 
 4191              	.LASF40:
 4192 0306 77616B65 		.ascii	"wakeupCfg0\000"
 4192      75704366 
 4192      673000
 4193              	.LASF41:
 4194 0311 77616B65 		.ascii	"wakeupCfg1\000"
ARM GAS  C:\Users\Ian\AppData\Local\Temp\ccxtF1i6.s 			page 115


 4194      75704366 
 4194      673100
 4195              	.LASF42:
 4196 031c 77616B65 		.ascii	"wakeupCfg2\000"
 4196      75704366 
 4196      673200
 4197              	.LASF66:
 4198 0327 636C6B42 		.ascii	"clkBusDivTmp\000"
 4198      75734469 
 4198      76546D70 
 4198      00
 4199              	.LASF55:
 4200 0334 626F6F73 		.ascii	"boostRefExt\000"
 4200      74526566 
 4200      45787400 
 4201              	.LASF26:
 4202 0340 636C6B49 		.ascii	"clkImoSrc\000"
 4202      6D6F5372 
 4202      6300
 4203              	.LASF63:
 4204 034a 4379506D 		.ascii	"CyPmSaveClocks\000"
 4204      53617665 
 4204      436C6F63 
 4204      6B7300
 4205              	.LASF107:
 4206 0359 43795854 		.ascii	"CyXTAL_Start\000"
 4206      414C5F53 
 4206      74617274 
 4206      00
 4207              	.LASF39:
 4208 0366 736C7054 		.ascii	"slpTrBypass\000"
 4208      72427970 
 4208      61737300 
 4209              	.LASF87:
 4210 0372 43795664 		.ascii	"CyVdHvAnalogDisable\000"
 4210      4876416E 
 4210      616C6F67 
 4210      44697361 
 4210      626C6500 
 4211              	.LASF17:
 4212 0386 73697A65 		.ascii	"sizetype\000"
 4212      74797065 
 4212      00
 4213              	.LASF67:
 4214 038f 6379506D 		.ascii	"cyPmImoFreqMhz2Reg\000"
 4214      496D6F46 
 4214      7265714D 
 4214      687A3252 
 4214      656700
 4215              	.LASF18:
 4216 03a2 656E436C 		.ascii	"enClkA\000"
 4216      6B4100
 4217              	.LASF19:
 4218 03a9 656E436C 		.ascii	"enClkD\000"
 4218      6B4400
 4219              	.LASF92:
 4220 03b0 4379494C 		.ascii	"CyILO_Start100K\000"
ARM GAS  C:\Users\Ian\AppData\Local\Temp\ccxtF1i6.s 			page 116


 4220      4F5F5374 
 4220      61727431 
 4220      30304B00 
 4221              	.LASF70:
 4222 03c0 77616B65 		.ascii	"wakeupSource\000"
 4222      7570536F 
 4222      75726365 
 4222      00
 4223              	.LASF96:
 4224 03cd 4379504C 		.ascii	"CyPLL_OUT_Stop\000"
 4224      4C5F4F55 
 4224      545F5374 
 4224      6F7000
 4225              	.LASF102:
 4226 03dc 43794D61 		.ascii	"CyMasterClk_SetDivider\000"
 4226      73746572 
 4226      436C6B5F 
 4226      53657444 
 4226      69766964 
 4227              	.LASF25:
 4228 03f3 696D6F43 		.ascii	"imoClkSrc\000"
 4228      6C6B5372 
 4228      6300
 4229              	.LASF12:
 4230 03fd 666C6F61 		.ascii	"float\000"
 4230      7400
 4231              	.LASF111:
 4232 0403 43794578 		.ascii	"CyExitCriticalSection\000"
 4232      69744372 
 4232      69746963 
 4232      616C5365 
 4232      6374696F 
 4233              	.LASF71:
 4234 0419 4379506D 		.ascii	"CyPmSleep\000"
 4234      536C6565 
 4234      7000
 4235              	.LASF51:
 4236 0423 6C766964 		.ascii	"lvidRst\000"
 4236      52737400 
 4237              	.LASF68:
 4238 042b 4379506D 		.ascii	"CyPmAltAct\000"
 4238      416C7441 
 4238      637400
 4239              	.LASF105:
 4240 0436 43794465 		.ascii	"CyDelayCycles\000"
 4240      6C617943 
 4240      79636C65 
 4240      7300
 4241              	.LASF16:
 4242 0444 72656738 		.ascii	"reg8\000"
 4242      00
 4243              	.LASF95:
 4244 0449 43794861 		.ascii	"CyHalt\000"
 4244      6C7400
 4245              	.LASF79:
 4246 0450 4379506D 		.ascii	"CyPmOppsSet\000"
 4246      4F707073 
ARM GAS  C:\Users\Ian\AppData\Local\Temp\ccxtF1i6.s 			page 117


 4246      53657400 
 4247              	.LASF1:
 4248 045c 756E7369 		.ascii	"unsigned char\000"
 4248      676E6564 
 4248      20636861 
 4248      7200
 4249              	.LASF83:
 4250 046a 6379506D 		.ascii	"cyPmClockBackup\000"
 4250      436C6F63 
 4250      6B426163 
 4250      6B757000 
 4251              	.LASF30:
 4252 047a 706C6C45 		.ascii	"pllEnableState\000"
 4252      6E61626C 
 4252      65537461 
 4252      746500
 4253              	.LASF37:
 4254 0489 696C6F31 		.ascii	"ilo1kEnable\000"
 4254      6B456E61 
 4254      626C6500 
 4255              	.LASF2:
 4256 0495 73686F72 		.ascii	"short int\000"
 4256      7420696E 
 4256      7400
 4257              	.LASF57:
 4258 049f 4379506D 		.ascii	"CyPmHibSlpSaveSet\000"
 4258      48696253 
 4258      6C705361 
 4258      76655365 
 4258      7400
 4259              	.LASF38:
 4260 04b1 696C6F31 		.ascii	"ilo100kEnable\000"
 4260      30306B45 
 4260      6E61626C 
 4260      6500
 4261              	.LASF14:
 4262 04bf 63686172 		.ascii	"char\000"
 4262      00
 4263              	.LASF101:
 4264 04c4 4379494D 		.ascii	"CyIMO_DisableDoubler\000"
 4264      4F5F4469 
 4264      7361626C 
 4264      65446F75 
 4264      626C6572 
 4265              	.LASF85:
 4266 04d9 43795664 		.ascii	"CyVdLvDigitDisable\000"
 4266      4C764469 
 4266      67697444 
 4266      69736162 
 4266      6C6500
 4267              	.LASF54:
 4268 04ec 696D6F41 		.ascii	"imoActFreq12Mhz\000"
 4268      63744672 
 4268      65713132 
 4268      4D687A00 
 4269              	.LASF73:
 4270 04fc 4379506D 		.ascii	"CyPmHibernate\000"
ARM GAS  C:\Users\Ian\AppData\Local\Temp\ccxtF1i6.s 			page 118


 4270      48696265 
 4270      726E6174 
 4270      6500
 4271              	.LASF93:
 4272 050a 4379466C 		.ascii	"CyFlash_SetWaitCycles\000"
 4272      6173685F 
 4272      53657457 
 4272      61697443 
 4272      79636C65 
 4273              	.LASF81:
 4274 0520 66747749 		.ascii	"ftwInterval\000"
 4274      6E746572 
 4274      76616C00 
 4275              	.LASF84:
 4276 052c 6379506D 		.ascii	"cyPmImoFreqReg2Mhz\000"
 4276      496D6F46 
 4276      72657152 
 4276      6567324D 
 4276      687A00
 4277              	.LASF116:
 4278 053f 4379506D 		.ascii	"CyPmReadStatus\000"
 4278      52656164 
 4278      53746174 
 4278      757300
 4279              	.LASF103:
 4280 054e 43794275 		.ascii	"CyBusClk_SetDivider\000"
 4280      73436C6B 
 4280      5F536574 
 4280      44697669 
 4280      64657200 
 4281              	.LASF32:
 4282 0562 636C6B44 		.ascii	"clkDistDelay\000"
 4282      69737444 
 4282      656C6179 
 4282      00
 4283              	.LASF77:
 4284 056f 4379506D 		.ascii	"CyPmCtwSetInterval\000"
 4284      43747753 
 4284      6574496E 
 4284      74657276 
 4284      616C00
 4285              	.LASF65:
 4286 0582 73746174 		.ascii	"status\000"
 4286      757300
 4287              	.LASF113:
 4288 0589 474E5520 		.ascii	"GNU C 4.9.3 20150303 (release) [ARM/embedded-4_9-br"
 4288      4320342E 
 4288      392E3320 
 4288      32303135 
 4288      30333033 
 4289 05bc 616E6368 		.ascii	"anch revision 221220] -mcpu=cortex-m3 -mthumb -g -O"
 4289      20726576 
 4289      6973696F 
 4289      6E203232 
 4289      31323230 
 4290 05ef 67202D66 		.ascii	"g -ffunction-sections -ffat-lto-objects\000"
 4290      66756E63 
ARM GAS  C:\Users\Ian\AppData\Local\Temp\ccxtF1i6.s 			page 119


 4290      74696F6E 
 4290      2D736563 
 4290      74696F6E 
 4291              	.LASF48:
 4292 0617 6C766961 		.ascii	"lviaEn\000"
 4292      456E00
 4293              	.LASF97:
 4294 061e 4379494D 		.ascii	"CyIMO_SetFreq\000"
 4294      4F5F5365 
 4294      74467265 
 4294      7100
 4295              	.LASF108:
 4296 062c 4379494D 		.ascii	"CyIMO_EnableDoubler\000"
 4296      4F5F456E 
 4296      61626C65 
 4296      446F7562 
 4296      6C657200 
 4297              	.LASF60:
 4298 0640 4379506D 		.ascii	"CyPmHibSaveSet\000"
 4298      48696253 
 4298      61766553 
 4298      657400
 4299              	.LASF69:
 4300 064f 77616B65 		.ascii	"wakeupTime\000"
 4300      75705469 
 4300      6D6500
 4301              	.LASF89:
 4302 065a 43795664 		.ascii	"CyVdLvAnalogEnable\000"
 4302      4C76416E 
 4302      616C6F67 
 4302      456E6162 
 4302      6C6500
 4303              	.LASF15:
 4304 066d 63797374 		.ascii	"cystatus\000"
 4304      61747573 
 4304      00
 4305              	.LASF115:
 4306 0676 433A5C55 		.ascii	"C:\\Users\\Ian\\Documents\\Junior\\Senior Project C"
 4306      73657273 
 4306      5C49616E 
 4306      5C446F63 
 4306      756D656E 
 4307 06a4 68697020 		.ascii	"hip Design\\Chip-Design\\proj_asic\\psoc\\Wave Gene"
 4307      44657369 
 4307      676E5C43 
 4307      6869702D 
 4307      44657369 
 4308 06d3 7261746F 		.ascii	"rator\\Wave Generator.cydsn\000"
 4308      725C5761 
 4308      76652047 
 4308      656E6572 
 4308      61746F72 
 4309              	.LASF52:
 4310 06ee 6C766961 		.ascii	"lviaRst\000"
 4310      52737400 
 4311              	.LASF90:
 4312 06f6 43795664 		.ascii	"CyVdHvAnalogEnable\000"
ARM GAS  C:\Users\Ian\AppData\Local\Temp\ccxtF1i6.s 			page 120


 4312      4876416E 
 4312      616C6F67 
 4312      456E6162 
 4312      6C6500
 4313              	.LASF104:
 4314 0709 43795854 		.ascii	"CyXTAL_Stop\000"
 4314      414C5F53 
 4314      746F7000 
 4315              	.LASF82:
 4316 0715 6379506D 		.ascii	"cyPmBackup\000"
 4316      4261636B 
 4316      757000
 4317              	.LASF47:
 4318 0720 6C766964 		.ascii	"lvidTrip\000"
 4318      54726970 
 4318      00
 4319              	.LASF24:
 4320 0729 696D6F45 		.ascii	"imoEnable\000"
 4320      6E61626C 
 4320      6500
 4321              	.LASF75:
 4322 0733 696E7465 		.ascii	"interruptStatus\000"
 4322      72727570 
 4322      74537461 
 4322      74757300 
 4323              		.ident	"GCC: (GNU Tools for ARM Embedded Processors) 4.9.3 20150303 (release) [ARM/embedded-4_9-br
