ARM GAS  C:\Users\Ian\AppData\Local\Temp\cc52uvxW.s 			page 1


   1              		.syntax unified
   2              		.cpu cortex-m3
   3              		.fpu softvfp
   4              		.eabi_attribute 20, 1
   5              		.eabi_attribute 21, 1
   6              		.eabi_attribute 23, 3
   7              		.eabi_attribute 24, 1
   8              		.eabi_attribute 25, 1
   9              		.eabi_attribute 26, 1
  10              		.eabi_attribute 30, 1
  11              		.eabi_attribute 34, 1
  12              		.eabi_attribute 18, 4
  13              		.thumb
  14              		.file	"I2S.c"
  15              		.text
  16              	.Ltext0:
  17              		.cfi_sections	.debug_frame
  18              		.section	.text.I2S_Enable,"ax",%progbits
  19              		.align	2
  20              		.global	I2S_Enable
  21              		.thumb
  22              		.thumb_func
  23              		.type	I2S_Enable, %function
  24              	I2S_Enable:
  25              	.LFB0:
  26              		.file 1 ".\\Generated_Source\\PSoC5\\I2S.c"
   1:.\Generated_Source\PSoC5/I2S.c **** /*******************************************************************************
   2:.\Generated_Source\PSoC5/I2S.c **** * File Name: I2S.c
   3:.\Generated_Source\PSoC5/I2S.c **** * Version 2.60
   4:.\Generated_Source\PSoC5/I2S.c **** *
   5:.\Generated_Source\PSoC5/I2S.c **** * Description:
   6:.\Generated_Source\PSoC5/I2S.c **** *  This file contains the setup, control and status commands for the I2S
   7:.\Generated_Source\PSoC5/I2S.c **** *  component.
   8:.\Generated_Source\PSoC5/I2S.c **** *
   9:.\Generated_Source\PSoC5/I2S.c **** * Note:
  10:.\Generated_Source\PSoC5/I2S.c **** *
  11:.\Generated_Source\PSoC5/I2S.c **** ********************************************************************************
  12:.\Generated_Source\PSoC5/I2S.c **** * Copyright 2008-2014, Cypress Semiconductor Corporation.  All rights reserved.
  13:.\Generated_Source\PSoC5/I2S.c **** * You may use this file only in accordance with the license, terms, conditions,
  14:.\Generated_Source\PSoC5/I2S.c **** * disclaimers, and limitations in the end user license agreement accompanying
  15:.\Generated_Source\PSoC5/I2S.c **** * the software package with which this file was provided.
  16:.\Generated_Source\PSoC5/I2S.c **** *******************************************************************************/
  17:.\Generated_Source\PSoC5/I2S.c **** 
  18:.\Generated_Source\PSoC5/I2S.c **** #include "CyLib.h"
  19:.\Generated_Source\PSoC5/I2S.c **** #include "I2S.h"
  20:.\Generated_Source\PSoC5/I2S.c **** 
  21:.\Generated_Source\PSoC5/I2S.c **** uint8 I2S_initVar = 0u;
  22:.\Generated_Source\PSoC5/I2S.c **** 
  23:.\Generated_Source\PSoC5/I2S.c **** 
  24:.\Generated_Source\PSoC5/I2S.c **** /*******************************************************************************
  25:.\Generated_Source\PSoC5/I2S.c **** * Function Name: I2S_Enable
  26:.\Generated_Source\PSoC5/I2S.c **** ********************************************************************************
  27:.\Generated_Source\PSoC5/I2S.c **** *
  28:.\Generated_Source\PSoC5/I2S.c **** * Summary:
  29:.\Generated_Source\PSoC5/I2S.c **** *  Enables I2S interface. Starts the generation of the sck and ws outputs.
  30:.\Generated_Source\PSoC5/I2S.c **** *  The Tx and Rx directions remain disabled. It is not necessary to call
  31:.\Generated_Source\PSoC5/I2S.c **** *  I2S_Enable() because the I2S_Start() routine calls this function, which is
ARM GAS  C:\Users\Ian\AppData\Local\Temp\cc52uvxW.s 			page 2


  32:.\Generated_Source\PSoC5/I2S.c **** *  the preferred method to begin component operation.
  33:.\Generated_Source\PSoC5/I2S.c **** *
  34:.\Generated_Source\PSoC5/I2S.c **** * Parameters:
  35:.\Generated_Source\PSoC5/I2S.c **** *  None.
  36:.\Generated_Source\PSoC5/I2S.c **** *
  37:.\Generated_Source\PSoC5/I2S.c **** * Return:
  38:.\Generated_Source\PSoC5/I2S.c **** *  None.
  39:.\Generated_Source\PSoC5/I2S.c **** *
  40:.\Generated_Source\PSoC5/I2S.c **** *******************************************************************************/
  41:.\Generated_Source\PSoC5/I2S.c **** void I2S_Enable(void) 
  42:.\Generated_Source\PSoC5/I2S.c **** {
  27              		.loc 1 42 0
  28              		.cfi_startproc
  29              		@ args = 0, pretend = 0, frame = 0
  30              		@ frame_needed = 0, uses_anonymous_args = 0
  31 0000 08B5     		push	{r3, lr}
  32              		.cfi_def_cfa_offset 8
  33              		.cfi_offset 3, -8
  34              		.cfi_offset 14, -4
  43:.\Generated_Source\PSoC5/I2S.c ****     uint8 enableInterrupts;
  44:.\Generated_Source\PSoC5/I2S.c **** 
  45:.\Generated_Source\PSoC5/I2S.c ****     enableInterrupts = CyEnterCriticalSection();
  35              		.loc 1 45 0
  36 0002 FFF7FEFF 		bl	CyEnterCriticalSection
  37              	.LVL0:
  46:.\Generated_Source\PSoC5/I2S.c ****     I2S_AUX_CONTROL_REG |= I2S_CNT_START;
  38              		.loc 1 46 0
  39 0006 064A     		ldr	r2, .L3
  40 0008 1378     		ldrb	r3, [r2]	@ zero_extendqisi2
  41 000a 43F02003 		orr	r3, r3, #32
  42 000e 1370     		strb	r3, [r2]
  47:.\Generated_Source\PSoC5/I2S.c ****     CyExitCriticalSection(enableInterrupts);
  43              		.loc 1 47 0
  44 0010 FFF7FEFF 		bl	CyExitCriticalSection
  45              	.LVL1:
  48:.\Generated_Source\PSoC5/I2S.c **** 
  49:.\Generated_Source\PSoC5/I2S.c ****     I2S_CONTROL_REG |= I2S_EN;
  46              		.loc 1 49 0
  47 0014 034A     		ldr	r2, .L3+4
  48 0016 1378     		ldrb	r3, [r2]	@ zero_extendqisi2
  49 0018 43F00403 		orr	r3, r3, #4
  50 001c 1370     		strb	r3, [r2]
  51 001e 08BD     		pop	{r3, pc}
  52              	.L4:
  53              		.align	2
  54              	.L3:
  55 0020 92640040 		.word	1073767570
  56 0024 71640040 		.word	1073767537
  57              		.cfi_endproc
  58              	.LFE0:
  59              		.size	I2S_Enable, .-I2S_Enable
  60              		.section	.text.I2S_Init,"ax",%progbits
  61              		.align	2
  62              		.global	I2S_Init
  63              		.thumb
  64              		.thumb_func
  65              		.type	I2S_Init, %function
ARM GAS  C:\Users\Ian\AppData\Local\Temp\cc52uvxW.s 			page 3


  66              	I2S_Init:
  67              	.LFB1:
  50:.\Generated_Source\PSoC5/I2S.c **** }
  51:.\Generated_Source\PSoC5/I2S.c **** 
  52:.\Generated_Source\PSoC5/I2S.c **** 
  53:.\Generated_Source\PSoC5/I2S.c **** /*******************************************************************************
  54:.\Generated_Source\PSoC5/I2S.c **** * Function Name: I2S_Init
  55:.\Generated_Source\PSoC5/I2S.c **** ********************************************************************************
  56:.\Generated_Source\PSoC5/I2S.c **** *
  57:.\Generated_Source\PSoC5/I2S.c **** * Summary:
  58:.\Generated_Source\PSoC5/I2S.c **** *  Initializes or restores default I2S configuration provided with customizer.
  59:.\Generated_Source\PSoC5/I2S.c **** *  It is not necessary to call I2S_Init() because the I2S_Start() routine calls
  60:.\Generated_Source\PSoC5/I2S.c **** *  this function, which is the preferred method to begin component operation.
  61:.\Generated_Source\PSoC5/I2S.c **** *
  62:.\Generated_Source\PSoC5/I2S.c **** * Parameters:
  63:.\Generated_Source\PSoC5/I2S.c **** *  None.
  64:.\Generated_Source\PSoC5/I2S.c **** *
  65:.\Generated_Source\PSoC5/I2S.c **** * Return:
  66:.\Generated_Source\PSoC5/I2S.c **** *  None.
  67:.\Generated_Source\PSoC5/I2S.c **** *
  68:.\Generated_Source\PSoC5/I2S.c **** *******************************************************************************/
  69:.\Generated_Source\PSoC5/I2S.c **** void I2S_Init(void) 
  70:.\Generated_Source\PSoC5/I2S.c **** {
  68              		.loc 1 70 0
  69              		.cfi_startproc
  70              		@ args = 0, pretend = 0, frame = 0
  71              		@ frame_needed = 0, uses_anonymous_args = 0
  72              		@ link register save eliminated.
  71:.\Generated_Source\PSoC5/I2S.c ****     #if (I2S_CLIP_DETECT_ENABLE)
  72:.\Generated_Source\PSoC5/I2S.c ****         static const uint8 CYCODE I2S_posThresholds[] = {0u};
  73:.\Generated_Source\PSoC5/I2S.c ****         static const int8  CYCODE I2S_negThresholds[] = {-1};
  74:.\Generated_Source\PSoC5/I2S.c ****     #endif /* I2S_CLIP_DETECT_ENABLE */
  75:.\Generated_Source\PSoC5/I2S.c **** 
  76:.\Generated_Source\PSoC5/I2S.c ****     #if (I2S_DYNAMIC_BIT_RESOLUTION)
  77:.\Generated_Source\PSoC5/I2S.c ****         (void)I2S_SetDataBits(I2S_DATA_BITS);
  78:.\Generated_Source\PSoC5/I2S.c ****     #endif /* I2S_DYNAMIC_BIT_RESOLUTION */
  79:.\Generated_Source\PSoC5/I2S.c **** 
  80:.\Generated_Source\PSoC5/I2S.c ****     /* Initialize Tx interrupt source selected in customizer */
  81:.\Generated_Source\PSoC5/I2S.c ****     #if (I2S_TX_DIRECTION_ENABLE)
  82:.\Generated_Source\PSoC5/I2S.c ****         I2S_SET_TX_INT_MASK(CH0, I2S_TX_INT_SOURCE);
  73              		.loc 1 82 0
  74 0000 084B     		ldr	r3, .L6
  75 0002 1A78     		ldrb	r2, [r3]	@ zero_extendqisi2
  76 0004 02F0F802 		and	r2, r2, #248
  77 0008 1A70     		strb	r2, [r3]
  78 000a 1A78     		ldrb	r2, [r3]	@ zero_extendqisi2
  79 000c D2B2     		uxtb	r2, r2
  80 000e 1A70     		strb	r2, [r3]
  83:.\Generated_Source\PSoC5/I2S.c ****         #if (I2S_TX_STEREO_1_PRESENT)
  84:.\Generated_Source\PSoC5/I2S.c ****             I2S_SET_TX_INT_MASK(CH1, I2S_TX_INT_SOURCE);
  85:.\Generated_Source\PSoC5/I2S.c ****         #endif /* I2S_TX_STEREO_1_PRESENT */
  86:.\Generated_Source\PSoC5/I2S.c ****         #if (I2S_TX_STEREO_2_PRESENT)
  87:.\Generated_Source\PSoC5/I2S.c ****             I2S_SET_TX_INT_MASK(CH2, I2S_TX_INT_SOURCE);
  88:.\Generated_Source\PSoC5/I2S.c ****         #endif /* I2S_TX_STEREO_2_PRESENT */
  89:.\Generated_Source\PSoC5/I2S.c ****         #if (I2S_TX_STEREO_3_PRESENT)
  90:.\Generated_Source\PSoC5/I2S.c ****             I2S_SET_TX_INT_MASK(CH3, I2S_TX_INT_SOURCE);
  91:.\Generated_Source\PSoC5/I2S.c ****         #endif /* I2S_TX_STEREO_3_PRESENT */
ARM GAS  C:\Users\Ian\AppData\Local\Temp\cc52uvxW.s 			page 4


  92:.\Generated_Source\PSoC5/I2S.c ****         #if (I2S_TX_STEREO_4_PRESENT)
  93:.\Generated_Source\PSoC5/I2S.c ****             I2S_SET_TX_INT_MASK(CH4, I2S_TX_INT_SOURCE);
  94:.\Generated_Source\PSoC5/I2S.c ****         #endif /* I2S_TX_STEREO_4_PRESENT */
  95:.\Generated_Source\PSoC5/I2S.c ****     #endif /* (I2S_TX_DIRECTION_ENABLE) */
  96:.\Generated_Source\PSoC5/I2S.c ****     
  97:.\Generated_Source\PSoC5/I2S.c ****     /* Initialize Rx interrupt source and clipping thresholds selected in customizer */
  98:.\Generated_Source\PSoC5/I2S.c ****     #if (I2S_RX_DIRECTION_ENABLE)
  99:.\Generated_Source\PSoC5/I2S.c ****         I2S_SET_RX_INT_MASK(CH0, I2S_RX_INT_SOURCE);
  81              		.loc 1 99 0
  82 0010 0433     		adds	r3, r3, #4
  83 0012 1A78     		ldrb	r2, [r3]	@ zero_extendqisi2
  84 0014 02F0F802 		and	r2, r2, #248
  85 0018 1A70     		strb	r2, [r3]
  86 001a 1A78     		ldrb	r2, [r3]	@ zero_extendqisi2
  87 001c D2B2     		uxtb	r2, r2
  88 001e 1A70     		strb	r2, [r3]
  89 0020 7047     		bx	lr
  90              	.L7:
  91 0022 00BF     		.align	2
  92              	.L6:
  93 0024 81640040 		.word	1073767553
  94              		.cfi_endproc
  95              	.LFE1:
  96              		.size	I2S_Init, .-I2S_Init
  97              		.section	.text.I2S_Start,"ax",%progbits
  98              		.align	2
  99              		.global	I2S_Start
 100              		.thumb
 101              		.thumb_func
 102              		.type	I2S_Start, %function
 103              	I2S_Start:
 104              	.LFB2:
 100:.\Generated_Source\PSoC5/I2S.c ****         #if (I2S_CLIP_DETECT_ENABLE)
 101:.\Generated_Source\PSoC5/I2S.c ****             I2S_SET_POS_THRESHOLD(CH0, I2S_posThresholds[I2S_STEREO_0]);
 102:.\Generated_Source\PSoC5/I2S.c ****             I2S_SET_NEG_THRESHOLD(CH0, I2S_negThresholds[I2S_STEREO_0]);
 103:.\Generated_Source\PSoC5/I2S.c ****         #endif /* I2S_CLIP_DETECT_ENABLE */
 104:.\Generated_Source\PSoC5/I2S.c ****         #if (I2S_RX_STEREO_1_PRESENT)
 105:.\Generated_Source\PSoC5/I2S.c ****             I2S_SET_RX_INT_MASK(CH1, I2S_RX_INT_SOURCE);
 106:.\Generated_Source\PSoC5/I2S.c ****             #if (I2S_CLIP_DETECT_ENABLE)
 107:.\Generated_Source\PSoC5/I2S.c ****                 I2S_SET_POS_THRESHOLD(CH1, I2S_posThresholds[I2S_STEREO_1]);
 108:.\Generated_Source\PSoC5/I2S.c ****                 I2S_SET_NEG_THRESHOLD(CH1, I2S_negThresholds[I2S_STEREO_1]);
 109:.\Generated_Source\PSoC5/I2S.c ****             #endif /* I2S_CLIP_DETECT_ENABLE */
 110:.\Generated_Source\PSoC5/I2S.c ****         #endif /* I2S_RX_STEREO_1_PRESENT */
 111:.\Generated_Source\PSoC5/I2S.c ****         #if (I2S_RX_STEREO_2_PRESENT)
 112:.\Generated_Source\PSoC5/I2S.c ****             I2S_SET_RX_INT_MASK(CH2, I2S_RX_INT_SOURCE);
 113:.\Generated_Source\PSoC5/I2S.c ****             #if (I2S_CLIP_DETECT_ENABLE)
 114:.\Generated_Source\PSoC5/I2S.c ****                 I2S_SET_POS_THRESHOLD(CH2, I2S_posThresholds[I2S_STEREO_2]);
 115:.\Generated_Source\PSoC5/I2S.c ****                 I2S_SET_NEG_THRESHOLD(CH2, I2S_negThresholds[I2S_STEREO_2]);
 116:.\Generated_Source\PSoC5/I2S.c ****             #endif /* I2S_CLIP_DETECT_ENABLE */
 117:.\Generated_Source\PSoC5/I2S.c ****         #endif /* I2S_RX_STEREO_2_PRESENT */
 118:.\Generated_Source\PSoC5/I2S.c ****         #if (I2S_RX_STEREO_3_PRESENT)
 119:.\Generated_Source\PSoC5/I2S.c ****             I2S_SET_RX_INT_MASK(CH3, I2S_RX_INT_SOURCE);
 120:.\Generated_Source\PSoC5/I2S.c ****             #if (I2S_CLIP_DETECT_ENABLE)
 121:.\Generated_Source\PSoC5/I2S.c ****                 I2S_SET_POS_THRESHOLD(CH3, I2S_posThresholds[I2S_STEREO_3]);
 122:.\Generated_Source\PSoC5/I2S.c ****                 I2S_SET_NEG_THRESHOLD(CH3, I2S_negThresholds[I2S_STEREO_3]);
 123:.\Generated_Source\PSoC5/I2S.c ****             #endif /* I2S_CLIP_DETECT_ENABLE */
 124:.\Generated_Source\PSoC5/I2S.c ****         #endif /* I2S_RX_STEREO_3_PRESENT */
ARM GAS  C:\Users\Ian\AppData\Local\Temp\cc52uvxW.s 			page 5


 125:.\Generated_Source\PSoC5/I2S.c ****         #if (I2S_RX_STEREO_4_PRESENT)
 126:.\Generated_Source\PSoC5/I2S.c ****             I2S_SET_RX_INT_MASK(CH4, I2S_RX_INT_SOURCE);
 127:.\Generated_Source\PSoC5/I2S.c ****             #if (I2S_CLIP_DETECT_ENABLE)
 128:.\Generated_Source\PSoC5/I2S.c ****                 I2S_SET_POS_THRESHOLD(CH4, I2S_posThresholds[I2S_STEREO_4]);
 129:.\Generated_Source\PSoC5/I2S.c ****                 I2S_SET_NEG_THRESHOLD(CH4, I2S_negThresholds[I2S_STEREO_4]);
 130:.\Generated_Source\PSoC5/I2S.c ****             #endif /* I2S_CLIP_DETECT_ENABLE */
 131:.\Generated_Source\PSoC5/I2S.c ****         #endif /* I2S_RX_STEREO_4_PRESENT */
 132:.\Generated_Source\PSoC5/I2S.c ****     #endif /* (I2S_RX_DIRECTION_ENABLE) */
 133:.\Generated_Source\PSoC5/I2S.c **** }
 134:.\Generated_Source\PSoC5/I2S.c **** 
 135:.\Generated_Source\PSoC5/I2S.c **** 
 136:.\Generated_Source\PSoC5/I2S.c **** /*******************************************************************************
 137:.\Generated_Source\PSoC5/I2S.c **** * Function Name: I2S_Start
 138:.\Generated_Source\PSoC5/I2S.c **** ********************************************************************************
 139:.\Generated_Source\PSoC5/I2S.c **** *
 140:.\Generated_Source\PSoC5/I2S.c **** * Summary:
 141:.\Generated_Source\PSoC5/I2S.c **** *  Starts the I2S interface. Starts the generation of the sck and ws outputs.
 142:.\Generated_Source\PSoC5/I2S.c **** *  The Tx and Rx directions remain disabled.
 143:.\Generated_Source\PSoC5/I2S.c **** *
 144:.\Generated_Source\PSoC5/I2S.c **** * Parameters:
 145:.\Generated_Source\PSoC5/I2S.c **** *  None.
 146:.\Generated_Source\PSoC5/I2S.c **** *
 147:.\Generated_Source\PSoC5/I2S.c **** * Return:
 148:.\Generated_Source\PSoC5/I2S.c **** *  None.
 149:.\Generated_Source\PSoC5/I2S.c **** *
 150:.\Generated_Source\PSoC5/I2S.c **** * Global Variables:
 151:.\Generated_Source\PSoC5/I2S.c **** *  I2S_initVar - used to check initial configuration, modified on
 152:.\Generated_Source\PSoC5/I2S.c **** *  first function call.
 153:.\Generated_Source\PSoC5/I2S.c **** *
 154:.\Generated_Source\PSoC5/I2S.c **** * Reentrant:
 155:.\Generated_Source\PSoC5/I2S.c **** *  No.
 156:.\Generated_Source\PSoC5/I2S.c **** *
 157:.\Generated_Source\PSoC5/I2S.c **** *******************************************************************************/
 158:.\Generated_Source\PSoC5/I2S.c **** void I2S_Start(void) 
 159:.\Generated_Source\PSoC5/I2S.c **** {
 105              		.loc 1 159 0
 106              		.cfi_startproc
 107              		@ args = 0, pretend = 0, frame = 0
 108              		@ frame_needed = 0, uses_anonymous_args = 0
 109 0000 08B5     		push	{r3, lr}
 110              		.cfi_def_cfa_offset 8
 111              		.cfi_offset 3, -8
 112              		.cfi_offset 14, -4
 160:.\Generated_Source\PSoC5/I2S.c ****     if(0u == I2S_initVar)
 113              		.loc 1 160 0
 114 0002 054B     		ldr	r3, .L11
 115 0004 1B78     		ldrb	r3, [r3]	@ zero_extendqisi2
 116 0006 23B9     		cbnz	r3, .L9
 161:.\Generated_Source\PSoC5/I2S.c ****     {
 162:.\Generated_Source\PSoC5/I2S.c ****         I2S_Init();
 117              		.loc 1 162 0
 118 0008 FFF7FEFF 		bl	I2S_Init
 119              	.LVL2:
 163:.\Generated_Source\PSoC5/I2S.c ****         I2S_initVar = 1u;
 120              		.loc 1 163 0
 121 000c 0122     		movs	r2, #1
 122 000e 024B     		ldr	r3, .L11
ARM GAS  C:\Users\Ian\AppData\Local\Temp\cc52uvxW.s 			page 6


 123 0010 1A70     		strb	r2, [r3]
 124              	.L9:
 164:.\Generated_Source\PSoC5/I2S.c ****     }
 165:.\Generated_Source\PSoC5/I2S.c **** 
 166:.\Generated_Source\PSoC5/I2S.c ****     I2S_Enable();
 125              		.loc 1 166 0
 126 0012 FFF7FEFF 		bl	I2S_Enable
 127              	.LVL3:
 128 0016 08BD     		pop	{r3, pc}
 129              	.L12:
 130              		.align	2
 131              	.L11:
 132 0018 00000000 		.word	.LANCHOR0
 133              		.cfi_endproc
 134              	.LFE2:
 135              		.size	I2S_Start, .-I2S_Start
 136              		.section	.text.I2S_EnableTx,"ax",%progbits
 137              		.align	2
 138              		.global	I2S_EnableTx
 139              		.thumb
 140              		.thumb_func
 141              		.type	I2S_EnableTx, %function
 142              	I2S_EnableTx:
 143              	.LFB4:
 167:.\Generated_Source\PSoC5/I2S.c **** }
 168:.\Generated_Source\PSoC5/I2S.c **** 
 169:.\Generated_Source\PSoC5/I2S.c **** 
 170:.\Generated_Source\PSoC5/I2S.c **** /*******************************************************************************
 171:.\Generated_Source\PSoC5/I2S.c **** * Function Name: I2S_Stop
 172:.\Generated_Source\PSoC5/I2S.c **** ********************************************************************************
 173:.\Generated_Source\PSoC5/I2S.c **** *
 174:.\Generated_Source\PSoC5/I2S.c **** * Summary:
 175:.\Generated_Source\PSoC5/I2S.c **** *  Disables the I2S interface. The sck and ws outputs are set to 0. The Tx and
 176:.\Generated_Source\PSoC5/I2S.c **** *  Rx directions are disabled and their FIFOs are cleared.
 177:.\Generated_Source\PSoC5/I2S.c **** *
 178:.\Generated_Source\PSoC5/I2S.c **** * Parameters:
 179:.\Generated_Source\PSoC5/I2S.c **** *  None.
 180:.\Generated_Source\PSoC5/I2S.c **** *
 181:.\Generated_Source\PSoC5/I2S.c **** * Return:
 182:.\Generated_Source\PSoC5/I2S.c **** *  None.
 183:.\Generated_Source\PSoC5/I2S.c **** *
 184:.\Generated_Source\PSoC5/I2S.c **** *******************************************************************************/
 185:.\Generated_Source\PSoC5/I2S.c **** void I2S_Stop(void) 
 186:.\Generated_Source\PSoC5/I2S.c **** {
 187:.\Generated_Source\PSoC5/I2S.c ****     uint8 enableInterrupts;
 188:.\Generated_Source\PSoC5/I2S.c **** 
 189:.\Generated_Source\PSoC5/I2S.c ****     I2S_CONTROL_REG &= (uint8)~I2S_EN;
 190:.\Generated_Source\PSoC5/I2S.c **** 
 191:.\Generated_Source\PSoC5/I2S.c ****     enableInterrupts = CyEnterCriticalSection();
 192:.\Generated_Source\PSoC5/I2S.c ****     I2S_AUX_CONTROL_REG &= (uint8)~I2S_CNT_START;
 193:.\Generated_Source\PSoC5/I2S.c ****     CyExitCriticalSection(enableInterrupts);
 194:.\Generated_Source\PSoC5/I2S.c **** 
 195:.\Generated_Source\PSoC5/I2S.c ****     /* Clear counter value to force reload when component is enabled */
 196:.\Generated_Source\PSoC5/I2S.c ****     I2S_CNT_COUNT_REG = 0u;
 197:.\Generated_Source\PSoC5/I2S.c **** 
 198:.\Generated_Source\PSoC5/I2S.c ****     #if (I2S_TX_DIRECTION_ENABLE)
 199:.\Generated_Source\PSoC5/I2S.c ****         I2S_DisableTx();
ARM GAS  C:\Users\Ian\AppData\Local\Temp\cc52uvxW.s 			page 7


 200:.\Generated_Source\PSoC5/I2S.c ****         I2S_ClearTxFIFO();
 201:.\Generated_Source\PSoC5/I2S.c ****     #endif /* (I2S_TX_DIRECTION_ENABLE) */
 202:.\Generated_Source\PSoC5/I2S.c ****     
 203:.\Generated_Source\PSoC5/I2S.c ****     #if (I2S_RX_DIRECTION_ENABLE)
 204:.\Generated_Source\PSoC5/I2S.c ****         I2S_DisableRx();
 205:.\Generated_Source\PSoC5/I2S.c ****         I2S_ClearRxFIFO();
 206:.\Generated_Source\PSoC5/I2S.c ****     #endif /* (I2S_RX_DIRECTION_ENABLE) */
 207:.\Generated_Source\PSoC5/I2S.c **** }
 208:.\Generated_Source\PSoC5/I2S.c **** 
 209:.\Generated_Source\PSoC5/I2S.c **** #if (I2S_DYNAMIC_BIT_RESOLUTION)
 210:.\Generated_Source\PSoC5/I2S.c ****     /*******************************************************************************
 211:.\Generated_Source\PSoC5/I2S.c ****     * Function Name: I2S_SetDataBits
 212:.\Generated_Source\PSoC5/I2S.c ****     ********************************************************************************
 213:.\Generated_Source\PSoC5/I2S.c ****     *
 214:.\Generated_Source\PSoC5/I2S.c ****     * Summary:
 215:.\Generated_Source\PSoC5/I2S.c ****     *  Sets the number of data bits for each sample. The component must be stopped
 216:.\Generated_Source\PSoC5/I2S.c ****     *  before calling this API.
 217:.\Generated_Source\PSoC5/I2S.c ****     *
 218:.\Generated_Source\PSoC5/I2S.c ****     * Parameters:
 219:.\Generated_Source\PSoC5/I2S.c ****     *  dataBits: the number of data bits for each sample. Valid values - 8/16/24/32.
 220:.\Generated_Source\PSoC5/I2S.c ****     *  If Tx or Rx byte swapping is enabled, valid values are 16 and 24.
 221:.\Generated_Source\PSoC5/I2S.c ****     *
 222:.\Generated_Source\PSoC5/I2S.c ****     * Return:
 223:.\Generated_Source\PSoC5/I2S.c ****     *  CYRET_SUCCESS  : Operation is successful
 224:.\Generated_Source\PSoC5/I2S.c ****     *  CYRET_BAD_PARAM: Invalid parameter value
 225:.\Generated_Source\PSoC5/I2S.c ****     *
 226:.\Generated_Source\PSoC5/I2S.c ****     * Side effects:
 227:.\Generated_Source\PSoC5/I2S.c ****     *  Calling this API while the component is operating may cause unexpected
 228:.\Generated_Source\PSoC5/I2S.c ****     *  behavior.
 229:.\Generated_Source\PSoC5/I2S.c ****     *
 230:.\Generated_Source\PSoC5/I2S.c ****     *******************************************************************************/
 231:.\Generated_Source\PSoC5/I2S.c ****     cystatus I2S_SetDataBits(uint8 dataBits)   
 232:.\Generated_Source\PSoC5/I2S.c ****     {
 233:.\Generated_Source\PSoC5/I2S.c ****         cystatus status;
 234:.\Generated_Source\PSoC5/I2S.c **** 
 235:.\Generated_Source\PSoC5/I2S.c ****         CYASSERT((dataBits >= I2S_MIN_DATA_BITS) && (dataBits <= I2S_MAX_DATA_BITS));
 236:.\Generated_Source\PSoC5/I2S.c **** 
 237:.\Generated_Source\PSoC5/I2S.c ****         status = CYRET_SUCCESS;
 238:.\Generated_Source\PSoC5/I2S.c ****         /* The component must be stopped prior calling this API. Therefore
 239:.\Generated_Source\PSoC5/I2S.c ****         * all the control bits except the bits modified are zeros.
 240:.\Generated_Source\PSoC5/I2S.c ****         */
 241:.\Generated_Source\PSoC5/I2S.c ****         switch(dataBits)
 242:.\Generated_Source\PSoC5/I2S.c ****         {
 243:.\Generated_Source\PSoC5/I2S.c ****         case I2S_8BIT_DATA:
 244:.\Generated_Source\PSoC5/I2S.c ****             I2S_CONTROL_REG = I2S_8BIT_MODE;
 245:.\Generated_Source\PSoC5/I2S.c ****             break;
 246:.\Generated_Source\PSoC5/I2S.c ****         case I2S_16BIT_DATA:
 247:.\Generated_Source\PSoC5/I2S.c ****             I2S_CONTROL_REG = I2S_16BIT_MODE;
 248:.\Generated_Source\PSoC5/I2S.c ****             break;
 249:.\Generated_Source\PSoC5/I2S.c ****         case I2S_24BIT_DATA:
 250:.\Generated_Source\PSoC5/I2S.c ****             I2S_CONTROL_REG = I2S_24BIT_MODE;
 251:.\Generated_Source\PSoC5/I2S.c ****             break;
 252:.\Generated_Source\PSoC5/I2S.c ****         case I2S_32BIT_DATA:
 253:.\Generated_Source\PSoC5/I2S.c ****             I2S_CONTROL_REG = I2S_32BIT_MODE;
 254:.\Generated_Source\PSoC5/I2S.c ****             break;
 255:.\Generated_Source\PSoC5/I2S.c ****         default: status = CYRET_BAD_PARAM;
 256:.\Generated_Source\PSoC5/I2S.c ****             break;
ARM GAS  C:\Users\Ian\AppData\Local\Temp\cc52uvxW.s 			page 8


 257:.\Generated_Source\PSoC5/I2S.c ****         }
 258:.\Generated_Source\PSoC5/I2S.c **** 
 259:.\Generated_Source\PSoC5/I2S.c ****         return (status);
 260:.\Generated_Source\PSoC5/I2S.c ****     }
 261:.\Generated_Source\PSoC5/I2S.c **** 
 262:.\Generated_Source\PSoC5/I2S.c **** #endif /* I2S_DYNAMIC_BIT_RESOLUTION */
 263:.\Generated_Source\PSoC5/I2S.c **** 
 264:.\Generated_Source\PSoC5/I2S.c **** #if(I2S_TX_DIRECTION_ENABLE)
 265:.\Generated_Source\PSoC5/I2S.c ****     /*******************************************************************************
 266:.\Generated_Source\PSoC5/I2S.c ****     * Function Name: I2S_EnableTx
 267:.\Generated_Source\PSoC5/I2S.c ****     ********************************************************************************
 268:.\Generated_Source\PSoC5/I2S.c ****     *
 269:.\Generated_Source\PSoC5/I2S.c ****     * Summary:
 270:.\Generated_Source\PSoC5/I2S.c ****     *  Enables the Tx direction of the I2S interface.  At the next word
 271:.\Generated_Source\PSoC5/I2S.c ****     *  select falling edge transmission will begin.
 272:.\Generated_Source\PSoC5/I2S.c ****     *
 273:.\Generated_Source\PSoC5/I2S.c ****     * Parameters:
 274:.\Generated_Source\PSoC5/I2S.c ****     *  None.
 275:.\Generated_Source\PSoC5/I2S.c ****     *
 276:.\Generated_Source\PSoC5/I2S.c ****     * Return:
 277:.\Generated_Source\PSoC5/I2S.c ****     *  None.
 278:.\Generated_Source\PSoC5/I2S.c ****     *
 279:.\Generated_Source\PSoC5/I2S.c ****     *******************************************************************************/
 280:.\Generated_Source\PSoC5/I2S.c ****     void I2S_EnableTx(void) 
 281:.\Generated_Source\PSoC5/I2S.c ****     {
 144              		.loc 1 281 0
 145              		.cfi_startproc
 146              		@ args = 0, pretend = 0, frame = 0
 147              		@ frame_needed = 0, uses_anonymous_args = 0
 148 0000 08B5     		push	{r3, lr}
 149              		.cfi_def_cfa_offset 8
 150              		.cfi_offset 3, -8
 151              		.cfi_offset 14, -4
 282:.\Generated_Source\PSoC5/I2S.c ****         uint8 enableInterrupts;
 283:.\Generated_Source\PSoC5/I2S.c **** 
 284:.\Generated_Source\PSoC5/I2S.c ****         enableInterrupts = CyEnterCriticalSection();
 152              		.loc 1 284 0
 153 0002 FFF7FEFF 		bl	CyEnterCriticalSection
 154              	.LVL4:
 285:.\Generated_Source\PSoC5/I2S.c ****         I2S_TX_STS0_1_ACTL_REG |= I2S_INT_EN;
 155              		.loc 1 285 0
 156 0006 064A     		ldr	r2, .L15
 157 0008 1378     		ldrb	r3, [r2]	@ zero_extendqisi2
 158 000a 43F01003 		orr	r3, r3, #16
 159 000e 1370     		strb	r3, [r2]
 286:.\Generated_Source\PSoC5/I2S.c ****         #ifdef I2S_TX_STS2_3_ACTL_REG
 287:.\Generated_Source\PSoC5/I2S.c ****             I2S_TX_STS2_3_ACTL_REG |= I2S_INT_EN;
 288:.\Generated_Source\PSoC5/I2S.c ****         #endif /* I2S_TX_STS2_3_ACTL_REG */
 289:.\Generated_Source\PSoC5/I2S.c ****         #ifdef I2S_TX_STS4_ACTL_REG
 290:.\Generated_Source\PSoC5/I2S.c ****             I2S_TX_STS4_ACTL_REG |= I2S_INT_EN;
 291:.\Generated_Source\PSoC5/I2S.c ****         #endif /* I2S_TX_STS4_ACTL_REG */
 292:.\Generated_Source\PSoC5/I2S.c ****         CyExitCriticalSection(enableInterrupts);
 160              		.loc 1 292 0
 161 0010 FFF7FEFF 		bl	CyExitCriticalSection
 162              	.LVL5:
 293:.\Generated_Source\PSoC5/I2S.c ****         
 294:.\Generated_Source\PSoC5/I2S.c ****         I2S_CONTROL_REG |= I2S_TX_EN;
ARM GAS  C:\Users\Ian\AppData\Local\Temp\cc52uvxW.s 			page 9


 163              		.loc 1 294 0
 164 0014 034A     		ldr	r2, .L15+4
 165 0016 1378     		ldrb	r3, [r2]	@ zero_extendqisi2
 166 0018 43F00103 		orr	r3, r3, #1
 167 001c 1370     		strb	r3, [r2]
 168 001e 08BD     		pop	{r3, pc}
 169              	.L16:
 170              		.align	2
 171              	.L15:
 172 0020 91640040 		.word	1073767569
 173 0024 71640040 		.word	1073767537
 174              		.cfi_endproc
 175              	.LFE4:
 176              		.size	I2S_EnableTx, .-I2S_EnableTx
 177              		.section	.text.I2S_DisableTx,"ax",%progbits
 178              		.align	2
 179              		.global	I2S_DisableTx
 180              		.thumb
 181              		.thumb_func
 182              		.type	I2S_DisableTx, %function
 183              	I2S_DisableTx:
 184              	.LFB5:
 295:.\Generated_Source\PSoC5/I2S.c ****     }
 296:.\Generated_Source\PSoC5/I2S.c **** 
 297:.\Generated_Source\PSoC5/I2S.c **** 
 298:.\Generated_Source\PSoC5/I2S.c ****     /*******************************************************************************
 299:.\Generated_Source\PSoC5/I2S.c ****     * Function Name: I2S_DisableTx
 300:.\Generated_Source\PSoC5/I2S.c ****     ********************************************************************************
 301:.\Generated_Source\PSoC5/I2S.c ****     *
 302:.\Generated_Source\PSoC5/I2S.c ****     * Summary:
 303:.\Generated_Source\PSoC5/I2S.c ****     *  Disables the Tx direction of the I2S interface.  At the next word
 304:.\Generated_Source\PSoC5/I2S.c ****     *  select falling edge transmission of data will stop and a constant 0 value
 305:.\Generated_Source\PSoC5/I2S.c ****     *  will be transmitted.
 306:.\Generated_Source\PSoC5/I2S.c ****     *
 307:.\Generated_Source\PSoC5/I2S.c ****     * Parameters:
 308:.\Generated_Source\PSoC5/I2S.c ****     *  None.
 309:.\Generated_Source\PSoC5/I2S.c ****     *
 310:.\Generated_Source\PSoC5/I2S.c ****     * Return:
 311:.\Generated_Source\PSoC5/I2S.c ****     *  None.
 312:.\Generated_Source\PSoC5/I2S.c ****     *
 313:.\Generated_Source\PSoC5/I2S.c ****     *******************************************************************************/
 314:.\Generated_Source\PSoC5/I2S.c ****     void I2S_DisableTx(void) 
 315:.\Generated_Source\PSoC5/I2S.c ****     {
 185              		.loc 1 315 0
 186              		.cfi_startproc
 187              		@ args = 0, pretend = 0, frame = 0
 188              		@ frame_needed = 0, uses_anonymous_args = 0
 189 0000 08B5     		push	{r3, lr}
 190              		.cfi_def_cfa_offset 8
 191              		.cfi_offset 3, -8
 192              		.cfi_offset 14, -4
 316:.\Generated_Source\PSoC5/I2S.c ****         uint8 enableInterrupts;
 317:.\Generated_Source\PSoC5/I2S.c **** 
 318:.\Generated_Source\PSoC5/I2S.c ****         I2S_CONTROL_REG &= (uint8)~I2S_TX_EN;
 193              		.loc 1 318 0
 194 0002 074A     		ldr	r2, .L19
 195 0004 1378     		ldrb	r3, [r2]	@ zero_extendqisi2
ARM GAS  C:\Users\Ian\AppData\Local\Temp\cc52uvxW.s 			page 10


 196 0006 03F0FE03 		and	r3, r3, #254
 197 000a 1370     		strb	r3, [r2]
 319:.\Generated_Source\PSoC5/I2S.c **** 
 320:.\Generated_Source\PSoC5/I2S.c ****         enableInterrupts = CyEnterCriticalSection();
 198              		.loc 1 320 0
 199 000c FFF7FEFF 		bl	CyEnterCriticalSection
 200              	.LVL6:
 321:.\Generated_Source\PSoC5/I2S.c ****         I2S_TX_STS0_1_ACTL_REG &= (uint8)~I2S_INT_EN;
 201              		.loc 1 321 0
 202 0010 044A     		ldr	r2, .L19+4
 203 0012 1378     		ldrb	r3, [r2]	@ zero_extendqisi2
 204 0014 03F0EF03 		and	r3, r3, #239
 205 0018 1370     		strb	r3, [r2]
 322:.\Generated_Source\PSoC5/I2S.c ****         #ifdef I2S_TX_STS2_3_ACTL_REG
 323:.\Generated_Source\PSoC5/I2S.c ****             I2S_TX_STS2_3_ACTL_REG &= (uint8)~I2S_INT_EN;
 324:.\Generated_Source\PSoC5/I2S.c ****         #endif /* I2S_TX_STS2_3_ACTL_REG */
 325:.\Generated_Source\PSoC5/I2S.c ****         #ifdef I2S_TX_STS4_ACTL_REG
 326:.\Generated_Source\PSoC5/I2S.c ****             I2S_TX_STS4_ACTL_REG &= (uint8)~I2S_INT_EN;
 327:.\Generated_Source\PSoC5/I2S.c ****         #endif /* I2S_TX_STS4_ACTL_REG */
 328:.\Generated_Source\PSoC5/I2S.c ****         CyExitCriticalSection(enableInterrupts);
 206              		.loc 1 328 0
 207 001a FFF7FEFF 		bl	CyExitCriticalSection
 208              	.LVL7:
 209 001e 08BD     		pop	{r3, pc}
 210              	.L20:
 211              		.align	2
 212              	.L19:
 213 0020 71640040 		.word	1073767537
 214 0024 91640040 		.word	1073767569
 215              		.cfi_endproc
 216              	.LFE5:
 217              		.size	I2S_DisableTx, .-I2S_DisableTx
 218              		.section	.text.I2S_ClearTxFIFO,"ax",%progbits
 219              		.align	2
 220              		.global	I2S_ClearTxFIFO
 221              		.thumb
 222              		.thumb_func
 223              		.type	I2S_ClearTxFIFO, %function
 224              	I2S_ClearTxFIFO:
 225              	.LFB6:
 329:.\Generated_Source\PSoC5/I2S.c ****     }
 330:.\Generated_Source\PSoC5/I2S.c **** 
 331:.\Generated_Source\PSoC5/I2S.c **** 
 332:.\Generated_Source\PSoC5/I2S.c ****     /*******************************************************************************
 333:.\Generated_Source\PSoC5/I2S.c ****     * Function Name: I2S_ClearTxFIFO
 334:.\Generated_Source\PSoC5/I2S.c ****     ********************************************************************************
 335:.\Generated_Source\PSoC5/I2S.c ****     *
 336:.\Generated_Source\PSoC5/I2S.c ****     * Summary:
 337:.\Generated_Source\PSoC5/I2S.c ****     *  Clears out the FIFOs for all Tx channels. Any data present in the FIFO will
 338:.\Generated_Source\PSoC5/I2S.c ****     *  not be sent. This call should be made only when the Tx direction is disabled.
 339:.\Generated_Source\PSoC5/I2S.c ****     *
 340:.\Generated_Source\PSoC5/I2S.c ****     * Parameters:
 341:.\Generated_Source\PSoC5/I2S.c ****     *  None.
 342:.\Generated_Source\PSoC5/I2S.c ****     *
 343:.\Generated_Source\PSoC5/I2S.c ****     * Return:
 344:.\Generated_Source\PSoC5/I2S.c ****     *  None.
 345:.\Generated_Source\PSoC5/I2S.c ****     *
ARM GAS  C:\Users\Ian\AppData\Local\Temp\cc52uvxW.s 			page 11


 346:.\Generated_Source\PSoC5/I2S.c ****     *******************************************************************************/
 347:.\Generated_Source\PSoC5/I2S.c ****     void I2S_ClearTxFIFO(void) 
 348:.\Generated_Source\PSoC5/I2S.c ****     {
 226              		.loc 1 348 0
 227              		.cfi_startproc
 228              		@ args = 0, pretend = 0, frame = 0
 229              		@ frame_needed = 0, uses_anonymous_args = 0
 230 0000 08B5     		push	{r3, lr}
 231              		.cfi_def_cfa_offset 8
 232              		.cfi_offset 3, -8
 233              		.cfi_offset 14, -4
 349:.\Generated_Source\PSoC5/I2S.c ****         uint8 enableInterrupts;
 350:.\Generated_Source\PSoC5/I2S.c **** 
 351:.\Generated_Source\PSoC5/I2S.c ****         enableInterrupts = CyEnterCriticalSection();
 234              		.loc 1 351 0
 235 0002 FFF7FEFF 		bl	CyEnterCriticalSection
 236              	.LVL8:
 352:.\Generated_Source\PSoC5/I2S.c ****         I2S_CLEAR_TX_FIFO(CH0);
 237              		.loc 1 352 0
 238 0006 064B     		ldr	r3, .L23
 239 0008 1A78     		ldrb	r2, [r3]	@ zero_extendqisi2
 240 000a 42F00302 		orr	r2, r2, #3
 241 000e 1A70     		strb	r2, [r3]
 242 0010 1A78     		ldrb	r2, [r3]	@ zero_extendqisi2
 243 0012 02F0FC02 		and	r2, r2, #252
 244 0016 1A70     		strb	r2, [r3]
 353:.\Generated_Source\PSoC5/I2S.c ****         #if (I2S_TX_STEREO_1_PRESENT)
 354:.\Generated_Source\PSoC5/I2S.c ****             I2S_CLEAR_TX_FIFO(CH1);
 355:.\Generated_Source\PSoC5/I2S.c ****         #endif /* I2S_TX_STEREO_1_PRESENT */
 356:.\Generated_Source\PSoC5/I2S.c ****         #if (I2S_TX_STEREO_2_PRESENT)
 357:.\Generated_Source\PSoC5/I2S.c ****             I2S_CLEAR_TX_FIFO(CH2);
 358:.\Generated_Source\PSoC5/I2S.c ****         #endif /* I2S_TX_STEREO_2_PRESENT */
 359:.\Generated_Source\PSoC5/I2S.c ****         #if (I2S_TX_STEREO_3_PRESENT)
 360:.\Generated_Source\PSoC5/I2S.c ****             I2S_CLEAR_TX_FIFO(CH3);
 361:.\Generated_Source\PSoC5/I2S.c ****         #endif /* I2S_TX_STEREO_3_PRESENT */
 362:.\Generated_Source\PSoC5/I2S.c ****         #if (I2S_TX_STEREO_4_PRESENT)
 363:.\Generated_Source\PSoC5/I2S.c ****             I2S_CLEAR_TX_FIFO(CH4);
 364:.\Generated_Source\PSoC5/I2S.c ****         #endif /* I2S_TX_STEREO_4_PRESENT */
 365:.\Generated_Source\PSoC5/I2S.c ****         CyExitCriticalSection(enableInterrupts);
 245              		.loc 1 365 0
 246 0018 FFF7FEFF 		bl	CyExitCriticalSection
 247              	.LVL9:
 248 001c 08BD     		pop	{r3, pc}
 249              	.L24:
 250 001e 00BF     		.align	2
 251              	.L23:
 252 0020 91640040 		.word	1073767569
 253              		.cfi_endproc
 254              	.LFE6:
 255              		.size	I2S_ClearTxFIFO, .-I2S_ClearTxFIFO
 256              		.section	.text.I2S_EnableRx,"ax",%progbits
 257              		.align	2
 258              		.global	I2S_EnableRx
 259              		.thumb
 260              		.thumb_func
 261              		.type	I2S_EnableRx, %function
 262              	I2S_EnableRx:
ARM GAS  C:\Users\Ian\AppData\Local\Temp\cc52uvxW.s 			page 12


 263              	.LFB7:
 366:.\Generated_Source\PSoC5/I2S.c ****     }
 367:.\Generated_Source\PSoC5/I2S.c **** 
 368:.\Generated_Source\PSoC5/I2S.c **** #endif /* (I2S_TX_DIRECTION_ENABLE) */
 369:.\Generated_Source\PSoC5/I2S.c **** 
 370:.\Generated_Source\PSoC5/I2S.c **** 
 371:.\Generated_Source\PSoC5/I2S.c **** #if(I2S_RX_DIRECTION_ENABLE)
 372:.\Generated_Source\PSoC5/I2S.c ****     /*******************************************************************************
 373:.\Generated_Source\PSoC5/I2S.c ****     * Function Name: I2S_EnableRx
 374:.\Generated_Source\PSoC5/I2S.c ****     ********************************************************************************
 375:.\Generated_Source\PSoC5/I2S.c ****     *
 376:.\Generated_Source\PSoC5/I2S.c ****     * Summary:
 377:.\Generated_Source\PSoC5/I2S.c ****     *  Enables the Rx direction of the I2S interface.  At the next word
 378:.\Generated_Source\PSoC5/I2S.c ****     *  select falling edge reception of data will begin.
 379:.\Generated_Source\PSoC5/I2S.c ****     *
 380:.\Generated_Source\PSoC5/I2S.c ****     * Parameters:
 381:.\Generated_Source\PSoC5/I2S.c ****     *  None.
 382:.\Generated_Source\PSoC5/I2S.c ****     *
 383:.\Generated_Source\PSoC5/I2S.c ****     * Return:
 384:.\Generated_Source\PSoC5/I2S.c ****     *  None.
 385:.\Generated_Source\PSoC5/I2S.c ****     *
 386:.\Generated_Source\PSoC5/I2S.c ****     *******************************************************************************/
 387:.\Generated_Source\PSoC5/I2S.c ****     void I2S_EnableRx(void) 
 388:.\Generated_Source\PSoC5/I2S.c ****     {
 264              		.loc 1 388 0
 265              		.cfi_startproc
 266              		@ args = 0, pretend = 0, frame = 0
 267              		@ frame_needed = 0, uses_anonymous_args = 0
 268 0000 08B5     		push	{r3, lr}
 269              		.cfi_def_cfa_offset 8
 270              		.cfi_offset 3, -8
 271              		.cfi_offset 14, -4
 389:.\Generated_Source\PSoC5/I2S.c ****         uint8 enableInterrupts;
 390:.\Generated_Source\PSoC5/I2S.c **** 
 391:.\Generated_Source\PSoC5/I2S.c ****         enableInterrupts = CyEnterCriticalSection();
 272              		.loc 1 391 0
 273 0002 FFF7FEFF 		bl	CyEnterCriticalSection
 274              	.LVL10:
 392:.\Generated_Source\PSoC5/I2S.c ****         I2S_RX_STS0_1_ACTL_REG |= I2S_INT_EN;
 275              		.loc 1 392 0
 276 0006 064A     		ldr	r2, .L27
 277 0008 1378     		ldrb	r3, [r2]	@ zero_extendqisi2
 278 000a 43F01003 		orr	r3, r3, #16
 279 000e 1370     		strb	r3, [r2]
 393:.\Generated_Source\PSoC5/I2S.c ****         #ifdef I2S_RX_STS2_3_ACTL_REG
 394:.\Generated_Source\PSoC5/I2S.c ****             I2S_RX_STS2_3_ACTL_REG |= I2S_INT_EN;
 395:.\Generated_Source\PSoC5/I2S.c ****         #endif /* I2S_RX_STS2_3_ACTL_REG */
 396:.\Generated_Source\PSoC5/I2S.c ****         #ifdef I2S_RX_STS4_ACTL_REG
 397:.\Generated_Source\PSoC5/I2S.c ****             I2S_RX_STS4_ACTL_REG |= I2S_INT_EN;
 398:.\Generated_Source\PSoC5/I2S.c ****         #endif /* I2S_RX_STS4_ACTL_REG */
 399:.\Generated_Source\PSoC5/I2S.c ****         CyExitCriticalSection(enableInterrupts);
 280              		.loc 1 399 0
 281 0010 FFF7FEFF 		bl	CyExitCriticalSection
 282              	.LVL11:
 400:.\Generated_Source\PSoC5/I2S.c ****         
 401:.\Generated_Source\PSoC5/I2S.c ****         I2S_CONTROL_REG |= I2S_RX_EN;
 283              		.loc 1 401 0
ARM GAS  C:\Users\Ian\AppData\Local\Temp\cc52uvxW.s 			page 13


 284 0014 034A     		ldr	r2, .L27+4
 285 0016 1378     		ldrb	r3, [r2]	@ zero_extendqisi2
 286 0018 43F00203 		orr	r3, r3, #2
 287 001c 1370     		strb	r3, [r2]
 288 001e 08BD     		pop	{r3, pc}
 289              	.L28:
 290              		.align	2
 291              	.L27:
 292 0020 95640040 		.word	1073767573
 293 0024 71640040 		.word	1073767537
 294              		.cfi_endproc
 295              	.LFE7:
 296              		.size	I2S_EnableRx, .-I2S_EnableRx
 297              		.section	.text.I2S_DisableRx,"ax",%progbits
 298              		.align	2
 299              		.global	I2S_DisableRx
 300              		.thumb
 301              		.thumb_func
 302              		.type	I2S_DisableRx, %function
 303              	I2S_DisableRx:
 304              	.LFB8:
 402:.\Generated_Source\PSoC5/I2S.c ****     }
 403:.\Generated_Source\PSoC5/I2S.c **** 
 404:.\Generated_Source\PSoC5/I2S.c **** 
 405:.\Generated_Source\PSoC5/I2S.c ****     /*******************************************************************************
 406:.\Generated_Source\PSoC5/I2S.c ****     * Function Name: I2S_DisableRx
 407:.\Generated_Source\PSoC5/I2S.c ****     ********************************************************************************
 408:.\Generated_Source\PSoC5/I2S.c ****     *
 409:.\Generated_Source\PSoC5/I2S.c ****     * Summary:
 410:.\Generated_Source\PSoC5/I2S.c ****     *  Disables the Rx direction of the I2S interface.
 411:.\Generated_Source\PSoC5/I2S.c ****     *
 412:.\Generated_Source\PSoC5/I2S.c ****     * Parameters:
 413:.\Generated_Source\PSoC5/I2S.c ****     *  None.
 414:.\Generated_Source\PSoC5/I2S.c ****     *
 415:.\Generated_Source\PSoC5/I2S.c ****     * Return:
 416:.\Generated_Source\PSoC5/I2S.c ****     *  None.
 417:.\Generated_Source\PSoC5/I2S.c ****     *
 418:.\Generated_Source\PSoC5/I2S.c ****     *******************************************************************************/
 419:.\Generated_Source\PSoC5/I2S.c ****     void I2S_DisableRx(void) 
 420:.\Generated_Source\PSoC5/I2S.c ****     {
 305              		.loc 1 420 0
 306              		.cfi_startproc
 307              		@ args = 0, pretend = 0, frame = 0
 308              		@ frame_needed = 0, uses_anonymous_args = 0
 309 0000 08B5     		push	{r3, lr}
 310              		.cfi_def_cfa_offset 8
 311              		.cfi_offset 3, -8
 312              		.cfi_offset 14, -4
 421:.\Generated_Source\PSoC5/I2S.c ****         uint8 enableInterrupts;
 422:.\Generated_Source\PSoC5/I2S.c **** 
 423:.\Generated_Source\PSoC5/I2S.c ****         I2S_CONTROL_REG &= (uint8)~I2S_RX_EN;
 313              		.loc 1 423 0
 314 0002 074A     		ldr	r2, .L31
 315 0004 1378     		ldrb	r3, [r2]	@ zero_extendqisi2
 316 0006 03F0FD03 		and	r3, r3, #253
 317 000a 1370     		strb	r3, [r2]
 424:.\Generated_Source\PSoC5/I2S.c **** 
ARM GAS  C:\Users\Ian\AppData\Local\Temp\cc52uvxW.s 			page 14


 425:.\Generated_Source\PSoC5/I2S.c ****         enableInterrupts = CyEnterCriticalSection();
 318              		.loc 1 425 0
 319 000c FFF7FEFF 		bl	CyEnterCriticalSection
 320              	.LVL12:
 426:.\Generated_Source\PSoC5/I2S.c ****         I2S_RX_STS0_1_ACTL_REG &= (uint8)~I2S_INT_EN;
 321              		.loc 1 426 0
 322 0010 044A     		ldr	r2, .L31+4
 323 0012 1378     		ldrb	r3, [r2]	@ zero_extendqisi2
 324 0014 03F0EF03 		and	r3, r3, #239
 325 0018 1370     		strb	r3, [r2]
 427:.\Generated_Source\PSoC5/I2S.c ****         #ifdef I2S_RX_STS2_3_ACTL_REG
 428:.\Generated_Source\PSoC5/I2S.c ****             I2S_RX_STS2_3_ACTL_REG &= (uint8)~I2S_INT_EN;
 429:.\Generated_Source\PSoC5/I2S.c ****         #endif /* I2S_RX_STS2_3_ACTL_REG */
 430:.\Generated_Source\PSoC5/I2S.c ****         #ifdef I2S_RX_STS4_ACTL_REG
 431:.\Generated_Source\PSoC5/I2S.c ****             I2S_RX_STS4_ACTL_REG &= (uint8)~I2S_INT_EN;
 432:.\Generated_Source\PSoC5/I2S.c ****         #endif /* I2S_RX_STS4_ACTL_REG */
 433:.\Generated_Source\PSoC5/I2S.c ****         CyExitCriticalSection(enableInterrupts);
 326              		.loc 1 433 0
 327 001a FFF7FEFF 		bl	CyExitCriticalSection
 328              	.LVL13:
 329 001e 08BD     		pop	{r3, pc}
 330              	.L32:
 331              		.align	2
 332              	.L31:
 333 0020 71640040 		.word	1073767537
 334 0024 95640040 		.word	1073767573
 335              		.cfi_endproc
 336              	.LFE8:
 337              		.size	I2S_DisableRx, .-I2S_DisableRx
 338              		.section	.text.I2S_ClearRxFIFO,"ax",%progbits
 339              		.align	2
 340              		.global	I2S_ClearRxFIFO
 341              		.thumb
 342              		.thumb_func
 343              		.type	I2S_ClearRxFIFO, %function
 344              	I2S_ClearRxFIFO:
 345              	.LFB9:
 434:.\Generated_Source\PSoC5/I2S.c ****     }
 435:.\Generated_Source\PSoC5/I2S.c **** 
 436:.\Generated_Source\PSoC5/I2S.c **** 
 437:.\Generated_Source\PSoC5/I2S.c ****     /*******************************************************************************
 438:.\Generated_Source\PSoC5/I2S.c ****     * Function Name: I2S_ClearRxFIFO
 439:.\Generated_Source\PSoC5/I2S.c ****     ********************************************************************************
 440:.\Generated_Source\PSoC5/I2S.c ****     *
 441:.\Generated_Source\PSoC5/I2S.c ****     * Summary:
 442:.\Generated_Source\PSoC5/I2S.c ****     *  Clears out the Rx FIFO.  Any data present in the FIFO will be lost.
 443:.\Generated_Source\PSoC5/I2S.c ****     *  This call should be made only when the Rx direction is disabled.
 444:.\Generated_Source\PSoC5/I2S.c ****     *
 445:.\Generated_Source\PSoC5/I2S.c ****     * Parameters:
 446:.\Generated_Source\PSoC5/I2S.c ****     *  None.
 447:.\Generated_Source\PSoC5/I2S.c ****     *
 448:.\Generated_Source\PSoC5/I2S.c ****     * Return:
 449:.\Generated_Source\PSoC5/I2S.c ****     *  None.
 450:.\Generated_Source\PSoC5/I2S.c ****     *
 451:.\Generated_Source\PSoC5/I2S.c ****     *******************************************************************************/
 452:.\Generated_Source\PSoC5/I2S.c ****     void I2S_ClearRxFIFO(void) 
 453:.\Generated_Source\PSoC5/I2S.c ****     {
ARM GAS  C:\Users\Ian\AppData\Local\Temp\cc52uvxW.s 			page 15


 346              		.loc 1 453 0
 347              		.cfi_startproc
 348              		@ args = 0, pretend = 0, frame = 0
 349              		@ frame_needed = 0, uses_anonymous_args = 0
 350 0000 08B5     		push	{r3, lr}
 351              		.cfi_def_cfa_offset 8
 352              		.cfi_offset 3, -8
 353              		.cfi_offset 14, -4
 454:.\Generated_Source\PSoC5/I2S.c ****         uint8 enableInterrupts;
 455:.\Generated_Source\PSoC5/I2S.c **** 
 456:.\Generated_Source\PSoC5/I2S.c ****         enableInterrupts = CyEnterCriticalSection();
 354              		.loc 1 456 0
 355 0002 FFF7FEFF 		bl	CyEnterCriticalSection
 356              	.LVL14:
 457:.\Generated_Source\PSoC5/I2S.c ****         I2S_CLEAR_RX_FIFO(CH0);
 357              		.loc 1 457 0
 358 0006 064B     		ldr	r3, .L35
 359 0008 1A78     		ldrb	r2, [r3]	@ zero_extendqisi2
 360 000a 42F00302 		orr	r2, r2, #3
 361 000e 1A70     		strb	r2, [r3]
 362 0010 1A78     		ldrb	r2, [r3]	@ zero_extendqisi2
 363 0012 02F0FC02 		and	r2, r2, #252
 364 0016 1A70     		strb	r2, [r3]
 458:.\Generated_Source\PSoC5/I2S.c ****         #if (I2S_RX_STEREO_1_PRESENT)
 459:.\Generated_Source\PSoC5/I2S.c ****             I2S_CLEAR_RX_FIFO(CH1);
 460:.\Generated_Source\PSoC5/I2S.c ****         #endif /* I2S_RX_STEREO_1_PRESENT */
 461:.\Generated_Source\PSoC5/I2S.c ****         #if (I2S_RX_STEREO_2_PRESENT)
 462:.\Generated_Source\PSoC5/I2S.c ****             I2S_CLEAR_RX_FIFO(CH2);
 463:.\Generated_Source\PSoC5/I2S.c ****         #endif /* I2S_RX_STEREO_2_PRESENT */
 464:.\Generated_Source\PSoC5/I2S.c ****         #if (I2S_RX_STEREO_3_PRESENT)
 465:.\Generated_Source\PSoC5/I2S.c ****             I2S_CLEAR_RX_FIFO(CH3);
 466:.\Generated_Source\PSoC5/I2S.c ****         #endif /* I2S_RX_STEREO_3_PRESENT */
 467:.\Generated_Source\PSoC5/I2S.c ****         #if (I2S_RX_STEREO_4_PRESENT)
 468:.\Generated_Source\PSoC5/I2S.c ****             I2S_CLEAR_RX_FIFO(CH4);
 469:.\Generated_Source\PSoC5/I2S.c ****         #endif /* I2S_RX_STEREO_4_PRESENT */
 470:.\Generated_Source\PSoC5/I2S.c ****         CyExitCriticalSection(enableInterrupts);
 365              		.loc 1 470 0
 366 0018 FFF7FEFF 		bl	CyExitCriticalSection
 367              	.LVL15:
 368 001c 08BD     		pop	{r3, pc}
 369              	.L36:
 370 001e 00BF     		.align	2
 371              	.L35:
 372 0020 95640040 		.word	1073767573
 373              		.cfi_endproc
 374              	.LFE9:
 375              		.size	I2S_ClearRxFIFO, .-I2S_ClearRxFIFO
 376              		.section	.text.I2S_Stop,"ax",%progbits
 377              		.align	2
 378              		.global	I2S_Stop
 379              		.thumb
 380              		.thumb_func
 381              		.type	I2S_Stop, %function
 382              	I2S_Stop:
 383              	.LFB3:
 186:.\Generated_Source\PSoC5/I2S.c ****     uint8 enableInterrupts;
 384              		.loc 1 186 0
ARM GAS  C:\Users\Ian\AppData\Local\Temp\cc52uvxW.s 			page 16


 385              		.cfi_startproc
 386              		@ args = 0, pretend = 0, frame = 0
 387              		@ frame_needed = 0, uses_anonymous_args = 0
 388 0000 08B5     		push	{r3, lr}
 389              		.cfi_def_cfa_offset 8
 390              		.cfi_offset 3, -8
 391              		.cfi_offset 14, -4
 189:.\Generated_Source\PSoC5/I2S.c **** 
 392              		.loc 1 189 0
 393 0002 0D4A     		ldr	r2, .L39
 394 0004 1378     		ldrb	r3, [r2]	@ zero_extendqisi2
 395 0006 03F0FB03 		and	r3, r3, #251
 396 000a 1370     		strb	r3, [r2]
 191:.\Generated_Source\PSoC5/I2S.c ****     I2S_AUX_CONTROL_REG &= (uint8)~I2S_CNT_START;
 397              		.loc 1 191 0
 398 000c FFF7FEFF 		bl	CyEnterCriticalSection
 399              	.LVL16:
 192:.\Generated_Source\PSoC5/I2S.c ****     CyExitCriticalSection(enableInterrupts);
 400              		.loc 1 192 0
 401 0010 0A4A     		ldr	r2, .L39+4
 402 0012 1378     		ldrb	r3, [r2]	@ zero_extendqisi2
 403 0014 03F0DF03 		and	r3, r3, #223
 404 0018 1370     		strb	r3, [r2]
 193:.\Generated_Source\PSoC5/I2S.c **** 
 405              		.loc 1 193 0
 406 001a FFF7FEFF 		bl	CyExitCriticalSection
 407              	.LVL17:
 196:.\Generated_Source\PSoC5/I2S.c **** 
 408              		.loc 1 196 0
 409 001e 0022     		movs	r2, #0
 410 0020 074B     		ldr	r3, .L39+8
 411 0022 1A70     		strb	r2, [r3]
 199:.\Generated_Source\PSoC5/I2S.c ****         I2S_ClearTxFIFO();
 412              		.loc 1 199 0
 413 0024 FFF7FEFF 		bl	I2S_DisableTx
 414              	.LVL18:
 200:.\Generated_Source\PSoC5/I2S.c ****     #endif /* (I2S_TX_DIRECTION_ENABLE) */
 415              		.loc 1 200 0
 416 0028 FFF7FEFF 		bl	I2S_ClearTxFIFO
 417              	.LVL19:
 204:.\Generated_Source\PSoC5/I2S.c ****         I2S_ClearRxFIFO();
 418              		.loc 1 204 0
 419 002c FFF7FEFF 		bl	I2S_DisableRx
 420              	.LVL20:
 205:.\Generated_Source\PSoC5/I2S.c ****     #endif /* (I2S_RX_DIRECTION_ENABLE) */
 421              		.loc 1 205 0
 422 0030 FFF7FEFF 		bl	I2S_ClearRxFIFO
 423              	.LVL21:
 424 0034 08BD     		pop	{r3, pc}
 425              	.L40:
 426 0036 00BF     		.align	2
 427              	.L39:
 428 0038 71640040 		.word	1073767537
 429 003c 92640040 		.word	1073767570
 430 0040 72640040 		.word	1073767538
 431              		.cfi_endproc
 432              	.LFE3:
ARM GAS  C:\Users\Ian\AppData\Local\Temp\cc52uvxW.s 			page 17


 433              		.size	I2S_Stop, .-I2S_Stop
 434              		.global	I2S_initVar
 435              		.bss
 436              		.set	.LANCHOR0,. + 0
 437              		.type	I2S_initVar, %object
 438              		.size	I2S_initVar, 1
 439              	I2S_initVar:
 440 0000 00       		.space	1
 441              		.text
 442              	.Letext0:
 443              		.file 2 ".\\Generated_Source\\PSoC5\\cytypes.h"
 444              		.file 3 ".\\Generated_Source\\PSoC5\\CyLib.h"