ARM GAS  C:\Users\Ian\AppData\Local\Temp\ccRuZkwc.s 			page 1


   1              		.syntax unified
   2              		.cpu cortex-m3
   3              		.fpu softvfp
   4              		.eabi_attribute 20, 1
   5              		.eabi_attribute 21, 1
   6              		.eabi_attribute 23, 3
   7              		.eabi_attribute 24, 1
   8              		.eabi_attribute 25, 1
   9              		.eabi_attribute 26, 1
  10              		.eabi_attribute 30, 1
  11              		.eabi_attribute 34, 1
  12              		.eabi_attribute 18, 4
  13              		.thumb
  14              		.file	"main.c"
  15              		.text
  16              	.Ltext0:
  17              		.cfi_sections	.debug_frame
  18              		.section	.text.DmaRxConfiguration,"ax",%progbits
  19              		.align	2
  20              		.global	DmaRxConfiguration
  21              		.thumb
  22              		.thumb_func
  23              		.type	DmaRxConfiguration, %function
  24              	DmaRxConfiguration:
  25              	.LFB57:
  26              		.file 1 ".\\main.c"
   1:.\main.c      **** /* ========================================
   2:.\main.c      ****  *
   3:.\main.c      ****  * Copyright The College of New Jersey, 2016
   4:.\main.c      ****  * All Rights Reserved
   5:.\main.c      ****  * UNPUBLISHED, LICENSED SOFTWARE.
   6:.\main.c      ****  *
   7:.\main.c      ****  * CONFIDENTIAL AND PROPRIETARY INFORMATION
   8:.\main.c      ****  * WHICH IS THE PROPERTY OF your company.
   9:.\main.c      ****  *
  10:.\main.c      ****  * ========================================
  11:.\main.c      **** */
  12:.\main.c      **** 
  13:.\main.c      **** #include <project.h>
  14:.\main.c      **** #include <stdio.h>
  15:.\main.c      **** 
  16:.\main.c      **** void DmaRxConfiguration(void);
  17:.\main.c      **** void DmaTxConfiguration(void);
  18:.\main.c      **** 
  19:.\main.c      **** /* DMA Configuration for RxDMA */
  20:.\main.c      **** #define RxDMA_BYTES_PER_BURST       2
  21:.\main.c      **** #define RxDMA_REQUEST_PER_BURST     1
  22:.\main.c      **** #define RxDMA_SRC_BASE              (CYDEV_PERIPH_BASE)
  23:.\main.c      **** #define RxDMA_DST_BASE              (CYDEV_SRAM_BASE)
  24:.\main.c      **** 
  25:.\main.c      **** /* DMA Configuration for TxDMA */
  26:.\main.c      **** #define TxDMA_BYTES_PER_BURST       2
  27:.\main.c      **** #define TxDMA_REQUEST_PER_BURST     1
  28:.\main.c      **** #define TxDMA_SRC_BASE              (CYDEV_PERIPH_BASE)
  29:.\main.c      **** #define TxDMA_DST_BASE              (CYDEV_PERIPH_BASE)
  30:.\main.c      **** 
  31:.\main.c      **** /* Variable declarations for RxDMA */
ARM GAS  C:\Users\Ian\AppData\Local\Temp\ccRuZkwc.s 			page 2


  32:.\main.c      **** uint8_t RxDMA_Chan;
  33:.\main.c      **** uint8_t RxDMA_TD[1];
  34:.\main.c      **** 
  35:.\main.c      **** /* Variable declarations for TxDMA */
  36:.\main.c      **** uint8_t TxDMA_0_Chan;
  37:.\main.c      **** uint8_t TxDMA_0_TD[1];    
  38:.\main.c      **** uint8_t TxDMA_1_Chan;
  39:.\main.c      **** uint8_t TxDMA_1_TD[1];
  40:.\main.c      **** 
  41:.\main.c      **** uint16_t ReceivedData[16384] = {0};    /* IN buffer */
  42:.\main.c      **** 
  43:.\main.c      **** #if (CY_PSOC5LP)
  44:.\main.c      **** 	#if !defined(DMA_DISABLE_TD)
  45:.\main.c      **** 	    #define DMA_DISABLE_TD          0xFEu
  46:.\main.c      **** 	#endif
  47:.\main.c      **** #endif  /* (CY_PSOC5LP) */
  48:.\main.c      **** 
  49:.\main.c      **** 
  50:.\main.c      **** int main()
  51:.\main.c      **** {
  52:.\main.c      **** 	uint32_t i;
  53:.\main.c      **** 
  54:.\main.c      **** 	/* Enable global interrupts */
  55:.\main.c      **** 	//CyGlobalIntEnable;
  56:.\main.c      **** 	
  57:.\main.c      **** 	/* Start the waveform DAC and ADC */
  58:.\main.c      **** 	WaveDAC8_Start(); 
  59:.\main.c      **** 	ADC_Start();
  60:.\main.c      **** 	ADC_StartConvert();
  61:.\main.c      **** 	
  62:.\main.c      **** 	 /* Enable I2S component */
  63:.\main.c      ****     I2S_Start();
  64:.\main.c      ****     
  65:.\main.c      ****     /* Configure DMAs for each direction */ 
  66:.\main.c      ****     DmaRxConfiguration();
  67:.\main.c      ****     DmaTxConfiguration();
  68:.\main.c      **** 	
  69:.\main.c      **** 	I2S_EnableRx();		/* Enable Rx direction */
  70:.\main.c      ****     I2S_EnableTx();     /* Enable Tx direction */
  71:.\main.c      ****    
  72:.\main.c      **** 	CyDelay(5000);		/* Wait for data transmissions to complete */
  73:.\main.c      **** 	
  74:.\main.c      **** 	//I2S_Stop();			/* Stop the I2S component */
  75:.\main.c      **** 	
  76:.\main.c      **** 	UART_Start();     	/* Enabling the UART */
  77:.\main.c      **** 	
  78:.\main.c      **** 	/* Send the data to computer through the UART component, serial to USB */
  79:.\main.c      **** 	for(i = 0; i < 16384; i++)
  80:.\main.c      **** 	{
  81:.\main.c      **** 		uint8_t part1 = (ReceivedData[i] >> 8) & 0x00ff;		/* get first byte */
  82:.\main.c      **** 		uint8_t part2 = (ReceivedData[i] >> 0) & 0x00ff;		/* get second byte */
  83:.\main.c      **** 		char part1_string[5];
  84:.\main.c      **** 		char part2_string[5];
  85:.\main.c      **** 		sprintf(part1_string, "%d", part1);
  86:.\main.c      **** 		sprintf(part2_string, "%d", part2);
  87:.\main.c      **** 		UART_PutString(part1_string);					
  88:.\main.c      **** 		UART_PutString(", ");							
ARM GAS  C:\Users\Ian\AppData\Local\Temp\ccRuZkwc.s 			page 3


  89:.\main.c      **** 		UART_PutString(part2_string);					
  90:.\main.c      **** 		UART_PutString("\n\r");		
  91:.\main.c      **** 	}
  92:.\main.c      **** 	
  93:.\main.c      **** 	for(;;);
  94:.\main.c      **** }
  95:.\main.c      **** 
  96:.\main.c      **** /* Rx DMA Config */
  97:.\main.c      **** void DmaRxConfiguration(void)
  98:.\main.c      **** {
  27              		.loc 1 98 0
  28              		.cfi_startproc
  29              		@ args = 0, pretend = 0, frame = 0
  30              		@ frame_needed = 0, uses_anonymous_args = 0
  31 0000 38B5     		push	{r3, r4, r5, lr}
  32              		.cfi_def_cfa_offset 16
  33              		.cfi_offset 3, -16
  34              		.cfi_offset 4, -12
  35              		.cfi_offset 5, -8
  36              		.cfi_offset 14, -4
  99:.\main.c      ****     /* Init DMA, 2 byte bursts, each burst requires a request */
 100:.\main.c      ****     RxDMA_Chan = RxDMA_DmaInitialize(RxDMA_BYTES_PER_BURST, RxDMA_REQUEST_PER_BURST, 
  37              		.loc 1 100 0
  38 0002 0220     		movs	r0, #2
  39 0004 0121     		movs	r1, #1
  40 0006 4FF48042 		mov	r2, #16384
  41 000a 41F6FF73 		movw	r3, #8191
  42 000e FFF7FEFF 		bl	RxDMA_DmaInitialize
  43              	.LVL0:
  44 0012 0E4C     		ldr	r4, .L3
  45 0014 2070     		strb	r0, [r4]
 101:.\main.c      ****                                      HI16(RxDMA_SRC_BASE), HI16(RxDMA_DST_BASE));
 102:.\main.c      **** 	
 103:.\main.c      ****     RxDMA_TD[0] = CyDmaTdAllocate();
  46              		.loc 1 103 0
  47 0016 FFF7FEFF 		bl	CyDmaTdAllocate
  48              	.LVL1:
  49 001a 0246     		mov	r2, r0
  50 001c 0C4D     		ldr	r5, .L3+4
  51 001e 2870     		strb	r0, [r5]
 104:.\main.c      **** 	
 105:.\main.c      **** 	/* Configure this Td chain, get 16384 samples */
 106:.\main.c      ****     CyDmaTdSetConfiguration(RxDMA_TD[0], 32768, RxDMA_TD[0], TD_INC_DST_ADR);
  52              		.loc 1 106 0
  53 0020 4FF40041 		mov	r1, #32768
  54 0024 0223     		movs	r3, #2
  55 0026 FFF7FEFF 		bl	CyDmaTdSetConfiguration
  56              	.LVL2:
 107:.\main.c      **** 
 108:.\main.c      ****     /* From the I2S to the memory */
 109:.\main.c      ****     CyDmaTdSetAddress(RxDMA_TD[0], LO16((uint32)ADC_DEC_SAMP_PTR), LO16((uint32)ReceivedData));
  57              		.loc 1 109 0
  58 002a 2878     		ldrb	r0, [r5]	@ zero_extendqisi2
  59 002c 44F61061 		movw	r1, #19984
  60 0030 084A     		ldr	r2, .L3+8
  61 0032 92B2     		uxth	r2, r2
  62 0034 FFF7FEFF 		bl	CyDmaTdSetAddress
ARM GAS  C:\Users\Ian\AppData\Local\Temp\ccRuZkwc.s 			page 4


  63              	.LVL3:
 110:.\main.c      **** 	
 111:.\main.c      ****     /* Associate the TD with the channel */
 112:.\main.c      ****     CyDmaChSetInitialTd(RxDMA_Chan, RxDMA_TD[0]);
  64              		.loc 1 112 0
  65 0038 2078     		ldrb	r0, [r4]	@ zero_extendqisi2
  66 003a 2978     		ldrb	r1, [r5]	@ zero_extendqisi2
  67 003c FFF7FEFF 		bl	CyDmaChSetInitialTd
  68              	.LVL4:
 113:.\main.c      **** 	
 114:.\main.c      ****     /* Enable the channel */
 115:.\main.c      ****     CyDmaChEnable(RxDMA_Chan, 1);
  69              		.loc 1 115 0
  70 0040 2078     		ldrb	r0, [r4]	@ zero_extendqisi2
  71 0042 0121     		movs	r1, #1
  72 0044 FFF7FEFF 		bl	CyDmaChEnable
  73              	.LVL5:
  74 0048 38BD     		pop	{r3, r4, r5, pc}
  75              	.L4:
  76 004a 00BF     		.align	2
  77              	.L3:
  78 004c 00000000 		.word	RxDMA_Chan
  79 0050 00000000 		.word	RxDMA_TD
  80 0054 00000000 		.word	.LANCHOR0
  81              		.cfi_endproc
  82              	.LFE57:
  83              		.size	DmaRxConfiguration, .-DmaRxConfiguration
  84              		.section	.text.DmaTxConfiguration,"ax",%progbits
  85              		.align	2
  86              		.global	DmaTxConfiguration
  87              		.thumb
  88              		.thumb_func
  89              		.type	DmaTxConfiguration, %function
  90              	DmaTxConfiguration:
  91              	.LFB58:
 116:.\main.c      **** }
 117:.\main.c      **** 
 118:.\main.c      **** /* Tx DMA Config */
 119:.\main.c      **** void DmaTxConfiguration(void)
 120:.\main.c      **** {
  92              		.loc 1 120 0
  93              		.cfi_startproc
  94              		@ args = 0, pretend = 0, frame = 0
  95              		@ frame_needed = 0, uses_anonymous_args = 0
  96 0000 F8B5     		push	{r3, r4, r5, r6, r7, lr}
  97              		.cfi_def_cfa_offset 24
  98              		.cfi_offset 3, -24
  99              		.cfi_offset 4, -20
 100              		.cfi_offset 5, -16
 101              		.cfi_offset 6, -12
 102              		.cfi_offset 7, -8
 103              		.cfi_offset 14, -4
 121:.\main.c      ****     /* Init DMA, 2 byte bursts, each burst requires a request */
 122:.\main.c      ****     TxDMA_0_Chan = TxDMA_0_DmaInitialize(TxDMA_BYTES_PER_BURST, TxDMA_REQUEST_PER_BURST, 
 104              		.loc 1 122 0
 105 0002 0220     		movs	r0, #2
 106 0004 0121     		movs	r1, #1
ARM GAS  C:\Users\Ian\AppData\Local\Temp\ccRuZkwc.s 			page 5


 107 0006 4FF48042 		mov	r2, #16384
 108 000a 1346     		mov	r3, r2
 109 000c FFF7FEFF 		bl	TxDMA_0_DmaInitialize
 110              	.LVL6:
 111 0010 1E4F     		ldr	r7, .L7
 112 0012 3870     		strb	r0, [r7]
 123:.\main.c      ****                                     HI16(TxDMA_SRC_BASE), HI16(TxDMA_DST_BASE));
 124:.\main.c      **** 	TxDMA_1_Chan = TxDMA_1_DmaInitialize(TxDMA_BYTES_PER_BURST, TxDMA_REQUEST_PER_BURST, 
 113              		.loc 1 124 0
 114 0014 0220     		movs	r0, #2
 115 0016 0121     		movs	r1, #1
 116 0018 4FF48042 		mov	r2, #16384
 117 001c 1346     		mov	r3, r2
 118 001e FFF7FEFF 		bl	TxDMA_1_DmaInitialize
 119              	.LVL7:
 120 0022 1B4E     		ldr	r6, .L7+4
 121 0024 3070     		strb	r0, [r6]
 125:.\main.c      ****                                     HI16(TxDMA_SRC_BASE), HI16(TxDMA_DST_BASE));
 126:.\main.c      **** 	
 127:.\main.c      ****     TxDMA_0_TD[0] = CyDmaTdAllocate();
 122              		.loc 1 127 0
 123 0026 FFF7FEFF 		bl	CyDmaTdAllocate
 124              	.LVL8:
 125 002a 1A4D     		ldr	r5, .L7+8
 126 002c 2870     		strb	r0, [r5]
 128:.\main.c      ****     TxDMA_1_TD[0] = CyDmaTdAllocate();
 127              		.loc 1 128 0
 128 002e FFF7FEFF 		bl	CyDmaTdAllocate
 129              	.LVL9:
 130 0032 194C     		ldr	r4, .L7+12
 131 0034 2070     		strb	r0, [r4]
 129:.\main.c      **** 
 130:.\main.c      **** 	/* Configure this Td chain */
 131:.\main.c      ****     CyDmaTdSetConfiguration(TxDMA_0_TD[0], 2, TxDMA_0_TD[0], TxDMA_0__TD_TERMOUT_EN);
 132              		.loc 1 131 0
 133 0036 2A78     		ldrb	r2, [r5]	@ zero_extendqisi2
 134 0038 1046     		mov	r0, r2
 135 003a 0221     		movs	r1, #2
 136 003c 0023     		movs	r3, #0
 137 003e FFF7FEFF 		bl	CyDmaTdSetConfiguration
 138              	.LVL10:
 132:.\main.c      ****     CyDmaTdSetConfiguration(TxDMA_1_TD[0], 2, TxDMA_1_TD[0], TxDMA_1__TD_TERMOUT_EN);
 139              		.loc 1 132 0
 140 0042 2278     		ldrb	r2, [r4]	@ zero_extendqisi2
 141 0044 1046     		mov	r0, r2
 142 0046 0221     		movs	r1, #2
 143 0048 0023     		movs	r3, #0
 144 004a FFF7FEFF 		bl	CyDmaTdSetConfiguration
 145              	.LVL11:
 133:.\main.c      **** 	
 134:.\main.c      **** 	/* From the ADC to the I2S */
 135:.\main.c      ****     CyDmaTdSetAddress(TxDMA_0_TD[0], LO16((uint32)ADC_DEC_SAMP_PTR), LO16((uint32)I2S_TX_CH0_F0_PTR
 146              		.loc 1 135 0
 147 004e 2878     		ldrb	r0, [r5]	@ zero_extendqisi2
 148 0050 44F61061 		movw	r1, #19984
 149 0054 46F24142 		movw	r2, #25665
 150 0058 FFF7FEFF 		bl	CyDmaTdSetAddress
ARM GAS  C:\Users\Ian\AppData\Local\Temp\ccRuZkwc.s 			page 6


 151              	.LVL12:
 136:.\main.c      ****     CyDmaTdSetAddress(TxDMA_1_TD[0], LO16((uint32)ADC_DEC_SAMP_PTR), LO16((uint32)I2S_TX_CH0_F1_PTR
 152              		.loc 1 136 0
 153 005c 2078     		ldrb	r0, [r4]	@ zero_extendqisi2
 154 005e 44F61061 		movw	r1, #19984
 155 0062 46F25142 		movw	r2, #25681
 156 0066 FFF7FEFF 		bl	CyDmaTdSetAddress
 157              	.LVL13:
 137:.\main.c      **** 
 138:.\main.c      **** 	/* Associate the TD with the channel */
 139:.\main.c      ****     CyDmaChSetInitialTd(TxDMA_0_Chan, TxDMA_0_TD[0]);
 158              		.loc 1 139 0
 159 006a 3878     		ldrb	r0, [r7]	@ zero_extendqisi2
 160 006c 2978     		ldrb	r1, [r5]	@ zero_extendqisi2
 161 006e FFF7FEFF 		bl	CyDmaChSetInitialTd
 162              	.LVL14:
 140:.\main.c      ****     CyDmaChSetInitialTd(TxDMA_1_Chan, TxDMA_1_TD[0]);
 163              		.loc 1 140 0
 164 0072 3078     		ldrb	r0, [r6]	@ zero_extendqisi2
 165 0074 2178     		ldrb	r1, [r4]	@ zero_extendqisi2
 166 0076 FFF7FEFF 		bl	CyDmaChSetInitialTd
 167              	.LVL15:
 141:.\main.c      **** 
 142:.\main.c      **** 	/* Enable the channel */
 143:.\main.c      ****     CyDmaChEnable(TxDMA_0_Chan, 1);
 168              		.loc 1 143 0
 169 007a 3878     		ldrb	r0, [r7]	@ zero_extendqisi2
 170 007c 0121     		movs	r1, #1
 171 007e FFF7FEFF 		bl	CyDmaChEnable
 172              	.LVL16:
 144:.\main.c      ****     CyDmaChEnable(TxDMA_1_Chan, 1);
 173              		.loc 1 144 0
 174 0082 3078     		ldrb	r0, [r6]	@ zero_extendqisi2
 175 0084 0121     		movs	r1, #1
 176 0086 FFF7FEFF 		bl	CyDmaChEnable
 177              	.LVL17:
 178 008a F8BD     		pop	{r3, r4, r5, r6, r7, pc}
 179              	.L8:
 180              		.align	2
 181              	.L7:
 182 008c 00000000 		.word	TxDMA_0_Chan
 183 0090 00000000 		.word	TxDMA_1_Chan
 184 0094 00000000 		.word	TxDMA_0_TD
 185 0098 00000000 		.word	TxDMA_1_TD
 186              		.cfi_endproc
 187              	.LFE58:
 188              		.size	DmaTxConfiguration, .-DmaTxConfiguration
 189              		.section	.text.main,"ax",%progbits
 190              		.align	2
 191              		.global	main
 192              		.thumb
 193              		.thumb_func
 194              		.type	main, %function
 195              	main:
 196              	.LFB56:
  51:.\main.c      **** 	uint32_t i;
 197              		.loc 1 51 0
ARM GAS  C:\Users\Ian\AppData\Local\Temp\ccRuZkwc.s 			page 7


 198              		.cfi_startproc
 199              		@ args = 0, pretend = 0, frame = 16
 200              		@ frame_needed = 0, uses_anonymous_args = 0
 201 0000 70B5     		push	{r4, r5, r6, lr}
 202              		.cfi_def_cfa_offset 16
 203              		.cfi_offset 4, -16
 204              		.cfi_offset 5, -12
 205              		.cfi_offset 6, -8
 206              		.cfi_offset 14, -4
 207 0002 84B0     		sub	sp, sp, #16
 208              		.cfi_def_cfa_offset 32
  58:.\main.c      **** 	ADC_Start();
 209              		.loc 1 58 0
 210 0004 FFF7FEFF 		bl	WaveDAC8_Start
 211              	.LVL18:
  59:.\main.c      **** 	ADC_StartConvert();
 212              		.loc 1 59 0
 213 0008 FFF7FEFF 		bl	ADC_Start
 214              	.LVL19:
  60:.\main.c      **** 	
 215              		.loc 1 60 0
 216 000c FFF7FEFF 		bl	ADC_StartConvert
 217              	.LVL20:
  63:.\main.c      ****     
 218              		.loc 1 63 0
 219 0010 FFF7FEFF 		bl	I2S_Start
 220              	.LVL21:
  66:.\main.c      ****     DmaTxConfiguration();
 221              		.loc 1 66 0
 222 0014 FFF7FEFF 		bl	DmaRxConfiguration
 223              	.LVL22:
  67:.\main.c      **** 	
 224              		.loc 1 67 0
 225 0018 FFF7FEFF 		bl	DmaTxConfiguration
 226              	.LVL23:
  69:.\main.c      ****     I2S_EnableTx();     /* Enable Tx direction */
 227              		.loc 1 69 0
 228 001c FFF7FEFF 		bl	I2S_EnableRx
 229              	.LVL24:
  70:.\main.c      ****    
 230              		.loc 1 70 0
 231 0020 FFF7FEFF 		bl	I2S_EnableTx
 232              	.LVL25:
  72:.\main.c      **** 	
 233              		.loc 1 72 0
 234 0024 41F28830 		movw	r0, #5000
 235 0028 FFF7FEFF 		bl	CyDelay
 236              	.LVL26:
  76:.\main.c      **** 	
 237              		.loc 1 76 0
 238 002c FFF7FEFF 		bl	UART_Start
 239              	.LVL27:
  79:.\main.c      **** 	{
 240              		.loc 1 79 0
 241 0030 0024     		movs	r4, #0
 242 0032 1BE0     		b	.L10
 243              	.LVL28:
ARM GAS  C:\Users\Ian\AppData\Local\Temp\ccRuZkwc.s 			page 8


 244              	.L11:
 245              	.LBB2:
  81:.\main.c      **** 		uint8_t part2 = (ReceivedData[i] >> 0) & 0x00ff;		/* get second byte */
 246              		.loc 1 81 0 discriminator 3
 247 0034 0F4B     		ldr	r3, .L14
 248 0036 33F81420 		ldrh	r2, [r3, r4, lsl #1]
 249              	.LVL29:
  82:.\main.c      **** 		char part1_string[5];
 250              		.loc 1 82 0 discriminator 3
 251 003a D6B2     		uxtb	r6, r2
 252              	.LVL30:
  85:.\main.c      **** 		sprintf(part2_string, "%d", part2);
 253              		.loc 1 85 0 discriminator 3
 254 003c 0E4D     		ldr	r5, .L14+4
 255 003e 6846     		mov	r0, sp
 256 0040 2946     		mov	r1, r5
 257 0042 120A     		lsrs	r2, r2, #8
 258              	.LVL31:
 259 0044 FFF7FEFF 		bl	sprintf
 260              	.LVL32:
  86:.\main.c      **** 		UART_PutString(part1_string);					
 261              		.loc 1 86 0 discriminator 3
 262 0048 02A8     		add	r0, sp, #8
 263 004a 2946     		mov	r1, r5
 264 004c 3246     		mov	r2, r6
 265 004e FFF7FEFF 		bl	sprintf
 266              	.LVL33:
  87:.\main.c      **** 		UART_PutString(", ");							
 267              		.loc 1 87 0 discriminator 3
 268 0052 6846     		mov	r0, sp
 269 0054 FFF7FEFF 		bl	UART_PutString
 270              	.LVL34:
  88:.\main.c      **** 		UART_PutString(part2_string);					
 271              		.loc 1 88 0 discriminator 3
 272 0058 0848     		ldr	r0, .L14+8
 273 005a FFF7FEFF 		bl	UART_PutString
 274              	.LVL35:
  89:.\main.c      **** 		UART_PutString("\n\r");		
 275              		.loc 1 89 0 discriminator 3
 276 005e 02A8     		add	r0, sp, #8
 277 0060 FFF7FEFF 		bl	UART_PutString
 278              	.LVL36:
  90:.\main.c      **** 	}
 279              		.loc 1 90 0 discriminator 3
 280 0064 0648     		ldr	r0, .L14+12
 281 0066 FFF7FEFF 		bl	UART_PutString
 282              	.LVL37:
 283              	.LBE2:
  79:.\main.c      **** 	{
 284              		.loc 1 79 0 discriminator 3
 285 006a 0134     		adds	r4, r4, #1
 286              	.LVL38:
 287              	.L10:
  79:.\main.c      **** 	{
 288              		.loc 1 79 0 is_stmt 0 discriminator 1
 289 006c B4F5804F 		cmp	r4, #16384
 290 0070 E0D3     		bcc	.L11
ARM GAS  C:\Users\Ian\AppData\Local\Temp\ccRuZkwc.s 			page 9


 291              	.L12:
  93:.\main.c      **** }
 292              		.loc 1 93 0 is_stmt 1 discriminator 1
 293 0072 FEE7     		b	.L12
 294              	.L15:
 295              		.align	2
 296              	.L14:
 297 0074 00000000 		.word	.LANCHOR0
 298 0078 00000000 		.word	.LC0
 299 007c 04000000 		.word	.LC1
 300 0080 08000000 		.word	.LC2
 301              		.cfi_endproc
 302              	.LFE56:
 303              		.size	main, .-main
 304              		.global	ReceivedData
 305              		.comm	TxDMA_1_TD,1,4
 306              		.comm	TxDMA_1_Chan,1,1
 307              		.comm	TxDMA_0_TD,1,4
 308              		.comm	TxDMA_0_Chan,1,1
 309              		.comm	RxDMA_TD,1,4
 310              		.comm	RxDMA_Chan,1,1
 311              		.section	.rodata.str1.4,"aMS",%progbits,1
 312              		.align	2
 313              	.LC0:
 314 0000 256400   		.ascii	"%d\000"
 315 0003 00       		.space	1
 316              	.LC1:
 317 0004 2C2000   		.ascii	", \000"
 318 0007 00       		.space	1
 319              	.LC2:
 320 0008 0A0D00   		.ascii	"\012\015\000"
 321 000b 00       		.bss
 322              		.align	2
 323              		.set	.LANCHOR0,. + 0
 324              		.type	ReceivedData, %object
 325              		.size	ReceivedData, 32768
 326              	ReceivedData:
 327 0000 00000000 		.space	32768
 327      00000000 
 327      00000000 
 327      00000000 
 327      00000000 
 328              		.text
 329              	.Letext0:
 330              		.file 2 "c:\\program files (x86)\\cypress\\psoc creator\\3.3\\psoc creator\\import\\gnu\\arm\\4.9.
 331              		.file 3 "c:\\program files (x86)\\cypress\\psoc creator\\3.3\\psoc creator\\import\\gnu\\arm\\4.9.
 332              		.file 4 "Generated_Source\\PSoC5/cytypes.h"
 333              		.file 5 "Generated_Source\\PSoC5/core_cm3.h"
 334              		.file 6 "Generated_Source\\PSoC5/RxDMA_dma.h"
 335              		.file 7 "Generated_Source\\PSoC5/CYDMAC.H"
 336              		.file 8 "Generated_Source\\PSoC5/TxDMA_0_dma.h"
 337              		.file 9 "Generated_Source\\PSoC5/TxDMA_1_dma.h"
 338              		.file 10 "c:\\program files (x86)\\cypress\\psoc creator\\3.3\\psoc creator\\import\\gnu\\arm\\4.9
 339              		.file 11 "Generated_Source\\PSoC5/WaveDAC8.h"
 340              		.file 12 "Generated_Source\\PSoC5/ADC.h"
 341              		.file 13 "Generated_Source\\PSoC5/I2S.h"
 342              		.file 14 "Generated_Source\\PSoC5/UART.h"
ARM GAS  C:\Users\Ian\AppData\Local\Temp\ccRuZkwc.s 			page 10


 343              		.file 15 "Generated_Source\\PSoC5/CyLib.h"