ARM GAS  C:\Users\Ian\AppData\Local\Temp\cc0BAEth.s 			page 1


   1              		.syntax unified
   2              		.cpu cortex-m3
   3              		.fpu softvfp
   4              		.eabi_attribute 20, 1
   5              		.eabi_attribute 21, 1
   6              		.eabi_attribute 23, 3
   7              		.eabi_attribute 24, 1
   8              		.eabi_attribute 25, 1
   9              		.eabi_attribute 26, 1
  10              		.eabi_attribute 30, 1
  11              		.eabi_attribute 34, 1
  12              		.eabi_attribute 18, 4
  13              		.thumb
  14              		.file	"WaveDAC8_VDAC8.c"
  15              		.text
  16              	.Ltext0:
  17              		.cfi_sections	.debug_frame
  18              		.section	.text.WaveDAC8_VDAC8_Enable,"ax",%progbits
  19              		.align	2
  20              		.global	WaveDAC8_VDAC8_Enable
  21              		.thumb
  22              		.thumb_func
  23              		.type	WaveDAC8_VDAC8_Enable, %function
  24              	WaveDAC8_VDAC8_Enable:
  25              	.LFB1:
  26              		.file 1 ".\\Generated_Source\\PSoC5\\WaveDAC8_VDAC8.c"
   1:.\Generated_Source\PSoC5/WaveDAC8_VDAC8.c **** /*******************************************************************************
   2:.\Generated_Source\PSoC5/WaveDAC8_VDAC8.c **** * File Name: WaveDAC8_VDAC8.c  
   3:.\Generated_Source\PSoC5/WaveDAC8_VDAC8.c **** * Version 1.90
   4:.\Generated_Source\PSoC5/WaveDAC8_VDAC8.c **** *
   5:.\Generated_Source\PSoC5/WaveDAC8_VDAC8.c **** * Description:
   6:.\Generated_Source\PSoC5/WaveDAC8_VDAC8.c **** *  This file provides the source code to the API for the 8-bit Voltage DAC 
   7:.\Generated_Source\PSoC5/WaveDAC8_VDAC8.c **** *  (VDAC8) User Module.
   8:.\Generated_Source\PSoC5/WaveDAC8_VDAC8.c **** *
   9:.\Generated_Source\PSoC5/WaveDAC8_VDAC8.c **** * Note:
  10:.\Generated_Source\PSoC5/WaveDAC8_VDAC8.c **** *  Any unusual or non-standard behavior should be noted here. Other-
  11:.\Generated_Source\PSoC5/WaveDAC8_VDAC8.c **** *  wise, this section should remain blank.
  12:.\Generated_Source\PSoC5/WaveDAC8_VDAC8.c **** *
  13:.\Generated_Source\PSoC5/WaveDAC8_VDAC8.c **** ********************************************************************************
  14:.\Generated_Source\PSoC5/WaveDAC8_VDAC8.c **** * Copyright 2008-2012, Cypress Semiconductor Corporation.  All rights reserved.
  15:.\Generated_Source\PSoC5/WaveDAC8_VDAC8.c **** * You may use this file only in accordance with the license, terms, conditions, 
  16:.\Generated_Source\PSoC5/WaveDAC8_VDAC8.c **** * disclaimers, and limitations in the end user license agreement accompanying 
  17:.\Generated_Source\PSoC5/WaveDAC8_VDAC8.c **** * the software package with which this file was provided.
  18:.\Generated_Source\PSoC5/WaveDAC8_VDAC8.c **** *******************************************************************************/
  19:.\Generated_Source\PSoC5/WaveDAC8_VDAC8.c **** 
  20:.\Generated_Source\PSoC5/WaveDAC8_VDAC8.c **** #include "cytypes.h"
  21:.\Generated_Source\PSoC5/WaveDAC8_VDAC8.c **** #include "WaveDAC8_VDAC8.h"
  22:.\Generated_Source\PSoC5/WaveDAC8_VDAC8.c **** 
  23:.\Generated_Source\PSoC5/WaveDAC8_VDAC8.c **** #if (CY_PSOC5A)
  24:.\Generated_Source\PSoC5/WaveDAC8_VDAC8.c **** #include <CyLib.h>
  25:.\Generated_Source\PSoC5/WaveDAC8_VDAC8.c **** #endif /* CY_PSOC5A */
  26:.\Generated_Source\PSoC5/WaveDAC8_VDAC8.c **** 
  27:.\Generated_Source\PSoC5/WaveDAC8_VDAC8.c **** uint8 WaveDAC8_VDAC8_initVar = 0u;
  28:.\Generated_Source\PSoC5/WaveDAC8_VDAC8.c **** 
  29:.\Generated_Source\PSoC5/WaveDAC8_VDAC8.c **** #if (CY_PSOC5A)
  30:.\Generated_Source\PSoC5/WaveDAC8_VDAC8.c ****     static uint8 WaveDAC8_VDAC8_restoreVal = 0u;
  31:.\Generated_Source\PSoC5/WaveDAC8_VDAC8.c **** #endif /* CY_PSOC5A */
ARM GAS  C:\Users\Ian\AppData\Local\Temp\cc0BAEth.s 			page 2


  32:.\Generated_Source\PSoC5/WaveDAC8_VDAC8.c **** 
  33:.\Generated_Source\PSoC5/WaveDAC8_VDAC8.c **** #if (CY_PSOC5A)
  34:.\Generated_Source\PSoC5/WaveDAC8_VDAC8.c ****     static WaveDAC8_VDAC8_backupStruct WaveDAC8_VDAC8_backup;
  35:.\Generated_Source\PSoC5/WaveDAC8_VDAC8.c **** #endif /* CY_PSOC5A */
  36:.\Generated_Source\PSoC5/WaveDAC8_VDAC8.c **** 
  37:.\Generated_Source\PSoC5/WaveDAC8_VDAC8.c **** 
  38:.\Generated_Source\PSoC5/WaveDAC8_VDAC8.c **** /*******************************************************************************
  39:.\Generated_Source\PSoC5/WaveDAC8_VDAC8.c **** * Function Name: WaveDAC8_VDAC8_Init
  40:.\Generated_Source\PSoC5/WaveDAC8_VDAC8.c **** ********************************************************************************
  41:.\Generated_Source\PSoC5/WaveDAC8_VDAC8.c **** * Summary:
  42:.\Generated_Source\PSoC5/WaveDAC8_VDAC8.c **** *  Initialize to the schematic state.
  43:.\Generated_Source\PSoC5/WaveDAC8_VDAC8.c **** * 
  44:.\Generated_Source\PSoC5/WaveDAC8_VDAC8.c **** * Parameters:
  45:.\Generated_Source\PSoC5/WaveDAC8_VDAC8.c **** *  void:
  46:.\Generated_Source\PSoC5/WaveDAC8_VDAC8.c **** *
  47:.\Generated_Source\PSoC5/WaveDAC8_VDAC8.c **** * Return:
  48:.\Generated_Source\PSoC5/WaveDAC8_VDAC8.c **** *  void
  49:.\Generated_Source\PSoC5/WaveDAC8_VDAC8.c **** *
  50:.\Generated_Source\PSoC5/WaveDAC8_VDAC8.c **** * Theory:
  51:.\Generated_Source\PSoC5/WaveDAC8_VDAC8.c **** *
  52:.\Generated_Source\PSoC5/WaveDAC8_VDAC8.c **** * Side Effects:
  53:.\Generated_Source\PSoC5/WaveDAC8_VDAC8.c **** *
  54:.\Generated_Source\PSoC5/WaveDAC8_VDAC8.c **** *******************************************************************************/
  55:.\Generated_Source\PSoC5/WaveDAC8_VDAC8.c **** void WaveDAC8_VDAC8_Init(void) 
  56:.\Generated_Source\PSoC5/WaveDAC8_VDAC8.c **** {
  57:.\Generated_Source\PSoC5/WaveDAC8_VDAC8.c ****     WaveDAC8_VDAC8_CR0 = (WaveDAC8_VDAC8_MODE_V );
  58:.\Generated_Source\PSoC5/WaveDAC8_VDAC8.c **** 
  59:.\Generated_Source\PSoC5/WaveDAC8_VDAC8.c ****     /* Set default data source */
  60:.\Generated_Source\PSoC5/WaveDAC8_VDAC8.c ****     #if(WaveDAC8_VDAC8_DEFAULT_DATA_SRC != 0 )
  61:.\Generated_Source\PSoC5/WaveDAC8_VDAC8.c ****         WaveDAC8_VDAC8_CR1 = (WaveDAC8_VDAC8_DEFAULT_CNTL | WaveDAC8_VDAC8_DACBUS_ENABLE) ;
  62:.\Generated_Source\PSoC5/WaveDAC8_VDAC8.c ****     #else
  63:.\Generated_Source\PSoC5/WaveDAC8_VDAC8.c ****         WaveDAC8_VDAC8_CR1 = (WaveDAC8_VDAC8_DEFAULT_CNTL | WaveDAC8_VDAC8_DACBUS_DISABLE) ;
  64:.\Generated_Source\PSoC5/WaveDAC8_VDAC8.c ****     #endif /* (WaveDAC8_VDAC8_DEFAULT_DATA_SRC != 0 ) */
  65:.\Generated_Source\PSoC5/WaveDAC8_VDAC8.c **** 
  66:.\Generated_Source\PSoC5/WaveDAC8_VDAC8.c ****     /* Set default strobe mode */
  67:.\Generated_Source\PSoC5/WaveDAC8_VDAC8.c ****     #if(WaveDAC8_VDAC8_DEFAULT_STRB != 0)
  68:.\Generated_Source\PSoC5/WaveDAC8_VDAC8.c ****         WaveDAC8_VDAC8_Strobe |= WaveDAC8_VDAC8_STRB_EN ;
  69:.\Generated_Source\PSoC5/WaveDAC8_VDAC8.c ****     #endif/* (WaveDAC8_VDAC8_DEFAULT_STRB != 0) */
  70:.\Generated_Source\PSoC5/WaveDAC8_VDAC8.c **** 
  71:.\Generated_Source\PSoC5/WaveDAC8_VDAC8.c ****     /* Set default range */
  72:.\Generated_Source\PSoC5/WaveDAC8_VDAC8.c ****     WaveDAC8_VDAC8_SetRange(WaveDAC8_VDAC8_DEFAULT_RANGE); 
  73:.\Generated_Source\PSoC5/WaveDAC8_VDAC8.c **** 
  74:.\Generated_Source\PSoC5/WaveDAC8_VDAC8.c ****     /* Set default speed */
  75:.\Generated_Source\PSoC5/WaveDAC8_VDAC8.c ****     WaveDAC8_VDAC8_SetSpeed(WaveDAC8_VDAC8_DEFAULT_SPEED);
  76:.\Generated_Source\PSoC5/WaveDAC8_VDAC8.c **** }
  77:.\Generated_Source\PSoC5/WaveDAC8_VDAC8.c **** 
  78:.\Generated_Source\PSoC5/WaveDAC8_VDAC8.c **** 
  79:.\Generated_Source\PSoC5/WaveDAC8_VDAC8.c **** /*******************************************************************************
  80:.\Generated_Source\PSoC5/WaveDAC8_VDAC8.c **** * Function Name: WaveDAC8_VDAC8_Enable
  81:.\Generated_Source\PSoC5/WaveDAC8_VDAC8.c **** ********************************************************************************
  82:.\Generated_Source\PSoC5/WaveDAC8_VDAC8.c **** * Summary:
  83:.\Generated_Source\PSoC5/WaveDAC8_VDAC8.c **** *  Enable the VDAC8
  84:.\Generated_Source\PSoC5/WaveDAC8_VDAC8.c **** * 
  85:.\Generated_Source\PSoC5/WaveDAC8_VDAC8.c **** * Parameters:
  86:.\Generated_Source\PSoC5/WaveDAC8_VDAC8.c **** *  void
  87:.\Generated_Source\PSoC5/WaveDAC8_VDAC8.c **** *
  88:.\Generated_Source\PSoC5/WaveDAC8_VDAC8.c **** * Return:
ARM GAS  C:\Users\Ian\AppData\Local\Temp\cc0BAEth.s 			page 3


  89:.\Generated_Source\PSoC5/WaveDAC8_VDAC8.c **** *  void
  90:.\Generated_Source\PSoC5/WaveDAC8_VDAC8.c **** *
  91:.\Generated_Source\PSoC5/WaveDAC8_VDAC8.c **** * Theory:
  92:.\Generated_Source\PSoC5/WaveDAC8_VDAC8.c **** *
  93:.\Generated_Source\PSoC5/WaveDAC8_VDAC8.c **** * Side Effects:
  94:.\Generated_Source\PSoC5/WaveDAC8_VDAC8.c **** *
  95:.\Generated_Source\PSoC5/WaveDAC8_VDAC8.c **** *******************************************************************************/
  96:.\Generated_Source\PSoC5/WaveDAC8_VDAC8.c **** void WaveDAC8_VDAC8_Enable(void) 
  97:.\Generated_Source\PSoC5/WaveDAC8_VDAC8.c **** {
  27              		.loc 1 97 0
  28              		.cfi_startproc
  29              		@ args = 0, pretend = 0, frame = 0
  30              		@ frame_needed = 0, uses_anonymous_args = 0
  31              		@ link register save eliminated.
  98:.\Generated_Source\PSoC5/WaveDAC8_VDAC8.c ****     WaveDAC8_VDAC8_PWRMGR |= WaveDAC8_VDAC8_ACT_PWR_EN;
  32              		.loc 1 98 0
  33 0000 054A     		ldr	r2, .L2
  34 0002 1378     		ldrb	r3, [r2]	@ zero_extendqisi2
  35 0004 43F00403 		orr	r3, r3, #4
  36 0008 1370     		strb	r3, [r2]
  99:.\Generated_Source\PSoC5/WaveDAC8_VDAC8.c ****     WaveDAC8_VDAC8_STBY_PWRMGR |= WaveDAC8_VDAC8_STBY_PWR_EN;
  37              		.loc 1 99 0
  38 000a 1032     		adds	r2, r2, #16
  39 000c 1378     		ldrb	r3, [r2]	@ zero_extendqisi2
  40 000e 43F00403 		orr	r3, r3, #4
  41 0012 1370     		strb	r3, [r2]
  42 0014 7047     		bx	lr
  43              	.L3:
  44 0016 00BF     		.align	2
  45              	.L2:
  46 0018 A8430040 		.word	1073759144
  47              		.cfi_endproc
  48              	.LFE1:
  49              		.size	WaveDAC8_VDAC8_Enable, .-WaveDAC8_VDAC8_Enable
  50              		.section	.text.WaveDAC8_VDAC8_Stop,"ax",%progbits
  51              		.align	2
  52              		.global	WaveDAC8_VDAC8_Stop
  53              		.thumb
  54              		.thumb_func
  55              		.type	WaveDAC8_VDAC8_Stop, %function
  56              	WaveDAC8_VDAC8_Stop:
  57              	.LFB3:
 100:.\Generated_Source\PSoC5/WaveDAC8_VDAC8.c **** 
 101:.\Generated_Source\PSoC5/WaveDAC8_VDAC8.c ****     /*This is to restore the value of register CR0 ,
 102:.\Generated_Source\PSoC5/WaveDAC8_VDAC8.c ****     which is modified  in Stop API , this prevents misbehaviour of VDAC */
 103:.\Generated_Source\PSoC5/WaveDAC8_VDAC8.c ****     #if (CY_PSOC5A)
 104:.\Generated_Source\PSoC5/WaveDAC8_VDAC8.c ****         if(WaveDAC8_VDAC8_restoreVal == 1u) 
 105:.\Generated_Source\PSoC5/WaveDAC8_VDAC8.c ****         {
 106:.\Generated_Source\PSoC5/WaveDAC8_VDAC8.c ****              WaveDAC8_VDAC8_CR0 = WaveDAC8_VDAC8_backup.data_value;
 107:.\Generated_Source\PSoC5/WaveDAC8_VDAC8.c ****              WaveDAC8_VDAC8_restoreVal = 0u;
 108:.\Generated_Source\PSoC5/WaveDAC8_VDAC8.c ****         }
 109:.\Generated_Source\PSoC5/WaveDAC8_VDAC8.c ****     #endif /* CY_PSOC5A */
 110:.\Generated_Source\PSoC5/WaveDAC8_VDAC8.c **** }
 111:.\Generated_Source\PSoC5/WaveDAC8_VDAC8.c **** 
 112:.\Generated_Source\PSoC5/WaveDAC8_VDAC8.c **** 
 113:.\Generated_Source\PSoC5/WaveDAC8_VDAC8.c **** /*******************************************************************************
 114:.\Generated_Source\PSoC5/WaveDAC8_VDAC8.c **** * Function Name: WaveDAC8_VDAC8_Start
ARM GAS  C:\Users\Ian\AppData\Local\Temp\cc0BAEth.s 			page 4


 115:.\Generated_Source\PSoC5/WaveDAC8_VDAC8.c **** ********************************************************************************
 116:.\Generated_Source\PSoC5/WaveDAC8_VDAC8.c **** *
 117:.\Generated_Source\PSoC5/WaveDAC8_VDAC8.c **** * Summary:
 118:.\Generated_Source\PSoC5/WaveDAC8_VDAC8.c **** *  The start function initializes the voltage DAC with the default values, 
 119:.\Generated_Source\PSoC5/WaveDAC8_VDAC8.c **** *  and sets the power to the given level.  A power level of 0, is the same as
 120:.\Generated_Source\PSoC5/WaveDAC8_VDAC8.c **** *  executing the stop function.
 121:.\Generated_Source\PSoC5/WaveDAC8_VDAC8.c **** *
 122:.\Generated_Source\PSoC5/WaveDAC8_VDAC8.c **** * Parameters:
 123:.\Generated_Source\PSoC5/WaveDAC8_VDAC8.c **** *  Power: Sets power level between off (0) and (3) high power
 124:.\Generated_Source\PSoC5/WaveDAC8_VDAC8.c **** *
 125:.\Generated_Source\PSoC5/WaveDAC8_VDAC8.c **** * Return:
 126:.\Generated_Source\PSoC5/WaveDAC8_VDAC8.c **** *  void 
 127:.\Generated_Source\PSoC5/WaveDAC8_VDAC8.c **** *
 128:.\Generated_Source\PSoC5/WaveDAC8_VDAC8.c **** * Global variables:
 129:.\Generated_Source\PSoC5/WaveDAC8_VDAC8.c **** *  WaveDAC8_VDAC8_initVar: Is modified when this function is called for the 
 130:.\Generated_Source\PSoC5/WaveDAC8_VDAC8.c **** *  first time. Is used to ensure that initialization happens only once.
 131:.\Generated_Source\PSoC5/WaveDAC8_VDAC8.c **** *
 132:.\Generated_Source\PSoC5/WaveDAC8_VDAC8.c **** *******************************************************************************/
 133:.\Generated_Source\PSoC5/WaveDAC8_VDAC8.c **** void WaveDAC8_VDAC8_Start(void)  
 134:.\Generated_Source\PSoC5/WaveDAC8_VDAC8.c **** {
 135:.\Generated_Source\PSoC5/WaveDAC8_VDAC8.c ****     /* Hardware initiazation only needs to occure the first time */
 136:.\Generated_Source\PSoC5/WaveDAC8_VDAC8.c ****     if(WaveDAC8_VDAC8_initVar == 0u)
 137:.\Generated_Source\PSoC5/WaveDAC8_VDAC8.c ****     { 
 138:.\Generated_Source\PSoC5/WaveDAC8_VDAC8.c ****         WaveDAC8_VDAC8_Init();
 139:.\Generated_Source\PSoC5/WaveDAC8_VDAC8.c ****         WaveDAC8_VDAC8_initVar = 1u;
 140:.\Generated_Source\PSoC5/WaveDAC8_VDAC8.c ****     }
 141:.\Generated_Source\PSoC5/WaveDAC8_VDAC8.c **** 
 142:.\Generated_Source\PSoC5/WaveDAC8_VDAC8.c ****     /* Enable power to DAC */
 143:.\Generated_Source\PSoC5/WaveDAC8_VDAC8.c ****     WaveDAC8_VDAC8_Enable();
 144:.\Generated_Source\PSoC5/WaveDAC8_VDAC8.c **** 
 145:.\Generated_Source\PSoC5/WaveDAC8_VDAC8.c ****     /* Set default value */
 146:.\Generated_Source\PSoC5/WaveDAC8_VDAC8.c ****     WaveDAC8_VDAC8_SetValue(WaveDAC8_VDAC8_DEFAULT_DATA); 
 147:.\Generated_Source\PSoC5/WaveDAC8_VDAC8.c **** }
 148:.\Generated_Source\PSoC5/WaveDAC8_VDAC8.c **** 
 149:.\Generated_Source\PSoC5/WaveDAC8_VDAC8.c **** 
 150:.\Generated_Source\PSoC5/WaveDAC8_VDAC8.c **** /*******************************************************************************
 151:.\Generated_Source\PSoC5/WaveDAC8_VDAC8.c **** * Function Name: WaveDAC8_VDAC8_Stop
 152:.\Generated_Source\PSoC5/WaveDAC8_VDAC8.c **** ********************************************************************************
 153:.\Generated_Source\PSoC5/WaveDAC8_VDAC8.c **** *
 154:.\Generated_Source\PSoC5/WaveDAC8_VDAC8.c **** * Summary:
 155:.\Generated_Source\PSoC5/WaveDAC8_VDAC8.c **** *  Powers down DAC to lowest power state.
 156:.\Generated_Source\PSoC5/WaveDAC8_VDAC8.c **** *
 157:.\Generated_Source\PSoC5/WaveDAC8_VDAC8.c **** * Parameters:
 158:.\Generated_Source\PSoC5/WaveDAC8_VDAC8.c **** *  void
 159:.\Generated_Source\PSoC5/WaveDAC8_VDAC8.c **** *
 160:.\Generated_Source\PSoC5/WaveDAC8_VDAC8.c **** * Return:
 161:.\Generated_Source\PSoC5/WaveDAC8_VDAC8.c **** *  void
 162:.\Generated_Source\PSoC5/WaveDAC8_VDAC8.c **** *
 163:.\Generated_Source\PSoC5/WaveDAC8_VDAC8.c **** * Theory:
 164:.\Generated_Source\PSoC5/WaveDAC8_VDAC8.c **** *
 165:.\Generated_Source\PSoC5/WaveDAC8_VDAC8.c **** * Side Effects:
 166:.\Generated_Source\PSoC5/WaveDAC8_VDAC8.c **** *
 167:.\Generated_Source\PSoC5/WaveDAC8_VDAC8.c **** *******************************************************************************/
 168:.\Generated_Source\PSoC5/WaveDAC8_VDAC8.c **** void WaveDAC8_VDAC8_Stop(void) 
 169:.\Generated_Source\PSoC5/WaveDAC8_VDAC8.c **** {
  58              		.loc 1 169 0
  59              		.cfi_startproc
ARM GAS  C:\Users\Ian\AppData\Local\Temp\cc0BAEth.s 			page 5


  60              		@ args = 0, pretend = 0, frame = 0
  61              		@ frame_needed = 0, uses_anonymous_args = 0
  62              		@ link register save eliminated.
 170:.\Generated_Source\PSoC5/WaveDAC8_VDAC8.c ****     /* Disble power to DAC */
 171:.\Generated_Source\PSoC5/WaveDAC8_VDAC8.c ****     WaveDAC8_VDAC8_PWRMGR &= (uint8)(~WaveDAC8_VDAC8_ACT_PWR_EN);
  63              		.loc 1 171 0
  64 0000 054A     		ldr	r2, .L5
  65 0002 1378     		ldrb	r3, [r2]	@ zero_extendqisi2
  66 0004 03F0FB03 		and	r3, r3, #251
  67 0008 1370     		strb	r3, [r2]
 172:.\Generated_Source\PSoC5/WaveDAC8_VDAC8.c ****     WaveDAC8_VDAC8_STBY_PWRMGR &= (uint8)(~WaveDAC8_VDAC8_STBY_PWR_EN);
  68              		.loc 1 172 0
  69 000a 1032     		adds	r2, r2, #16
  70 000c 1378     		ldrb	r3, [r2]	@ zero_extendqisi2
  71 000e 03F0FB03 		and	r3, r3, #251
  72 0012 1370     		strb	r3, [r2]
  73 0014 7047     		bx	lr
  74              	.L6:
  75 0016 00BF     		.align	2
  76              	.L5:
  77 0018 A8430040 		.word	1073759144
  78              		.cfi_endproc
  79              	.LFE3:
  80              		.size	WaveDAC8_VDAC8_Stop, .-WaveDAC8_VDAC8_Stop
  81              		.section	.text.WaveDAC8_VDAC8_SetSpeed,"ax",%progbits
  82              		.align	2
  83              		.global	WaveDAC8_VDAC8_SetSpeed
  84              		.thumb
  85              		.thumb_func
  86              		.type	WaveDAC8_VDAC8_SetSpeed, %function
  87              	WaveDAC8_VDAC8_SetSpeed:
  88              	.LFB4:
 173:.\Generated_Source\PSoC5/WaveDAC8_VDAC8.c **** 
 174:.\Generated_Source\PSoC5/WaveDAC8_VDAC8.c ****     /* This is a work around for PSoC5A  ,
 175:.\Generated_Source\PSoC5/WaveDAC8_VDAC8.c ****     this sets VDAC to current mode with output off */
 176:.\Generated_Source\PSoC5/WaveDAC8_VDAC8.c ****     #if (CY_PSOC5A)
 177:.\Generated_Source\PSoC5/WaveDAC8_VDAC8.c ****         WaveDAC8_VDAC8_backup.data_value = WaveDAC8_VDAC8_CR0;
 178:.\Generated_Source\PSoC5/WaveDAC8_VDAC8.c ****         WaveDAC8_VDAC8_CR0 = WaveDAC8_VDAC8_CUR_MODE_OUT_OFF;
 179:.\Generated_Source\PSoC5/WaveDAC8_VDAC8.c ****         WaveDAC8_VDAC8_restoreVal = 1u;
 180:.\Generated_Source\PSoC5/WaveDAC8_VDAC8.c ****     #endif /* CY_PSOC5A */
 181:.\Generated_Source\PSoC5/WaveDAC8_VDAC8.c **** }
 182:.\Generated_Source\PSoC5/WaveDAC8_VDAC8.c **** 
 183:.\Generated_Source\PSoC5/WaveDAC8_VDAC8.c **** 
 184:.\Generated_Source\PSoC5/WaveDAC8_VDAC8.c **** /*******************************************************************************
 185:.\Generated_Source\PSoC5/WaveDAC8_VDAC8.c **** * Function Name: WaveDAC8_VDAC8_SetSpeed
 186:.\Generated_Source\PSoC5/WaveDAC8_VDAC8.c **** ********************************************************************************
 187:.\Generated_Source\PSoC5/WaveDAC8_VDAC8.c **** *
 188:.\Generated_Source\PSoC5/WaveDAC8_VDAC8.c **** * Summary:
 189:.\Generated_Source\PSoC5/WaveDAC8_VDAC8.c **** *  Set DAC speed
 190:.\Generated_Source\PSoC5/WaveDAC8_VDAC8.c **** *
 191:.\Generated_Source\PSoC5/WaveDAC8_VDAC8.c **** * Parameters:
 192:.\Generated_Source\PSoC5/WaveDAC8_VDAC8.c **** *  power: Sets speed value
 193:.\Generated_Source\PSoC5/WaveDAC8_VDAC8.c **** *
 194:.\Generated_Source\PSoC5/WaveDAC8_VDAC8.c **** * Return:
 195:.\Generated_Source\PSoC5/WaveDAC8_VDAC8.c **** *  void
 196:.\Generated_Source\PSoC5/WaveDAC8_VDAC8.c **** *
 197:.\Generated_Source\PSoC5/WaveDAC8_VDAC8.c **** * Theory:
ARM GAS  C:\Users\Ian\AppData\Local\Temp\cc0BAEth.s 			page 6


 198:.\Generated_Source\PSoC5/WaveDAC8_VDAC8.c **** *
 199:.\Generated_Source\PSoC5/WaveDAC8_VDAC8.c **** * Side Effects:
 200:.\Generated_Source\PSoC5/WaveDAC8_VDAC8.c **** *
 201:.\Generated_Source\PSoC5/WaveDAC8_VDAC8.c **** *******************************************************************************/
 202:.\Generated_Source\PSoC5/WaveDAC8_VDAC8.c **** void WaveDAC8_VDAC8_SetSpeed(uint8 speed) 
 203:.\Generated_Source\PSoC5/WaveDAC8_VDAC8.c **** {
  89              		.loc 1 203 0
  90              		.cfi_startproc
  91              		@ args = 0, pretend = 0, frame = 0
  92              		@ frame_needed = 0, uses_anonymous_args = 0
  93              		@ link register save eliminated.
  94              	.LVL0:
 204:.\Generated_Source\PSoC5/WaveDAC8_VDAC8.c ****     /* Clear power mask then write in new value */
 205:.\Generated_Source\PSoC5/WaveDAC8_VDAC8.c ****     WaveDAC8_VDAC8_CR0 &= (uint8)(~WaveDAC8_VDAC8_HS_MASK);
  95              		.loc 1 205 0
  96 0000 054B     		ldr	r3, .L8
  97 0002 1A78     		ldrb	r2, [r3]	@ zero_extendqisi2
  98 0004 02F0FD02 		and	r2, r2, #253
  99 0008 1A70     		strb	r2, [r3]
 206:.\Generated_Source\PSoC5/WaveDAC8_VDAC8.c ****     WaveDAC8_VDAC8_CR0 |=  (speed & WaveDAC8_VDAC8_HS_MASK);
 100              		.loc 1 206 0
 101 000a 1A78     		ldrb	r2, [r3]	@ zero_extendqisi2
 102 000c 00F00200 		and	r0, r0, #2
 103              	.LVL1:
 104 0010 1043     		orrs	r0, r0, r2
 105 0012 1870     		strb	r0, [r3]
 106 0014 7047     		bx	lr
 107              	.L9:
 108 0016 00BF     		.align	2
 109              	.L8:
 110 0018 28580040 		.word	1073764392
 111              		.cfi_endproc
 112              	.LFE4:
 113              		.size	WaveDAC8_VDAC8_SetSpeed, .-WaveDAC8_VDAC8_SetSpeed
 114              		.section	.text.WaveDAC8_VDAC8_SetValue,"ax",%progbits
 115              		.align	2
 116              		.global	WaveDAC8_VDAC8_SetValue
 117              		.thumb
 118              		.thumb_func
 119              		.type	WaveDAC8_VDAC8_SetValue, %function
 120              	WaveDAC8_VDAC8_SetValue:
 121              	.LFB6:
 207:.\Generated_Source\PSoC5/WaveDAC8_VDAC8.c **** }
 208:.\Generated_Source\PSoC5/WaveDAC8_VDAC8.c **** 
 209:.\Generated_Source\PSoC5/WaveDAC8_VDAC8.c **** 
 210:.\Generated_Source\PSoC5/WaveDAC8_VDAC8.c **** /*******************************************************************************
 211:.\Generated_Source\PSoC5/WaveDAC8_VDAC8.c **** * Function Name: WaveDAC8_VDAC8_SetRange
 212:.\Generated_Source\PSoC5/WaveDAC8_VDAC8.c **** ********************************************************************************
 213:.\Generated_Source\PSoC5/WaveDAC8_VDAC8.c **** *
 214:.\Generated_Source\PSoC5/WaveDAC8_VDAC8.c **** * Summary:
 215:.\Generated_Source\PSoC5/WaveDAC8_VDAC8.c **** *  Set one of three current ranges.
 216:.\Generated_Source\PSoC5/WaveDAC8_VDAC8.c **** *
 217:.\Generated_Source\PSoC5/WaveDAC8_VDAC8.c **** * Parameters:
 218:.\Generated_Source\PSoC5/WaveDAC8_VDAC8.c **** *  Range: Sets one of Three valid ranges.
 219:.\Generated_Source\PSoC5/WaveDAC8_VDAC8.c **** *
 220:.\Generated_Source\PSoC5/WaveDAC8_VDAC8.c **** * Return:
 221:.\Generated_Source\PSoC5/WaveDAC8_VDAC8.c **** *  void 
ARM GAS  C:\Users\Ian\AppData\Local\Temp\cc0BAEth.s 			page 7


 222:.\Generated_Source\PSoC5/WaveDAC8_VDAC8.c **** *
 223:.\Generated_Source\PSoC5/WaveDAC8_VDAC8.c **** * Theory:
 224:.\Generated_Source\PSoC5/WaveDAC8_VDAC8.c **** *
 225:.\Generated_Source\PSoC5/WaveDAC8_VDAC8.c **** * Side Effects:
 226:.\Generated_Source\PSoC5/WaveDAC8_VDAC8.c **** *
 227:.\Generated_Source\PSoC5/WaveDAC8_VDAC8.c **** *******************************************************************************/
 228:.\Generated_Source\PSoC5/WaveDAC8_VDAC8.c **** void WaveDAC8_VDAC8_SetRange(uint8 range) 
 229:.\Generated_Source\PSoC5/WaveDAC8_VDAC8.c **** {
 230:.\Generated_Source\PSoC5/WaveDAC8_VDAC8.c ****     WaveDAC8_VDAC8_CR0 &= (uint8)(~WaveDAC8_VDAC8_RANGE_MASK);      /* Clear existing mode */
 231:.\Generated_Source\PSoC5/WaveDAC8_VDAC8.c ****     WaveDAC8_VDAC8_CR0 |= (range & WaveDAC8_VDAC8_RANGE_MASK);      /*  Set Range  */
 232:.\Generated_Source\PSoC5/WaveDAC8_VDAC8.c ****     WaveDAC8_VDAC8_DacTrim();
 233:.\Generated_Source\PSoC5/WaveDAC8_VDAC8.c **** }
 234:.\Generated_Source\PSoC5/WaveDAC8_VDAC8.c **** 
 235:.\Generated_Source\PSoC5/WaveDAC8_VDAC8.c **** 
 236:.\Generated_Source\PSoC5/WaveDAC8_VDAC8.c **** /*******************************************************************************
 237:.\Generated_Source\PSoC5/WaveDAC8_VDAC8.c **** * Function Name: WaveDAC8_VDAC8_SetValue
 238:.\Generated_Source\PSoC5/WaveDAC8_VDAC8.c **** ********************************************************************************
 239:.\Generated_Source\PSoC5/WaveDAC8_VDAC8.c **** *
 240:.\Generated_Source\PSoC5/WaveDAC8_VDAC8.c **** * Summary:
 241:.\Generated_Source\PSoC5/WaveDAC8_VDAC8.c **** *  Set 8-bit DAC value
 242:.\Generated_Source\PSoC5/WaveDAC8_VDAC8.c **** *
 243:.\Generated_Source\PSoC5/WaveDAC8_VDAC8.c **** * Parameters:  
 244:.\Generated_Source\PSoC5/WaveDAC8_VDAC8.c **** *  value:  Sets DAC value between 0 and 255.
 245:.\Generated_Source\PSoC5/WaveDAC8_VDAC8.c **** *
 246:.\Generated_Source\PSoC5/WaveDAC8_VDAC8.c **** * Return: 
 247:.\Generated_Source\PSoC5/WaveDAC8_VDAC8.c **** *  void 
 248:.\Generated_Source\PSoC5/WaveDAC8_VDAC8.c **** *
 249:.\Generated_Source\PSoC5/WaveDAC8_VDAC8.c **** * Theory: 
 250:.\Generated_Source\PSoC5/WaveDAC8_VDAC8.c **** *
 251:.\Generated_Source\PSoC5/WaveDAC8_VDAC8.c **** * Side Effects:
 252:.\Generated_Source\PSoC5/WaveDAC8_VDAC8.c **** *
 253:.\Generated_Source\PSoC5/WaveDAC8_VDAC8.c **** *******************************************************************************/
 254:.\Generated_Source\PSoC5/WaveDAC8_VDAC8.c **** void WaveDAC8_VDAC8_SetValue(uint8 value) 
 255:.\Generated_Source\PSoC5/WaveDAC8_VDAC8.c **** {
 122              		.loc 1 255 0
 123              		.cfi_startproc
 124              		@ args = 0, pretend = 0, frame = 0
 125              		@ frame_needed = 0, uses_anonymous_args = 0
 126              		@ link register save eliminated.
 127              	.LVL2:
 256:.\Generated_Source\PSoC5/WaveDAC8_VDAC8.c ****     #if (CY_PSOC5A)
 257:.\Generated_Source\PSoC5/WaveDAC8_VDAC8.c ****         uint8 WaveDAC8_VDAC8_intrStatus = CyEnterCriticalSection();
 258:.\Generated_Source\PSoC5/WaveDAC8_VDAC8.c ****     #endif /* CY_PSOC5A */
 259:.\Generated_Source\PSoC5/WaveDAC8_VDAC8.c **** 
 260:.\Generated_Source\PSoC5/WaveDAC8_VDAC8.c ****     WaveDAC8_VDAC8_Data = value;                /*  Set Value  */
 128              		.loc 1 260 0
 129 0000 014B     		ldr	r3, .L11
 130 0002 1870     		strb	r0, [r3]
 131 0004 7047     		bx	lr
 132              	.L12:
 133 0006 00BF     		.align	2
 134              	.L11:
 135 0008 825B0040 		.word	1073765250
 136              		.cfi_endproc
 137              	.LFE6:
 138              		.size	WaveDAC8_VDAC8_SetValue, .-WaveDAC8_VDAC8_SetValue
 139              		.section	.text.WaveDAC8_VDAC8_DacTrim,"ax",%progbits
ARM GAS  C:\Users\Ian\AppData\Local\Temp\cc0BAEth.s 			page 8


 140              		.align	2
 141              		.global	WaveDAC8_VDAC8_DacTrim
 142              		.thumb
 143              		.thumb_func
 144              		.type	WaveDAC8_VDAC8_DacTrim, %function
 145              	WaveDAC8_VDAC8_DacTrim:
 146              	.LFB7:
 261:.\Generated_Source\PSoC5/WaveDAC8_VDAC8.c **** 
 262:.\Generated_Source\PSoC5/WaveDAC8_VDAC8.c ****     /* PSOC5A requires a double write */
 263:.\Generated_Source\PSoC5/WaveDAC8_VDAC8.c ****     /* Exit Critical Section */
 264:.\Generated_Source\PSoC5/WaveDAC8_VDAC8.c ****     #if (CY_PSOC5A)
 265:.\Generated_Source\PSoC5/WaveDAC8_VDAC8.c ****         WaveDAC8_VDAC8_Data = value;
 266:.\Generated_Source\PSoC5/WaveDAC8_VDAC8.c ****         CyExitCriticalSection(WaveDAC8_VDAC8_intrStatus);
 267:.\Generated_Source\PSoC5/WaveDAC8_VDAC8.c ****     #endif /* CY_PSOC5A */
 268:.\Generated_Source\PSoC5/WaveDAC8_VDAC8.c **** }
 269:.\Generated_Source\PSoC5/WaveDAC8_VDAC8.c **** 
 270:.\Generated_Source\PSoC5/WaveDAC8_VDAC8.c **** 
 271:.\Generated_Source\PSoC5/WaveDAC8_VDAC8.c **** /*******************************************************************************
 272:.\Generated_Source\PSoC5/WaveDAC8_VDAC8.c **** * Function Name: WaveDAC8_VDAC8_DacTrim
 273:.\Generated_Source\PSoC5/WaveDAC8_VDAC8.c **** ********************************************************************************
 274:.\Generated_Source\PSoC5/WaveDAC8_VDAC8.c **** *
 275:.\Generated_Source\PSoC5/WaveDAC8_VDAC8.c **** * Summary:
 276:.\Generated_Source\PSoC5/WaveDAC8_VDAC8.c **** *  Set the trim value for the given range.
 277:.\Generated_Source\PSoC5/WaveDAC8_VDAC8.c **** *
 278:.\Generated_Source\PSoC5/WaveDAC8_VDAC8.c **** * Parameters:
 279:.\Generated_Source\PSoC5/WaveDAC8_VDAC8.c **** *  range:  1V or 4V range.  See constants.
 280:.\Generated_Source\PSoC5/WaveDAC8_VDAC8.c **** *
 281:.\Generated_Source\PSoC5/WaveDAC8_VDAC8.c **** * Return:
 282:.\Generated_Source\PSoC5/WaveDAC8_VDAC8.c **** *  void
 283:.\Generated_Source\PSoC5/WaveDAC8_VDAC8.c **** *
 284:.\Generated_Source\PSoC5/WaveDAC8_VDAC8.c **** * Theory: 
 285:.\Generated_Source\PSoC5/WaveDAC8_VDAC8.c **** *
 286:.\Generated_Source\PSoC5/WaveDAC8_VDAC8.c **** * Side Effects:
 287:.\Generated_Source\PSoC5/WaveDAC8_VDAC8.c **** *
 288:.\Generated_Source\PSoC5/WaveDAC8_VDAC8.c **** *******************************************************************************/
 289:.\Generated_Source\PSoC5/WaveDAC8_VDAC8.c **** void WaveDAC8_VDAC8_DacTrim(void) 
 290:.\Generated_Source\PSoC5/WaveDAC8_VDAC8.c **** {
 147              		.loc 1 290 0
 148              		.cfi_startproc
 149              		@ args = 0, pretend = 0, frame = 0
 150              		@ frame_needed = 0, uses_anonymous_args = 0
 151              		@ link register save eliminated.
 291:.\Generated_Source\PSoC5/WaveDAC8_VDAC8.c ****     uint8 mode;
 292:.\Generated_Source\PSoC5/WaveDAC8_VDAC8.c **** 
 293:.\Generated_Source\PSoC5/WaveDAC8_VDAC8.c ****     mode = (uint8)((WaveDAC8_VDAC8_CR0 & WaveDAC8_VDAC8_RANGE_MASK) >> 2) + WaveDAC8_VDAC8_TRIM_M7_
 152              		.loc 1 293 0
 153 0000 064B     		ldr	r3, .L14
 154 0002 1B78     		ldrb	r3, [r3]	@ zero_extendqisi2
 155 0004 C3F38103 		ubfx	r3, r3, #2, #2
 156              	.LVL3:
 294:.\Generated_Source\PSoC5/WaveDAC8_VDAC8.c ****     WaveDAC8_VDAC8_TR = CY_GET_XTND_REG8((uint8 *)(WaveDAC8_VDAC8_DAC_TRIM_BASE + mode));
 157              		.loc 1 294 0
 158 0008 03F19243 		add	r3, r3, #1224736768
 159              	.LVL4:
 160 000c 0633     		adds	r3, r3, #6
 161              	.LVL5:
 162 000e 93F82831 		ldrb	r3, [r3, #296]	@ zero_extendqisi2
ARM GAS  C:\Users\Ian\AppData\Local\Temp\cc0BAEth.s 			page 9


 163              	.LVL6:
 164 0012 DBB2     		uxtb	r3, r3
 165 0014 024A     		ldr	r2, .L14+4
 166 0016 1370     		strb	r3, [r2]
 167 0018 7047     		bx	lr
 168              	.L15:
 169 001a 00BF     		.align	2
 170              	.L14:
 171 001c 28580040 		.word	1073764392
 172 0020 0A460040 		.word	1073759754
 173              		.cfi_endproc
 174              	.LFE7:
 175              		.size	WaveDAC8_VDAC8_DacTrim, .-WaveDAC8_VDAC8_DacTrim
 176              		.section	.text.WaveDAC8_VDAC8_SetRange,"ax",%progbits
 177              		.align	2
 178              		.global	WaveDAC8_VDAC8_SetRange
 179              		.thumb
 180              		.thumb_func
 181              		.type	WaveDAC8_VDAC8_SetRange, %function
 182              	WaveDAC8_VDAC8_SetRange:
 183              	.LFB5:
 229:.\Generated_Source\PSoC5/WaveDAC8_VDAC8.c ****     WaveDAC8_VDAC8_CR0 &= (uint8)(~WaveDAC8_VDAC8_RANGE_MASK);      /* Clear existing mode */
 184              		.loc 1 229 0
 185              		.cfi_startproc
 186              		@ args = 0, pretend = 0, frame = 0
 187              		@ frame_needed = 0, uses_anonymous_args = 0
 188              	.LVL7:
 189 0000 08B5     		push	{r3, lr}
 190              		.cfi_def_cfa_offset 8
 191              		.cfi_offset 3, -8
 192              		.cfi_offset 14, -4
 230:.\Generated_Source\PSoC5/WaveDAC8_VDAC8.c ****     WaveDAC8_VDAC8_CR0 |= (range & WaveDAC8_VDAC8_RANGE_MASK);      /*  Set Range  */
 193              		.loc 1 230 0
 194 0002 064B     		ldr	r3, .L18
 195 0004 1A78     		ldrb	r2, [r3]	@ zero_extendqisi2
 196 0006 02F0F302 		and	r2, r2, #243
 197 000a 1A70     		strb	r2, [r3]
 231:.\Generated_Source\PSoC5/WaveDAC8_VDAC8.c ****     WaveDAC8_VDAC8_DacTrim();
 198              		.loc 1 231 0
 199 000c 1A78     		ldrb	r2, [r3]	@ zero_extendqisi2
 200 000e 00F00C00 		and	r0, r0, #12
 201              	.LVL8:
 202 0012 1043     		orrs	r0, r0, r2
 203 0014 1870     		strb	r0, [r3]
 232:.\Generated_Source\PSoC5/WaveDAC8_VDAC8.c **** }
 204              		.loc 1 232 0
 205 0016 FFF7FEFF 		bl	WaveDAC8_VDAC8_DacTrim
 206              	.LVL9:
 207 001a 08BD     		pop	{r3, pc}
 208              	.L19:
 209              		.align	2
 210              	.L18:
 211 001c 28580040 		.word	1073764392
 212              		.cfi_endproc
 213              	.LFE5:
 214              		.size	WaveDAC8_VDAC8_SetRange, .-WaveDAC8_VDAC8_SetRange
 215              		.section	.text.WaveDAC8_VDAC8_Init,"ax",%progbits
ARM GAS  C:\Users\Ian\AppData\Local\Temp\cc0BAEth.s 			page 10


 216              		.align	2
 217              		.global	WaveDAC8_VDAC8_Init
 218              		.thumb
 219              		.thumb_func
 220              		.type	WaveDAC8_VDAC8_Init, %function
 221              	WaveDAC8_VDAC8_Init:
 222              	.LFB0:
  56:.\Generated_Source\PSoC5/WaveDAC8_VDAC8.c ****     WaveDAC8_VDAC8_CR0 = (WaveDAC8_VDAC8_MODE_V );
 223              		.loc 1 56 0
 224              		.cfi_startproc
 225              		@ args = 0, pretend = 0, frame = 0
 226              		@ frame_needed = 0, uses_anonymous_args = 0
 227 0000 08B5     		push	{r3, lr}
 228              		.cfi_def_cfa_offset 8
 229              		.cfi_offset 3, -8
 230              		.cfi_offset 14, -4
  57:.\Generated_Source\PSoC5/WaveDAC8_VDAC8.c **** 
 231              		.loc 1 57 0
 232 0002 0020     		movs	r0, #0
 233 0004 074B     		ldr	r3, .L22
 234 0006 1870     		strb	r0, [r3]
  63:.\Generated_Source\PSoC5/WaveDAC8_VDAC8.c ****     #endif /* (WaveDAC8_VDAC8_DEFAULT_DATA_SRC != 0 ) */
 235              		.loc 1 63 0
 236 0008 0133     		adds	r3, r3, #1
 237 000a 1870     		strb	r0, [r3]
  68:.\Generated_Source\PSoC5/WaveDAC8_VDAC8.c ****     #endif/* (WaveDAC8_VDAC8_DEFAULT_STRB != 0) */
 238              		.loc 1 68 0
 239 000c 064A     		ldr	r2, .L22+4
 240 000e 1378     		ldrb	r3, [r2]	@ zero_extendqisi2
 241 0010 43F00803 		orr	r3, r3, #8
 242 0014 1370     		strb	r3, [r2]
  72:.\Generated_Source\PSoC5/WaveDAC8_VDAC8.c **** 
 243              		.loc 1 72 0
 244 0016 FFF7FEFF 		bl	WaveDAC8_VDAC8_SetRange
 245              	.LVL10:
  75:.\Generated_Source\PSoC5/WaveDAC8_VDAC8.c **** }
 246              		.loc 1 75 0
 247 001a 0220     		movs	r0, #2
 248 001c FFF7FEFF 		bl	WaveDAC8_VDAC8_SetSpeed
 249              	.LVL11:
 250 0020 08BD     		pop	{r3, pc}
 251              	.L23:
 252 0022 00BF     		.align	2
 253              	.L22:
 254 0024 28580040 		.word	1073764392
 255 0028 975A0040 		.word	1073765015
 256              		.cfi_endproc
 257              	.LFE0:
 258              		.size	WaveDAC8_VDAC8_Init, .-WaveDAC8_VDAC8_Init
 259              		.section	.text.WaveDAC8_VDAC8_Start,"ax",%progbits
 260              		.align	2
 261              		.global	WaveDAC8_VDAC8_Start
 262              		.thumb
 263              		.thumb_func
 264              		.type	WaveDAC8_VDAC8_Start, %function
 265              	WaveDAC8_VDAC8_Start:
 266              	.LFB2:
ARM GAS  C:\Users\Ian\AppData\Local\Temp\cc0BAEth.s 			page 11


 134:.\Generated_Source\PSoC5/WaveDAC8_VDAC8.c ****     /* Hardware initiazation only needs to occure the first time */
 267              		.loc 1 134 0
 268              		.cfi_startproc
 269              		@ args = 0, pretend = 0, frame = 0
 270              		@ frame_needed = 0, uses_anonymous_args = 0
 271 0000 08B5     		push	{r3, lr}
 272              		.cfi_def_cfa_offset 8
 273              		.cfi_offset 3, -8
 274              		.cfi_offset 14, -4
 136:.\Generated_Source\PSoC5/WaveDAC8_VDAC8.c ****     { 
 275              		.loc 1 136 0
 276 0002 074B     		ldr	r3, .L27
 277 0004 1B78     		ldrb	r3, [r3]	@ zero_extendqisi2
 278 0006 23B9     		cbnz	r3, .L25
 138:.\Generated_Source\PSoC5/WaveDAC8_VDAC8.c ****         WaveDAC8_VDAC8_initVar = 1u;
 279              		.loc 1 138 0
 280 0008 FFF7FEFF 		bl	WaveDAC8_VDAC8_Init
 281              	.LVL12:
 139:.\Generated_Source\PSoC5/WaveDAC8_VDAC8.c ****     }
 282              		.loc 1 139 0
 283 000c 0122     		movs	r2, #1
 284 000e 044B     		ldr	r3, .L27
 285 0010 1A70     		strb	r2, [r3]
 286              	.L25:
 143:.\Generated_Source\PSoC5/WaveDAC8_VDAC8.c **** 
 287              		.loc 1 143 0
 288 0012 FFF7FEFF 		bl	WaveDAC8_VDAC8_Enable
 289              	.LVL13:
 146:.\Generated_Source\PSoC5/WaveDAC8_VDAC8.c **** }
 290              		.loc 1 146 0
 291 0016 6420     		movs	r0, #100
 292 0018 FFF7FEFF 		bl	WaveDAC8_VDAC8_SetValue
 293              	.LVL14:
 294 001c 08BD     		pop	{r3, pc}
 295              	.L28:
 296 001e 00BF     		.align	2
 297              	.L27:
 298 0020 00000000 		.word	.LANCHOR0
 299              		.cfi_endproc
 300              	.LFE2:
 301              		.size	WaveDAC8_VDAC8_Start, .-WaveDAC8_VDAC8_Start
 302              		.global	WaveDAC8_VDAC8_initVar
 303              		.bss
 304              		.set	.LANCHOR0,. + 0
 305              		.type	WaveDAC8_VDAC8_initVar, %object
 306              		.size	WaveDAC8_VDAC8_initVar, 1
 307              	WaveDAC8_VDAC8_initVar:
 308 0000 00       		.space	1
 309              		.text
 310              	.Letext0:
 311              		.file 2 ".\\Generated_Source\\PSoC5\\cytypes.h"