ARM GAS  C:\Users\Zachary\AppData\Local\Temp\ccUa6L5y.s 			page 1


   1              		.syntax unified
   2              		.cpu cortex-m3
   3              		.fpu softvfp
   4              		.eabi_attribute 20, 1
   5              		.eabi_attribute 21, 1
   6              		.eabi_attribute 23, 3
   7              		.eabi_attribute 24, 1
   8              		.eabi_attribute 25, 1
   9              		.eabi_attribute 26, 1
  10              		.eabi_attribute 30, 1
  11              		.eabi_attribute 34, 1
  12              		.eabi_attribute 18, 4
  13              		.thumb
  14              		.file	"I2S_PM.c"
  15              		.text
  16              	.Ltext0:
  17              		.cfi_sections	.debug_frame
  18              		.section	.text.I2S_SaveConfig,"ax",%progbits
  19              		.align	2
  20              		.global	I2S_SaveConfig
  21              		.thumb
  22              		.thumb_func
  23              		.type	I2S_SaveConfig, %function
  24              	I2S_SaveConfig:
  25              	.LFB0:
  26              		.file 1 ".\\Generated_Source\\PSoC5\\I2S_PM.c"
   1:.\Generated_Source\PSoC5/I2S_PM.c **** /*******************************************************************************
   2:.\Generated_Source\PSoC5/I2S_PM.c **** * File Name: I2S_PM.c
   3:.\Generated_Source\PSoC5/I2S_PM.c **** * Version 2.60
   4:.\Generated_Source\PSoC5/I2S_PM.c **** *
   5:.\Generated_Source\PSoC5/I2S_PM.c **** * Description:
   6:.\Generated_Source\PSoC5/I2S_PM.c **** *  This file contains the setup, control and status commands to support
   7:.\Generated_Source\PSoC5/I2S_PM.c **** *  component operations in low power mode.
   8:.\Generated_Source\PSoC5/I2S_PM.c **** *
   9:.\Generated_Source\PSoC5/I2S_PM.c **** * Note:
  10:.\Generated_Source\PSoC5/I2S_PM.c **** *
  11:.\Generated_Source\PSoC5/I2S_PM.c **** ********************************************************************************
  12:.\Generated_Source\PSoC5/I2S_PM.c **** * Copyright 2008-2014, Cypress Semiconductor Corporation.  All rights reserved.
  13:.\Generated_Source\PSoC5/I2S_PM.c **** * You may use this file only in accordance with the license, terms, conditions,
  14:.\Generated_Source\PSoC5/I2S_PM.c **** * disclaimers, and limitations in the end user license agreement accompanying
  15:.\Generated_Source\PSoC5/I2S_PM.c **** * the software package with which this file was provided.
  16:.\Generated_Source\PSoC5/I2S_PM.c **** *******************************************************************************/
  17:.\Generated_Source\PSoC5/I2S_PM.c **** 
  18:.\Generated_Source\PSoC5/I2S_PM.c **** #include "I2S.h"
  19:.\Generated_Source\PSoC5/I2S_PM.c **** 
  20:.\Generated_Source\PSoC5/I2S_PM.c **** static I2S_BACKUP_STRUCT  I2S_backup = {0u};
  21:.\Generated_Source\PSoC5/I2S_PM.c **** 
  22:.\Generated_Source\PSoC5/I2S_PM.c **** 
  23:.\Generated_Source\PSoC5/I2S_PM.c **** /*******************************************************************************
  24:.\Generated_Source\PSoC5/I2S_PM.c **** * Function Name: I2S_SaveConfig
  25:.\Generated_Source\PSoC5/I2S_PM.c **** ********************************************************************************
  26:.\Generated_Source\PSoC5/I2S_PM.c **** *
  27:.\Generated_Source\PSoC5/I2S_PM.c **** * Summary:
  28:.\Generated_Source\PSoC5/I2S_PM.c **** *  Empty function. Left to preserve backward compatibility.
  29:.\Generated_Source\PSoC5/I2S_PM.c **** *
  30:.\Generated_Source\PSoC5/I2S_PM.c **** * Parameters:
  31:.\Generated_Source\PSoC5/I2S_PM.c **** *  None.
ARM GAS  C:\Users\Zachary\AppData\Local\Temp\ccUa6L5y.s 			page 2


  32:.\Generated_Source\PSoC5/I2S_PM.c **** *
  33:.\Generated_Source\PSoC5/I2S_PM.c **** * Return:
  34:.\Generated_Source\PSoC5/I2S_PM.c **** *  None.
  35:.\Generated_Source\PSoC5/I2S_PM.c **** *
  36:.\Generated_Source\PSoC5/I2S_PM.c **** *******************************************************************************/
  37:.\Generated_Source\PSoC5/I2S_PM.c **** void I2S_SaveConfig(void) 
  38:.\Generated_Source\PSoC5/I2S_PM.c **** {
  27              		.loc 1 38 0
  28              		.cfi_startproc
  29              		@ args = 0, pretend = 0, frame = 0
  30              		@ frame_needed = 0, uses_anonymous_args = 0
  31              		@ link register save eliminated.
  32 0000 7047     		bx	lr
  33              		.cfi_endproc
  34              	.LFE0:
  35              		.size	I2S_SaveConfig, .-I2S_SaveConfig
  36 0002 00BF     		.section	.text.I2S_RestoreConfig,"ax",%progbits
  37              		.align	2
  38              		.global	I2S_RestoreConfig
  39              		.thumb
  40              		.thumb_func
  41              		.type	I2S_RestoreConfig, %function
  42              	I2S_RestoreConfig:
  43              	.LFB1:
  39:.\Generated_Source\PSoC5/I2S_PM.c ****     /* Nothing to save. All registers are retention. */
  40:.\Generated_Source\PSoC5/I2S_PM.c **** }
  41:.\Generated_Source\PSoC5/I2S_PM.c **** 
  42:.\Generated_Source\PSoC5/I2S_PM.c **** 
  43:.\Generated_Source\PSoC5/I2S_PM.c **** /*******************************************************************************
  44:.\Generated_Source\PSoC5/I2S_PM.c **** * Function Name: I2S_RestoreConfig
  45:.\Generated_Source\PSoC5/I2S_PM.c **** ********************************************************************************
  46:.\Generated_Source\PSoC5/I2S_PM.c **** *
  47:.\Generated_Source\PSoC5/I2S_PM.c **** * Summary:
  48:.\Generated_Source\PSoC5/I2S_PM.c **** *  Empty function. Left to preserve backward compatibility.
  49:.\Generated_Source\PSoC5/I2S_PM.c **** *
  50:.\Generated_Source\PSoC5/I2S_PM.c **** * Parameters:
  51:.\Generated_Source\PSoC5/I2S_PM.c **** *  None.
  52:.\Generated_Source\PSoC5/I2S_PM.c **** *
  53:.\Generated_Source\PSoC5/I2S_PM.c **** * Return:
  54:.\Generated_Source\PSoC5/I2S_PM.c **** *  None.
  55:.\Generated_Source\PSoC5/I2S_PM.c **** *
  56:.\Generated_Source\PSoC5/I2S_PM.c **** *******************************************************************************/
  57:.\Generated_Source\PSoC5/I2S_PM.c **** void I2S_RestoreConfig(void) 
  58:.\Generated_Source\PSoC5/I2S_PM.c **** {
  44              		.loc 1 58 0
  45              		.cfi_startproc
  46              		@ args = 0, pretend = 0, frame = 0
  47              		@ frame_needed = 0, uses_anonymous_args = 0
  48              		@ link register save eliminated.
  49 0000 7047     		bx	lr
  50              		.cfi_endproc
  51              	.LFE1:
  52              		.size	I2S_RestoreConfig, .-I2S_RestoreConfig
  53 0002 00BF     		.section	.text.I2S_Sleep,"ax",%progbits
  54              		.align	2
  55              		.global	I2S_Sleep
  56              		.thumb
ARM GAS  C:\Users\Zachary\AppData\Local\Temp\ccUa6L5y.s 			page 3


  57              		.thumb_func
  58              		.type	I2S_Sleep, %function
  59              	I2S_Sleep:
  60              	.LFB2:
  59:.\Generated_Source\PSoC5/I2S_PM.c ****     /* Nothing to restore. All registers are retention. */
  60:.\Generated_Source\PSoC5/I2S_PM.c **** }
  61:.\Generated_Source\PSoC5/I2S_PM.c **** 
  62:.\Generated_Source\PSoC5/I2S_PM.c **** 
  63:.\Generated_Source\PSoC5/I2S_PM.c **** /*******************************************************************************
  64:.\Generated_Source\PSoC5/I2S_PM.c **** * Function Name: I2S_Sleep
  65:.\Generated_Source\PSoC5/I2S_PM.c **** ********************************************************************************
  66:.\Generated_Source\PSoC5/I2S_PM.c **** *
  67:.\Generated_Source\PSoC5/I2S_PM.c **** * Summary:
  68:.\Generated_Source\PSoC5/I2S_PM.c **** *  Prepares I2S for entering sleep mode.
  69:.\Generated_Source\PSoC5/I2S_PM.c **** *
  70:.\Generated_Source\PSoC5/I2S_PM.c **** * Parameters:
  71:.\Generated_Source\PSoC5/I2S_PM.c **** *  None.
  72:.\Generated_Source\PSoC5/I2S_PM.c **** *
  73:.\Generated_Source\PSoC5/I2S_PM.c **** * Return:
  74:.\Generated_Source\PSoC5/I2S_PM.c **** *  None.
  75:.\Generated_Source\PSoC5/I2S_PM.c **** *
  76:.\Generated_Source\PSoC5/I2S_PM.c **** * Global Variables:
  77:.\Generated_Source\PSoC5/I2S_PM.c **** *  I2S_backup - used to store component state prior entering 
  78:.\Generated_Source\PSoC5/I2S_PM.c **** *    sleep mode.
  79:.\Generated_Source\PSoC5/I2S_PM.c **** *
  80:.\Generated_Source\PSoC5/I2S_PM.c **** * Reentrant:
  81:.\Generated_Source\PSoC5/I2S_PM.c **** *  No.
  82:.\Generated_Source\PSoC5/I2S_PM.c **** *
  83:.\Generated_Source\PSoC5/I2S_PM.c **** *******************************************************************************/
  84:.\Generated_Source\PSoC5/I2S_PM.c **** void I2S_Sleep(void) 
  85:.\Generated_Source\PSoC5/I2S_PM.c **** {
  61              		.loc 1 85 0
  62              		.cfi_startproc
  63              		@ args = 0, pretend = 0, frame = 0
  64              		@ frame_needed = 0, uses_anonymous_args = 0
  65              		.loc 1 85 0
  66 0000 08B5     		push	{r3, lr}
  67              		.cfi_def_cfa_offset 8
  68              		.cfi_offset 3, -8
  69              		.cfi_offset 14, -4
  86:.\Generated_Source\PSoC5/I2S_PM.c ****     /* Get component state */
  87:.\Generated_Source\PSoC5/I2S_PM.c ****     I2S_backup.enableState = I2S_CONTROL_REG;
  70              		.loc 1 87 0
  71 0002 034B     		ldr	r3, .L5
  72 0004 1A78     		ldrb	r2, [r3]	@ zero_extendqisi2
  73 0006 034B     		ldr	r3, .L5+4
  74 0008 1A70     		strb	r2, [r3]
  88:.\Generated_Source\PSoC5/I2S_PM.c **** 
  89:.\Generated_Source\PSoC5/I2S_PM.c ****     /* Stop component */
  90:.\Generated_Source\PSoC5/I2S_PM.c ****     I2S_Stop();
  75              		.loc 1 90 0
  76 000a FFF7FEFF 		bl	I2S_Stop
  77              	.LVL0:
  78 000e 08BD     		pop	{r3, pc}
  79              	.L6:
  80              		.align	2
  81              	.L5:
ARM GAS  C:\Users\Zachary\AppData\Local\Temp\ccUa6L5y.s 			page 4


  82 0010 71640040 		.word	1073767537
  83 0014 00000000 		.word	.LANCHOR0
  84              		.cfi_endproc
  85              	.LFE2:
  86              		.size	I2S_Sleep, .-I2S_Sleep
  87              		.section	.text.I2S_Wakeup,"ax",%progbits
  88              		.align	2
  89              		.global	I2S_Wakeup
  90              		.thumb
  91              		.thumb_func
  92              		.type	I2S_Wakeup, %function
  93              	I2S_Wakeup:
  94              	.LFB3:
  91:.\Generated_Source\PSoC5/I2S_PM.c **** }
  92:.\Generated_Source\PSoC5/I2S_PM.c **** 
  93:.\Generated_Source\PSoC5/I2S_PM.c **** 
  94:.\Generated_Source\PSoC5/I2S_PM.c **** /*******************************************************************************
  95:.\Generated_Source\PSoC5/I2S_PM.c **** * Function Name: I2S_Wakeup
  96:.\Generated_Source\PSoC5/I2S_PM.c **** ********************************************************************************
  97:.\Generated_Source\PSoC5/I2S_PM.c **** *
  98:.\Generated_Source\PSoC5/I2S_PM.c **** * Summary:
  99:.\Generated_Source\PSoC5/I2S_PM.c **** *  Prepares I2S for exit from sleep mode.
 100:.\Generated_Source\PSoC5/I2S_PM.c **** *
 101:.\Generated_Source\PSoC5/I2S_PM.c **** * Parameters:
 102:.\Generated_Source\PSoC5/I2S_PM.c **** *  None.
 103:.\Generated_Source\PSoC5/I2S_PM.c **** *
 104:.\Generated_Source\PSoC5/I2S_PM.c **** * Return:
 105:.\Generated_Source\PSoC5/I2S_PM.c **** *  None.
 106:.\Generated_Source\PSoC5/I2S_PM.c **** *
 107:.\Generated_Source\PSoC5/I2S_PM.c **** * Global Variables:
 108:.\Generated_Source\PSoC5/I2S_PM.c **** *  I2S_backup - used to restore component state after exit from
 109:.\Generated_Source\PSoC5/I2S_PM.c **** *    sleep mode.
 110:.\Generated_Source\PSoC5/I2S_PM.c **** *
 111:.\Generated_Source\PSoC5/I2S_PM.c **** *******************************************************************************/
 112:.\Generated_Source\PSoC5/I2S_PM.c **** void I2S_Wakeup(void) 
 113:.\Generated_Source\PSoC5/I2S_PM.c **** {
  95              		.loc 1 113 0
  96              		.cfi_startproc
  97              		@ args = 0, pretend = 0, frame = 0
  98              		@ frame_needed = 0, uses_anonymous_args = 0
  99 0000 08B5     		push	{r3, lr}
 100              		.cfi_def_cfa_offset 8
 101              		.cfi_offset 3, -8
 102              		.cfi_offset 14, -4
 114:.\Generated_Source\PSoC5/I2S_PM.c ****     #if (I2S_DYNAMIC_BIT_RESOLUTION)
 115:.\Generated_Source\PSoC5/I2S_PM.c ****         I2S_CONTROL_REG = I2S_backup.enableState & I2S_BIT_RESOLUTION_MODE_MASK;
 116:.\Generated_Source\PSoC5/I2S_PM.c ****     #endif /* I2S_DYNAMIC_BIT_RESOLUTION */
 117:.\Generated_Source\PSoC5/I2S_PM.c **** 
 118:.\Generated_Source\PSoC5/I2S_PM.c ****     if(0u != (I2S_backup.enableState & I2S_EN))
 103              		.loc 1 118 0
 104 0002 074B     		ldr	r3, .L10
 105 0004 1B78     		ldrb	r3, [r3]	@ zero_extendqisi2
 106 0006 13F0040F 		tst	r3, #4
 107 000a 08D0     		beq	.L7
 119:.\Generated_Source\PSoC5/I2S_PM.c ****     {
 120:.\Generated_Source\PSoC5/I2S_PM.c ****         /* Enable component's operation */
 121:.\Generated_Source\PSoC5/I2S_PM.c ****         I2S_Enable();
ARM GAS  C:\Users\Zachary\AppData\Local\Temp\ccUa6L5y.s 			page 5


 108              		.loc 1 121 0
 109 000c FFF7FEFF 		bl	I2S_Enable
 110              	.LVL1:
 122:.\Generated_Source\PSoC5/I2S_PM.c **** 
 123:.\Generated_Source\PSoC5/I2S_PM.c ****         /* Enable Tx/Rx direction if they were enabled before sleep */
 124:.\Generated_Source\PSoC5/I2S_PM.c ****         #if(I2S_TX_DIRECTION_ENABLE)
 125:.\Generated_Source\PSoC5/I2S_PM.c ****             if(0u != (I2S_backup.enableState & I2S_TX_EN))
 111              		.loc 1 125 0
 112 0010 034B     		ldr	r3, .L10
 113 0012 1B78     		ldrb	r3, [r3]	@ zero_extendqisi2
 114 0014 13F0010F 		tst	r3, #1
 115 0018 01D0     		beq	.L7
 126:.\Generated_Source\PSoC5/I2S_PM.c ****             {
 127:.\Generated_Source\PSoC5/I2S_PM.c ****                 I2S_EnableTx();
 116              		.loc 1 127 0
 117 001a FFF7FEFF 		bl	I2S_EnableTx
 118              	.LVL2:
 119              	.L7:
 120 001e 08BD     		pop	{r3, pc}
 121              	.L11:
 122              		.align	2
 123              	.L10:
 124 0020 00000000 		.word	.LANCHOR0
 125              		.cfi_endproc
 126              	.LFE3:
 127              		.size	I2S_Wakeup, .-I2S_Wakeup
 128              		.bss
 129              		.align	2
 130              		.set	.LANCHOR0,. + 0
 131              		.type	I2S_backup, %object
 132              		.size	I2S_backup, 1
 133              	I2S_backup:
 134 0000 00       		.space	1
 135 0001 000000   		.text
 136              	.Letext0:
 137              		.file 2 ".\\Generated_Source\\PSoC5\\cytypes.h"
 138              		.file 3 ".\\Generated_Source\\PSoC5\\I2S.h"