ARM GAS  C:\Users\Zachary\AppData\Local\Temp\cc5yUBjI.s 			page 1


   1              		.syntax unified
   2              		.cpu cortex-m3
   3              		.fpu softvfp
   4              		.eabi_attribute 20, 1
   5              		.eabi_attribute 21, 1
   6              		.eabi_attribute 23, 3
   7              		.eabi_attribute 24, 1
   8              		.eabi_attribute 25, 1
   9              		.eabi_attribute 26, 1
  10              		.eabi_attribute 30, 1
  11              		.eabi_attribute 34, 1
  12              		.eabi_attribute 18, 4
  13              		.thumb
  14              		.file	"isr_1.c"
  15              		.text
  16              	.Ltext0:
  17              		.cfi_sections	.debug_frame
  18              		.section	.text.isr_1_Interrupt,"ax",%progbits
  19              		.align	2
  20              		.global	isr_1_Interrupt
  21              		.thumb
  22              		.thumb_func
  23              		.type	isr_1_Interrupt, %function
  24              	isr_1_Interrupt:
  25              	.LFB3:
  26              		.file 1 ".\\Generated_Source\\PSoC5\\isr_1.c"
   1:.\Generated_Source\PSoC5/isr_1.c **** /*******************************************************************************
   2:.\Generated_Source\PSoC5/isr_1.c **** * File Name: isr_1.c  
   3:.\Generated_Source\PSoC5/isr_1.c **** * Version 1.70
   4:.\Generated_Source\PSoC5/isr_1.c **** *
   5:.\Generated_Source\PSoC5/isr_1.c **** *  Description:
   6:.\Generated_Source\PSoC5/isr_1.c **** *   API for controlling the state of an interrupt.
   7:.\Generated_Source\PSoC5/isr_1.c **** *
   8:.\Generated_Source\PSoC5/isr_1.c **** *
   9:.\Generated_Source\PSoC5/isr_1.c **** *  Note:
  10:.\Generated_Source\PSoC5/isr_1.c **** *
  11:.\Generated_Source\PSoC5/isr_1.c **** ********************************************************************************
  12:.\Generated_Source\PSoC5/isr_1.c **** * Copyright 2008-2015, Cypress Semiconductor Corporation.  All rights reserved.
  13:.\Generated_Source\PSoC5/isr_1.c **** * You may use this file only in accordance with the license, terms, conditions, 
  14:.\Generated_Source\PSoC5/isr_1.c **** * disclaimers, and limitations in the end user license agreement accompanying 
  15:.\Generated_Source\PSoC5/isr_1.c **** * the software package with which this file was provided.
  16:.\Generated_Source\PSoC5/isr_1.c **** *******************************************************************************/
  17:.\Generated_Source\PSoC5/isr_1.c **** 
  18:.\Generated_Source\PSoC5/isr_1.c **** 
  19:.\Generated_Source\PSoC5/isr_1.c **** #include <cydevice_trm.h>
  20:.\Generated_Source\PSoC5/isr_1.c **** #include <CyLib.h>
  21:.\Generated_Source\PSoC5/isr_1.c **** #include <isr_1.h>
  22:.\Generated_Source\PSoC5/isr_1.c **** 
  23:.\Generated_Source\PSoC5/isr_1.c **** 
  24:.\Generated_Source\PSoC5/isr_1.c **** #if !defined(isr_1__REMOVED) /* Check for removal by optimization */
  25:.\Generated_Source\PSoC5/isr_1.c **** 
  26:.\Generated_Source\PSoC5/isr_1.c **** /*******************************************************************************
  27:.\Generated_Source\PSoC5/isr_1.c **** *  Place your includes, defines and code here 
  28:.\Generated_Source\PSoC5/isr_1.c **** ********************************************************************************/
  29:.\Generated_Source\PSoC5/isr_1.c **** /* `#START isr_1_intc` */
  30:.\Generated_Source\PSoC5/isr_1.c ****     #include <I2S_1.h>
  31:.\Generated_Source\PSoC5/isr_1.c **** //    #include <main.c>
ARM GAS  C:\Users\Zachary\AppData\Local\Temp\cc5yUBjI.s 			page 2


  32:.\Generated_Source\PSoC5/isr_1.c ****     uint16_t ReceivedData[1024];
  33:.\Generated_Source\PSoC5/isr_1.c ****     int counter = 0;
  34:.\Generated_Source\PSoC5/isr_1.c **** /* `#END` */
  35:.\Generated_Source\PSoC5/isr_1.c **** 
  36:.\Generated_Source\PSoC5/isr_1.c **** #ifndef CYINT_IRQ_BASE
  37:.\Generated_Source\PSoC5/isr_1.c **** #define CYINT_IRQ_BASE      16
  38:.\Generated_Source\PSoC5/isr_1.c **** #endif /* CYINT_IRQ_BASE */
  39:.\Generated_Source\PSoC5/isr_1.c **** #ifndef CYINT_VECT_TABLE
  40:.\Generated_Source\PSoC5/isr_1.c **** #define CYINT_VECT_TABLE    ((cyisraddress **) CYREG_NVIC_VECT_OFFSET)
  41:.\Generated_Source\PSoC5/isr_1.c **** #endif /* CYINT_VECT_TABLE */
  42:.\Generated_Source\PSoC5/isr_1.c **** 
  43:.\Generated_Source\PSoC5/isr_1.c **** /* Declared in startup, used to set unused interrupts to. */
  44:.\Generated_Source\PSoC5/isr_1.c **** CY_ISR_PROTO(IntDefaultHandler);
  45:.\Generated_Source\PSoC5/isr_1.c **** 
  46:.\Generated_Source\PSoC5/isr_1.c **** 
  47:.\Generated_Source\PSoC5/isr_1.c **** /*******************************************************************************
  48:.\Generated_Source\PSoC5/isr_1.c **** * Function Name: isr_1_Start
  49:.\Generated_Source\PSoC5/isr_1.c **** ********************************************************************************
  50:.\Generated_Source\PSoC5/isr_1.c **** *
  51:.\Generated_Source\PSoC5/isr_1.c **** * Summary:
  52:.\Generated_Source\PSoC5/isr_1.c **** *  Set up the interrupt and enable it. This function disables the interrupt, 
  53:.\Generated_Source\PSoC5/isr_1.c **** *  sets the default interrupt vector, sets the priority from the value in the
  54:.\Generated_Source\PSoC5/isr_1.c **** *  Design Wide Resources Interrupt Editor, then enables the interrupt to the 
  55:.\Generated_Source\PSoC5/isr_1.c **** *  interrupt controller.
  56:.\Generated_Source\PSoC5/isr_1.c **** *
  57:.\Generated_Source\PSoC5/isr_1.c **** * Parameters:  
  58:.\Generated_Source\PSoC5/isr_1.c **** *   None
  59:.\Generated_Source\PSoC5/isr_1.c **** *
  60:.\Generated_Source\PSoC5/isr_1.c **** * Return:
  61:.\Generated_Source\PSoC5/isr_1.c **** *   None
  62:.\Generated_Source\PSoC5/isr_1.c **** *
  63:.\Generated_Source\PSoC5/isr_1.c **** *******************************************************************************/
  64:.\Generated_Source\PSoC5/isr_1.c **** void isr_1_Start(void)
  65:.\Generated_Source\PSoC5/isr_1.c **** {
  66:.\Generated_Source\PSoC5/isr_1.c ****     /* For all we know the interrupt is active. */
  67:.\Generated_Source\PSoC5/isr_1.c ****     isr_1_Disable();
  68:.\Generated_Source\PSoC5/isr_1.c **** 
  69:.\Generated_Source\PSoC5/isr_1.c ****     /* Set the ISR to point to the isr_1 Interrupt. */
  70:.\Generated_Source\PSoC5/isr_1.c ****     isr_1_SetVector(&isr_1_Interrupt);
  71:.\Generated_Source\PSoC5/isr_1.c **** 
  72:.\Generated_Source\PSoC5/isr_1.c ****     /* Set the priority. */
  73:.\Generated_Source\PSoC5/isr_1.c ****     isr_1_SetPriority((uint8)isr_1_INTC_PRIOR_NUMBER);
  74:.\Generated_Source\PSoC5/isr_1.c **** 
  75:.\Generated_Source\PSoC5/isr_1.c ****     /* Enable it. */
  76:.\Generated_Source\PSoC5/isr_1.c ****     isr_1_Enable();
  77:.\Generated_Source\PSoC5/isr_1.c **** }
  78:.\Generated_Source\PSoC5/isr_1.c **** 
  79:.\Generated_Source\PSoC5/isr_1.c **** 
  80:.\Generated_Source\PSoC5/isr_1.c **** /*******************************************************************************
  81:.\Generated_Source\PSoC5/isr_1.c **** * Function Name: isr_1_StartEx
  82:.\Generated_Source\PSoC5/isr_1.c **** ********************************************************************************
  83:.\Generated_Source\PSoC5/isr_1.c **** *
  84:.\Generated_Source\PSoC5/isr_1.c **** * Summary:
  85:.\Generated_Source\PSoC5/isr_1.c **** *  Sets up the interrupt and enables it. This function disables the interrupt,
  86:.\Generated_Source\PSoC5/isr_1.c **** *  sets the interrupt vector based on the address passed in, sets the priority 
  87:.\Generated_Source\PSoC5/isr_1.c **** *  from the value in the Design Wide Resources Interrupt Editor, then enables 
  88:.\Generated_Source\PSoC5/isr_1.c **** *  the interrupt to the interrupt controller.
ARM GAS  C:\Users\Zachary\AppData\Local\Temp\cc5yUBjI.s 			page 3


  89:.\Generated_Source\PSoC5/isr_1.c **** *  
  90:.\Generated_Source\PSoC5/isr_1.c **** *  When defining ISR functions, the CY_ISR and CY_ISR_PROTO macros should be 
  91:.\Generated_Source\PSoC5/isr_1.c **** *  used to provide consistent definition across compilers:
  92:.\Generated_Source\PSoC5/isr_1.c **** *  
  93:.\Generated_Source\PSoC5/isr_1.c **** *  Function definition example:
  94:.\Generated_Source\PSoC5/isr_1.c **** *   CY_ISR(MyISR)
  95:.\Generated_Source\PSoC5/isr_1.c **** *   {
  96:.\Generated_Source\PSoC5/isr_1.c **** *   }
  97:.\Generated_Source\PSoC5/isr_1.c **** *   Function prototype example:
  98:.\Generated_Source\PSoC5/isr_1.c **** *   CY_ISR_PROTO(MyISR);
  99:.\Generated_Source\PSoC5/isr_1.c **** *
 100:.\Generated_Source\PSoC5/isr_1.c **** * Parameters:  
 101:.\Generated_Source\PSoC5/isr_1.c **** *   address: Address of the ISR to set in the interrupt vector table.
 102:.\Generated_Source\PSoC5/isr_1.c **** *
 103:.\Generated_Source\PSoC5/isr_1.c **** * Return:
 104:.\Generated_Source\PSoC5/isr_1.c **** *   None
 105:.\Generated_Source\PSoC5/isr_1.c **** *
 106:.\Generated_Source\PSoC5/isr_1.c **** *******************************************************************************/
 107:.\Generated_Source\PSoC5/isr_1.c **** void isr_1_StartEx(cyisraddress address)
 108:.\Generated_Source\PSoC5/isr_1.c **** {
 109:.\Generated_Source\PSoC5/isr_1.c ****     /* For all we know the interrupt is active. */
 110:.\Generated_Source\PSoC5/isr_1.c ****     isr_1_Disable();
 111:.\Generated_Source\PSoC5/isr_1.c **** 
 112:.\Generated_Source\PSoC5/isr_1.c ****     /* Set the ISR to point to the isr_1 Interrupt. */
 113:.\Generated_Source\PSoC5/isr_1.c ****     isr_1_SetVector(address);
 114:.\Generated_Source\PSoC5/isr_1.c **** 
 115:.\Generated_Source\PSoC5/isr_1.c ****     /* Set the priority. */
 116:.\Generated_Source\PSoC5/isr_1.c ****     isr_1_SetPriority((uint8)isr_1_INTC_PRIOR_NUMBER);
 117:.\Generated_Source\PSoC5/isr_1.c **** 
 118:.\Generated_Source\PSoC5/isr_1.c ****     /* Enable it. */
 119:.\Generated_Source\PSoC5/isr_1.c ****     isr_1_Enable();
 120:.\Generated_Source\PSoC5/isr_1.c **** }
 121:.\Generated_Source\PSoC5/isr_1.c **** 
 122:.\Generated_Source\PSoC5/isr_1.c **** 
 123:.\Generated_Source\PSoC5/isr_1.c **** /*******************************************************************************
 124:.\Generated_Source\PSoC5/isr_1.c **** * Function Name: isr_1_Stop
 125:.\Generated_Source\PSoC5/isr_1.c **** ********************************************************************************
 126:.\Generated_Source\PSoC5/isr_1.c **** *
 127:.\Generated_Source\PSoC5/isr_1.c **** * Summary:
 128:.\Generated_Source\PSoC5/isr_1.c **** *   Disables and removes the interrupt.
 129:.\Generated_Source\PSoC5/isr_1.c **** *
 130:.\Generated_Source\PSoC5/isr_1.c **** * Parameters:  
 131:.\Generated_Source\PSoC5/isr_1.c **** *   None
 132:.\Generated_Source\PSoC5/isr_1.c **** *
 133:.\Generated_Source\PSoC5/isr_1.c **** * Return:
 134:.\Generated_Source\PSoC5/isr_1.c **** *   None
 135:.\Generated_Source\PSoC5/isr_1.c **** *
 136:.\Generated_Source\PSoC5/isr_1.c **** *******************************************************************************/
 137:.\Generated_Source\PSoC5/isr_1.c **** void isr_1_Stop(void)
 138:.\Generated_Source\PSoC5/isr_1.c **** {
 139:.\Generated_Source\PSoC5/isr_1.c ****     /* Disable this interrupt. */
 140:.\Generated_Source\PSoC5/isr_1.c ****     isr_1_Disable();
 141:.\Generated_Source\PSoC5/isr_1.c **** 
 142:.\Generated_Source\PSoC5/isr_1.c ****     /* Set the ISR to point to the passive one. */
 143:.\Generated_Source\PSoC5/isr_1.c ****     isr_1_SetVector(&IntDefaultHandler);
 144:.\Generated_Source\PSoC5/isr_1.c **** }
 145:.\Generated_Source\PSoC5/isr_1.c **** 
ARM GAS  C:\Users\Zachary\AppData\Local\Temp\cc5yUBjI.s 			page 4


 146:.\Generated_Source\PSoC5/isr_1.c **** 
 147:.\Generated_Source\PSoC5/isr_1.c **** /*******************************************************************************
 148:.\Generated_Source\PSoC5/isr_1.c **** * Function Name: isr_1_Interrupt
 149:.\Generated_Source\PSoC5/isr_1.c **** ********************************************************************************
 150:.\Generated_Source\PSoC5/isr_1.c **** *
 151:.\Generated_Source\PSoC5/isr_1.c **** * Summary:
 152:.\Generated_Source\PSoC5/isr_1.c **** *   The default Interrupt Service Routine for isr_1.
 153:.\Generated_Source\PSoC5/isr_1.c **** *
 154:.\Generated_Source\PSoC5/isr_1.c **** *   Add custom code between the coments to keep the next version of this file
 155:.\Generated_Source\PSoC5/isr_1.c **** *   from over writting your code.
 156:.\Generated_Source\PSoC5/isr_1.c **** *
 157:.\Generated_Source\PSoC5/isr_1.c **** * Parameters:  
 158:.\Generated_Source\PSoC5/isr_1.c **** *
 159:.\Generated_Source\PSoC5/isr_1.c **** * Return:
 160:.\Generated_Source\PSoC5/isr_1.c **** *   None
 161:.\Generated_Source\PSoC5/isr_1.c **** *
 162:.\Generated_Source\PSoC5/isr_1.c **** *******************************************************************************/
 163:.\Generated_Source\PSoC5/isr_1.c **** CY_ISR(isr_1_Interrupt)
 164:.\Generated_Source\PSoC5/isr_1.c **** {
  27              		.loc 1 164 0
  28              		.cfi_startproc
  29              		@ args = 0, pretend = 0, frame = 0
  30              		@ frame_needed = 0, uses_anonymous_args = 0
  31              		@ link register save eliminated.
 165:.\Generated_Source\PSoC5/isr_1.c ****     #ifdef isr_1_INTERRUPT_INTERRUPT_CALLBACK
 166:.\Generated_Source\PSoC5/isr_1.c ****         isr_1_Interrupt_InterruptCallback();
 167:.\Generated_Source\PSoC5/isr_1.c ****     #endif /* isr_1_INTERRUPT_INTERRUPT_CALLBACK */ 
 168:.\Generated_Source\PSoC5/isr_1.c **** 
 169:.\Generated_Source\PSoC5/isr_1.c ****     /*  Place your Interrupt code here. */
 170:.\Generated_Source\PSoC5/isr_1.c ****     /* `#START isr_1_Interrupt` */
 171:.\Generated_Source\PSoC5/isr_1.c ****     ReceivedData[counter] = counter;//*I2S_1_RX_CH0_F0_PTR;
  32              		.loc 1 171 0
  33 0000 034A     		ldr	r2, .L2
  34 0002 1368     		ldr	r3, [r2]
  35 0004 0349     		ldr	r1, .L2+4
  36 0006 21F81330 		strh	r3, [r1, r3, lsl #1]	@ movhi
 172:.\Generated_Source\PSoC5/isr_1.c ****     counter++;
  37              		.loc 1 172 0
  38 000a 0133     		adds	r3, r3, #1
  39 000c 1360     		str	r3, [r2]
  40 000e 7047     		bx	lr
  41              	.L3:
  42              		.align	2
  43              	.L2:
  44 0010 00000000 		.word	.LANCHOR0
  45 0014 00000000 		.word	ReceivedData
  46              		.cfi_endproc
  47              	.LFE3:
  48              		.size	isr_1_Interrupt, .-isr_1_Interrupt
  49              		.section	.text.isr_1_SetVector,"ax",%progbits
  50              		.align	2
  51              		.global	isr_1_SetVector
  52              		.thumb
  53              		.thumb_func
  54              		.type	isr_1_SetVector, %function
  55              	isr_1_SetVector:
  56              	.LFB4:
ARM GAS  C:\Users\Zachary\AppData\Local\Temp\cc5yUBjI.s 			page 5


 173:.\Generated_Source\PSoC5/isr_1.c ****     
 174:.\Generated_Source\PSoC5/isr_1.c ****     
 175:.\Generated_Source\PSoC5/isr_1.c ****     /* `#END` */
 176:.\Generated_Source\PSoC5/isr_1.c **** }
 177:.\Generated_Source\PSoC5/isr_1.c **** 
 178:.\Generated_Source\PSoC5/isr_1.c **** 
 179:.\Generated_Source\PSoC5/isr_1.c **** /*******************************************************************************
 180:.\Generated_Source\PSoC5/isr_1.c **** * Function Name: isr_1_SetVector
 181:.\Generated_Source\PSoC5/isr_1.c **** ********************************************************************************
 182:.\Generated_Source\PSoC5/isr_1.c **** *
 183:.\Generated_Source\PSoC5/isr_1.c **** * Summary:
 184:.\Generated_Source\PSoC5/isr_1.c **** *   Change the ISR vector for the Interrupt. Note calling isr_1_Start
 185:.\Generated_Source\PSoC5/isr_1.c **** *   will override any effect this method would have had. To set the vector 
 186:.\Generated_Source\PSoC5/isr_1.c **** *   before the component has been started use isr_1_StartEx instead.
 187:.\Generated_Source\PSoC5/isr_1.c **** * 
 188:.\Generated_Source\PSoC5/isr_1.c **** *   When defining ISR functions, the CY_ISR and CY_ISR_PROTO macros should be 
 189:.\Generated_Source\PSoC5/isr_1.c **** *   used to provide consistent definition across compilers:
 190:.\Generated_Source\PSoC5/isr_1.c **** *
 191:.\Generated_Source\PSoC5/isr_1.c **** *   Function definition example:
 192:.\Generated_Source\PSoC5/isr_1.c **** *   CY_ISR(MyISR)
 193:.\Generated_Source\PSoC5/isr_1.c **** *   {
 194:.\Generated_Source\PSoC5/isr_1.c **** *   }
 195:.\Generated_Source\PSoC5/isr_1.c **** *
 196:.\Generated_Source\PSoC5/isr_1.c **** *   Function prototype example:
 197:.\Generated_Source\PSoC5/isr_1.c **** *     CY_ISR_PROTO(MyISR);
 198:.\Generated_Source\PSoC5/isr_1.c **** *
 199:.\Generated_Source\PSoC5/isr_1.c **** * Parameters:
 200:.\Generated_Source\PSoC5/isr_1.c **** *   address: Address of the ISR to set in the interrupt vector table.
 201:.\Generated_Source\PSoC5/isr_1.c **** *
 202:.\Generated_Source\PSoC5/isr_1.c **** * Return:
 203:.\Generated_Source\PSoC5/isr_1.c **** *   None
 204:.\Generated_Source\PSoC5/isr_1.c **** *
 205:.\Generated_Source\PSoC5/isr_1.c **** *******************************************************************************/
 206:.\Generated_Source\PSoC5/isr_1.c **** void isr_1_SetVector(cyisraddress address)
 207:.\Generated_Source\PSoC5/isr_1.c **** {
  57              		.loc 1 207 0
  58              		.cfi_startproc
  59              		@ args = 0, pretend = 0, frame = 0
  60              		@ frame_needed = 0, uses_anonymous_args = 0
  61              		@ link register save eliminated.
  62              	.LVL0:
 208:.\Generated_Source\PSoC5/isr_1.c ****     cyisraddress * ramVectorTable;
 209:.\Generated_Source\PSoC5/isr_1.c **** 
 210:.\Generated_Source\PSoC5/isr_1.c ****     ramVectorTable = (cyisraddress *) *CYINT_VECT_TABLE;
  63              		.loc 1 210 0
  64 0000 014B     		ldr	r3, .L5
  65 0002 1B68     		ldr	r3, [r3]
  66              	.LVL1:
 211:.\Generated_Source\PSoC5/isr_1.c **** 
 212:.\Generated_Source\PSoC5/isr_1.c ****     ramVectorTable[CYINT_IRQ_BASE + (uint32)isr_1__INTC_NUMBER] = address;
  67              		.loc 1 212 0
  68 0004 1864     		str	r0, [r3, #64]
  69 0006 7047     		bx	lr
  70              	.L6:
  71              		.align	2
  72              	.L5:
  73 0008 08ED00E0 		.word	-536810232
ARM GAS  C:\Users\Zachary\AppData\Local\Temp\cc5yUBjI.s 			page 6


  74              		.cfi_endproc
  75              	.LFE4:
  76              		.size	isr_1_SetVector, .-isr_1_SetVector
  77              		.section	.text.isr_1_GetVector,"ax",%progbits
  78              		.align	2
  79              		.global	isr_1_GetVector
  80              		.thumb
  81              		.thumb_func
  82              		.type	isr_1_GetVector, %function
  83              	isr_1_GetVector:
  84              	.LFB5:
 213:.\Generated_Source\PSoC5/isr_1.c **** }
 214:.\Generated_Source\PSoC5/isr_1.c **** 
 215:.\Generated_Source\PSoC5/isr_1.c **** 
 216:.\Generated_Source\PSoC5/isr_1.c **** /*******************************************************************************
 217:.\Generated_Source\PSoC5/isr_1.c **** * Function Name: isr_1_GetVector
 218:.\Generated_Source\PSoC5/isr_1.c **** ********************************************************************************
 219:.\Generated_Source\PSoC5/isr_1.c **** *
 220:.\Generated_Source\PSoC5/isr_1.c **** * Summary:
 221:.\Generated_Source\PSoC5/isr_1.c **** *   Gets the "address" of the current ISR vector for the Interrupt.
 222:.\Generated_Source\PSoC5/isr_1.c **** *
 223:.\Generated_Source\PSoC5/isr_1.c **** * Parameters:
 224:.\Generated_Source\PSoC5/isr_1.c **** *   None
 225:.\Generated_Source\PSoC5/isr_1.c **** *
 226:.\Generated_Source\PSoC5/isr_1.c **** * Return:
 227:.\Generated_Source\PSoC5/isr_1.c **** *   Address of the ISR in the interrupt vector table.
 228:.\Generated_Source\PSoC5/isr_1.c **** *
 229:.\Generated_Source\PSoC5/isr_1.c **** *******************************************************************************/
 230:.\Generated_Source\PSoC5/isr_1.c **** cyisraddress isr_1_GetVector(void)
 231:.\Generated_Source\PSoC5/isr_1.c **** {
  85              		.loc 1 231 0
  86              		.cfi_startproc
  87              		@ args = 0, pretend = 0, frame = 0
  88              		@ frame_needed = 0, uses_anonymous_args = 0
  89              		@ link register save eliminated.
 232:.\Generated_Source\PSoC5/isr_1.c ****     cyisraddress * ramVectorTable;
 233:.\Generated_Source\PSoC5/isr_1.c **** 
 234:.\Generated_Source\PSoC5/isr_1.c ****     ramVectorTable = (cyisraddress *) *CYINT_VECT_TABLE;
  90              		.loc 1 234 0
  91 0000 014B     		ldr	r3, .L8
  92 0002 1B68     		ldr	r3, [r3]
  93              	.LVL2:
 235:.\Generated_Source\PSoC5/isr_1.c **** 
 236:.\Generated_Source\PSoC5/isr_1.c ****     return ramVectorTable[CYINT_IRQ_BASE + (uint32)isr_1__INTC_NUMBER];
 237:.\Generated_Source\PSoC5/isr_1.c **** }
  94              		.loc 1 237 0
  95 0004 186C     		ldr	r0, [r3, #64]
  96 0006 7047     		bx	lr
  97              	.L9:
  98              		.align	2
  99              	.L8:
 100 0008 08ED00E0 		.word	-536810232
 101              		.cfi_endproc
 102              	.LFE5:
 103              		.size	isr_1_GetVector, .-isr_1_GetVector
 104              		.section	.text.isr_1_SetPriority,"ax",%progbits
 105              		.align	2
ARM GAS  C:\Users\Zachary\AppData\Local\Temp\cc5yUBjI.s 			page 7


 106              		.global	isr_1_SetPriority
 107              		.thumb
 108              		.thumb_func
 109              		.type	isr_1_SetPriority, %function
 110              	isr_1_SetPriority:
 111              	.LFB6:
 238:.\Generated_Source\PSoC5/isr_1.c **** 
 239:.\Generated_Source\PSoC5/isr_1.c **** 
 240:.\Generated_Source\PSoC5/isr_1.c **** /*******************************************************************************
 241:.\Generated_Source\PSoC5/isr_1.c **** * Function Name: isr_1_SetPriority
 242:.\Generated_Source\PSoC5/isr_1.c **** ********************************************************************************
 243:.\Generated_Source\PSoC5/isr_1.c **** *
 244:.\Generated_Source\PSoC5/isr_1.c **** * Summary:
 245:.\Generated_Source\PSoC5/isr_1.c **** *   Sets the Priority of the Interrupt. 
 246:.\Generated_Source\PSoC5/isr_1.c **** *
 247:.\Generated_Source\PSoC5/isr_1.c **** *   Note calling isr_1_Start or isr_1_StartEx will 
 248:.\Generated_Source\PSoC5/isr_1.c **** *   override any effect this API would have had. This API should only be called
 249:.\Generated_Source\PSoC5/isr_1.c **** *   after isr_1_Start or isr_1_StartEx has been called. 
 250:.\Generated_Source\PSoC5/isr_1.c **** *   To set the initial priority for the component, use the Design-Wide Resources
 251:.\Generated_Source\PSoC5/isr_1.c **** *   Interrupt Editor.
 252:.\Generated_Source\PSoC5/isr_1.c **** *
 253:.\Generated_Source\PSoC5/isr_1.c **** *   Note This API has no effect on Non-maskable interrupt NMI).
 254:.\Generated_Source\PSoC5/isr_1.c **** *
 255:.\Generated_Source\PSoC5/isr_1.c **** * Parameters:
 256:.\Generated_Source\PSoC5/isr_1.c **** *   priority: Priority of the interrupt, 0 being the highest priority
 257:.\Generated_Source\PSoC5/isr_1.c **** *             PSoC 3 and PSoC 5LP: Priority is from 0 to 7.
 258:.\Generated_Source\PSoC5/isr_1.c **** *             PSoC 4: Priority is from 0 to 3.
 259:.\Generated_Source\PSoC5/isr_1.c **** *
 260:.\Generated_Source\PSoC5/isr_1.c **** * Return:
 261:.\Generated_Source\PSoC5/isr_1.c **** *   None
 262:.\Generated_Source\PSoC5/isr_1.c **** *
 263:.\Generated_Source\PSoC5/isr_1.c **** *******************************************************************************/
 264:.\Generated_Source\PSoC5/isr_1.c **** void isr_1_SetPriority(uint8 priority)
 265:.\Generated_Source\PSoC5/isr_1.c **** {
 112              		.loc 1 265 0
 113              		.cfi_startproc
 114              		@ args = 0, pretend = 0, frame = 0
 115              		@ frame_needed = 0, uses_anonymous_args = 0
 116              		@ link register save eliminated.
 117              	.LVL3:
 266:.\Generated_Source\PSoC5/isr_1.c ****     *isr_1_INTC_PRIOR = priority << 5;
 118              		.loc 1 266 0
 119 0000 4001     		lsls	r0, r0, #5
 120              	.LVL4:
 121 0002 C0B2     		uxtb	r0, r0
 122 0004 014B     		ldr	r3, .L11
 123 0006 1870     		strb	r0, [r3]
 124 0008 7047     		bx	lr
 125              	.L12:
 126 000a 00BF     		.align	2
 127              	.L11:
 128 000c 00E400E0 		.word	-536812544
 129              		.cfi_endproc
 130              	.LFE6:
 131              		.size	isr_1_SetPriority, .-isr_1_SetPriority
 132              		.section	.text.isr_1_GetPriority,"ax",%progbits
 133              		.align	2
ARM GAS  C:\Users\Zachary\AppData\Local\Temp\cc5yUBjI.s 			page 8


 134              		.global	isr_1_GetPriority
 135              		.thumb
 136              		.thumb_func
 137              		.type	isr_1_GetPriority, %function
 138              	isr_1_GetPriority:
 139              	.LFB7:
 267:.\Generated_Source\PSoC5/isr_1.c **** }
 268:.\Generated_Source\PSoC5/isr_1.c **** 
 269:.\Generated_Source\PSoC5/isr_1.c **** 
 270:.\Generated_Source\PSoC5/isr_1.c **** /*******************************************************************************
 271:.\Generated_Source\PSoC5/isr_1.c **** * Function Name: isr_1_GetPriority
 272:.\Generated_Source\PSoC5/isr_1.c **** ********************************************************************************
 273:.\Generated_Source\PSoC5/isr_1.c **** *
 274:.\Generated_Source\PSoC5/isr_1.c **** * Summary:
 275:.\Generated_Source\PSoC5/isr_1.c **** *   Gets the Priority of the Interrupt.
 276:.\Generated_Source\PSoC5/isr_1.c **** *
 277:.\Generated_Source\PSoC5/isr_1.c **** * Parameters:
 278:.\Generated_Source\PSoC5/isr_1.c **** *   None
 279:.\Generated_Source\PSoC5/isr_1.c **** *
 280:.\Generated_Source\PSoC5/isr_1.c **** * Return:
 281:.\Generated_Source\PSoC5/isr_1.c **** *   Priority of the interrupt, 0 being the highest priority
 282:.\Generated_Source\PSoC5/isr_1.c **** *    PSoC 3 and PSoC 5LP: Priority is from 0 to 7.
 283:.\Generated_Source\PSoC5/isr_1.c **** *    PSoC 4: Priority is from 0 to 3.
 284:.\Generated_Source\PSoC5/isr_1.c **** *
 285:.\Generated_Source\PSoC5/isr_1.c **** *******************************************************************************/
 286:.\Generated_Source\PSoC5/isr_1.c **** uint8 isr_1_GetPriority(void)
 287:.\Generated_Source\PSoC5/isr_1.c **** {
 140              		.loc 1 287 0
 141              		.cfi_startproc
 142              		@ args = 0, pretend = 0, frame = 0
 143              		@ frame_needed = 0, uses_anonymous_args = 0
 144              		@ link register save eliminated.
 288:.\Generated_Source\PSoC5/isr_1.c ****     uint8 priority;
 289:.\Generated_Source\PSoC5/isr_1.c **** 
 290:.\Generated_Source\PSoC5/isr_1.c **** 
 291:.\Generated_Source\PSoC5/isr_1.c ****     priority = *isr_1_INTC_PRIOR >> 5;
 145              		.loc 1 291 0
 146 0000 014B     		ldr	r3, .L14
 147 0002 1878     		ldrb	r0, [r3]	@ zero_extendqisi2
 148              	.LVL5:
 292:.\Generated_Source\PSoC5/isr_1.c **** 
 293:.\Generated_Source\PSoC5/isr_1.c ****     return priority;
 294:.\Generated_Source\PSoC5/isr_1.c **** }
 149              		.loc 1 294 0
 150 0004 4009     		lsrs	r0, r0, #5
 151              	.LVL6:
 152 0006 7047     		bx	lr
 153              	.L15:
 154              		.align	2
 155              	.L14:
 156 0008 00E400E0 		.word	-536812544
 157              		.cfi_endproc
 158              	.LFE7:
 159              		.size	isr_1_GetPriority, .-isr_1_GetPriority
 160              		.section	.text.isr_1_Enable,"ax",%progbits
 161              		.align	2
 162              		.global	isr_1_Enable
ARM GAS  C:\Users\Zachary\AppData\Local\Temp\cc5yUBjI.s 			page 9


 163              		.thumb
 164              		.thumb_func
 165              		.type	isr_1_Enable, %function
 166              	isr_1_Enable:
 167              	.LFB8:
 295:.\Generated_Source\PSoC5/isr_1.c **** 
 296:.\Generated_Source\PSoC5/isr_1.c **** 
 297:.\Generated_Source\PSoC5/isr_1.c **** /*******************************************************************************
 298:.\Generated_Source\PSoC5/isr_1.c **** * Function Name: isr_1_Enable
 299:.\Generated_Source\PSoC5/isr_1.c **** ********************************************************************************
 300:.\Generated_Source\PSoC5/isr_1.c **** *
 301:.\Generated_Source\PSoC5/isr_1.c **** * Summary:
 302:.\Generated_Source\PSoC5/isr_1.c **** *   Enables the interrupt to the interrupt controller. Do not call this function
 303:.\Generated_Source\PSoC5/isr_1.c **** *   unless ISR_Start() has been called or the functionality of the ISR_Start() 
 304:.\Generated_Source\PSoC5/isr_1.c **** *   function, which sets the vector and the priority, has been called.
 305:.\Generated_Source\PSoC5/isr_1.c **** *
 306:.\Generated_Source\PSoC5/isr_1.c **** * Parameters:
 307:.\Generated_Source\PSoC5/isr_1.c **** *   None
 308:.\Generated_Source\PSoC5/isr_1.c **** *
 309:.\Generated_Source\PSoC5/isr_1.c **** * Return:
 310:.\Generated_Source\PSoC5/isr_1.c **** *   None
 311:.\Generated_Source\PSoC5/isr_1.c **** *
 312:.\Generated_Source\PSoC5/isr_1.c **** *******************************************************************************/
 313:.\Generated_Source\PSoC5/isr_1.c **** void isr_1_Enable(void)
 314:.\Generated_Source\PSoC5/isr_1.c **** {
 168              		.loc 1 314 0
 169              		.cfi_startproc
 170              		@ args = 0, pretend = 0, frame = 0
 171              		@ frame_needed = 0, uses_anonymous_args = 0
 172              		@ link register save eliminated.
 315:.\Generated_Source\PSoC5/isr_1.c ****     /* Enable the general interrupt. */
 316:.\Generated_Source\PSoC5/isr_1.c ****     *isr_1_INTC_SET_EN = isr_1__INTC_MASK;
 173              		.loc 1 316 0
 174 0000 0122     		movs	r2, #1
 175 0002 014B     		ldr	r3, .L17
 176 0004 1A60     		str	r2, [r3]
 177 0006 7047     		bx	lr
 178              	.L18:
 179              		.align	2
 180              	.L17:
 181 0008 00E100E0 		.word	-536813312
 182              		.cfi_endproc
 183              	.LFE8:
 184              		.size	isr_1_Enable, .-isr_1_Enable
 185              		.section	.text.isr_1_GetState,"ax",%progbits
 186              		.align	2
 187              		.global	isr_1_GetState
 188              		.thumb
 189              		.thumb_func
 190              		.type	isr_1_GetState, %function
 191              	isr_1_GetState:
 192              	.LFB9:
 317:.\Generated_Source\PSoC5/isr_1.c **** }
 318:.\Generated_Source\PSoC5/isr_1.c **** 
 319:.\Generated_Source\PSoC5/isr_1.c **** 
 320:.\Generated_Source\PSoC5/isr_1.c **** /*******************************************************************************
 321:.\Generated_Source\PSoC5/isr_1.c **** * Function Name: isr_1_GetState
ARM GAS  C:\Users\Zachary\AppData\Local\Temp\cc5yUBjI.s 			page 10


 322:.\Generated_Source\PSoC5/isr_1.c **** ********************************************************************************
 323:.\Generated_Source\PSoC5/isr_1.c **** *
 324:.\Generated_Source\PSoC5/isr_1.c **** * Summary:
 325:.\Generated_Source\PSoC5/isr_1.c **** *   Gets the state (enabled, disabled) of the Interrupt.
 326:.\Generated_Source\PSoC5/isr_1.c **** *
 327:.\Generated_Source\PSoC5/isr_1.c **** * Parameters:
 328:.\Generated_Source\PSoC5/isr_1.c **** *   None
 329:.\Generated_Source\PSoC5/isr_1.c **** *
 330:.\Generated_Source\PSoC5/isr_1.c **** * Return:
 331:.\Generated_Source\PSoC5/isr_1.c **** *   1 if enabled, 0 if disabled.
 332:.\Generated_Source\PSoC5/isr_1.c **** *
 333:.\Generated_Source\PSoC5/isr_1.c **** *******************************************************************************/
 334:.\Generated_Source\PSoC5/isr_1.c **** uint8 isr_1_GetState(void)
 335:.\Generated_Source\PSoC5/isr_1.c **** {
 193              		.loc 1 335 0
 194              		.cfi_startproc
 195              		@ args = 0, pretend = 0, frame = 0
 196              		@ frame_needed = 0, uses_anonymous_args = 0
 197              		@ link register save eliminated.
 336:.\Generated_Source\PSoC5/isr_1.c ****     /* Get the state of the general interrupt. */
 337:.\Generated_Source\PSoC5/isr_1.c ****     return ((*isr_1_INTC_SET_EN & (uint32)isr_1__INTC_MASK) != 0u) ? 1u:0u;
 198              		.loc 1 337 0
 199 0000 024B     		ldr	r3, .L20
 200 0002 1868     		ldr	r0, [r3]
 338:.\Generated_Source\PSoC5/isr_1.c **** }
 201              		.loc 1 338 0
 202 0004 00F00100 		and	r0, r0, #1
 203 0008 7047     		bx	lr
 204              	.L21:
 205 000a 00BF     		.align	2
 206              	.L20:
 207 000c 00E100E0 		.word	-536813312
 208              		.cfi_endproc
 209              	.LFE9:
 210              		.size	isr_1_GetState, .-isr_1_GetState
 211              		.section	.text.isr_1_Disable,"ax",%progbits
 212              		.align	2
 213              		.global	isr_1_Disable
 214              		.thumb
 215              		.thumb_func
 216              		.type	isr_1_Disable, %function
 217              	isr_1_Disable:
 218              	.LFB10:
 339:.\Generated_Source\PSoC5/isr_1.c **** 
 340:.\Generated_Source\PSoC5/isr_1.c **** 
 341:.\Generated_Source\PSoC5/isr_1.c **** /*******************************************************************************
 342:.\Generated_Source\PSoC5/isr_1.c **** * Function Name: isr_1_Disable
 343:.\Generated_Source\PSoC5/isr_1.c **** ********************************************************************************
 344:.\Generated_Source\PSoC5/isr_1.c **** *
 345:.\Generated_Source\PSoC5/isr_1.c **** * Summary:
 346:.\Generated_Source\PSoC5/isr_1.c **** *   Disables the Interrupt in the interrupt controller.
 347:.\Generated_Source\PSoC5/isr_1.c **** *
 348:.\Generated_Source\PSoC5/isr_1.c **** * Parameters:
 349:.\Generated_Source\PSoC5/isr_1.c **** *   None
 350:.\Generated_Source\PSoC5/isr_1.c **** *
 351:.\Generated_Source\PSoC5/isr_1.c **** * Return:
 352:.\Generated_Source\PSoC5/isr_1.c **** *   None
ARM GAS  C:\Users\Zachary\AppData\Local\Temp\cc5yUBjI.s 			page 11


 353:.\Generated_Source\PSoC5/isr_1.c **** *
 354:.\Generated_Source\PSoC5/isr_1.c **** *******************************************************************************/
 355:.\Generated_Source\PSoC5/isr_1.c **** void isr_1_Disable(void)
 356:.\Generated_Source\PSoC5/isr_1.c **** {
 219              		.loc 1 356 0
 220              		.cfi_startproc
 221              		@ args = 0, pretend = 0, frame = 0
 222              		@ frame_needed = 0, uses_anonymous_args = 0
 223              		@ link register save eliminated.
 357:.\Generated_Source\PSoC5/isr_1.c ****     /* Disable the general interrupt. */
 358:.\Generated_Source\PSoC5/isr_1.c ****     *isr_1_INTC_CLR_EN = isr_1__INTC_MASK;
 224              		.loc 1 358 0
 225 0000 0122     		movs	r2, #1
 226 0002 014B     		ldr	r3, .L23
 227 0004 1A60     		str	r2, [r3]
 228 0006 7047     		bx	lr
 229              	.L24:
 230              		.align	2
 231              	.L23:
 232 0008 80E100E0 		.word	-536813184
 233              		.cfi_endproc
 234              	.LFE10:
 235              		.size	isr_1_Disable, .-isr_1_Disable
 236              		.section	.text.isr_1_Start,"ax",%progbits
 237              		.align	2
 238              		.global	isr_1_Start
 239              		.thumb
 240              		.thumb_func
 241              		.type	isr_1_Start, %function
 242              	isr_1_Start:
 243              	.LFB0:
  65:.\Generated_Source\PSoC5/isr_1.c ****     /* For all we know the interrupt is active. */
 244              		.loc 1 65 0
 245              		.cfi_startproc
 246              		@ args = 0, pretend = 0, frame = 0
 247              		@ frame_needed = 0, uses_anonymous_args = 0
 248 0000 08B5     		push	{r3, lr}
 249              		.cfi_def_cfa_offset 8
 250              		.cfi_offset 3, -8
 251              		.cfi_offset 14, -4
  67:.\Generated_Source\PSoC5/isr_1.c **** 
 252              		.loc 1 67 0
 253 0002 FFF7FEFF 		bl	isr_1_Disable
 254              	.LVL7:
  70:.\Generated_Source\PSoC5/isr_1.c **** 
 255              		.loc 1 70 0
 256 0006 0448     		ldr	r0, .L27
 257 0008 FFF7FEFF 		bl	isr_1_SetVector
 258              	.LVL8:
  73:.\Generated_Source\PSoC5/isr_1.c **** 
 259              		.loc 1 73 0
 260 000c 0720     		movs	r0, #7
 261 000e FFF7FEFF 		bl	isr_1_SetPriority
 262              	.LVL9:
  76:.\Generated_Source\PSoC5/isr_1.c **** }
 263              		.loc 1 76 0
 264 0012 FFF7FEFF 		bl	isr_1_Enable
ARM GAS  C:\Users\Zachary\AppData\Local\Temp\cc5yUBjI.s 			page 12


 265              	.LVL10:
 266 0016 08BD     		pop	{r3, pc}
 267              	.L28:
 268              		.align	2
 269              	.L27:
 270 0018 00000000 		.word	isr_1_Interrupt
 271              		.cfi_endproc
 272              	.LFE0:
 273              		.size	isr_1_Start, .-isr_1_Start
 274              		.section	.text.isr_1_StartEx,"ax",%progbits
 275              		.align	2
 276              		.global	isr_1_StartEx
 277              		.thumb
 278              		.thumb_func
 279              		.type	isr_1_StartEx, %function
 280              	isr_1_StartEx:
 281              	.LFB1:
 108:.\Generated_Source\PSoC5/isr_1.c ****     /* For all we know the interrupt is active. */
 282              		.loc 1 108 0
 283              		.cfi_startproc
 284              		@ args = 0, pretend = 0, frame = 0
 285              		@ frame_needed = 0, uses_anonymous_args = 0
 286              	.LVL11:
 287 0000 10B5     		push	{r4, lr}
 288              		.cfi_def_cfa_offset 8
 289              		.cfi_offset 4, -8
 290              		.cfi_offset 14, -4
 291 0002 0446     		mov	r4, r0
 110:.\Generated_Source\PSoC5/isr_1.c **** 
 292              		.loc 1 110 0
 293 0004 FFF7FEFF 		bl	isr_1_Disable
 294              	.LVL12:
 113:.\Generated_Source\PSoC5/isr_1.c **** 
 295              		.loc 1 113 0
 296 0008 2046     		mov	r0, r4
 297 000a FFF7FEFF 		bl	isr_1_SetVector
 298              	.LVL13:
 116:.\Generated_Source\PSoC5/isr_1.c **** 
 299              		.loc 1 116 0
 300 000e 0720     		movs	r0, #7
 301 0010 FFF7FEFF 		bl	isr_1_SetPriority
 302              	.LVL14:
 119:.\Generated_Source\PSoC5/isr_1.c **** }
 303              		.loc 1 119 0
 304 0014 FFF7FEFF 		bl	isr_1_Enable
 305              	.LVL15:
 306 0018 10BD     		pop	{r4, pc}
 307              		.cfi_endproc
 308              	.LFE1:
 309              		.size	isr_1_StartEx, .-isr_1_StartEx
 310 001a 00BF     		.section	.text.isr_1_Stop,"ax",%progbits
 311              		.align	2
 312              		.global	isr_1_Stop
 313              		.thumb
 314              		.thumb_func
 315              		.type	isr_1_Stop, %function
 316              	isr_1_Stop:
ARM GAS  C:\Users\Zachary\AppData\Local\Temp\cc5yUBjI.s 			page 13


 317              	.LFB2:
 138:.\Generated_Source\PSoC5/isr_1.c ****     /* Disable this interrupt. */
 318              		.loc 1 138 0
 319              		.cfi_startproc
 320              		@ args = 0, pretend = 0, frame = 0
 321              		@ frame_needed = 0, uses_anonymous_args = 0
 322 0000 08B5     		push	{r3, lr}
 323              		.cfi_def_cfa_offset 8
 324              		.cfi_offset 3, -8
 325              		.cfi_offset 14, -4
 140:.\Generated_Source\PSoC5/isr_1.c **** 
 326              		.loc 1 140 0
 327 0002 FFF7FEFF 		bl	isr_1_Disable
 328              	.LVL16:
 143:.\Generated_Source\PSoC5/isr_1.c **** }
 329              		.loc 1 143 0
 330 0006 0248     		ldr	r0, .L33
 331 0008 FFF7FEFF 		bl	isr_1_SetVector
 332              	.LVL17:
 333 000c 08BD     		pop	{r3, pc}
 334              	.L34:
 335 000e 00BF     		.align	2
 336              	.L33:
 337 0010 00000000 		.word	IntDefaultHandler
 338              		.cfi_endproc
 339              	.LFE2:
 340              		.size	isr_1_Stop, .-isr_1_Stop
 341              		.section	.text.isr_1_SetPending,"ax",%progbits
 342              		.align	2
 343              		.global	isr_1_SetPending
 344              		.thumb
 345              		.thumb_func
 346              		.type	isr_1_SetPending, %function
 347              	isr_1_SetPending:
 348              	.LFB11:
 359:.\Generated_Source\PSoC5/isr_1.c **** }
 360:.\Generated_Source\PSoC5/isr_1.c **** 
 361:.\Generated_Source\PSoC5/isr_1.c **** 
 362:.\Generated_Source\PSoC5/isr_1.c **** /*******************************************************************************
 363:.\Generated_Source\PSoC5/isr_1.c **** * Function Name: isr_1_SetPending
 364:.\Generated_Source\PSoC5/isr_1.c **** ********************************************************************************
 365:.\Generated_Source\PSoC5/isr_1.c **** *
 366:.\Generated_Source\PSoC5/isr_1.c **** * Summary:
 367:.\Generated_Source\PSoC5/isr_1.c **** *   Causes the Interrupt to enter the pending state, a software method of
 368:.\Generated_Source\PSoC5/isr_1.c **** *   generating the interrupt.
 369:.\Generated_Source\PSoC5/isr_1.c **** *
 370:.\Generated_Source\PSoC5/isr_1.c **** * Parameters:
 371:.\Generated_Source\PSoC5/isr_1.c **** *   None
 372:.\Generated_Source\PSoC5/isr_1.c **** *
 373:.\Generated_Source\PSoC5/isr_1.c **** * Return:
 374:.\Generated_Source\PSoC5/isr_1.c **** *   None
 375:.\Generated_Source\PSoC5/isr_1.c **** *
 376:.\Generated_Source\PSoC5/isr_1.c **** * Side Effects:
 377:.\Generated_Source\PSoC5/isr_1.c **** *   If interrupts are enabled and the interrupt is set up properly, the ISR is
 378:.\Generated_Source\PSoC5/isr_1.c **** *   entered (depending on the priority of this interrupt and other pending 
 379:.\Generated_Source\PSoC5/isr_1.c **** *   interrupts).
 380:.\Generated_Source\PSoC5/isr_1.c **** *
ARM GAS  C:\Users\Zachary\AppData\Local\Temp\cc5yUBjI.s 			page 14


 381:.\Generated_Source\PSoC5/isr_1.c **** *******************************************************************************/
 382:.\Generated_Source\PSoC5/isr_1.c **** void isr_1_SetPending(void)
 383:.\Generated_Source\PSoC5/isr_1.c **** {
 349              		.loc 1 383 0
 350              		.cfi_startproc
 351              		@ args = 0, pretend = 0, frame = 0
 352              		@ frame_needed = 0, uses_anonymous_args = 0
 353              		@ link register save eliminated.
 384:.\Generated_Source\PSoC5/isr_1.c ****     *isr_1_INTC_SET_PD = isr_1__INTC_MASK;
 354              		.loc 1 384 0
 355 0000 0122     		movs	r2, #1
 356 0002 014B     		ldr	r3, .L36
 357 0004 1A60     		str	r2, [r3]
 358 0006 7047     		bx	lr
 359              	.L37:
 360              		.align	2
 361              	.L36:
 362 0008 00E200E0 		.word	-536813056
 363              		.cfi_endproc
 364              	.LFE11:
 365              		.size	isr_1_SetPending, .-isr_1_SetPending
 366              		.section	.text.isr_1_ClearPending,"ax",%progbits
 367              		.align	2
 368              		.global	isr_1_ClearPending
 369              		.thumb
 370              		.thumb_func
 371              		.type	isr_1_ClearPending, %function
 372              	isr_1_ClearPending:
 373              	.LFB12:
 385:.\Generated_Source\PSoC5/isr_1.c **** }
 386:.\Generated_Source\PSoC5/isr_1.c **** 
 387:.\Generated_Source\PSoC5/isr_1.c **** 
 388:.\Generated_Source\PSoC5/isr_1.c **** /*******************************************************************************
 389:.\Generated_Source\PSoC5/isr_1.c **** * Function Name: isr_1_ClearPending
 390:.\Generated_Source\PSoC5/isr_1.c **** ********************************************************************************
 391:.\Generated_Source\PSoC5/isr_1.c **** *
 392:.\Generated_Source\PSoC5/isr_1.c **** * Summary:
 393:.\Generated_Source\PSoC5/isr_1.c **** *   Clears a pending interrupt in the interrupt controller.
 394:.\Generated_Source\PSoC5/isr_1.c **** *
 395:.\Generated_Source\PSoC5/isr_1.c **** *   Note Some interrupt sources are clear-on-read and require the block 
 396:.\Generated_Source\PSoC5/isr_1.c **** *   interrupt/status register to be read/cleared with the appropriate block API 
 397:.\Generated_Source\PSoC5/isr_1.c **** *   (GPIO, UART, and so on). Otherwise the ISR will continue to remain in 
 398:.\Generated_Source\PSoC5/isr_1.c **** *   pending state even though the interrupt itself is cleared using this API.
 399:.\Generated_Source\PSoC5/isr_1.c **** *
 400:.\Generated_Source\PSoC5/isr_1.c **** * Parameters:
 401:.\Generated_Source\PSoC5/isr_1.c **** *   None
 402:.\Generated_Source\PSoC5/isr_1.c **** *
 403:.\Generated_Source\PSoC5/isr_1.c **** * Return:
 404:.\Generated_Source\PSoC5/isr_1.c **** *   None
 405:.\Generated_Source\PSoC5/isr_1.c **** *
 406:.\Generated_Source\PSoC5/isr_1.c **** *******************************************************************************/
 407:.\Generated_Source\PSoC5/isr_1.c **** void isr_1_ClearPending(void)
 408:.\Generated_Source\PSoC5/isr_1.c **** {
 374              		.loc 1 408 0
 375              		.cfi_startproc
 376              		@ args = 0, pretend = 0, frame = 0
 377              		@ frame_needed = 0, uses_anonymous_args = 0
ARM GAS  C:\Users\Zachary\AppData\Local\Temp\cc5yUBjI.s 			page 15


 378              		@ link register save eliminated.
 409:.\Generated_Source\PSoC5/isr_1.c ****     *isr_1_INTC_CLR_PD = isr_1__INTC_MASK;
 379              		.loc 1 409 0
 380 0000 0122     		movs	r2, #1
 381 0002 014B     		ldr	r3, .L39
 382 0004 1A60     		str	r2, [r3]
 383 0006 7047     		bx	lr
 384              	.L40:
 385              		.align	2
 386              	.L39:
 387 0008 80E200E0 		.word	-536812928
 388              		.cfi_endproc
 389              	.LFE12:
 390              		.size	isr_1_ClearPending, .-isr_1_ClearPending
 391              		.global	counter
 392              		.comm	ReceivedData,2048,4
 393              		.bss
 394              		.align	2
 395              		.set	.LANCHOR0,. + 0
 396              		.type	counter, %object
 397              		.size	counter, 4
 398              	counter:
 399 0000 00000000 		.space	4
 400              		.text
 401              	.Letext0:
 402              		.file 2 "c:\\program files (x86)\\cypress\\psoc creator\\3.3\\psoc creator\\import\\gnu\\arm\\4.9.
 403              		.file 3 "c:\\program files (x86)\\cypress\\psoc creator\\3.3\\psoc creator\\import\\gnu\\arm\\4.9.
 404              		.file 4 "Generated_Source\\PSoC5/cytypes.h"