ARM GAS  C:\Users\Zachary\AppData\Local\Temp\cc2YIP2e.s 			page 1


   1              		.syntax unified
   2              		.cpu cortex-m3
   3              		.fpu softvfp
   4              		.eabi_attribute 20, 1
   5              		.eabi_attribute 21, 1
   6              		.eabi_attribute 23, 3
   7              		.eabi_attribute 24, 1
   8              		.eabi_attribute 25, 1
   9              		.eabi_attribute 26, 1
  10              		.eabi_attribute 30, 1
  11              		.eabi_attribute 34, 1
  12              		.eabi_attribute 18, 4
  13              		.thumb
  14              		.file	"main.c"
  15              		.text
  16              	.Ltext0:
  17              		.cfi_sections	.debug_frame
  18              		.section	.text.DmaRxConfiguration,"ax",%progbits
  19              		.align	2
  20              		.global	DmaRxConfiguration
  21              		.thumb
  22              		.thumb_func
  23              		.type	DmaRxConfiguration, %function
  24              	DmaRxConfiguration:
  25              	.LFB57:
  26              		.file 1 ".\\main.c"
   1:.\main.c      **** /* ========================================
   2:.\main.c      ****  *
   3:.\main.c      ****  * Copyright The College of New Jersey, 2016
   4:.\main.c      ****  * All Rights Reserved
   5:.\main.c      ****  * UNPUBLISHED, LICENSED SOFTWARE.
   6:.\main.c      ****  *
   7:.\main.c      ****  * CONFIDENTIAL AND PROPRIETARY INFORMATION
   8:.\main.c      ****  * WHICH IS THE PROPERTY OF TCNJ.
   9:.\main.c      ****  *
  10:.\main.c      ****  * ========================================
  11:.\main.c      **** */
  12:.\main.c      **** 
  13:.\main.c      **** #include <project.h>
  14:.\main.c      **** #include <stdio.h>
  15:.\main.c      **** #include <stdlib.h>
  16:.\main.c      **** 
  17:.\main.c      **** void DmaRxConfiguration(void);
  18:.\main.c      **** void DmaTxConfiguration(void);
  19:.\main.c      **** 
  20:.\main.c      **** /* DMA Configuration for RxDMA */
  21:.\main.c      **** #define RxDMA_BYTES_PER_BURST       1
  22:.\main.c      **** #define RxDMA_REQUEST_PER_BURST     1
  23:.\main.c      **** #define RxDMA_SRC_BASE              (CYDEV_PERIPH_BASE)
  24:.\main.c      **** #define RxDMA_DST_BASE              (CYDEV_SRAM_BASE)
  25:.\main.c      **** 
  26:.\main.c      **** /* DMA Configuration for TxDMA */
  27:.\main.c      **** #define TxDMA_BYTES_PER_BURST       1
  28:.\main.c      **** #define TxDMA_REQUEST_PER_BURST     1
  29:.\main.c      **** #define TxDMA_SRC_BASE              (CYDEV_SRAM_BASE)
  30:.\main.c      **** #define TxDMA_DST_BASE              (CYDEV_PERIPH_BASE)
  31:.\main.c      **** 
ARM GAS  C:\Users\Zachary\AppData\Local\Temp\cc2YIP2e.s 			page 2


  32:.\main.c      **** /* Variable declarations for RxDMA */
  33:.\main.c      **** uint8_t RxDMA_Chan_0;
  34:.\main.c      **** uint8_t RxDMA_TD_0[1];
  35:.\main.c      **** uint8_t RxDMA_Chan_1;
  36:.\main.c      **** uint8_t RxDMA_TD_1[1];
  37:.\main.c      **** 
  38:.\main.c      **** /* Variable declarations for TxDMA */
  39:.\main.c      **** uint8_t TxDMA_0_Chan;
  40:.\main.c      **** uint8_t TxDMA_0_TD[1];    
  41:.\main.c      **** uint8_t TxDMA_1_Chan;
  42:.\main.c      **** uint8_t TxDMA_1_TD[1];
  43:.\main.c      **** 
  44:.\main.c      **** /* The "N" that MATLAB prints */
  45:.\main.c      **** #define TRANSFER_COUNT 48
  46:.\main.c      **** 
  47:.\main.c      **** /* Copy data that MATLAB produces in "data.txt" file */
  48:.\main.c      **** volatile uint16_t signal2[TRANSFER_COUNT] = 
  49:.\main.c      **** 	{0x0, 0xFFFF, 0xFFFF, 0xFFFF, 0xFFFF, 0xFFFF, 0xFFFF, 0xFFFF, 0xFFFF, 0xFFFF, 
  50:.\main.c      **** 	0xFFFF, 0xFFFF, 0xFFFF, 0xFFFF, 0xFFFF, 0xFFFF, 0xFFFF, 0xFFFF, 0xFFFF, 0xFFFF, 
  51:.\main.c      **** 	0xFFFF, 0xFFFF, 0xFFFF, 0xFFFF, 0xFFFF, 0x0, 0x0, 0x0, 0x0, 0x0, 
  52:.\main.c      **** 	0x0, 0x0, 0x0, 0x0, 0x0, 0x0, 0x0, 0x0, 0x0, 0x0, 
  53:.\main.c      **** 	0x0, 0x0, 0x0, 0x0, 0x0, 0x0, 0x0, 0x0};
  54:.\main.c      **** 
  55:.\main.c      **** volatile uint16_t signal1[TRANSFER_COUNT] = 
  56:.\main.c      **** {	0x0, 0x0, 0x0, 0x0, 0x0, 0x0, 0x0, 0x0, 0x0, 0x0, 
  57:.\main.c      **** 	0x0, 0x0, 0x0, 0x0, 0x0, 0x0, 0x0, 0x0, 0x0, 0x0, 
  58:.\main.c      **** 	0x0, 0x0, 0x0, 0x0, 0x0, 0x0, 0x0, 0x0, 0x0, 0x0, 
  59:.\main.c      **** 	0x0, 0x0, 0x0, 0x0, 0x0, 0x0, 0x0, 0x0, 0x0, 0x0, 
  60:.\main.c      **** 	0x0, 0x0, 0x0, 0x0, 0x0, 0x0, 0x0, 0x0};
  61:.\main.c      **** 
  62:.\main.c      **** #define BUFFER_SIZE 1024				/* number of samples to receive */
  63:.\main.c      **** volatile uint16_t * ReceivedData;    	/* left IN buffer */
  64:.\main.c      **** volatile uint16_t * dummy;			/* right IN buffer, ignored */
  65:.\main.c      **** 
  66:.\main.c      **** int main()
  67:.\main.c      **** {
  68:.\main.c      **** 	uint16_t i = 0;
  69:.\main.c      **** 	ReceivedData = malloc(BUFFER_SIZE*sizeof(uint16_t));
  70:.\main.c      **** 	dummy = malloc(BUFFER_SIZE*sizeof(uint16_t));
  71:.\main.c      **** 	
  72:.\main.c      **** 	/* Enable global interrupts */
  73:.\main.c      **** 	CyGlobalIntEnable;
  74:.\main.c      **** 	
  75:.\main.c      **** 	/* Initialize received data array */
  76:.\main.c      **** 	for (i = 0; i < BUFFER_SIZE; i++)
  77:.\main.c      **** 		ReceivedData[i] = i;
  78:.\main.c      **** 
  79:.\main.c      ****     /* Configure DMAs for each direction */ 
  80:.\main.c      ****     DmaRxConfiguration();
  81:.\main.c      ****     DmaTxConfiguration();
  82:.\main.c      **** 	
  83:.\main.c      **** 	/* Enable I2S component */
  84:.\main.c      ****     I2S_Start();
  85:.\main.c      ****     I2S_1_Start();
  86:.\main.c      **** 	I2S_1_EnableRx();		/* Enable Rx direction */
  87:.\main.c      ****     I2S_EnableTx();     /* Enable Tx direction */
  88:.\main.c      ****     
ARM GAS  C:\Users\Zachary\AppData\Local\Temp\cc2YIP2e.s 			page 3


  89:.\main.c      **** 
  90:.\main.c      **** 	CyDelay(3000);		/* Wait for data transmissions to complete */
  91:.\main.c      **** 	/* There's probably a better way to do that than simply waiting... */
  92:.\main.c      **** 		
  93:.\main.c      **** 	UART_Start();     	/* Enabling the UART */
  94:.\main.c      **** 	
  95:.\main.c      **** 	/* Send the data to computer through the UART component, serial to USB */
  96:.\main.c      **** 	for(i = 0; i < BUFFER_SIZE; i++)
  97:.\main.c      **** 	{
  98:.\main.c      **** 		// uint8_t part1 = (ReceivedData[i] >> 8) & 0x00ff;	/* get first byte */
  99:.\main.c      **** 		// uint8_t part2 = (ReceivedData[i] >> 0) & 0x00ff;	/* get second byte */
 100:.\main.c      ****         uint8_t part1 = (dummy[i] >> 8) & 0x00ff;	/* get first byte */
 101:.\main.c      **** 		uint8_t part2 = (dummy[i] >> 0) & 0x00ff;	/* get second byte */
 102:.\main.c      **** 		char part1_string[5];
 103:.\main.c      **** 		char part2_string[5];
 104:.\main.c      **** 		sprintf(part1_string, "%02X", part1);
 105:.\main.c      **** 		sprintf(part2_string, "%02X", part2);
 106:.\main.c      **** 		UART_PutString(part1_string);						/* print first byte through UART */			
 107:.\main.c      **** 		UART_PutString(", ");							
 108:.\main.c      **** 		UART_PutString(part2_string);						/* print second byte through UART */
 109:.\main.c      **** 		UART_PutString("\n\r");
 110:.\main.c      **** 	}
 111:.\main.c      **** 	
 112:.\main.c      **** 	/* Wait forever */
 113:.\main.c      **** 	for(;;);
 114:.\main.c      **** }
 115:.\main.c      **** 
 116:.\main.c      **** /* Rx DMA Config */
 117:.\main.c      **** void DmaRxConfiguration(void)
 118:.\main.c      **** {
  27              		.loc 1 118 0
  28              		.cfi_startproc
  29              		@ args = 0, pretend = 0, frame = 0
  30              		@ frame_needed = 0, uses_anonymous_args = 0
  31 0000 F8B5     		push	{r3, r4, r5, r6, r7, lr}
  32              		.cfi_def_cfa_offset 24
  33              		.cfi_offset 3, -24
  34              		.cfi_offset 4, -20
  35              		.cfi_offset 5, -16
  36              		.cfi_offset 6, -12
  37              		.cfi_offset 7, -8
  38              		.cfi_offset 14, -4
 119:.\main.c      ****     /* Init DMA, 1 byte bursts, each burst requires a request */
 120:.\main.c      ****     RxDMA_Chan_0 = RxDMA_0_DmaInitialize(RxDMA_BYTES_PER_BURST, RxDMA_REQUEST_PER_BURST, 
  39              		.loc 1 120 0
  40 0002 0120     		movs	r0, #1
  41 0004 0146     		mov	r1, r0
  42 0006 4FF48042 		mov	r2, #16384
  43 000a 41F6FF73 		movw	r3, #8191
  44 000e FFF7FEFF 		bl	RxDMA_0_DmaInitialize
  45              	.LVL0:
  46 0012 204F     		ldr	r7, .L3
  47 0014 3870     		strb	r0, [r7]
 121:.\main.c      ****                                      HI16(RxDMA_SRC_BASE), HI16(RxDMA_DST_BASE));
 122:.\main.c      **** 	RxDMA_Chan_1 = RxDMA_1_DmaInitialize(RxDMA_BYTES_PER_BURST, RxDMA_REQUEST_PER_BURST, 
  48              		.loc 1 122 0
  49 0016 0120     		movs	r0, #1
ARM GAS  C:\Users\Zachary\AppData\Local\Temp\cc2YIP2e.s 			page 4


  50 0018 0146     		mov	r1, r0
  51 001a 4FF48042 		mov	r2, #16384
  52 001e 41F6FF73 		movw	r3, #8191
  53 0022 FFF7FEFF 		bl	RxDMA_1_DmaInitialize
  54              	.LVL1:
  55 0026 1C4E     		ldr	r6, .L3+4
  56 0028 3070     		strb	r0, [r6]
 123:.\main.c      ****                                      HI16(RxDMA_SRC_BASE), HI16(RxDMA_DST_BASE));
 124:.\main.c      **** 	
 125:.\main.c      ****     RxDMA_TD_0[0] = CyDmaTdAllocate();
  57              		.loc 1 125 0
  58 002a FFF7FEFF 		bl	CyDmaTdAllocate
  59              	.LVL2:
  60 002e 1B4D     		ldr	r5, .L3+8
  61 0030 2870     		strb	r0, [r5]
 126:.\main.c      **** 	RxDMA_TD_1[0] = CyDmaTdAllocate();
  62              		.loc 1 126 0
  63 0032 FFF7FEFF 		bl	CyDmaTdAllocate
  64              	.LVL3:
  65 0036 1A4C     		ldr	r4, .L3+12
  66 0038 2070     		strb	r0, [r4]
 127:.\main.c      **** 	
 128:.\main.c      **** 	/* Configure this Td chain, get BUFFER_SIZE samples */
 129:.\main.c      ****     CyDmaTdSetConfiguration(RxDMA_TD_0[0], 2*BUFFER_SIZE, DMA_DISABLE_TD, TD_INC_DST_ADR | RxDMA_0_
  67              		.loc 1 129 0
  68 003a 2878     		ldrb	r0, [r5]	@ zero_extendqisi2
  69 003c 4FF40061 		mov	r1, #2048
  70 0040 FE22     		movs	r2, #254
  71 0042 8223     		movs	r3, #130
  72 0044 FFF7FEFF 		bl	CyDmaTdSetConfiguration
  73              	.LVL4:
 130:.\main.c      **** 	CyDmaTdSetConfiguration(RxDMA_TD_1[0], 2*BUFFER_SIZE, DMA_DISABLE_TD, TD_INC_DST_ADR | RxDMA_1__TD
  74              		.loc 1 130 0
  75 0048 2078     		ldrb	r0, [r4]	@ zero_extendqisi2
  76 004a 4FF40061 		mov	r1, #2048
  77 004e FE22     		movs	r2, #254
  78 0050 8223     		movs	r3, #130
  79 0052 FFF7FEFF 		bl	CyDmaTdSetConfiguration
  80              	.LVL5:
 131:.\main.c      **** 
 132:.\main.c      ****     /* From the I2S to the memory */
 133:.\main.c      ****     CyDmaTdSetAddress(RxDMA_TD_0[0], LO16((uint32)I2S_1_RX_CH0_F0_PTR), LO16((uint32)ReceivedData))
  81              		.loc 1 133 0
  82 0056 2878     		ldrb	r0, [r5]	@ zero_extendqisi2
  83 0058 46F24341 		movw	r1, #25667
  84 005c 114B     		ldr	r3, .L3+16
  85 005e 1A88     		ldrh	r2, [r3]
  86 0060 FFF7FEFF 		bl	CyDmaTdSetAddress
  87              	.LVL6:
 134:.\main.c      **** 	CyDmaTdSetAddress(RxDMA_TD_1[0], LO16((uint32)I2S_1_RX_CH0_F1_PTR), LO16((uint32)dummy));
  88              		.loc 1 134 0
  89 0064 2078     		ldrb	r0, [r4]	@ zero_extendqisi2
  90 0066 46F25341 		movw	r1, #25683
  91 006a 0F4B     		ldr	r3, .L3+20
  92 006c 1A88     		ldrh	r2, [r3]
  93 006e FFF7FEFF 		bl	CyDmaTdSetAddress
  94              	.LVL7:
ARM GAS  C:\Users\Zachary\AppData\Local\Temp\cc2YIP2e.s 			page 5


 135:.\main.c      **** 	
 136:.\main.c      ****     /* Associate the TD with the channel */
 137:.\main.c      ****     CyDmaChSetInitialTd(RxDMA_Chan_0, RxDMA_TD_0[0]);
  95              		.loc 1 137 0
  96 0072 3878     		ldrb	r0, [r7]	@ zero_extendqisi2
  97 0074 2978     		ldrb	r1, [r5]	@ zero_extendqisi2
  98 0076 FFF7FEFF 		bl	CyDmaChSetInitialTd
  99              	.LVL8:
 138:.\main.c      **** 	CyDmaChSetInitialTd(RxDMA_Chan_1, RxDMA_TD_1[0]);
 100              		.loc 1 138 0
 101 007a 3078     		ldrb	r0, [r6]	@ zero_extendqisi2
 102 007c 2178     		ldrb	r1, [r4]	@ zero_extendqisi2
 103 007e FFF7FEFF 		bl	CyDmaChSetInitialTd
 104              	.LVL9:
 139:.\main.c      **** 	
 140:.\main.c      ****     /* Enable the channel */
 141:.\main.c      ****     CyDmaChEnable(RxDMA_Chan_0, 1);
 105              		.loc 1 141 0
 106 0082 3878     		ldrb	r0, [r7]	@ zero_extendqisi2
 107 0084 0121     		movs	r1, #1
 108 0086 FFF7FEFF 		bl	CyDmaChEnable
 109              	.LVL10:
 142:.\main.c      **** 	CyDmaChEnable(RxDMA_Chan_1, 1);
 110              		.loc 1 142 0
 111 008a 3078     		ldrb	r0, [r6]	@ zero_extendqisi2
 112 008c 0121     		movs	r1, #1
 113 008e FFF7FEFF 		bl	CyDmaChEnable
 114              	.LVL11:
 115 0092 F8BD     		pop	{r3, r4, r5, r6, r7, pc}
 116              	.L4:
 117              		.align	2
 118              	.L3:
 119 0094 00000000 		.word	RxDMA_Chan_0
 120 0098 00000000 		.word	RxDMA_Chan_1
 121 009c 00000000 		.word	RxDMA_TD_0
 122 00a0 00000000 		.word	RxDMA_TD_1
 123 00a4 00000000 		.word	ReceivedData
 124 00a8 00000000 		.word	dummy
 125              		.cfi_endproc
 126              	.LFE57:
 127              		.size	DmaRxConfiguration, .-DmaRxConfiguration
 128              		.section	.text.DmaTxConfiguration,"ax",%progbits
 129              		.align	2
 130              		.global	DmaTxConfiguration
 131              		.thumb
 132              		.thumb_func
 133              		.type	DmaTxConfiguration, %function
 134              	DmaTxConfiguration:
 135              	.LFB58:
 143:.\main.c      **** }
 144:.\main.c      **** 
 145:.\main.c      **** /* Tx DMA Config */
 146:.\main.c      **** void DmaTxConfiguration(void)
 147:.\main.c      **** {
 136              		.loc 1 147 0
 137              		.cfi_startproc
 138              		@ args = 0, pretend = 0, frame = 0
ARM GAS  C:\Users\Zachary\AppData\Local\Temp\cc2YIP2e.s 			page 6


 139              		@ frame_needed = 0, uses_anonymous_args = 0
 140 0000 F8B5     		push	{r3, r4, r5, r6, r7, lr}
 141              		.cfi_def_cfa_offset 24
 142              		.cfi_offset 3, -24
 143              		.cfi_offset 4, -20
 144              		.cfi_offset 5, -16
 145              		.cfi_offset 6, -12
 146              		.cfi_offset 7, -8
 147              		.cfi_offset 14, -4
 148:.\main.c      ****     /* Init DMA, 1 byte bursts, each burst requires a request */
 149:.\main.c      ****     TxDMA_0_Chan = TxDMA_0_DmaInitialize(TxDMA_BYTES_PER_BURST, TxDMA_REQUEST_PER_BURST, 
 148              		.loc 1 149 0
 149 0002 0120     		movs	r0, #1
 150 0004 0146     		mov	r1, r0
 151 0006 41F6FF72 		movw	r2, #8191
 152 000a 4FF48043 		mov	r3, #16384
 153 000e FFF7FEFF 		bl	TxDMA_0_DmaInitialize
 154              	.LVL12:
 155 0012 1F4F     		ldr	r7, .L7
 156 0014 3870     		strb	r0, [r7]
 150:.\main.c      ****                                     HI16(TxDMA_SRC_BASE), HI16(TxDMA_DST_BASE));
 151:.\main.c      **** 	TxDMA_1_Chan = TxDMA_1_DmaInitialize(TxDMA_BYTES_PER_BURST, TxDMA_REQUEST_PER_BURST, 
 157              		.loc 1 151 0
 158 0016 0120     		movs	r0, #1
 159 0018 0146     		mov	r1, r0
 160 001a 41F6FF72 		movw	r2, #8191
 161 001e 4FF48043 		mov	r3, #16384
 162 0022 FFF7FEFF 		bl	TxDMA_1_DmaInitialize
 163              	.LVL13:
 164 0026 1B4E     		ldr	r6, .L7+4
 165 0028 3070     		strb	r0, [r6]
 152:.\main.c      ****                                     HI16(TxDMA_SRC_BASE), HI16(TxDMA_DST_BASE));
 153:.\main.c      **** 	
 154:.\main.c      ****     TxDMA_0_TD[0] = CyDmaTdAllocate();
 166              		.loc 1 154 0
 167 002a FFF7FEFF 		bl	CyDmaTdAllocate
 168              	.LVL14:
 169 002e 1A4D     		ldr	r5, .L7+8
 170 0030 2870     		strb	r0, [r5]
 155:.\main.c      ****     TxDMA_1_TD[0] = CyDmaTdAllocate();
 171              		.loc 1 155 0
 172 0032 FFF7FEFF 		bl	CyDmaTdAllocate
 173              	.LVL15:
 174 0036 194C     		ldr	r4, .L7+12
 175 0038 2070     		strb	r0, [r4]
 156:.\main.c      **** 
 157:.\main.c      **** 	/* Configure this Td chain, send TRANSFER_COUNT samples and then restarts itself */
 158:.\main.c      **** 	CyDmaTdSetConfiguration(TxDMA_0_TD[0], 2*TRANSFER_COUNT, TxDMA_0_TD[0], TD_INC_SRC_ADR);
 176              		.loc 1 158 0
 177 003a 2A78     		ldrb	r2, [r5]	@ zero_extendqisi2
 178 003c 1046     		mov	r0, r2
 179 003e 6021     		movs	r1, #96
 180 0040 0123     		movs	r3, #1
 181 0042 FFF7FEFF 		bl	CyDmaTdSetConfiguration
 182              	.LVL16:
 159:.\main.c      ****     CyDmaTdSetConfiguration(TxDMA_1_TD[0], 2*TRANSFER_COUNT, TxDMA_1_TD[0], TD_INC_SRC_ADR);
 183              		.loc 1 159 0
ARM GAS  C:\Users\Zachary\AppData\Local\Temp\cc2YIP2e.s 			page 7


 184 0046 2278     		ldrb	r2, [r4]	@ zero_extendqisi2
 185 0048 1046     		mov	r0, r2
 186 004a 6021     		movs	r1, #96
 187 004c 0123     		movs	r3, #1
 188 004e FFF7FEFF 		bl	CyDmaTdSetConfiguration
 189              	.LVL17:
 160:.\main.c      **** 	
 161:.\main.c      **** 	/* From the ADC to the I2S */
 162:.\main.c      ****     CyDmaTdSetAddress(TxDMA_0_TD[0], LO16((uint32)signal1), LO16((uint32)I2S_TX_CH0_F0_PTR));
 190              		.loc 1 162 0
 191 0052 2878     		ldrb	r0, [r5]	@ zero_extendqisi2
 192 0054 1249     		ldr	r1, .L7+16
 193 0056 89B2     		uxth	r1, r1
 194 0058 46F24142 		movw	r2, #25665
 195 005c FFF7FEFF 		bl	CyDmaTdSetAddress
 196              	.LVL18:
 163:.\main.c      ****     CyDmaTdSetAddress(TxDMA_1_TD[0], LO16((uint32)signal2), LO16((uint32)I2S_TX_CH0_F1_PTR));
 197              		.loc 1 163 0
 198 0060 2078     		ldrb	r0, [r4]	@ zero_extendqisi2
 199 0062 1049     		ldr	r1, .L7+20
 200 0064 89B2     		uxth	r1, r1
 201 0066 46F25142 		movw	r2, #25681
 202 006a FFF7FEFF 		bl	CyDmaTdSetAddress
 203              	.LVL19:
 164:.\main.c      **** 
 165:.\main.c      **** 	/* Associate the TD with the channel */
 166:.\main.c      ****     CyDmaChSetInitialTd(TxDMA_0_Chan, TxDMA_0_TD[0]);
 204              		.loc 1 166 0
 205 006e 3878     		ldrb	r0, [r7]	@ zero_extendqisi2
 206 0070 2978     		ldrb	r1, [r5]	@ zero_extendqisi2
 207 0072 FFF7FEFF 		bl	CyDmaChSetInitialTd
 208              	.LVL20:
 167:.\main.c      ****     CyDmaChSetInitialTd(TxDMA_1_Chan, TxDMA_1_TD[0]);
 209              		.loc 1 167 0
 210 0076 3078     		ldrb	r0, [r6]	@ zero_extendqisi2
 211 0078 2178     		ldrb	r1, [r4]	@ zero_extendqisi2
 212 007a FFF7FEFF 		bl	CyDmaChSetInitialTd
 213              	.LVL21:
 168:.\main.c      **** 
 169:.\main.c      **** 	/* Enable the channel */
 170:.\main.c      ****     CyDmaChEnable(TxDMA_0_Chan, 1);
 214              		.loc 1 170 0
 215 007e 3878     		ldrb	r0, [r7]	@ zero_extendqisi2
 216 0080 0121     		movs	r1, #1
 217 0082 FFF7FEFF 		bl	CyDmaChEnable
 218              	.LVL22:
 171:.\main.c      ****     CyDmaChEnable(TxDMA_1_Chan, 1);
 219              		.loc 1 171 0
 220 0086 3078     		ldrb	r0, [r6]	@ zero_extendqisi2
 221 0088 0121     		movs	r1, #1
 222 008a FFF7FEFF 		bl	CyDmaChEnable
 223              	.LVL23:
 224 008e F8BD     		pop	{r3, r4, r5, r6, r7, pc}
 225              	.L8:
 226              		.align	2
 227              	.L7:
 228 0090 00000000 		.word	TxDMA_0_Chan
ARM GAS  C:\Users\Zachary\AppData\Local\Temp\cc2YIP2e.s 			page 8


 229 0094 00000000 		.word	TxDMA_1_Chan
 230 0098 00000000 		.word	TxDMA_0_TD
 231 009c 00000000 		.word	TxDMA_1_TD
 232 00a0 00000000 		.word	.LANCHOR0
 233 00a4 00000000 		.word	.LANCHOR1
 234              		.cfi_endproc
 235              	.LFE58:
 236              		.size	DmaTxConfiguration, .-DmaTxConfiguration
 237              		.section	.text.main,"ax",%progbits
 238              		.align	2
 239              		.global	main
 240              		.thumb
 241              		.thumb_func
 242              		.type	main, %function
 243              	main:
 244              	.LFB56:
  67:.\main.c      **** 	uint16_t i = 0;
 245              		.loc 1 67 0
 246              		.cfi_startproc
 247              		@ args = 0, pretend = 0, frame = 16
 248              		@ frame_needed = 0, uses_anonymous_args = 0
 249 0000 70B5     		push	{r4, r5, r6, lr}
 250              		.cfi_def_cfa_offset 16
 251              		.cfi_offset 4, -16
 252              		.cfi_offset 5, -12
 253              		.cfi_offset 6, -8
 254              		.cfi_offset 14, -4
 255 0002 84B0     		sub	sp, sp, #16
 256              		.cfi_def_cfa_offset 32
 257              	.LVL24:
  69:.\main.c      **** 	dummy = malloc(BUFFER_SIZE*sizeof(uint16_t));
 258              		.loc 1 69 0
 259 0004 4FF40060 		mov	r0, #2048
 260 0008 FFF7FEFF 		bl	malloc
 261              	.LVL25:
 262 000c 264B     		ldr	r3, .L16
 263 000e 1860     		str	r0, [r3]
  70:.\main.c      **** 	
 264              		.loc 1 70 0
 265 0010 4FF40060 		mov	r0, #2048
 266 0014 FFF7FEFF 		bl	malloc
 267              	.LVL26:
 268 0018 244B     		ldr	r3, .L16+4
 269 001a 1860     		str	r0, [r3]
  73:.\main.c      **** 	
 270              		.loc 1 73 0
 271              	@ 73 ".\main.c" 1
 272 001c 62B6     		CPSIE   i
 273              	@ 0 "" 2
  76:.\main.c      **** 		ReceivedData[i] = i;
 274              		.loc 1 76 0
 275              		.thumb
 276 001e 0023     		movs	r3, #0
 277 0020 05E0     		b	.L10
 278              	.LVL27:
 279              	.L11:
  77:.\main.c      **** 
ARM GAS  C:\Users\Zachary\AppData\Local\Temp\cc2YIP2e.s 			page 9


 280              		.loc 1 77 0 discriminator 3
 281 0022 214A     		ldr	r2, .L16
 282 0024 1268     		ldr	r2, [r2]
 283 0026 22F81330 		strh	r3, [r2, r3, lsl #1]	@ movhi
  76:.\main.c      **** 		ReceivedData[i] = i;
 284              		.loc 1 76 0 discriminator 3
 285 002a 0133     		adds	r3, r3, #1
 286              	.LVL28:
 287 002c 9BB2     		uxth	r3, r3
 288              	.LVL29:
 289              	.L10:
  76:.\main.c      **** 		ReceivedData[i] = i;
 290              		.loc 1 76 0 is_stmt 0 discriminator 1
 291 002e B3F5806F 		cmp	r3, #1024
 292 0032 F6D3     		bcc	.L11
  80:.\main.c      ****     DmaTxConfiguration();
 293              		.loc 1 80 0 is_stmt 1
 294 0034 FFF7FEFF 		bl	DmaRxConfiguration
 295              	.LVL30:
  81:.\main.c      **** 	
 296              		.loc 1 81 0
 297 0038 FFF7FEFF 		bl	DmaTxConfiguration
 298              	.LVL31:
  84:.\main.c      ****     I2S_1_Start();
 299              		.loc 1 84 0
 300 003c FFF7FEFF 		bl	I2S_Start
 301              	.LVL32:
  85:.\main.c      **** 	I2S_1_EnableRx();		/* Enable Rx direction */
 302              		.loc 1 85 0
 303 0040 FFF7FEFF 		bl	I2S_1_Start
 304              	.LVL33:
  86:.\main.c      ****     I2S_EnableTx();     /* Enable Tx direction */
 305              		.loc 1 86 0
 306 0044 FFF7FEFF 		bl	I2S_1_EnableRx
 307              	.LVL34:
  87:.\main.c      ****     
 308              		.loc 1 87 0
 309 0048 FFF7FEFF 		bl	I2S_EnableTx
 310              	.LVL35:
  90:.\main.c      **** 	/* There's probably a better way to do that than simply waiting... */
 311              		.loc 1 90 0
 312 004c 40F6B830 		movw	r0, #3000
 313 0050 FFF7FEFF 		bl	CyDelay
 314              	.LVL36:
  93:.\main.c      **** 	
 315              		.loc 1 93 0
 316 0054 FFF7FEFF 		bl	UART_Start
 317              	.LVL37:
  96:.\main.c      **** 	{
 318              		.loc 1 96 0
 319 0058 0024     		movs	r4, #0
 320 005a 20E0     		b	.L12
 321              	.LVL38:
 322              	.L13:
 323              	.LBB2:
 100:.\main.c      **** 		uint8_t part2 = (dummy[i] >> 0) & 0x00ff;	/* get second byte */
 324              		.loc 1 100 0 discriminator 3
ARM GAS  C:\Users\Zachary\AppData\Local\Temp\cc2YIP2e.s 			page 10


 325 005c 134B     		ldr	r3, .L16+4
 326 005e 1B68     		ldr	r3, [r3]
 327 0060 33F81420 		ldrh	r2, [r3, r4, lsl #1]
 328              	.LVL39:
 101:.\main.c      **** 		char part1_string[5];
 329              		.loc 1 101 0 discriminator 3
 330 0064 33F81450 		ldrh	r5, [r3, r4, lsl #1]
 331 0068 EDB2     		uxtb	r5, r5
 332              	.LVL40:
 104:.\main.c      **** 		sprintf(part2_string, "%02X", part2);
 333              		.loc 1 104 0 discriminator 3
 334 006a 114E     		ldr	r6, .L16+8
 335 006c 6846     		mov	r0, sp
 336 006e 3146     		mov	r1, r6
 337 0070 C2F30722 		ubfx	r2, r2, #8, #8
 338              	.LVL41:
 339 0074 FFF7FEFF 		bl	sprintf
 340              	.LVL42:
 105:.\main.c      **** 		UART_PutString(part1_string);						/* print first byte through UART */			
 341              		.loc 1 105 0 discriminator 3
 342 0078 02A8     		add	r0, sp, #8
 343 007a 3146     		mov	r1, r6
 344 007c 2A46     		mov	r2, r5
 345 007e FFF7FEFF 		bl	sprintf
 346              	.LVL43:
 106:.\main.c      **** 		UART_PutString(", ");							
 347              		.loc 1 106 0 discriminator 3
 348 0082 6846     		mov	r0, sp
 349 0084 FFF7FEFF 		bl	UART_PutString
 350              	.LVL44:
 107:.\main.c      **** 		UART_PutString(part2_string);						/* print second byte through UART */
 351              		.loc 1 107 0 discriminator 3
 352 0088 0A48     		ldr	r0, .L16+12
 353 008a FFF7FEFF 		bl	UART_PutString
 354              	.LVL45:
 108:.\main.c      **** 		UART_PutString("\n\r");
 355              		.loc 1 108 0 discriminator 3
 356 008e 02A8     		add	r0, sp, #8
 357 0090 FFF7FEFF 		bl	UART_PutString
 358              	.LVL46:
 109:.\main.c      **** 	}
 359              		.loc 1 109 0 discriminator 3
 360 0094 0848     		ldr	r0, .L16+16
 361 0096 FFF7FEFF 		bl	UART_PutString
 362              	.LVL47:
 363              	.LBE2:
  96:.\main.c      **** 	{
 364              		.loc 1 96 0 discriminator 3
 365 009a 0134     		adds	r4, r4, #1
 366              	.LVL48:
 367 009c A4B2     		uxth	r4, r4
 368              	.LVL49:
 369              	.L12:
  96:.\main.c      **** 	{
 370              		.loc 1 96 0 is_stmt 0 discriminator 1
 371 009e B4F5806F 		cmp	r4, #1024
 372 00a2 DBD3     		bcc	.L13
ARM GAS  C:\Users\Zachary\AppData\Local\Temp\cc2YIP2e.s 			page 11


 373              	.L14:
 113:.\main.c      **** }
 374              		.loc 1 113 0 is_stmt 1 discriminator 1
 375 00a4 FEE7     		b	.L14
 376              	.L17:
 377 00a6 00BF     		.align	2
 378              	.L16:
 379 00a8 00000000 		.word	ReceivedData
 380 00ac 00000000 		.word	dummy
 381 00b0 00000000 		.word	.LC0
 382 00b4 08000000 		.word	.LC1
 383 00b8 0C000000 		.word	.LC2
 384              		.cfi_endproc
 385              	.LFE56:
 386              		.size	main, .-main
 387              		.comm	dummy,4,4
 388              		.comm	ReceivedData,4,4
 389              		.global	signal1
 390              		.global	signal2
 391              		.comm	TxDMA_1_TD,1,4
 392              		.comm	TxDMA_1_Chan,1,1
 393              		.comm	TxDMA_0_TD,1,4
 394              		.comm	TxDMA_0_Chan,1,1
 395              		.comm	RxDMA_TD_1,1,4
 396              		.comm	RxDMA_Chan_1,1,1
 397              		.comm	RxDMA_TD_0,1,4
 398              		.comm	RxDMA_Chan_0,1,1
 399              		.data
 400              		.align	2
 401              		.set	.LANCHOR1,. + 0
 402              		.type	signal2, %object
 403              		.size	signal2, 96
 404              	signal2:
 405 0000 0000     		.short	0
 406 0002 FFFF     		.short	-1
 407 0004 FFFF     		.short	-1
 408 0006 FFFF     		.short	-1
 409 0008 FFFF     		.short	-1
 410 000a FFFF     		.short	-1
 411 000c FFFF     		.short	-1
 412 000e FFFF     		.short	-1
 413 0010 FFFF     		.short	-1
 414 0012 FFFF     		.short	-1
 415 0014 FFFF     		.short	-1
 416 0016 FFFF     		.short	-1
 417 0018 FFFF     		.short	-1
 418 001a FFFF     		.short	-1
 419 001c FFFF     		.short	-1
 420 001e FFFF     		.short	-1
 421 0020 FFFF     		.short	-1
 422 0022 FFFF     		.short	-1
 423 0024 FFFF     		.short	-1
 424 0026 FFFF     		.short	-1
 425 0028 FFFF     		.short	-1
 426 002a FFFF     		.short	-1
 427 002c FFFF     		.short	-1
 428 002e FFFF     		.short	-1
ARM GAS  C:\Users\Zachary\AppData\Local\Temp\cc2YIP2e.s 			page 12


 429 0030 FFFF     		.short	-1
 430 0032 0000     		.short	0
 431 0034 0000     		.short	0
 432 0036 0000     		.short	0
 433 0038 0000     		.short	0
 434 003a 0000     		.short	0
 435 003c 0000     		.short	0
 436 003e 0000     		.short	0
 437 0040 0000     		.short	0
 438 0042 0000     		.short	0
 439 0044 0000     		.short	0
 440 0046 0000     		.short	0
 441 0048 0000     		.short	0
 442 004a 0000     		.short	0
 443 004c 0000     		.short	0
 444 004e 0000     		.short	0
 445 0050 0000     		.short	0
 446 0052 0000     		.short	0
 447 0054 0000     		.short	0
 448 0056 0000     		.short	0
 449 0058 0000     		.short	0
 450 005a 0000     		.short	0
 451 005c 0000     		.short	0
 452 005e 0000     		.short	0
 453              		.section	.rodata.str1.4,"aMS",%progbits,1
 454              		.align	2
 455              	.LC0:
 456 0000 25303258 		.ascii	"%02X\000"
 456      00
 457 0005 000000   		.space	3
 458              	.LC1:
 459 0008 2C2000   		.ascii	", \000"
 460 000b 00       		.space	1
 461              	.LC2:
 462 000c 0A0D00   		.ascii	"\012\015\000"
 463 000f 00       		.bss
 464              		.align	2
 465              		.set	.LANCHOR0,. + 0
 466              		.type	signal1, %object
 467              		.size	signal1, 96
 468              	signal1:
 469 0000 00000000 		.space	96
 469      00000000 
 469      00000000 
 469      00000000 
 469      00000000 
 470              		.text
 471              	.Letext0:
 472              		.file 2 "c:\\program files (x86)\\cypress\\psoc creator\\3.3\\psoc creator\\import\\gnu\\arm\\4.9.
 473              		.file 3 "c:\\program files (x86)\\cypress\\psoc creator\\3.3\\psoc creator\\import\\gnu\\arm\\4.9.
 474              		.file 4 "Generated_Source\\PSoC5/cytypes.h"
 475              		.file 5 "c:\\program files (x86)\\cypress\\psoc creator\\3.3\\psoc creator\\import\\gnu\\arm\\4.9.
 476              		.file 6 "Generated_Source\\PSoC5/core_cm3.h"
 477              		.file 7 "Generated_Source\\PSoC5/RxDMA_0_dma.h"
 478              		.file 8 "Generated_Source\\PSoC5/RxDMA_1_dma.h"
 479              		.file 9 "Generated_Source\\PSoC5/CYDMAC.H"
 480              		.file 10 "Generated_Source\\PSoC5/TxDMA_0_dma.h"
ARM GAS  C:\Users\Zachary\AppData\Local\Temp\cc2YIP2e.s 			page 13


 481              		.file 11 "Generated_Source\\PSoC5/TxDMA_1_dma.h"
 482              		.file 12 "c:\\program files (x86)\\cypress\\psoc creator\\3.3\\psoc creator\\import\\gnu\\arm\\4.9
 483              		.file 13 "c:\\program files (x86)\\cypress\\psoc creator\\3.3\\psoc creator\\import\\gnu\\arm\\4.9
 484              		.file 14 "Generated_Source\\PSoC5/I2S.h"
 485              		.file 15 "Generated_Source\\PSoC5/I2S_1.h"
 486              		.file 16 "Generated_Source\\PSoC5/UART.h"
 487              		.file 17 "Generated_Source\\PSoC5/CyLib.h"