ARM GAS  C:\Users\Ian\AppData\Local\Temp\cceQdx7E.s 			page 1


   1              		.syntax unified
   2              		.cpu cortex-m3
   3              		.fpu softvfp
   4              		.eabi_attribute 20, 1
   5              		.eabi_attribute 21, 1
   6              		.eabi_attribute 23, 3
   7              		.eabi_attribute 24, 1
   8              		.eabi_attribute 25, 1
   9              		.eabi_attribute 26, 1
  10              		.eabi_attribute 30, 1
  11              		.eabi_attribute 34, 1
  12              		.eabi_attribute 18, 4
  13              		.thumb
  14              		.file	"WaveDAC8.c"
  15              		.text
  16              	.Ltext0:
  17              		.cfi_sections	.debug_frame
  18              		.section	.text.WaveDAC8_Enable,"ax",%progbits
  19              		.align	2
  20              		.global	WaveDAC8_Enable
  21              		.thumb
  22              		.thumb_func
  23              		.type	WaveDAC8_Enable, %function
  24              	WaveDAC8_Enable:
  25              	.LFB1:
  26              		.file 1 ".\\Generated_Source\\PSoC5\\WaveDAC8.c"
   1:.\Generated_Source\PSoC5/WaveDAC8.c **** /*******************************************************************************
   2:.\Generated_Source\PSoC5/WaveDAC8.c **** * File Name: WaveDAC8.c
   3:.\Generated_Source\PSoC5/WaveDAC8.c **** * Version 2.0
   4:.\Generated_Source\PSoC5/WaveDAC8.c **** *
   5:.\Generated_Source\PSoC5/WaveDAC8.c **** * Description:
   6:.\Generated_Source\PSoC5/WaveDAC8.c **** *  This file provides the source code for the 8-bit Waveform DAC 
   7:.\Generated_Source\PSoC5/WaveDAC8.c **** *  (WaveDAC8) Component.
   8:.\Generated_Source\PSoC5/WaveDAC8.c **** *
   9:.\Generated_Source\PSoC5/WaveDAC8.c **** ********************************************************************************
  10:.\Generated_Source\PSoC5/WaveDAC8.c **** * Copyright 2013, Cypress Semiconductor Corporation.  All rights reserved.
  11:.\Generated_Source\PSoC5/WaveDAC8.c **** * You may use this file only in accordance with the license, terms, conditions,
  12:.\Generated_Source\PSoC5/WaveDAC8.c **** * disclaimers, and limitations in the end user license agreement accompanying
  13:.\Generated_Source\PSoC5/WaveDAC8.c **** * the software package with which this file was provided.
  14:.\Generated_Source\PSoC5/WaveDAC8.c **** *******************************************************************************/
  15:.\Generated_Source\PSoC5/WaveDAC8.c **** 
  16:.\Generated_Source\PSoC5/WaveDAC8.c **** #include "WaveDAC8.h"
  17:.\Generated_Source\PSoC5/WaveDAC8.c **** 
  18:.\Generated_Source\PSoC5/WaveDAC8.c **** uint8  WaveDAC8_initVar = 0u;
  19:.\Generated_Source\PSoC5/WaveDAC8.c **** 
  20:.\Generated_Source\PSoC5/WaveDAC8.c **** const uint8 CYCODE WaveDAC8_wave1[WaveDAC8_WAVE1_LENGTH] = { 94u,94u,94u,94u,94u,94u,94u,94u,94u,94
  21:.\Generated_Source\PSoC5/WaveDAC8.c **** const uint8 CYCODE WaveDAC8_wave2[WaveDAC8_WAVE2_LENGTH] = { 252u,252u,252u,252u,252u,252u,252u,252
  22:.\Generated_Source\PSoC5/WaveDAC8.c **** 
  23:.\Generated_Source\PSoC5/WaveDAC8.c **** static uint8  WaveDAC8_Wave1Chan;
  24:.\Generated_Source\PSoC5/WaveDAC8.c **** static uint8  WaveDAC8_Wave2Chan;
  25:.\Generated_Source\PSoC5/WaveDAC8.c **** static uint8  WaveDAC8_Wave1TD;
  26:.\Generated_Source\PSoC5/WaveDAC8.c **** static uint8  WaveDAC8_Wave2TD;
  27:.\Generated_Source\PSoC5/WaveDAC8.c **** 
  28:.\Generated_Source\PSoC5/WaveDAC8.c **** 
  29:.\Generated_Source\PSoC5/WaveDAC8.c **** /*******************************************************************************
  30:.\Generated_Source\PSoC5/WaveDAC8.c **** * Function Name: WaveDAC8_Init
  31:.\Generated_Source\PSoC5/WaveDAC8.c **** ********************************************************************************
ARM GAS  C:\Users\Ian\AppData\Local\Temp\cceQdx7E.s 			page 2


  32:.\Generated_Source\PSoC5/WaveDAC8.c **** *
  33:.\Generated_Source\PSoC5/WaveDAC8.c **** * Summary:
  34:.\Generated_Source\PSoC5/WaveDAC8.c **** *  Initializes component with parameters set in the customizer.
  35:.\Generated_Source\PSoC5/WaveDAC8.c **** *
  36:.\Generated_Source\PSoC5/WaveDAC8.c **** * Parameters:  
  37:.\Generated_Source\PSoC5/WaveDAC8.c **** *  None
  38:.\Generated_Source\PSoC5/WaveDAC8.c **** *
  39:.\Generated_Source\PSoC5/WaveDAC8.c **** * Return: 
  40:.\Generated_Source\PSoC5/WaveDAC8.c **** *  None
  41:.\Generated_Source\PSoC5/WaveDAC8.c **** *
  42:.\Generated_Source\PSoC5/WaveDAC8.c **** *******************************************************************************/
  43:.\Generated_Source\PSoC5/WaveDAC8.c **** void WaveDAC8_Init(void) 
  44:.\Generated_Source\PSoC5/WaveDAC8.c **** {
  45:.\Generated_Source\PSoC5/WaveDAC8.c **** 	WaveDAC8_VDAC8_Init();
  46:.\Generated_Source\PSoC5/WaveDAC8.c **** 	WaveDAC8_VDAC8_SetSpeed(WaveDAC8_HIGHSPEED);
  47:.\Generated_Source\PSoC5/WaveDAC8.c **** 	WaveDAC8_VDAC8_SetRange(WaveDAC8_DAC_RANGE);
  48:.\Generated_Source\PSoC5/WaveDAC8.c **** 
  49:.\Generated_Source\PSoC5/WaveDAC8.c **** 	#if(WaveDAC8_DAC_MODE == WaveDAC8_CURRENT_MODE)
  50:.\Generated_Source\PSoC5/WaveDAC8.c **** 		WaveDAC8_IDAC8_SetPolarity(WaveDAC8_DAC_POL);
  51:.\Generated_Source\PSoC5/WaveDAC8.c **** 	#endif /* WaveDAC8_DAC_MODE == WaveDAC8_CURRENT_MODE */
  52:.\Generated_Source\PSoC5/WaveDAC8.c **** 
  53:.\Generated_Source\PSoC5/WaveDAC8.c **** 	#if(WaveDAC8_OUT_MODE == WaveDAC8_BUFFER_MODE)
  54:.\Generated_Source\PSoC5/WaveDAC8.c **** 	   WaveDAC8_BuffAmp_Init();
  55:.\Generated_Source\PSoC5/WaveDAC8.c **** 	#endif /* WaveDAC8_OUT_MODE == WaveDAC8_BUFFER_MODE */
  56:.\Generated_Source\PSoC5/WaveDAC8.c **** 
  57:.\Generated_Source\PSoC5/WaveDAC8.c **** 	/* Get the TD Number for the DMA channel 1 and 2   */
  58:.\Generated_Source\PSoC5/WaveDAC8.c **** 	WaveDAC8_Wave1TD = CyDmaTdAllocate();
  59:.\Generated_Source\PSoC5/WaveDAC8.c **** 	WaveDAC8_Wave2TD = CyDmaTdAllocate();
  60:.\Generated_Source\PSoC5/WaveDAC8.c **** 	
  61:.\Generated_Source\PSoC5/WaveDAC8.c **** 	/* Initialize waveform pointers  */
  62:.\Generated_Source\PSoC5/WaveDAC8.c **** 	WaveDAC8_Wave1Setup(WaveDAC8_wave1, WaveDAC8_WAVE1_LENGTH) ;
  63:.\Generated_Source\PSoC5/WaveDAC8.c **** 	WaveDAC8_Wave2Setup(WaveDAC8_wave2, WaveDAC8_WAVE2_LENGTH) ;
  64:.\Generated_Source\PSoC5/WaveDAC8.c **** 	
  65:.\Generated_Source\PSoC5/WaveDAC8.c **** 	/* Initialize the internal clock if one present  */
  66:.\Generated_Source\PSoC5/WaveDAC8.c **** 	#if defined(WaveDAC8_DacClk_PHASE)
  67:.\Generated_Source\PSoC5/WaveDAC8.c **** 	   WaveDAC8_DacClk_SetPhase(WaveDAC8_CLK_PHASE_0nS);
  68:.\Generated_Source\PSoC5/WaveDAC8.c **** 	#endif /* defined(WaveDAC8_DacClk_PHASE) */
  69:.\Generated_Source\PSoC5/WaveDAC8.c **** }
  70:.\Generated_Source\PSoC5/WaveDAC8.c **** 
  71:.\Generated_Source\PSoC5/WaveDAC8.c **** 
  72:.\Generated_Source\PSoC5/WaveDAC8.c **** /*******************************************************************************
  73:.\Generated_Source\PSoC5/WaveDAC8.c **** * Function Name: WaveDAC8_Enable
  74:.\Generated_Source\PSoC5/WaveDAC8.c **** ********************************************************************************
  75:.\Generated_Source\PSoC5/WaveDAC8.c **** *  
  76:.\Generated_Source\PSoC5/WaveDAC8.c **** * Summary: 
  77:.\Generated_Source\PSoC5/WaveDAC8.c **** *  Enables the DAC block and DMA operation.
  78:.\Generated_Source\PSoC5/WaveDAC8.c **** *
  79:.\Generated_Source\PSoC5/WaveDAC8.c **** * Parameters:  
  80:.\Generated_Source\PSoC5/WaveDAC8.c **** *  None
  81:.\Generated_Source\PSoC5/WaveDAC8.c **** *
  82:.\Generated_Source\PSoC5/WaveDAC8.c **** * Return: 
  83:.\Generated_Source\PSoC5/WaveDAC8.c **** *  None
  84:.\Generated_Source\PSoC5/WaveDAC8.c **** *
  85:.\Generated_Source\PSoC5/WaveDAC8.c **** *******************************************************************************/
  86:.\Generated_Source\PSoC5/WaveDAC8.c **** void WaveDAC8_Enable(void) 
  87:.\Generated_Source\PSoC5/WaveDAC8.c **** {
  27              		.loc 1 87 0
ARM GAS  C:\Users\Ian\AppData\Local\Temp\cceQdx7E.s 			page 3


  28              		.cfi_startproc
  29              		@ args = 0, pretend = 0, frame = 0
  30              		@ frame_needed = 0, uses_anonymous_args = 0
  31 0000 10B5     		push	{r4, lr}
  32              		.cfi_def_cfa_offset 8
  33              		.cfi_offset 4, -8
  34              		.cfi_offset 14, -4
  88:.\Generated_Source\PSoC5/WaveDAC8.c **** 	WaveDAC8_VDAC8_Enable();
  35              		.loc 1 88 0
  36 0002 FFF7FEFF 		bl	WaveDAC8_VDAC8_Enable
  37              	.LVL0:
  89:.\Generated_Source\PSoC5/WaveDAC8.c **** 
  90:.\Generated_Source\PSoC5/WaveDAC8.c **** 	#if(WaveDAC8_OUT_MODE == WaveDAC8_BUFFER_MODE)
  91:.\Generated_Source\PSoC5/WaveDAC8.c **** 	   WaveDAC8_BuffAmp_Enable();
  92:.\Generated_Source\PSoC5/WaveDAC8.c **** 	#endif /* WaveDAC8_OUT_MODE == WaveDAC8_BUFFER_MODE */
  93:.\Generated_Source\PSoC5/WaveDAC8.c **** 
  94:.\Generated_Source\PSoC5/WaveDAC8.c **** 	/* 
  95:.\Generated_Source\PSoC5/WaveDAC8.c **** 	* Enable the channel. It is configured to remember the TD value so that
  96:.\Generated_Source\PSoC5/WaveDAC8.c **** 	* it can be restored from the place where it has been stopped.
  97:.\Generated_Source\PSoC5/WaveDAC8.c **** 	*/
  98:.\Generated_Source\PSoC5/WaveDAC8.c **** 	(void)CyDmaChEnable(WaveDAC8_Wave1Chan, 1u);
  38              		.loc 1 98 0
  39 0006 074C     		ldr	r4, .L3
  40 0008 2078     		ldrb	r0, [r4]	@ zero_extendqisi2
  41 000a 0121     		movs	r1, #1
  42 000c FFF7FEFF 		bl	CyDmaChEnable
  43              	.LVL1:
  99:.\Generated_Source\PSoC5/WaveDAC8.c **** 	(void)CyDmaChEnable(WaveDAC8_Wave2Chan, 1u);
  44              		.loc 1 99 0
  45 0010 6078     		ldrb	r0, [r4, #1]	@ zero_extendqisi2
  46 0012 0121     		movs	r1, #1
  47 0014 FFF7FEFF 		bl	CyDmaChEnable
  48              	.LVL2:
 100:.\Generated_Source\PSoC5/WaveDAC8.c **** 	
 101:.\Generated_Source\PSoC5/WaveDAC8.c **** 	/* set the initial value */
 102:.\Generated_Source\PSoC5/WaveDAC8.c **** 	WaveDAC8_SetValue(0u);
  49              		.loc 1 102 0
  50 0018 0020     		movs	r0, #0
  51 001a FFF7FEFF 		bl	WaveDAC8_VDAC8_SetValue
  52              	.LVL3:
 103:.\Generated_Source\PSoC5/WaveDAC8.c **** 	
 104:.\Generated_Source\PSoC5/WaveDAC8.c **** 	#if(WaveDAC8_CLOCK_SRC == WaveDAC8_CLOCK_INT)  	
 105:.\Generated_Source\PSoC5/WaveDAC8.c **** 	   WaveDAC8_DacClk_Start();
  53              		.loc 1 105 0
  54 001e FFF7FEFF 		bl	WaveDAC8_DacClk_Start
  55              	.LVL4:
  56 0022 10BD     		pop	{r4, pc}
  57              	.L4:
  58              		.align	2
  59              	.L3:
  60 0024 00000000 		.word	.LANCHOR0
  61              		.cfi_endproc
  62              	.LFE1:
  63              		.size	WaveDAC8_Enable, .-WaveDAC8_Enable
  64              		.section	.text.WaveDAC8_Stop,"ax",%progbits
  65              		.align	2
  66              		.global	WaveDAC8_Stop
ARM GAS  C:\Users\Ian\AppData\Local\Temp\cceQdx7E.s 			page 4


  67              		.thumb
  68              		.thumb_func
  69              		.type	WaveDAC8_Stop, %function
  70              	WaveDAC8_Stop:
  71              	.LFB4:
 106:.\Generated_Source\PSoC5/WaveDAC8.c **** 	#endif /* WaveDAC8_CLOCK_SRC == WaveDAC8_CLOCK_INT */
 107:.\Generated_Source\PSoC5/WaveDAC8.c **** }
 108:.\Generated_Source\PSoC5/WaveDAC8.c **** 
 109:.\Generated_Source\PSoC5/WaveDAC8.c **** 
 110:.\Generated_Source\PSoC5/WaveDAC8.c **** /*******************************************************************************
 111:.\Generated_Source\PSoC5/WaveDAC8.c **** * Function Name: WaveDAC8_Start
 112:.\Generated_Source\PSoC5/WaveDAC8.c **** ********************************************************************************
 113:.\Generated_Source\PSoC5/WaveDAC8.c **** *
 114:.\Generated_Source\PSoC5/WaveDAC8.c **** * Summary:
 115:.\Generated_Source\PSoC5/WaveDAC8.c **** *  The start function initializes the voltage DAC with the default values, 
 116:.\Generated_Source\PSoC5/WaveDAC8.c **** *  and sets the power to the given level.  A power level of 0, is the same as 
 117:.\Generated_Source\PSoC5/WaveDAC8.c **** *  executing the stop function.
 118:.\Generated_Source\PSoC5/WaveDAC8.c **** *
 119:.\Generated_Source\PSoC5/WaveDAC8.c **** * Parameters:  
 120:.\Generated_Source\PSoC5/WaveDAC8.c **** *  None
 121:.\Generated_Source\PSoC5/WaveDAC8.c **** *
 122:.\Generated_Source\PSoC5/WaveDAC8.c **** * Return: 
 123:.\Generated_Source\PSoC5/WaveDAC8.c **** *  None
 124:.\Generated_Source\PSoC5/WaveDAC8.c **** *
 125:.\Generated_Source\PSoC5/WaveDAC8.c **** * Reentrant:
 126:.\Generated_Source\PSoC5/WaveDAC8.c **** *  No
 127:.\Generated_Source\PSoC5/WaveDAC8.c **** *
 128:.\Generated_Source\PSoC5/WaveDAC8.c **** *******************************************************************************/
 129:.\Generated_Source\PSoC5/WaveDAC8.c **** void WaveDAC8_Start(void) 
 130:.\Generated_Source\PSoC5/WaveDAC8.c **** {
 131:.\Generated_Source\PSoC5/WaveDAC8.c **** 	/* If not Initialized then initialize all required hardware and software */
 132:.\Generated_Source\PSoC5/WaveDAC8.c **** 	if(WaveDAC8_initVar == 0u)
 133:.\Generated_Source\PSoC5/WaveDAC8.c **** 	{
 134:.\Generated_Source\PSoC5/WaveDAC8.c **** 		WaveDAC8_Init();
 135:.\Generated_Source\PSoC5/WaveDAC8.c **** 		WaveDAC8_initVar = 1u;
 136:.\Generated_Source\PSoC5/WaveDAC8.c **** 	}
 137:.\Generated_Source\PSoC5/WaveDAC8.c **** 	
 138:.\Generated_Source\PSoC5/WaveDAC8.c **** 	WaveDAC8_Enable();
 139:.\Generated_Source\PSoC5/WaveDAC8.c **** }
 140:.\Generated_Source\PSoC5/WaveDAC8.c **** 
 141:.\Generated_Source\PSoC5/WaveDAC8.c **** 
 142:.\Generated_Source\PSoC5/WaveDAC8.c **** /*******************************************************************************
 143:.\Generated_Source\PSoC5/WaveDAC8.c **** * Function Name: WaveDAC8_StartEx
 144:.\Generated_Source\PSoC5/WaveDAC8.c **** ********************************************************************************
 145:.\Generated_Source\PSoC5/WaveDAC8.c **** *
 146:.\Generated_Source\PSoC5/WaveDAC8.c **** * Summary:
 147:.\Generated_Source\PSoC5/WaveDAC8.c **** *  The StartEx function sets pointers and sizes for both waveforms
 148:.\Generated_Source\PSoC5/WaveDAC8.c **** *  and then starts the component.
 149:.\Generated_Source\PSoC5/WaveDAC8.c **** *
 150:.\Generated_Source\PSoC5/WaveDAC8.c **** * Parameters:  
 151:.\Generated_Source\PSoC5/WaveDAC8.c **** *   uint8 * wavePtr1:     Pointer to the waveform 1 array.
 152:.\Generated_Source\PSoC5/WaveDAC8.c **** *   uint16  sampleSize1:  The amount of samples in the waveform 1.
 153:.\Generated_Source\PSoC5/WaveDAC8.c **** *   uint8 * wavePtr2:     Pointer to the waveform 2 array.
 154:.\Generated_Source\PSoC5/WaveDAC8.c **** *   uint16  sampleSize2:  The amount of samples in the waveform 2.
 155:.\Generated_Source\PSoC5/WaveDAC8.c **** *
 156:.\Generated_Source\PSoC5/WaveDAC8.c **** * Return: 
 157:.\Generated_Source\PSoC5/WaveDAC8.c **** *  None
ARM GAS  C:\Users\Ian\AppData\Local\Temp\cceQdx7E.s 			page 5


 158:.\Generated_Source\PSoC5/WaveDAC8.c **** *
 159:.\Generated_Source\PSoC5/WaveDAC8.c **** * Reentrant:
 160:.\Generated_Source\PSoC5/WaveDAC8.c **** *  No
 161:.\Generated_Source\PSoC5/WaveDAC8.c **** *
 162:.\Generated_Source\PSoC5/WaveDAC8.c **** *******************************************************************************/
 163:.\Generated_Source\PSoC5/WaveDAC8.c **** void WaveDAC8_StartEx(const uint8 * wavePtr1, uint16 sampleSize1, const uint8 * wavePtr2, uint16 sa
 164:.\Generated_Source\PSoC5/WaveDAC8.c **** 
 165:.\Generated_Source\PSoC5/WaveDAC8.c **** {
 166:.\Generated_Source\PSoC5/WaveDAC8.c **** 	WaveDAC8_Wave1Setup(wavePtr1, sampleSize1);
 167:.\Generated_Source\PSoC5/WaveDAC8.c **** 	WaveDAC8_Wave2Setup(wavePtr2, sampleSize2);
 168:.\Generated_Source\PSoC5/WaveDAC8.c **** 	WaveDAC8_Start();
 169:.\Generated_Source\PSoC5/WaveDAC8.c **** }
 170:.\Generated_Source\PSoC5/WaveDAC8.c **** 
 171:.\Generated_Source\PSoC5/WaveDAC8.c **** 
 172:.\Generated_Source\PSoC5/WaveDAC8.c **** /*******************************************************************************
 173:.\Generated_Source\PSoC5/WaveDAC8.c **** * Function Name: WaveDAC8_Stop
 174:.\Generated_Source\PSoC5/WaveDAC8.c **** ********************************************************************************
 175:.\Generated_Source\PSoC5/WaveDAC8.c **** *
 176:.\Generated_Source\PSoC5/WaveDAC8.c **** * Summary:
 177:.\Generated_Source\PSoC5/WaveDAC8.c **** *  Stops the clock (if internal), disables the DMA channels
 178:.\Generated_Source\PSoC5/WaveDAC8.c **** *  and powers down the DAC.
 179:.\Generated_Source\PSoC5/WaveDAC8.c **** *
 180:.\Generated_Source\PSoC5/WaveDAC8.c **** * Parameters:  
 181:.\Generated_Source\PSoC5/WaveDAC8.c **** *  None  
 182:.\Generated_Source\PSoC5/WaveDAC8.c **** *
 183:.\Generated_Source\PSoC5/WaveDAC8.c **** * Return: 
 184:.\Generated_Source\PSoC5/WaveDAC8.c **** *  None
 185:.\Generated_Source\PSoC5/WaveDAC8.c **** *
 186:.\Generated_Source\PSoC5/WaveDAC8.c **** *******************************************************************************/
 187:.\Generated_Source\PSoC5/WaveDAC8.c **** void WaveDAC8_Stop(void) 
 188:.\Generated_Source\PSoC5/WaveDAC8.c **** {
  72              		.loc 1 188 0
  73              		.cfi_startproc
  74              		@ args = 0, pretend = 0, frame = 0
  75              		@ frame_needed = 0, uses_anonymous_args = 0
  76 0000 10B5     		push	{r4, lr}
  77              		.cfi_def_cfa_offset 8
  78              		.cfi_offset 4, -8
  79              		.cfi_offset 14, -4
 189:.\Generated_Source\PSoC5/WaveDAC8.c **** 	/* Turn off internal clock, if one present */
 190:.\Generated_Source\PSoC5/WaveDAC8.c **** 	#if(WaveDAC8_CLOCK_SRC == WaveDAC8_CLOCK_INT)  	
 191:.\Generated_Source\PSoC5/WaveDAC8.c **** 	   WaveDAC8_DacClk_Stop();
  80              		.loc 1 191 0
  81 0002 FFF7FEFF 		bl	WaveDAC8_DacClk_Stop
  82              	.LVL5:
 192:.\Generated_Source\PSoC5/WaveDAC8.c **** 	#endif /* WaveDAC8_CLOCK_SRC == WaveDAC8_CLOCK_INT */
 193:.\Generated_Source\PSoC5/WaveDAC8.c **** 	
 194:.\Generated_Source\PSoC5/WaveDAC8.c **** 	/* Disble DMA channels */
 195:.\Generated_Source\PSoC5/WaveDAC8.c **** 	(void)CyDmaChDisable(WaveDAC8_Wave1Chan);
  83              		.loc 1 195 0
  84 0006 054C     		ldr	r4, .L7
  85 0008 2078     		ldrb	r0, [r4]	@ zero_extendqisi2
  86 000a FFF7FEFF 		bl	CyDmaChDisable
  87              	.LVL6:
 196:.\Generated_Source\PSoC5/WaveDAC8.c **** 	(void)CyDmaChDisable(WaveDAC8_Wave2Chan);
  88              		.loc 1 196 0
  89 000e 6078     		ldrb	r0, [r4, #1]	@ zero_extendqisi2
ARM GAS  C:\Users\Ian\AppData\Local\Temp\cceQdx7E.s 			page 6


  90 0010 FFF7FEFF 		bl	CyDmaChDisable
  91              	.LVL7:
 197:.\Generated_Source\PSoC5/WaveDAC8.c **** 
 198:.\Generated_Source\PSoC5/WaveDAC8.c **** 	/* Disable power to DAC */
 199:.\Generated_Source\PSoC5/WaveDAC8.c **** 	WaveDAC8_VDAC8_Stop();
  92              		.loc 1 199 0
  93 0014 FFF7FEFF 		bl	WaveDAC8_VDAC8_Stop
  94              	.LVL8:
  95 0018 10BD     		pop	{r4, pc}
  96              	.L8:
  97 001a 00BF     		.align	2
  98              	.L7:
  99 001c 00000000 		.word	.LANCHOR0
 100              		.cfi_endproc
 101              	.LFE4:
 102              		.size	WaveDAC8_Stop, .-WaveDAC8_Stop
 103              		.section	.text.WaveDAC8_Wave1Setup,"ax",%progbits
 104              		.align	2
 105              		.global	WaveDAC8_Wave1Setup
 106              		.thumb
 107              		.thumb_func
 108              		.type	WaveDAC8_Wave1Setup, %function
 109              	WaveDAC8_Wave1Setup:
 110              	.LFB5:
 200:.\Generated_Source\PSoC5/WaveDAC8.c **** }
 201:.\Generated_Source\PSoC5/WaveDAC8.c **** 
 202:.\Generated_Source\PSoC5/WaveDAC8.c **** 
 203:.\Generated_Source\PSoC5/WaveDAC8.c **** /*******************************************************************************
 204:.\Generated_Source\PSoC5/WaveDAC8.c **** * Function Name: WaveDAC8_Wave1Setup
 205:.\Generated_Source\PSoC5/WaveDAC8.c **** ********************************************************************************
 206:.\Generated_Source\PSoC5/WaveDAC8.c **** *
 207:.\Generated_Source\PSoC5/WaveDAC8.c **** * Summary:
 208:.\Generated_Source\PSoC5/WaveDAC8.c **** *  Sets pointer and size for waveform 1.                                    
 209:.\Generated_Source\PSoC5/WaveDAC8.c **** *
 210:.\Generated_Source\PSoC5/WaveDAC8.c **** * Parameters:  
 211:.\Generated_Source\PSoC5/WaveDAC8.c **** *  uint8 * WavePtr:     Pointer to the waveform array.
 212:.\Generated_Source\PSoC5/WaveDAC8.c **** *  uint16  SampleSize:  The amount of samples in the waveform.
 213:.\Generated_Source\PSoC5/WaveDAC8.c **** *
 214:.\Generated_Source\PSoC5/WaveDAC8.c **** * Return: 
 215:.\Generated_Source\PSoC5/WaveDAC8.c **** *  None 
 216:.\Generated_Source\PSoC5/WaveDAC8.c **** *
 217:.\Generated_Source\PSoC5/WaveDAC8.c **** *******************************************************************************/
 218:.\Generated_Source\PSoC5/WaveDAC8.c **** void WaveDAC8_Wave1Setup(const uint8 * wavePtr, uint16 sampleSize)
 219:.\Generated_Source\PSoC5/WaveDAC8.c **** 
 220:.\Generated_Source\PSoC5/WaveDAC8.c **** {
 111              		.loc 1 220 0
 112              		.cfi_startproc
 113              		@ args = 0, pretend = 0, frame = 0
 114              		@ frame_needed = 0, uses_anonymous_args = 0
 115              	.LVL9:
 116 0000 70B5     		push	{r4, r5, r6, lr}
 117              		.cfi_def_cfa_offset 16
 118              		.cfi_offset 4, -16
 119              		.cfi_offset 5, -12
 120              		.cfi_offset 6, -8
 121              		.cfi_offset 14, -4
 122 0002 0546     		mov	r5, r0
ARM GAS  C:\Users\Ian\AppData\Local\Temp\cceQdx7E.s 			page 7


 123 0004 0E46     		mov	r6, r1
 221:.\Generated_Source\PSoC5/WaveDAC8.c **** 	#if (CY_PSOC3)
 222:.\Generated_Source\PSoC5/WaveDAC8.c **** 		uint16 memoryType; /* determining the source memory type */
 223:.\Generated_Source\PSoC5/WaveDAC8.c **** 		memoryType = (WaveDAC8_HI16FLASHPTR == HI16(wavePtr)) ? HI16(CYDEV_FLS_BASE) : HI16(CYDEV_SRAM_BA
 224:.\Generated_Source\PSoC5/WaveDAC8.c **** 		
 225:.\Generated_Source\PSoC5/WaveDAC8.c **** 		WaveDAC8_Wave1Chan = WaveDAC8_Wave1_DMA_DmaInitialize(
 226:.\Generated_Source\PSoC5/WaveDAC8.c **** 		WaveDAC8_Wave1_DMA_BYTES_PER_BURST, WaveDAC8_Wave1_DMA_REQUEST_PER_BURST,
 227:.\Generated_Source\PSoC5/WaveDAC8.c **** 		memoryType, HI16(CYDEV_PERIPH_BASE));
 228:.\Generated_Source\PSoC5/WaveDAC8.c **** 	#else /* PSoC 5 */
 229:.\Generated_Source\PSoC5/WaveDAC8.c **** 		WaveDAC8_Wave1Chan = WaveDAC8_Wave1_DMA_DmaInitialize(
 124              		.loc 1 229 0
 125 0006 0120     		movs	r0, #1
 126              	.LVL10:
 127 0008 0146     		mov	r1, r0
 128              	.LVL11:
 129 000a 2A0C     		lsrs	r2, r5, #16
 130 000c 4FF48043 		mov	r3, #16384
 131 0010 FFF7FEFF 		bl	WaveDAC8_Wave1_DMA_DmaInitialize
 132              	.LVL12:
 133 0014 094C     		ldr	r4, .L11
 134 0016 2070     		strb	r0, [r4]
 230:.\Generated_Source\PSoC5/WaveDAC8.c **** 		WaveDAC8_Wave1_DMA_BYTES_PER_BURST, WaveDAC8_Wave1_DMA_REQUEST_PER_BURST,
 231:.\Generated_Source\PSoC5/WaveDAC8.c **** 		HI16(wavePtr), HI16(WaveDAC8_DAC8__D));
 232:.\Generated_Source\PSoC5/WaveDAC8.c **** 	#endif /* CY_PSOC3 */
 233:.\Generated_Source\PSoC5/WaveDAC8.c **** 	
 234:.\Generated_Source\PSoC5/WaveDAC8.c **** 	/*
 235:.\Generated_Source\PSoC5/WaveDAC8.c **** 	* TD is looping on itself. 
 236:.\Generated_Source\PSoC5/WaveDAC8.c ****     * Increment the source address, but not the destination address. 
 237:.\Generated_Source\PSoC5/WaveDAC8.c **** 	*/
 238:.\Generated_Source\PSoC5/WaveDAC8.c **** 	(void)CyDmaTdSetConfiguration(WaveDAC8_Wave1TD, sampleSize, WaveDAC8_Wave1TD, 
 135              		.loc 1 238 0
 136 0018 A278     		ldrb	r2, [r4, #2]	@ zero_extendqisi2
 137 001a 1046     		mov	r0, r2
 138 001c 3146     		mov	r1, r6
 139 001e 0123     		movs	r3, #1
 140 0020 FFF7FEFF 		bl	CyDmaTdSetConfiguration
 141              	.LVL13:
 239:.\Generated_Source\PSoC5/WaveDAC8.c ****                                     (uint8)CY_DMA_TD_INC_SRC_ADR | (uint8)WaveDAC8_Wave1_DMA__TD_TE
 240:.\Generated_Source\PSoC5/WaveDAC8.c **** 	
 241:.\Generated_Source\PSoC5/WaveDAC8.c **** 	/* Set the TD source and destination address */
 242:.\Generated_Source\PSoC5/WaveDAC8.c **** 	(void)CyDmaTdSetAddress(WaveDAC8_Wave1TD, LO16((uint32)wavePtr), LO16(WaveDAC8_DAC8__D));
 142              		.loc 1 242 0
 143 0024 A078     		ldrb	r0, [r4, #2]	@ zero_extendqisi2
 144 0026 A9B2     		uxth	r1, r5
 145 0028 45F68132 		movw	r2, #23425
 146 002c FFF7FEFF 		bl	CyDmaTdSetAddress
 147              	.LVL14:
 243:.\Generated_Source\PSoC5/WaveDAC8.c **** 	
 244:.\Generated_Source\PSoC5/WaveDAC8.c **** 	/* Associate the TD with the channel */
 245:.\Generated_Source\PSoC5/WaveDAC8.c **** 	(void)CyDmaChSetInitialTd(WaveDAC8_Wave1Chan, WaveDAC8_Wave1TD);
 148              		.loc 1 245 0
 149 0030 2078     		ldrb	r0, [r4]	@ zero_extendqisi2
 150 0032 A178     		ldrb	r1, [r4, #2]	@ zero_extendqisi2
 151 0034 FFF7FEFF 		bl	CyDmaChSetInitialTd
 152              	.LVL15:
 153 0038 70BD     		pop	{r4, r5, r6, pc}
 154              	.LVL16:
ARM GAS  C:\Users\Ian\AppData\Local\Temp\cceQdx7E.s 			page 8


 155              	.L12:
 156 003a 00BF     		.align	2
 157              	.L11:
 158 003c 00000000 		.word	.LANCHOR0
 159              		.cfi_endproc
 160              	.LFE5:
 161              		.size	WaveDAC8_Wave1Setup, .-WaveDAC8_Wave1Setup
 162              		.section	.text.WaveDAC8_Wave2Setup,"ax",%progbits
 163              		.align	2
 164              		.global	WaveDAC8_Wave2Setup
 165              		.thumb
 166              		.thumb_func
 167              		.type	WaveDAC8_Wave2Setup, %function
 168              	WaveDAC8_Wave2Setup:
 169              	.LFB6:
 246:.\Generated_Source\PSoC5/WaveDAC8.c **** }
 247:.\Generated_Source\PSoC5/WaveDAC8.c **** 
 248:.\Generated_Source\PSoC5/WaveDAC8.c **** 
 249:.\Generated_Source\PSoC5/WaveDAC8.c **** /*******************************************************************************
 250:.\Generated_Source\PSoC5/WaveDAC8.c **** * Function Name: WaveDAC8_Wave2Setup
 251:.\Generated_Source\PSoC5/WaveDAC8.c **** ********************************************************************************
 252:.\Generated_Source\PSoC5/WaveDAC8.c **** *
 253:.\Generated_Source\PSoC5/WaveDAC8.c **** * Summary:
 254:.\Generated_Source\PSoC5/WaveDAC8.c **** *  Sets pointer and size for waveform 2.                                    
 255:.\Generated_Source\PSoC5/WaveDAC8.c **** *
 256:.\Generated_Source\PSoC5/WaveDAC8.c **** * Parameters:  
 257:.\Generated_Source\PSoC5/WaveDAC8.c **** *  uint8 * WavePtr:     Pointer to the waveform array.
 258:.\Generated_Source\PSoC5/WaveDAC8.c **** *  uint16  SampleSize:  The amount of samples in the waveform.
 259:.\Generated_Source\PSoC5/WaveDAC8.c **** *
 260:.\Generated_Source\PSoC5/WaveDAC8.c **** * Return: 
 261:.\Generated_Source\PSoC5/WaveDAC8.c **** *  None
 262:.\Generated_Source\PSoC5/WaveDAC8.c **** *
 263:.\Generated_Source\PSoC5/WaveDAC8.c **** *******************************************************************************/
 264:.\Generated_Source\PSoC5/WaveDAC8.c **** void WaveDAC8_Wave2Setup(const uint8 * wavePtr, uint16 sampleSize)
 265:.\Generated_Source\PSoC5/WaveDAC8.c ****  
 266:.\Generated_Source\PSoC5/WaveDAC8.c **** {
 170              		.loc 1 266 0
 171              		.cfi_startproc
 172              		@ args = 0, pretend = 0, frame = 0
 173              		@ frame_needed = 0, uses_anonymous_args = 0
 174              	.LVL17:
 175 0000 70B5     		push	{r4, r5, r6, lr}
 176              		.cfi_def_cfa_offset 16
 177              		.cfi_offset 4, -16
 178              		.cfi_offset 5, -12
 179              		.cfi_offset 6, -8
 180              		.cfi_offset 14, -4
 181 0002 0546     		mov	r5, r0
 182 0004 0E46     		mov	r6, r1
 267:.\Generated_Source\PSoC5/WaveDAC8.c **** 	#if (CY_PSOC3)
 268:.\Generated_Source\PSoC5/WaveDAC8.c **** 		uint16 memoryType; /* determining the source memory type */
 269:.\Generated_Source\PSoC5/WaveDAC8.c **** 		memoryType = (WaveDAC8_HI16FLASHPTR == HI16(wavePtr)) ? HI16(CYDEV_FLS_BASE) : HI16(CYDEV_SRAM_BA
 270:.\Generated_Source\PSoC5/WaveDAC8.c **** 			
 271:.\Generated_Source\PSoC5/WaveDAC8.c **** 		WaveDAC8_Wave2Chan = WaveDAC8_Wave2_DMA_DmaInitialize(
 272:.\Generated_Source\PSoC5/WaveDAC8.c **** 		WaveDAC8_Wave2_DMA_BYTES_PER_BURST, WaveDAC8_Wave2_DMA_REQUEST_PER_BURST,
 273:.\Generated_Source\PSoC5/WaveDAC8.c **** 		memoryType, HI16(CYDEV_PERIPH_BASE));
 274:.\Generated_Source\PSoC5/WaveDAC8.c **** 	#else /* PSoC 5 */
ARM GAS  C:\Users\Ian\AppData\Local\Temp\cceQdx7E.s 			page 9


 275:.\Generated_Source\PSoC5/WaveDAC8.c **** 		WaveDAC8_Wave2Chan = WaveDAC8_Wave2_DMA_DmaInitialize(
 183              		.loc 1 275 0
 184 0006 0120     		movs	r0, #1
 185              	.LVL18:
 186 0008 0146     		mov	r1, r0
 187              	.LVL19:
 188 000a 2A0C     		lsrs	r2, r5, #16
 189 000c 4FF48043 		mov	r3, #16384
 190 0010 FFF7FEFF 		bl	WaveDAC8_Wave2_DMA_DmaInitialize
 191              	.LVL20:
 192 0014 094C     		ldr	r4, .L15
 193 0016 6070     		strb	r0, [r4, #1]
 276:.\Generated_Source\PSoC5/WaveDAC8.c **** 		WaveDAC8_Wave2_DMA_BYTES_PER_BURST, WaveDAC8_Wave2_DMA_REQUEST_PER_BURST,
 277:.\Generated_Source\PSoC5/WaveDAC8.c **** 		HI16(wavePtr), HI16(WaveDAC8_DAC8__D));
 278:.\Generated_Source\PSoC5/WaveDAC8.c **** 	#endif /* CY_PSOC3 */
 279:.\Generated_Source\PSoC5/WaveDAC8.c **** 	
 280:.\Generated_Source\PSoC5/WaveDAC8.c **** 	/*
 281:.\Generated_Source\PSoC5/WaveDAC8.c **** 	* TD is looping on itself. 
 282:.\Generated_Source\PSoC5/WaveDAC8.c **** 	* Increment the source address, but not the destination address. 
 283:.\Generated_Source\PSoC5/WaveDAC8.c **** 	*/
 284:.\Generated_Source\PSoC5/WaveDAC8.c **** 	(void)CyDmaTdSetConfiguration(WaveDAC8_Wave2TD, sampleSize, WaveDAC8_Wave2TD, 
 194              		.loc 1 284 0
 195 0018 E278     		ldrb	r2, [r4, #3]	@ zero_extendqisi2
 196 001a 1046     		mov	r0, r2
 197 001c 3146     		mov	r1, r6
 198 001e 0123     		movs	r3, #1
 199 0020 FFF7FEFF 		bl	CyDmaTdSetConfiguration
 200              	.LVL21:
 285:.\Generated_Source\PSoC5/WaveDAC8.c ****                                     (uint8)CY_DMA_TD_INC_SRC_ADR | (uint8)WaveDAC8_Wave2_DMA__TD_TE
 286:.\Generated_Source\PSoC5/WaveDAC8.c **** 	
 287:.\Generated_Source\PSoC5/WaveDAC8.c **** 	/* Set the TD source and destination address */
 288:.\Generated_Source\PSoC5/WaveDAC8.c **** 	(void)CyDmaTdSetAddress(WaveDAC8_Wave2TD, LO16((uint32)wavePtr), LO16(WaveDAC8_DAC8__D));
 201              		.loc 1 288 0
 202 0024 E078     		ldrb	r0, [r4, #3]	@ zero_extendqisi2
 203 0026 A9B2     		uxth	r1, r5
 204 0028 45F68132 		movw	r2, #23425
 205 002c FFF7FEFF 		bl	CyDmaTdSetAddress
 206              	.LVL22:
 289:.\Generated_Source\PSoC5/WaveDAC8.c **** 	
 290:.\Generated_Source\PSoC5/WaveDAC8.c **** 	/* Associate the TD with the channel */
 291:.\Generated_Source\PSoC5/WaveDAC8.c **** 	(void)CyDmaChSetInitialTd(WaveDAC8_Wave2Chan, WaveDAC8_Wave2TD);
 207              		.loc 1 291 0
 208 0030 6078     		ldrb	r0, [r4, #1]	@ zero_extendqisi2
 209 0032 E178     		ldrb	r1, [r4, #3]	@ zero_extendqisi2
 210 0034 FFF7FEFF 		bl	CyDmaChSetInitialTd
 211              	.LVL23:
 212 0038 70BD     		pop	{r4, r5, r6, pc}
 213              	.LVL24:
 214              	.L16:
 215 003a 00BF     		.align	2
 216              	.L15:
 217 003c 00000000 		.word	.LANCHOR0
 218              		.cfi_endproc
 219              	.LFE6:
 220              		.size	WaveDAC8_Wave2Setup, .-WaveDAC8_Wave2Setup
 221              		.section	.text.WaveDAC8_Init,"ax",%progbits
 222              		.align	2
ARM GAS  C:\Users\Ian\AppData\Local\Temp\cceQdx7E.s 			page 10


 223              		.global	WaveDAC8_Init
 224              		.thumb
 225              		.thumb_func
 226              		.type	WaveDAC8_Init, %function
 227              	WaveDAC8_Init:
 228              	.LFB0:
  44:.\Generated_Source\PSoC5/WaveDAC8.c **** 	WaveDAC8_VDAC8_Init();
 229              		.loc 1 44 0
 230              		.cfi_startproc
 231              		@ args = 0, pretend = 0, frame = 0
 232              		@ frame_needed = 0, uses_anonymous_args = 0
 233 0000 10B5     		push	{r4, lr}
 234              		.cfi_def_cfa_offset 8
 235              		.cfi_offset 4, -8
 236              		.cfi_offset 14, -4
  45:.\Generated_Source\PSoC5/WaveDAC8.c **** 	WaveDAC8_VDAC8_SetSpeed(WaveDAC8_HIGHSPEED);
 237              		.loc 1 45 0
 238 0002 FFF7FEFF 		bl	WaveDAC8_VDAC8_Init
 239              	.LVL25:
  46:.\Generated_Source\PSoC5/WaveDAC8.c **** 	WaveDAC8_VDAC8_SetRange(WaveDAC8_DAC_RANGE);
 240              		.loc 1 46 0
 241 0006 0220     		movs	r0, #2
 242 0008 FFF7FEFF 		bl	WaveDAC8_VDAC8_SetSpeed
 243              	.LVL26:
  47:.\Generated_Source\PSoC5/WaveDAC8.c **** 
 244              		.loc 1 47 0
 245 000c 0420     		movs	r0, #4
 246 000e FFF7FEFF 		bl	WaveDAC8_VDAC8_SetRange
 247              	.LVL27:
  58:.\Generated_Source\PSoC5/WaveDAC8.c **** 	WaveDAC8_Wave2TD = CyDmaTdAllocate();
 248              		.loc 1 58 0
 249 0012 FFF7FEFF 		bl	CyDmaTdAllocate
 250              	.LVL28:
 251 0016 084C     		ldr	r4, .L19
 252 0018 A070     		strb	r0, [r4, #2]
  59:.\Generated_Source\PSoC5/WaveDAC8.c **** 	
 253              		.loc 1 59 0
 254 001a FFF7FEFF 		bl	CyDmaTdAllocate
 255              	.LVL29:
 256 001e E070     		strb	r0, [r4, #3]
  62:.\Generated_Source\PSoC5/WaveDAC8.c **** 	WaveDAC8_Wave2Setup(WaveDAC8_wave2, WaveDAC8_WAVE2_LENGTH) ;
 257              		.loc 1 62 0
 258 0020 064C     		ldr	r4, .L19+4
 259 0022 2046     		mov	r0, r4
 260 0024 6421     		movs	r1, #100
 261 0026 FFF7FEFF 		bl	WaveDAC8_Wave1Setup
 262              	.LVL30:
  63:.\Generated_Source\PSoC5/WaveDAC8.c **** 	
 263              		.loc 1 63 0
 264 002a 04F16400 		add	r0, r4, #100
 265 002e 6421     		movs	r1, #100
 266 0030 FFF7FEFF 		bl	WaveDAC8_Wave2Setup
 267              	.LVL31:
 268 0034 10BD     		pop	{r4, pc}
 269              	.L20:
 270 0036 00BF     		.align	2
 271              	.L19:
ARM GAS  C:\Users\Ian\AppData\Local\Temp\cceQdx7E.s 			page 11


 272 0038 00000000 		.word	.LANCHOR0
 273 003c 00000000 		.word	.LANCHOR1
 274              		.cfi_endproc
 275              	.LFE0:
 276              		.size	WaveDAC8_Init, .-WaveDAC8_Init
 277              		.section	.text.WaveDAC8_Start,"ax",%progbits
 278              		.align	2
 279              		.global	WaveDAC8_Start
 280              		.thumb
 281              		.thumb_func
 282              		.type	WaveDAC8_Start, %function
 283              	WaveDAC8_Start:
 284              	.LFB2:
 130:.\Generated_Source\PSoC5/WaveDAC8.c **** 	/* If not Initialized then initialize all required hardware and software */
 285              		.loc 1 130 0
 286              		.cfi_startproc
 287              		@ args = 0, pretend = 0, frame = 0
 288              		@ frame_needed = 0, uses_anonymous_args = 0
 289 0000 08B5     		push	{r3, lr}
 290              		.cfi_def_cfa_offset 8
 291              		.cfi_offset 3, -8
 292              		.cfi_offset 14, -4
 132:.\Generated_Source\PSoC5/WaveDAC8.c **** 	{
 293              		.loc 1 132 0
 294 0002 054B     		ldr	r3, .L24
 295 0004 1B79     		ldrb	r3, [r3, #4]	@ zero_extendqisi2
 296 0006 23B9     		cbnz	r3, .L22
 134:.\Generated_Source\PSoC5/WaveDAC8.c **** 		WaveDAC8_initVar = 1u;
 297              		.loc 1 134 0
 298 0008 FFF7FEFF 		bl	WaveDAC8_Init
 299              	.LVL32:
 135:.\Generated_Source\PSoC5/WaveDAC8.c **** 	}
 300              		.loc 1 135 0
 301 000c 0122     		movs	r2, #1
 302 000e 024B     		ldr	r3, .L24
 303 0010 1A71     		strb	r2, [r3, #4]
 304              	.L22:
 138:.\Generated_Source\PSoC5/WaveDAC8.c **** }
 305              		.loc 1 138 0
 306 0012 FFF7FEFF 		bl	WaveDAC8_Enable
 307              	.LVL33:
 308 0016 08BD     		pop	{r3, pc}
 309              	.L25:
 310              		.align	2
 311              	.L24:
 312 0018 00000000 		.word	.LANCHOR0
 313              		.cfi_endproc
 314              	.LFE2:
 315              		.size	WaveDAC8_Start, .-WaveDAC8_Start
 316              		.section	.text.WaveDAC8_StartEx,"ax",%progbits
 317              		.align	2
 318              		.global	WaveDAC8_StartEx
 319              		.thumb
 320              		.thumb_func
 321              		.type	WaveDAC8_StartEx, %function
 322              	WaveDAC8_StartEx:
 323              	.LFB3:
ARM GAS  C:\Users\Ian\AppData\Local\Temp\cceQdx7E.s 			page 12


 165:.\Generated_Source\PSoC5/WaveDAC8.c **** 	WaveDAC8_Wave1Setup(wavePtr1, sampleSize1);
 324              		.loc 1 165 0
 325              		.cfi_startproc
 326              		@ args = 0, pretend = 0, frame = 0
 327              		@ frame_needed = 0, uses_anonymous_args = 0
 328              	.LVL34:
 329 0000 38B5     		push	{r3, r4, r5, lr}
 330              		.cfi_def_cfa_offset 16
 331              		.cfi_offset 3, -16
 332              		.cfi_offset 4, -12
 333              		.cfi_offset 5, -8
 334              		.cfi_offset 14, -4
 335 0002 1546     		mov	r5, r2
 336 0004 1C46     		mov	r4, r3
 166:.\Generated_Source\PSoC5/WaveDAC8.c **** 	WaveDAC8_Wave2Setup(wavePtr2, sampleSize2);
 337              		.loc 1 166 0
 338 0006 FFF7FEFF 		bl	WaveDAC8_Wave1Setup
 339              	.LVL35:
 167:.\Generated_Source\PSoC5/WaveDAC8.c **** 	WaveDAC8_Start();
 340              		.loc 1 167 0
 341 000a 2846     		mov	r0, r5
 342 000c 2146     		mov	r1, r4
 343 000e FFF7FEFF 		bl	WaveDAC8_Wave2Setup
 344              	.LVL36:
 168:.\Generated_Source\PSoC5/WaveDAC8.c **** }
 345              		.loc 1 168 0
 346 0012 FFF7FEFF 		bl	WaveDAC8_Start
 347              	.LVL37:
 348 0016 38BD     		pop	{r3, r4, r5, pc}
 349              		.cfi_endproc
 350              	.LFE3:
 351              		.size	WaveDAC8_StartEx, .-WaveDAC8_StartEx
 352              		.global	WaveDAC8_wave2
 353              		.global	WaveDAC8_wave1
 354              		.global	WaveDAC8_initVar
 355              		.section	.rodata
 356              		.align	2
 357              		.set	.LANCHOR1,. + 0
 358              		.type	WaveDAC8_wave1, %object
 359              		.size	WaveDAC8_wave1, 100
 360              	WaveDAC8_wave1:
 361 0000 5E       		.byte	94
 362 0001 5E       		.byte	94
 363 0002 5E       		.byte	94
 364 0003 5E       		.byte	94
 365 0004 5E       		.byte	94
 366 0005 5E       		.byte	94
 367 0006 5E       		.byte	94
 368 0007 5E       		.byte	94
 369 0008 5E       		.byte	94
 370 0009 5E       		.byte	94
 371 000a 5E       		.byte	94
 372 000b 5E       		.byte	94
 373 000c 5E       		.byte	94
 374 000d 5E       		.byte	94
 375 000e 5E       		.byte	94
 376 000f 5E       		.byte	94
ARM GAS  C:\Users\Ian\AppData\Local\Temp\cceQdx7E.s 			page 13


 377 0010 5E       		.byte	94
 378 0011 5E       		.byte	94
 379 0012 5E       		.byte	94
 380 0013 5E       		.byte	94
 381 0014 5E       		.byte	94
 382 0015 5E       		.byte	94
 383 0016 5E       		.byte	94
 384 0017 5E       		.byte	94
 385 0018 5E       		.byte	94
 386 0019 5E       		.byte	94
 387 001a 5E       		.byte	94
 388 001b 5E       		.byte	94
 389 001c 5E       		.byte	94
 390 001d 5E       		.byte	94
 391 001e 5E       		.byte	94
 392 001f 5E       		.byte	94
 393 0020 5E       		.byte	94
 394 0021 5E       		.byte	94
 395 0022 5E       		.byte	94
 396 0023 5E       		.byte	94
 397 0024 5E       		.byte	94
 398 0025 5E       		.byte	94
 399 0026 5E       		.byte	94
 400 0027 5E       		.byte	94
 401 0028 5E       		.byte	94
 402 0029 5E       		.byte	94
 403 002a 5E       		.byte	94
 404 002b 5E       		.byte	94
 405 002c 5E       		.byte	94
 406 002d 5E       		.byte	94
 407 002e 5E       		.byte	94
 408 002f 5E       		.byte	94
 409 0030 5E       		.byte	94
 410 0031 5E       		.byte	94
 411 0032 1F       		.byte	31
 412 0033 1F       		.byte	31
 413 0034 1F       		.byte	31
 414 0035 1F       		.byte	31
 415 0036 1F       		.byte	31
 416 0037 1F       		.byte	31
 417 0038 1F       		.byte	31
 418 0039 1F       		.byte	31
 419 003a 1F       		.byte	31
 420 003b 1F       		.byte	31
 421 003c 1F       		.byte	31
 422 003d 1F       		.byte	31
 423 003e 1F       		.byte	31
 424 003f 1F       		.byte	31
 425 0040 1F       		.byte	31
 426 0041 1F       		.byte	31
 427 0042 1F       		.byte	31
 428 0043 1F       		.byte	31
 429 0044 1F       		.byte	31
 430 0045 1F       		.byte	31
 431 0046 1F       		.byte	31
 432 0047 1F       		.byte	31
 433 0048 1F       		.byte	31
ARM GAS  C:\Users\Ian\AppData\Local\Temp\cceQdx7E.s 			page 14


 434 0049 1F       		.byte	31
 435 004a 1F       		.byte	31
 436 004b 1F       		.byte	31
 437 004c 1F       		.byte	31
 438 004d 1F       		.byte	31
 439 004e 1F       		.byte	31
 440 004f 1F       		.byte	31
 441 0050 1F       		.byte	31
 442 0051 1F       		.byte	31
 443 0052 1F       		.byte	31
 444 0053 1F       		.byte	31
 445 0054 1F       		.byte	31
 446 0055 1F       		.byte	31
 447 0056 1F       		.byte	31
 448 0057 1F       		.byte	31
 449 0058 1F       		.byte	31
 450 0059 1F       		.byte	31
 451 005a 1F       		.byte	31
 452 005b 1F       		.byte	31
 453 005c 1F       		.byte	31
 454 005d 1F       		.byte	31
 455 005e 1F       		.byte	31
 456 005f 1F       		.byte	31
 457 0060 1F       		.byte	31
 458 0061 1F       		.byte	31
 459 0062 1F       		.byte	31
 460 0063 1F       		.byte	31
 461              		.type	WaveDAC8_wave2, %object
 462              		.size	WaveDAC8_wave2, 100
 463              	WaveDAC8_wave2:
 464 0064 FC       		.byte	-4
 465 0065 FC       		.byte	-4
 466 0066 FC       		.byte	-4
 467 0067 FC       		.byte	-4
 468 0068 FC       		.byte	-4
 469 0069 FC       		.byte	-4
 470 006a FC       		.byte	-4
 471 006b FC       		.byte	-4
 472 006c FC       		.byte	-4
 473 006d FC       		.byte	-4
 474 006e FC       		.byte	-4
 475 006f FC       		.byte	-4
 476 0070 FC       		.byte	-4
 477 0071 FC       		.byte	-4
 478 0072 FC       		.byte	-4
 479 0073 FC       		.byte	-4
 480 0074 FC       		.byte	-4
 481 0075 FC       		.byte	-4
 482 0076 FC       		.byte	-4
 483 0077 FC       		.byte	-4
 484 0078 FC       		.byte	-4
 485 0079 FC       		.byte	-4
 486 007a FC       		.byte	-4
 487 007b FC       		.byte	-4
 488 007c FC       		.byte	-4
 489 007d FC       		.byte	-4
 490 007e FC       		.byte	-4
ARM GAS  C:\Users\Ian\AppData\Local\Temp\cceQdx7E.s 			page 15


 491 007f FC       		.byte	-4
 492 0080 FC       		.byte	-4
 493 0081 FC       		.byte	-4
 494 0082 FC       		.byte	-4
 495 0083 FC       		.byte	-4
 496 0084 FC       		.byte	-4
 497 0085 FC       		.byte	-4
 498 0086 FC       		.byte	-4
 499 0087 FC       		.byte	-4
 500 0088 FC       		.byte	-4
 501 0089 FC       		.byte	-4
 502 008a FC       		.byte	-4
 503 008b FC       		.byte	-4
 504 008c FC       		.byte	-4
 505 008d FC       		.byte	-4
 506 008e FC       		.byte	-4
 507 008f FC       		.byte	-4
 508 0090 FC       		.byte	-4
 509 0091 FC       		.byte	-4
 510 0092 FC       		.byte	-4
 511 0093 FC       		.byte	-4
 512 0094 FC       		.byte	-4
 513 0095 FC       		.byte	-4
 514 0096 03       		.byte	3
 515 0097 03       		.byte	3
 516 0098 03       		.byte	3
 517 0099 03       		.byte	3
 518 009a 03       		.byte	3
 519 009b 03       		.byte	3
 520 009c 03       		.byte	3
 521 009d 03       		.byte	3
 522 009e 03       		.byte	3
 523 009f 03       		.byte	3
 524 00a0 03       		.byte	3
 525 00a1 03       		.byte	3
 526 00a2 03       		.byte	3
 527 00a3 03       		.byte	3
 528 00a4 03       		.byte	3
 529 00a5 03       		.byte	3
 530 00a6 03       		.byte	3
 531 00a7 03       		.byte	3
 532 00a8 03       		.byte	3
 533 00a9 03       		.byte	3
 534 00aa 03       		.byte	3
 535 00ab 03       		.byte	3
 536 00ac 03       		.byte	3
 537 00ad 03       		.byte	3
 538 00ae 03       		.byte	3
 539 00af 03       		.byte	3
 540 00b0 03       		.byte	3
 541 00b1 03       		.byte	3
 542 00b2 03       		.byte	3
 543 00b3 03       		.byte	3
 544 00b4 03       		.byte	3
 545 00b5 03       		.byte	3
 546 00b6 03       		.byte	3
 547 00b7 03       		.byte	3
ARM GAS  C:\Users\Ian\AppData\Local\Temp\cceQdx7E.s 			page 16


 548 00b8 03       		.byte	3
 549 00b9 03       		.byte	3
 550 00ba 03       		.byte	3
 551 00bb 03       		.byte	3
 552 00bc 03       		.byte	3
 553 00bd 03       		.byte	3
 554 00be 03       		.byte	3
 555 00bf 03       		.byte	3
 556 00c0 03       		.byte	3
 557 00c1 03       		.byte	3
 558 00c2 03       		.byte	3
 559 00c3 03       		.byte	3
 560 00c4 03       		.byte	3
 561 00c5 03       		.byte	3
 562 00c6 03       		.byte	3
 563 00c7 03       		.byte	3
 564              		.bss
 565              		.set	.LANCHOR0,. + 0
 566              		.type	WaveDAC8_Wave1Chan, %object
 567              		.size	WaveDAC8_Wave1Chan, 1
 568              	WaveDAC8_Wave1Chan:
 569 0000 00       		.space	1
 570              		.type	WaveDAC8_Wave2Chan, %object
 571              		.size	WaveDAC8_Wave2Chan, 1
 572              	WaveDAC8_Wave2Chan:
 573 0001 00       		.space	1
 574              		.type	WaveDAC8_Wave1TD, %object
 575              		.size	WaveDAC8_Wave1TD, 1
 576              	WaveDAC8_Wave1TD:
 577 0002 00       		.space	1
 578              		.type	WaveDAC8_Wave2TD, %object
 579              		.size	WaveDAC8_Wave2TD, 1
 580              	WaveDAC8_Wave2TD:
 581 0003 00       		.space	1
 582              		.type	WaveDAC8_initVar, %object
 583              		.size	WaveDAC8_initVar, 1
 584              	WaveDAC8_initVar:
 585 0004 00       		.space	1
 586              		.text
 587              	.Letext0:
 588              		.file 2 ".\\Generated_Source\\PSoC5\\cytypes.h"
 589              		.file 3 "Generated_Source\\PSoC5/WaveDAC8_VDAC8.h"
 590              		.file 4 "Generated_Source\\PSoC5/WaveDAC8_DacClk.h"
 591              		.file 5 "Generated_Source\\PSoC5/CYDMAC.H"
 592              		.file 6 "Generated_Source\\PSoC5/WaveDAC8_Wave1_DMA_dma.h"
 593              		.file 7 "Generated_Source\\PSoC5/WaveDAC8_Wave2_DMA_dma.h"