ARM Linker, 4.1 [Build 894] [Standard]

==============================================================================

Section Cross References

    startup_stm32f2xx.o(STACK) refers (Special) to heapauxi.o(.text) for __use_two_region_memory
    startup_stm32f2xx.o(HEAP) refers (Special) to heapauxi.o(.text) for __use_two_region_memory
    startup_stm32f2xx.o(RESET) refers (Special) to heapauxi.o(.text) for __use_two_region_memory
    startup_stm32f2xx.o(RESET) refers to startup_stm32f2xx.o(STACK) for __initial_sp
    startup_stm32f2xx.o(RESET) refers to startup_stm32f2xx.o(.text) for Reset_Handler
    startup_stm32f2xx.o(RESET) refers to stm32f2xx_it.o(.text) for NMI_Handler
    startup_stm32f2xx.o(RESET) refers to i2s.o(.text) for DMA1_Stream4_IRQHandler
    startup_stm32f2xx.o(.text) refers (Special) to heapauxi.o(.text) for __use_two_region_memory
    startup_stm32f2xx.o(.text) refers to system_stm32f2xx.o(.text) for SystemInit
    startup_stm32f2xx.o(.text) refers to __main.o(!!!main) for __main
    startup_stm32f2xx.o(.text) refers to startup_stm32f2xx.o(HEAP) for Heap_Mem
    startup_stm32f2xx.o(.text) refers to startup_stm32f2xx.o(STACK) for Stack_Mem
    stm32f2xx_adc.o(.text) refers to stm32f2xx_rcc.o(.text) for RCC_APB2PeriphResetCmd
    stm32f2xx_can.o(.text) refers to stm32f2xx_rcc.o(.text) for RCC_APB1PeriphResetCmd
    stm32f2xx_cryp.o(.text) refers to stm32f2xx_rcc.o(.text) for RCC_AHB2PeriphResetCmd
    stm32f2xx_cryp_aes.o(.text) refers to stm32f2xx_cryp.o(.text) for CRYP_KeyStructInit
    stm32f2xx_cryp_des.o(.text) refers to stm32f2xx_cryp.o(.text) for CRYP_KeyStructInit
    stm32f2xx_cryp_tdes.o(.text) refers to stm32f2xx_cryp.o(.text) for CRYP_KeyStructInit
    stm32f2xx_dac.o(.text) refers to stm32f2xx_rcc.o(.text) for RCC_APB1PeriphResetCmd
    stm32f2xx_gpio.o(.text) refers to stm32f2xx_rcc.o(.text) for RCC_AHB1PeriphResetCmd
    stm32f2xx_hash.o(.text) refers to stm32f2xx_rcc.o(.text) for RCC_AHB2PeriphResetCmd
    stm32f2xx_hash_md5.o(.text) refers to stm32f2xx_hash.o(.text) for HASH_DeInit
    stm32f2xx_hash_sha1.o(.text) refers to stm32f2xx_hash.o(.text) for HASH_DeInit
    stm32f2xx_i2c.o(.text) refers to stm32f2xx_rcc.o(.text) for RCC_APB1PeriphResetCmd
    stm32f2xx_pwr.o(.text) refers to stm32f2xx_rcc.o(.text) for RCC_APB1PeriphResetCmd
    stm32f2xx_rcc.o(.text) refers to stm32f2xx_rcc.o(.data) for APBAHBPrescTable
    stm32f2xx_rng.o(.text) refers to stm32f2xx_rcc.o(.text) for RCC_AHB2PeriphResetCmd
    stm32f2xx_sdio.o(.text) refers to stm32f2xx_rcc.o(.text) for RCC_APB2PeriphResetCmd
    stm32f2xx_spi.o(.text) refers to stm32f2xx_rcc.o(.text) for RCC_APB2PeriphResetCmd
    stm32f2xx_syscfg.o(.text) refers to stm32f2xx_rcc.o(.text) for RCC_APB2PeriphResetCmd
    stm32f2xx_tim.o(.text) refers to stm32f2xx_rcc.o(.text) for RCC_APB2PeriphResetCmd
    stm32f2xx_usart.o(.text) refers to stm32f2xx_rcc.o(.text) for RCC_APB2PeriphResetCmd
    stm32f2xx_wwdg.o(.text) refers to stm32f2xx_rcc.o(.text) for RCC_APB1PeriphResetCmd
    system_stm32f2xx.o(.text) refers to system_stm32f2xx.o(.data) for SystemCoreClock
    main.o(.text) refers to _printf_percent.o(.ARM.Collect$$_printf_percent$$00000000) for _printf_percent
    main.o(.text) refers to _printf_x.o(.ARM.Collect$$_printf_percent$$0000000C) for _printf_x
    main.o(.text) refers to _printf_hex_int.o(.text) for _printf_longlong_hex
    main.o(.text) refers to _printf_d.o(.ARM.Collect$$_printf_percent$$00000009) for _printf_d
    main.o(.text) refers to _printf_dec.o(.text) for _printf_int_dec
    main.o(.text) refers to misc.o(.text) for NVIC_PriorityGroupConfig
    main.o(.text) refers to noretval__2printf.o(.text) for __2printf
    main.o(.text) refers to diskio.o(.text) for disk_initialize
    main.o(.text) refers to ff.o(.text) for f_mount
    main.o(.text) refers to i2s.o(.text) for CODEC_I2S_Configuration
    main.o(.text) refers to uda1380.o(.text) for UDA1380_Configuration
    main.o(.text) refers to main.o(.bss) for buffer1
    main.o(.text) refers to main.o(.data) for SpeechDataOffset
    main.o(.text) refers to stm32f2xx_rcc.o(.text) for RCC_GetSYSCLKSource
    main.o(.text) refers to usart.o(.text) for USART_Configuration
    stm32f2xx_it.o(.text) refers to _printf_percent.o(.ARM.Collect$$_printf_percent$$00000000) for _printf_percent
    stm32f2xx_it.o(.text) refers to _printf_c.o(.ARM.Collect$$_printf_percent$$00000013) for _printf_c
    stm32f2xx_it.o(.text) refers to _printf_str.o(.text) for _printf_str
    stm32f2xx_it.o(.text) refers to stm32f2xx_usart.o(.text) for USART_GetITStatus
    stm32f2xx_it.o(.text) refers to noretval__2printf.o(.text) for __2printf
    stm32f2xx_it.o(.text) refers to sdcard.o(.text) for SD_ProcessIRQSrc
    usart.o(.text) refers (Special) to use_no_semi_2.o(.text) for __use_no_semihosting
    usart.o(.text) refers to misc.o(.text) for NVIC_Init
    usart.o(.text) refers to stm32f2xx_rcc.o(.text) for RCC_AHB1PeriphClockCmd
    usart.o(.text) refers to stm32f2xx_gpio.o(.text) for GPIO_PinAFConfig
    usart.o(.text) refers to stm32f2xx_usart.o(.text) for USART_Init
    usart.o(.data) refers (Special) to use_no_semi_2.o(.text) for __use_no_semihosting
    i2c.o(.text) refers to stm32f2xx_rcc.o(.text) for RCC_AHB1PeriphClockCmd
    i2c.o(.text) refers to stm32f2xx_gpio.o(.text) for GPIO_PinAFConfig
    i2c.o(.text) refers to stm32f2xx_i2c.o(.text) for I2C_DeInit
    i2c.o(.text) refers to i2c.o(.data) for I2C_TIMEOUT_MAX
    i2s.o(.text) refers to stm32f2xx_rcc.o(.text) for RCC_AHB1PeriphClockCmd
    i2s.o(.text) refers to stm32f2xx_gpio.o(.text) for GPIO_Init
    i2s.o(.text) refers to stm32f2xx_spi.o(.text) for SPI_I2S_DeInit
    i2s.o(.text) refers to stm32f2xx_dma.o(.text) for DMA_Cmd
    i2s.o(.text) refers to misc.o(.text) for NVIC_Init
    i2s.o(.text) refers to main.o(.text) for AUDIO_TransferComplete_CallBack
    i2s.o(.text) refers to i2s.o(.bss) for DMA_InitStructure
    i2s.o(.text) refers to uda1380.o(.data) for AudioRemSize
    uda1380.o(.text) refers to _printf_percent.o(.ARM.Collect$$_printf_percent$$00000000) for _printf_percent
    uda1380.o(.text) refers to _printf_x.o(.ARM.Collect$$_printf_percent$$0000000C) for _printf_x
    uda1380.o(.text) refers to _printf_hex_int.o(.text) for _printf_longlong_hex
    uda1380.o(.text) refers to i2c.o(.text) for CODEC_I2C_Configuration
    uda1380.o(.text) refers to noretval__2printf.o(.text) for __2printf
    uda1380.o(.text) refers to i2s.o(.text) for Audio_MAL_Play
    uda1380.o(.text) refers to uda1380.o(.data) for UDA1380InitData
    sdcard.o(.text) refers to stm32f2xx_sdio.o(.text) for SDIO_ClearFlag
    sdcard.o(.text) refers to sdcard.o(.data) for CardType
    sdcard.o(.text) refers to sdcard.o(.bss) for SDIO_CmdInitStructure
    sdcard.o(.text) refers to stm32f2xx_rcc.o(.text) for RCC_AHB1PeriphClockCmd
    sdcard.o(.text) refers to stm32f2xx_gpio.o(.text) for GPIO_PinAFConfig
    sdcard.o(.text) refers to stm32f2xx_dma.o(.text) for DMA_ClearFlag
    diskio.o(.text) refers to sdcard.o(.text) for SD_Init
    diskio.o(.text) refers to diskio.o(.bss) for SDCardInfo
    ff.o(.text) refers to diskio.o(.text) for disk_write
    ff.o(.text) refers to ff.o(.data) for FatFs
    use_no_semi_2.o(.text) refers (Special) to use_no_semi.o(.text) for __use_no_semihosting_swi
    __2printf.o(.text) refers to _printf_char_file.o(.text) for _printf_char_file
    __2printf.o(.text) refers to usart.o(.data) for __stdout
    noretval__2printf.o(.text) refers to _printf_char_file.o(.text) for _printf_char_file
    noretval__2printf.o(.text) refers to usart.o(.data) for __stdout
    __printf.o(.text) refers to _printf_percent.o(.ARM.Collect$$_printf_percent$$00000000) for _printf_percent
    _printf_str.o(.text) refers (Special) to _printf_char.o(.text) for _printf_cs_common
    _printf_dec.o(.text) refers to _printf_intcommon.o(.text) for _printf_int_common
    _printf_hex_ll.o(.text) refers to _printf_intcommon.o(.text) for _printf_int_common
    _printf_hex_ll.o(.text) refers to _printf_hex_ll.o(.constdata) for .constdata
    _printf_hex_int.o(.text) refers to _printf_intcommon.o(.text) for _printf_int_common
    _printf_hex_int.o(.text) refers to _printf_hex_int.o(.constdata) for .constdata
    _printf_hex_int_ll.o(.text) refers to _printf_intcommon.o(.text) for _printf_int_common
    _printf_hex_int_ll.o(.text) refers to _printf_hex_int_ll.o(.constdata) for .constdata
    _printf_hex_ptr.o(.text) refers to _printf_intcommon.o(.text) for _printf_int_common
    _printf_hex_ptr.o(.text) refers to _printf_hex_ptr.o(.constdata) for .constdata
    _printf_hex_int_ptr.o(.text) refers to _printf_intcommon.o(.text) for _printf_int_common
    _printf_hex_int_ptr.o(.text) refers to _printf_hex_int_ptr.o(.constdata) for .constdata
    _printf_hex_ll_ptr.o(.text) refers to _printf_intcommon.o(.text) for _printf_int_common
    _printf_hex_ll_ptr.o(.text) refers to _printf_hex_ll_ptr.o(.constdata) for .constdata
    _printf_hex_int_ll_ptr.o(.text) refers to _printf_intcommon.o(.text) for _printf_int_common
    _printf_hex_int_ll_ptr.o(.text) refers to _printf_hex_int_ll_ptr.o(.constdata) for .constdata
    __printf_flags.o(.text) refers to _printf_percent.o(.ARM.Collect$$_printf_percent$$00000000) for _printf_percent
    __printf_flags.o(.text) refers to __printf_flags.o(.constdata) for .constdata
    __printf_ss.o(.text) refers to _printf_percent.o(.ARM.Collect$$_printf_percent$$00000000) for _printf_percent
    __printf_flags_ss.o(.text) refers to _printf_percent.o(.ARM.Collect$$_printf_percent$$00000000) for _printf_percent
    __printf_flags_ss.o(.text) refers to __printf_flags_ss.o(.constdata) for .constdata
    __printf_wp.o(.text) refers to __printf_wp.o(i._is_digit) for _is_digit
    __printf_wp.o(.text) refers to _printf_percent.o(.ARM.Collect$$_printf_percent$$00000000) for _printf_percent
    __printf_flags_wp.o(.text) refers to __printf_wp.o(i._is_digit) for _is_digit
    __printf_flags_wp.o(.text) refers to _printf_percent.o(.ARM.Collect$$_printf_percent$$00000000) for _printf_percent
    __printf_flags_wp.o(.text) refers to __printf_flags_wp.o(.constdata) for .constdata
    __printf_ss_wp.o(.text) refers to __printf_wp.o(i._is_digit) for _is_digit
    __printf_ss_wp.o(.text) refers to _printf_percent.o(.ARM.Collect$$_printf_percent$$00000000) for _printf_percent
    __printf_flags_ss_wp.o(.text) refers to __printf_wp.o(i._is_digit) for _is_digit
    __printf_flags_ss_wp.o(.text) refers to _printf_percent.o(.ARM.Collect$$_printf_percent$$00000000) for _printf_percent
    __printf_flags_ss_wp.o(.text) refers to __printf_flags_ss_wp.o(.constdata) for .constdata
    _printf_c.o(.ARM.Collect$$_printf_percent$$00000013) refers (Weak) to _printf_char.o(.text) for _printf_char
    _printf_x.o(.ARM.Collect$$_printf_percent$$0000000C) refers (Weak) to _printf_hex_int.o(.text) for _printf_int_hex
    _printf_d.o(.ARM.Collect$$_printf_percent$$00000009) refers (Weak) to _printf_dec.o(.text) for _printf_int_dec
    _printf_percent.o(.ARM.Collect$$_printf_percent$$00000000) refers (Special) to _printf_percent_end.o(.ARM.Collect$$_printf_percent$$00000017) for _printf_percent_end
    __main.o(!!!main) refers to rtentry.o(.ARM.Collect$$rtentry$$00000000) for __rt_entry
    rtentry.o(.ARM.Collect$$rtentry$$00000000) refers (Special) to rtentry2.o(.ARM.Collect$$rtentry$$0000000A) for __rt_entry_li
    rtentry.o(.ARM.Collect$$rtentry$$00000000) refers (Special) to rtentry2.o(.ARM.Collect$$rtentry$$0000000D) for __rt_entry_main
    rtentry.o(.ARM.Collect$$rtentry$$00000000) refers (Special) to rtentry2.o(.ARM.Collect$$rtentry$$0000000C) for __rt_entry_postli_1
    rtentry.o(.ARM.Collect$$rtentry$$00000000) refers (Special) to rtentry2.o(.ARM.Collect$$rtentry$$00000009) for __rt_entry_postsh_1
    rtentry.o(.ARM.Collect$$rtentry$$00000000) refers (Special) to rtentry2.o(.ARM.Collect$$rtentry$$00000002) for __rt_entry_presh_1
    rtentry.o(.ARM.Collect$$rtentry$$00000000) refers (Special) to rtentry4.o(.ARM.Collect$$rtentry$$00000004) for __rt_entry_sh
    _printf_char.o(.text) refers (Weak) to _printf_str.o(.text) for _printf_str
    _printf_char_file.o(.text) refers to _printf_char_common.o(.text) for _printf_char_common
    _printf_char_file.o(.text) refers to ferror.o(.text) for ferror
    _printf_char_file.o(.text) refers to usart.o(.text) for fputc
    rtentry2.o(.ARM.Collect$$rtentry$$00000008) refers to boardinit2.o(.text) for _platform_post_stackheap_init
    rtentry2.o(.ARM.Collect$$rtentry$$0000000A) refers to libinit.o(.ARM.Collect$$libinit$$00000000) for __rt_lib_init
    rtentry2.o(.ARM.Collect$$rtentry$$0000000B) refers to boardinit3.o(.text) for _platform_post_lib_init
    rtentry2.o(.ARM.Collect$$rtentry$$0000000D) refers to main.o(.text) for main
    rtentry2.o(.ARM.Collect$$rtentry$$0000000D) refers to exit.o(.text) for exit
    rtentry2.o(.ARM.exidx) refers to rtentry2.o(.ARM.Collect$$rtentry$$00000001) for .ARM.Collect$$rtentry$$00000001
    rtentry2.o(.ARM.exidx) refers to rtentry2.o(.ARM.Collect$$rtentry$$00000008) for .ARM.Collect$$rtentry$$00000008
    rtentry2.o(.ARM.exidx) refers to rtentry2.o(.ARM.Collect$$rtentry$$0000000A) for .ARM.Collect$$rtentry$$0000000A
    rtentry2.o(.ARM.exidx) refers to rtentry2.o(.ARM.Collect$$rtentry$$0000000B) for .ARM.Collect$$rtentry$$0000000B
    rtentry2.o(.ARM.exidx) refers to rtentry2.o(.ARM.Collect$$rtentry$$0000000D) for .ARM.Collect$$rtentry$$0000000D
    rtentry4.o(.ARM.Collect$$rtentry$$00000004) refers to sys_stackheap_outer.o(.text) for __user_setup_stackheap
    rtentry4.o(.ARM.exidx) refers to rtentry4.o(.ARM.Collect$$rtentry$$00000004) for .ARM.Collect$$rtentry$$00000004
    _printf_char_common.o(.text) refers to __printf.o(.text) for __printf
    sys_stackheap_outer.o(.text) refers to libspace.o(.text) for __user_perproc_libspace
    sys_stackheap_outer.o(.text) refers to startup_stm32f2xx.o(.text) for __user_initial_stackheap
    exit.o(.text) refers to rtexit.o(.ARM.Collect$$rtexit$$00000000) for __rt_exit
    libinit.o(.ARM.Collect$$libinit$$00000000) refers (Special) to libinit2.o(.ARM.Collect$$libinit$$0000002A) for __rt_lib_init_alloca_1
    libinit.o(.ARM.Collect$$libinit$$00000000) refers (Special) to libinit2.o(.ARM.Collect$$libinit$$00000028) for __rt_lib_init_argv_1
    libinit.o(.ARM.Collect$$libinit$$00000000) refers (Special) to libinit2.o(.ARM.Collect$$libinit$$00000017) for __rt_lib_init_atexit_1
    libinit.o(.ARM.Collect$$libinit$$00000000) refers (Special) to libinit2.o(.ARM.Collect$$libinit$$0000001D) for __rt_lib_init_clock_1
    libinit.o(.ARM.Collect$$libinit$$00000000) refers (Special) to libinit2.o(.ARM.Collect$$libinit$$0000002E) for __rt_lib_init_cpp_1
    libinit.o(.ARM.Collect$$libinit$$00000000) refers (Special) to libinit2.o(.ARM.Collect$$libinit$$0000002C) for __rt_lib_init_exceptions_1
    libinit.o(.ARM.Collect$$libinit$$00000000) refers (Special) to libinit2.o(.ARM.Collect$$libinit$$0000001B) for __rt_lib_init_fp_trap_1
    libinit.o(.ARM.Collect$$libinit$$00000000) refers (Special) to libinit2.o(.ARM.Collect$$libinit$$0000001F) for __rt_lib_init_getenv_1
    libinit.o(.ARM.Collect$$libinit$$00000000) refers (Special) to libinit2.o(.ARM.Collect$$libinit$$00000006) for __rt_lib_init_heap_1
    libinit.o(.ARM.Collect$$libinit$$00000000) refers (Special) to libinit2.o(.ARM.Collect$$libinit$$0000000D) for __rt_lib_init_lc_collate_1
    libinit.o(.ARM.Collect$$libinit$$00000000) refers (Special) to libinit2.o(.ARM.Collect$$libinit$$0000000F) for __rt_lib_init_lc_ctype_1
    libinit.o(.ARM.Collect$$libinit$$00000000) refers (Special) to libinit2.o(.ARM.Collect$$libinit$$00000011) for __rt_lib_init_lc_monetary_1
    libinit.o(.ARM.Collect$$libinit$$00000000) refers (Special) to libinit2.o(.ARM.Collect$$libinit$$00000013) for __rt_lib_init_lc_numeric_1
    libinit.o(.ARM.Collect$$libinit$$00000000) refers (Special) to libinit2.o(.ARM.Collect$$libinit$$00000015) for __rt_lib_init_lc_time_1
    libinit.o(.ARM.Collect$$libinit$$00000000) refers (Special) to libinit2.o(.ARM.Collect$$libinit$$0000000A) for __rt_lib_init_rand_1
    libinit.o(.ARM.Collect$$libinit$$00000000) refers (Special) to libinit2.o(.ARM.Collect$$libinit$$0000002F) for __rt_lib_init_return
    libinit.o(.ARM.Collect$$libinit$$00000000) refers (Special) to libinit2.o(.ARM.Collect$$libinit$$00000019) for __rt_lib_init_signal_1
    libinit.o(.ARM.Collect$$libinit$$00000000) refers (Special) to libinit2.o(.ARM.Collect$$libinit$$00000021) for __rt_lib_init_stdio_1
    libinit.o(.ARM.Collect$$libinit$$00000000) refers (Special) to libinit2.o(.ARM.Collect$$libinit$$00000008) for __rt_lib_init_user_alloc_1
    libinit.o(.ARM.Collect$$libinit$$00000000) refers to fpinit.o(x$fpl$fpinit) for _fp_init
    libspace.o(.text) refers to libspace.o(.bss) for __libspace_start
    rtexit.o(.ARM.Collect$$rtexit$$00000000) refers (Special) to rtexit2.o(.ARM.Collect$$rtexit$$00000004) for __rt_exit_exit
    rtexit.o(.ARM.Collect$$rtexit$$00000000) refers (Special) to rtexit2.o(.ARM.Collect$$rtexit$$00000003) for __rt_exit_ls
    rtexit.o(.ARM.Collect$$rtexit$$00000000) refers (Special) to rtexit2.o(.ARM.Collect$$rtexit$$00000002) for __rt_exit_prels_1
    rtexit.o(.ARM.exidx) refers (Special) to rtexit2.o(.ARM.Collect$$rtexit$$00000004) for __rt_exit_exit
    rtexit.o(.ARM.exidx) refers (Special) to rtexit2.o(.ARM.Collect$$rtexit$$00000003) for __rt_exit_ls
    rtexit.o(.ARM.exidx) refers (Special) to rtexit2.o(.ARM.Collect$$rtexit$$00000002) for __rt_exit_prels_1
    rtexit.o(.ARM.exidx) refers to rtexit.o(.ARM.Collect$$rtexit$$00000000) for .ARM.Collect$$rtexit$$00000000
    libinit2.o(.ARM.Collect$$libinit$$0000000C) refers to libinit2.o(.ARM.Collect$$libinit$$0000000B) for .ARM.Collect$$libinit$$0000000B
    libinit2.o(.ARM.Collect$$libinit$$0000000E) refers to libinit2.o(.ARM.Collect$$libinit$$0000000B) for .ARM.Collect$$libinit$$0000000B
    libinit2.o(.ARM.Collect$$libinit$$00000010) refers to libinit2.o(.ARM.Collect$$libinit$$0000000B) for .ARM.Collect$$libinit$$0000000B
    libinit2.o(.ARM.Collect$$libinit$$00000012) refers to libinit2.o(.ARM.Collect$$libinit$$0000000B) for .ARM.Collect$$libinit$$0000000B
    libinit2.o(.ARM.Collect$$libinit$$00000014) refers to libinit2.o(.ARM.Collect$$libinit$$0000000B) for .ARM.Collect$$libinit$$0000000B
    libinit2.o(.ARM.Collect$$libinit$$00000022) refers to argv_veneer.o(.emb_text) for __ARM_argv_veneer
    libinit2.o(.ARM.Collect$$libinit$$00000023) refers to argv_veneer.o(.emb_text) for __ARM_argv_veneer
    fpinit.o(x$fpl$fpinit) refers to rt_fp_status_addr_intlibspace.o(.text) for __rt_fp_status_addr
    rtexit2.o(.ARM.Collect$$rtexit$$00000003) refers to libshutdown.o(.ARM.Collect$$libshutdown$$00000000) for __rt_lib_shutdown
    rtexit2.o(.ARM.Collect$$rtexit$$00000004) refers to usart.o(.text) for _sys_exit
    rtexit2.o(.ARM.exidx) refers to rtexit2.o(.ARM.Collect$$rtexit$$00000001) for .ARM.Collect$$rtexit$$00000001
    rtexit2.o(.ARM.exidx) refers to rtexit2.o(.ARM.Collect$$rtexit$$00000003) for .ARM.Collect$$rtexit$$00000003
    rtexit2.o(.ARM.exidx) refers to rtexit2.o(.ARM.Collect$$rtexit$$00000004) for .ARM.Collect$$rtexit$$00000004
    rt_fp_status_addr.o(.text) refers to rt_fp_status_addr.o(.bss) for __rt_fp_status_addr_data
    rt_fp_status_addr_intlibspace.o(.text) refers to libspace.o(.bss) for __libspace_start
    argv_veneer.o(.emb_text) refers to no_argv.o(.text) for __ARM_get_argv
    _get_argv_nomalloc.o(.text) refers (Special) to hrguard.o(.text) for __heap_region$guard
    _get_argv_nomalloc.o(.text) refers to defsig_rtmem_outer.o(.text) for __rt_SIGRTMEM
    _get_argv_nomalloc.o(.text) refers to sys_command.o(.text) for _sys_command_string
    libshutdown.o(.ARM.Collect$$libshutdown$$00000000) refers (Special) to libshutdown2.o(.ARM.Collect$$libshutdown$$00000006) for __rt_lib_shutdown_fp_trap_1
    libshutdown.o(.ARM.Collect$$libshutdown$$00000000) refers (Special) to libshutdown2.o(.ARM.Collect$$libshutdown$$0000000E) for __rt_lib_shutdown_heap_1
    libshutdown.o(.ARM.Collect$$libshutdown$$00000000) refers (Special) to libshutdown2.o(.ARM.Collect$$libshutdown$$0000000F) for __rt_lib_shutdown_return
    libshutdown.o(.ARM.Collect$$libshutdown$$00000000) refers (Special) to libshutdown2.o(.ARM.Collect$$libshutdown$$00000009) for __rt_lib_shutdown_signal_1
    libshutdown.o(.ARM.Collect$$libshutdown$$00000000) refers (Special) to libshutdown2.o(.ARM.Collect$$libshutdown$$00000003) for __rt_lib_shutdown_stdio_1
    libshutdown.o(.ARM.Collect$$libshutdown$$00000000) refers (Special) to libshutdown2.o(.ARM.Collect$$libshutdown$$0000000B) for __rt_lib_shutdown_user_alloc_1
    sys_command.o(.text) refers (Special) to use_no_semi.o(.text) for __I$use$semihosting
    sys_command.o(.text) refers (Special) to indicate_semi.o(.text) for __semihosting_library_function
    defsig_rtmem_outer.o(.text) refers to defsig_rtmem_inner.o(.text) for __rt_SIGRTMEM_inner
    defsig_rtmem_outer.o(.text) refers to defsig_exit.o(.text) for __sig_exit
    defsig_rtmem_formal.o(.text) refers to rt_raise.o(.text) for __rt_raise
    rt_raise.o(.text) refers to __raise.o(.text) for __raise
    rt_raise.o(.text) refers to usart.o(.text) for _sys_exit
    defsig_exit.o(.text) refers to usart.o(.text) for _sys_exit
    defsig_rtmem_inner.o(.text) refers to defsig_general.o(.text) for __default_signal_display
    __raise.o(.text) refers to defsig.o(CL$$defsig) for __default_signal_handler
    defsig_general.o(.text) refers to sys_wrch.o(.text) for _ttywrch
    sys_wrch.o(.text) refers (Special) to use_no_semi.o(.text) for __I$use$semihosting
    sys_wrch.o(.text) refers (Special) to indicate_semi.o(.text) for __semihosting_library_function
    defsig.o(CL$$defsig) refers to defsig_rtmem_inner.o(.text) for __rt_SIGRTMEM_inner
    defsig_abrt_inner.o(.text) refers to defsig_general.o(.text) for __default_signal_display
    defsig_fpe_inner.o(.text) refers to defsig_general.o(.text) for __default_signal_display
    defsig_rtred_inner.o(.text) refers to defsig_general.o(.text) for __default_signal_display
    defsig_stak_inner.o(.text) refers to defsig_general.o(.text) for __default_signal_display
    defsig_pvfn_inner.o(.text) refers to defsig_general.o(.text) for __default_signal_display
    defsig_cppl_inner.o(.text) refers to defsig_general.o(.text) for __default_signal_display
    defsig_segv_inner.o(.text) refers to defsig_general.o(.text) for __default_signal_display
    defsig_other.o(.text) refers to defsig_general.o(.text) for __default_signal_display


==============================================================================

Removing Unused input sections from the image.

    Removing stm32f2xx_adc.o(.text), (1118 bytes).
    Removing stm32f2xx_can.o(.text), (2548 bytes).
    Removing stm32f2xx_crc.o(.text), (72 bytes).
    Removing stm32f2xx_cryp.o(.text), (648 bytes).
    Removing stm32f2xx_cryp_aes.o(.text), (1508 bytes).
    Removing stm32f2xx_cryp_des.o(.text), (464 bytes).
    Removing stm32f2xx_cryp_tdes.o(.text), (528 bytes).
    Removing stm32f2xx_dac.o(.text), (492 bytes).
    Removing stm32f2xx_dbgmcu.o(.text), (100 bytes).
    Removing stm32f2xx_dcmi.o(.text), (396 bytes).
    Removing stm32f2xx_exti.o(.text), (284 bytes).
    Removing stm32f2xx_flash.o(.text), (1204 bytes).
    Removing stm32f2xx_fsmc.o(.text), (1564 bytes).
    Removing stm32f2xx_hash.o(.text), (496 bytes).
    Removing stm32f2xx_hash_md5.o(.text), (502 bytes).
    Removing stm32f2xx_hash_sha1.o(.text), (516 bytes).
    Removing stm32f2xx_iwdg.o(.text), (64 bytes).
    Removing stm32f2xx_pwr.o(.text), (220 bytes).
    Removing stm32f2xx_rng.o(.text), (160 bytes).
    Removing stm32f2xx_rtc.o(.text), (2760 bytes).
    Removing stm32f2xx_syscfg.o(.text), (140 bytes).
    Removing stm32f2xx_tim.o(.text), (3130 bytes).
    Removing stm32f2xx_wwdg.o(.text), (132 bytes).
    Removing core_cm3.o(.emb_text), (32 bytes).

24 unused section(s) (total 19078 bytes) removed from the image.

==============================================================================

Image Symbol Table

    Local Symbols

    Symbol Name                              Value     Ov Type        Size  Object(Section)

    ../../angel/boardlib.s                   0x00000000   Number         0  boardshut.o ABSOLUTE
    ../../angel/boardlib.s                   0x00000000   Number         0  boardinit1.o ABSOLUTE
    ../../angel/boardlib.s                   0x00000000   Number         0  boardinit2.o ABSOLUTE
    ../../angel/boardlib.s                   0x00000000   Number         0  boardinit3.o ABSOLUTE
    ../../angel/handlers.s                   0x00000000   Number         0  __scatter_copy.o ABSOLUTE
    ../../angel/handlers.s                   0x00000000   Number         0  __scatter_zi.o ABSOLUTE
    ../../angel/kernel.s                     0x00000000   Number         0  rtentry2.o ABSOLUTE
    ../../angel/kernel.s                     0x00000000   Number         0  rtexit2.o ABSOLUTE
    ../../angel/kernel.s                     0x00000000   Number         0  rtexit.o ABSOLUTE
    ../../angel/kernel.s                     0x00000000   Number         0  rtentry4.o ABSOLUTE
    ../../angel/kernel.s                     0x00000000   Number         0  rtentry.o ABSOLUTE
    ../../angel/rt.s                         0x00000000   Number         0  rt_fp_status_addr_intlibspace.o ABSOLUTE
    ../../angel/rt.s                         0x00000000   Number         0  rt_fp_status_addr.o ABSOLUTE
    ../../angel/rt.s                         0x00000000   Number         0  rt_raise.o ABSOLUTE
    ../../angel/scatter.s                    0x00000000   Number         0  __scatter.o ABSOLUTE
    ../../angel/startup.s                    0x00000000   Number         0  __main.o ABSOLUTE
    ../../angel/sys.s                        0x00000000   Number         0  use_no_semi_2.o ABSOLUTE
    ../../angel/sys.s                        0x00000000   Number         0  sys_stackheap_outer.o ABSOLUTE
    ../../angel/sys.s                        0x00000000   Number         0  indicate_semi.o ABSOLUTE
    ../../angel/sys.s                        0x00000000   Number         0  use_no_semi.o ABSOLUTE
    ../../angel/sys.s                        0x00000000   Number         0  libspace.o ABSOLUTE
    ../../angel/sysapp.c                     0x00000000   Number         0  sys_wrch.o ABSOLUTE
    ../../angel/sysapp.c                     0x00000000   Number         0  sys_command.o ABSOLUTE
    ../../armsys.c                           0x00000000   Number         0  argv_veneer.o ABSOLUTE
    ../../armsys.c                           0x00000000   Number         0  no_argv.o ABSOLUTE
    ../../armsys.c                           0x00000000   Number         0  argv_veneer.o ABSOLUTE
    ../../armsys.c                           0x00000000   Number         0  _get_argv_nomalloc.o ABSOLUTE
    ../../fpinit.s                           0x00000000   Number         0  fpinit.o ABSOLUTE
    ../../heapalloc.c                        0x00000000   Number         0  hrguard.o ABSOLUTE
    ../../heapaux.c                          0x00000000   Number         0  heapauxi.o ABSOLUTE
    ../../libinit.s                          0x00000000   Number         0  libinit.o ABSOLUTE
    ../../libinit.s                          0x00000000   Number         0  libinit2.o ABSOLUTE
    ../../libinit.s                          0x00000000   Number         0  libshutdown2.o ABSOLUTE
    ../../libinit.s                          0x00000000   Number         0  libshutdown.o ABSOLUTE
    ../../printf.c                           0x00000000   Number         0  _printf_hex_ll.o ABSOLUTE
    ../../printf.c                           0x00000000   Number         0  _printf_intcommon.o ABSOLUTE
    ../../printf.c                           0x00000000   Number         0  _printf_char.o ABSOLUTE
    ../../printf.c                           0x00000000   Number         0  _printf_char_file.o ABSOLUTE
    ../../printf.c                           0x00000000   Number         0  _printf_char_common.o ABSOLUTE
    ../../printf.c                           0x00000000   Number         0  _printf_hex_int.o ABSOLUTE
    ../../printf.c                           0x00000000   Number         0  _printf_dec.o ABSOLUTE
    ../../printf.c                           0x00000000   Number         0  _printf_hex_int_ll.o ABSOLUTE
    ../../printf.c                           0x00000000   Number         0  _printf_str.o ABSOLUTE
    ../../printf.c                           0x00000000   Number         0  _printf_hex_ptr.o ABSOLUTE
    ../../printf.c                           0x00000000   Number         0  __printf.o ABSOLUTE
    ../../printf.c                           0x00000000   Number         0  _printf_hex_int_ptr.o ABSOLUTE
    ../../printf.c                           0x00000000   Number         0  noretval__2printf.o ABSOLUTE
    ../../printf.c                           0x00000000   Number         0  __2printf.o ABSOLUTE
    ../../printf.c                           0x00000000   Number         0  _printf_hex_ll_ptr.o ABSOLUTE
    ../../printf.c                           0x00000000   Number         0  __printf_nopercent.o ABSOLUTE
    ../../printf.c                           0x00000000   Number         0  _printf_hex_int_ll_ptr.o ABSOLUTE
    ../../printf.c                           0x00000000   Number         0  __printf_flags.o ABSOLUTE
    ../../printf.c                           0x00000000   Number         0  __printf_ss.o ABSOLUTE
    ../../printf.c                           0x00000000   Number         0  __printf_flags_ss.o ABSOLUTE
    ../../printf.c                           0x00000000   Number         0  __printf_wp.o ABSOLUTE
    ../../printf.c                           0x00000000   Number         0  __printf_flags_wp.o ABSOLUTE
    ../../printf.c                           0x00000000   Number         0  __printf_ss_wp.o ABSOLUTE
    ../../printf.c                           0x00000000   Number         0  __printf_flags_ss_wp.o ABSOLUTE
    ../../printf_percent.s                   0x00000000   Number         0  _printf_d.o ABSOLUTE
    ../../printf_percent.s                   0x00000000   Number         0  _printf_percent.o ABSOLUTE
    ../../printf_percent.s                   0x00000000   Number         0  _printf_c.o ABSOLUTE
    ../../printf_percent.s                   0x00000000   Number         0  _printf_x.o ABSOLUTE
    ../../printf_percent.s                   0x00000000   Number         0  _printf_percent_end.o ABSOLUTE
    ../../signal.c                           0x00000000   Number         0  defsig_fpe_inner.o ABSOLUTE
    ../../signal.c                           0x00000000   Number         0  defsig_abrt_inner.o ABSOLUTE
    ../../signal.c                           0x00000000   Number         0  defsig_general.o ABSOLUTE
    ../../signal.c                           0x00000000   Number         0  defsig_rtmem_outer.o ABSOLUTE
    ../../signal.c                           0x00000000   Number         0  defsig_rtmem_formal.o ABSOLUTE
    ../../signal.c                           0x00000000   Number         0  defsig_rtred_inner.o ABSOLUTE
    ../../signal.c                           0x00000000   Number         0  defsig_exit.o ABSOLUTE
    ../../signal.c                           0x00000000   Number         0  defsig_rtmem_inner.o ABSOLUTE
    ../../signal.c                           0x00000000   Number         0  defsig_stak_inner.o ABSOLUTE
    ../../signal.c                           0x00000000   Number         0  defsig_pvfn_inner.o ABSOLUTE
    ../../signal.c                           0x00000000   Number         0  defsig_cppl_inner.o ABSOLUTE
    ../../signal.c                           0x00000000   Number         0  defsig_segv_inner.o ABSOLUTE
    ../../signal.c                           0x00000000   Number         0  defsig_other.o ABSOLUTE
    ../../signal.c                           0x00000000   Number         0  __raise.o ABSOLUTE
    ../../signal.s                           0x00000000   Number         0  defsig.o ABSOLUTE
    ../../stdio.c                            0x00000000   Number         0  ferror.o ABSOLUTE
    ../../stdio.c                            0x00000000   Number         0  ferror_locked.o ABSOLUTE
    ../../stdlib.c                           0x00000000   Number         0  exit.o ABSOLUTE
    ..\Libraries\CMSIS\CM3\CoreSupport\core_cm3.c 0x00000000   Number         0  core_cm3.o ABSOLUTE
    ..\Libraries\CMSIS\CM3\DeviceSupport\ST\STM32F2xx\startup\arm\startup_stm32f2xx.s 0x00000000   Number         0  startup_stm32f2xx.o ABSOLUTE
    ..\Libraries\CMSIS\CM3\DeviceSupport\ST\STM32F2xx\system_stm32f2xx.c 0x00000000   Number         0  system_stm32f2xx.o ABSOLUTE
    ..\Libraries\FatFS\diskio.c              0x00000000   Number         0  diskio.o ABSOLUTE
    ..\Libraries\FatFS\ff.c                  0x00000000   Number         0  ff.o ABSOLUTE
    ..\Libraries\STM32F2xx_StdPeriph_Driver\src\misc.c 0x00000000   Number         0  misc.o ABSOLUTE
    ..\Libraries\STM32F2xx_StdPeriph_Driver\src\stm32f2xx_adc.c 0x00000000   Number         0  stm32f2xx_adc.o ABSOLUTE
    ..\Libraries\STM32F2xx_StdPeriph_Driver\src\stm32f2xx_can.c 0x00000000   Number         0  stm32f2xx_can.o ABSOLUTE
    ..\Libraries\STM32F2xx_StdPeriph_Driver\src\stm32f2xx_crc.c 0x00000000   Number         0  stm32f2xx_crc.o ABSOLUTE
    ..\Libraries\STM32F2xx_StdPeriph_Driver\src\stm32f2xx_cryp.c 0x00000000   Number         0  stm32f2xx_cryp.o ABSOLUTE
    ..\Libraries\STM32F2xx_StdPeriph_Driver\src\stm32f2xx_cryp_aes.c 0x00000000   Number         0  stm32f2xx_cryp_aes.o ABSOLUTE
    ..\Libraries\STM32F2xx_StdPeriph_Driver\src\stm32f2xx_cryp_des.c 0x00000000   Number         0  stm32f2xx_cryp_des.o ABSOLUTE
    ..\Libraries\STM32F2xx_StdPeriph_Driver\src\stm32f2xx_cryp_tdes.c 0x00000000   Number         0  stm32f2xx_cryp_tdes.o ABSOLUTE
    ..\Libraries\STM32F2xx_StdPeriph_Driver\src\stm32f2xx_dac.c 0x00000000   Number         0  stm32f2xx_dac.o ABSOLUTE
    ..\Libraries\STM32F2xx_StdPeriph_Driver\src\stm32f2xx_dbgmcu.c 0x00000000   Number         0  stm32f2xx_dbgmcu.o ABSOLUTE
    ..\Libraries\STM32F2xx_StdPeriph_Driver\src\stm32f2xx_dcmi.c 0x00000000   Number         0  stm32f2xx_dcmi.o ABSOLUTE
    ..\Libraries\STM32F2xx_StdPeriph_Driver\src\stm32f2xx_dma.c 0x00000000   Number         0  stm32f2xx_dma.o ABSOLUTE
    ..\Libraries\STM32F2xx_StdPeriph_Driver\src\stm32f2xx_exti.c 0x00000000   Number         0  stm32f2xx_exti.o ABSOLUTE
    ..\Libraries\STM32F2xx_StdPeriph_Driver\src\stm32f2xx_flash.c 0x00000000   Number         0  stm32f2xx_flash.o ABSOLUTE
    ..\Libraries\STM32F2xx_StdPeriph_Driver\src\stm32f2xx_fsmc.c 0x00000000   Number         0  stm32f2xx_fsmc.o ABSOLUTE
    ..\Libraries\STM32F2xx_StdPeriph_Driver\src\stm32f2xx_gpio.c 0x00000000   Number         0  stm32f2xx_gpio.o ABSOLUTE
    ..\Libraries\STM32F2xx_StdPeriph_Driver\src\stm32f2xx_hash.c 0x00000000   Number         0  stm32f2xx_hash.o ABSOLUTE
    ..\Libraries\STM32F2xx_StdPeriph_Driver\src\stm32f2xx_hash_md5.c 0x00000000   Number         0  stm32f2xx_hash_md5.o ABSOLUTE
    ..\Libraries\STM32F2xx_StdPeriph_Driver\src\stm32f2xx_hash_sha1.c 0x00000000   Number         0  stm32f2xx_hash_sha1.o ABSOLUTE
    ..\Libraries\STM32F2xx_StdPeriph_Driver\src\stm32f2xx_i2c.c 0x00000000   Number         0  stm32f2xx_i2c.o ABSOLUTE
    ..\Libraries\STM32F2xx_StdPeriph_Driver\src\stm32f2xx_iwdg.c 0x00000000   Number         0  stm32f2xx_iwdg.o ABSOLUTE
    ..\Libraries\STM32F2xx_StdPeriph_Driver\src\stm32f2xx_pwr.c 0x00000000   Number         0  stm32f2xx_pwr.o ABSOLUTE
    ..\Libraries\STM32F2xx_StdPeriph_Driver\src\stm32f2xx_rcc.c 0x00000000   Number         0  stm32f2xx_rcc.o ABSOLUTE
    ..\Libraries\STM32F2xx_StdPeriph_Driver\src\stm32f2xx_rng.c 0x00000000   Number         0  stm32f2xx_rng.o ABSOLUTE
    ..\Libraries\STM32F2xx_StdPeriph_Driver\src\stm32f2xx_rtc.c 0x00000000   Number         0  stm32f2xx_rtc.o ABSOLUTE
    ..\Libraries\STM32F2xx_StdPeriph_Driver\src\stm32f2xx_sdio.c 0x00000000   Number         0  stm32f2xx_sdio.o ABSOLUTE
    ..\Libraries\STM32F2xx_StdPeriph_Driver\src\stm32f2xx_spi.c 0x00000000   Number         0  stm32f2xx_spi.o ABSOLUTE
    ..\Libraries\STM32F2xx_StdPeriph_Driver\src\stm32f2xx_syscfg.c 0x00000000   Number         0  stm32f2xx_syscfg.o ABSOLUTE
    ..\Libraries\STM32F2xx_StdPeriph_Driver\src\stm32f2xx_tim.c 0x00000000   Number         0  stm32f2xx_tim.o ABSOLUTE
    ..\Libraries\STM32F2xx_StdPeriph_Driver\src\stm32f2xx_usart.c 0x00000000   Number         0  stm32f2xx_usart.o ABSOLUTE
    ..\Libraries\STM32F2xx_StdPeriph_Driver\src\stm32f2xx_wwdg.c 0x00000000   Number         0  stm32f2xx_wwdg.o ABSOLUTE
    ..\User\UDA1380\I2C.c                    0x00000000   Number         0  i2c.o ABSOLUTE
    ..\User\UDA1380\I2S.c                    0x00000000   Number         0  i2s.o ABSOLUTE
    ..\User\UDA1380\UDA1380.c                0x00000000   Number         0  uda1380.o ABSOLUTE
    ..\User\main.c                           0x00000000   Number         0  main.o ABSOLUTE
    ..\User\sdcard.c                         0x00000000   Number         0  sdcard.o ABSOLUTE
    ..\User\stm32f2xx_it.c                   0x00000000   Number         0  stm32f2xx_it.o ABSOLUTE
    ..\User\usart.c                          0x00000000   Number         0  usart.o ABSOLUTE
    ..\\Libraries\\CMSIS\\CM3\\CoreSupport\\core_cm3.c 0x00000000   Number         0  core_cm3.o ABSOLUTE
    dc.s                                     0x00000000   Number         0  dc.o ABSOLUTE
    RESET                                    0x08000000   Section      388  startup_stm32f2xx.o(RESET)
    !!!main                                  0x08000184   Section        8  __main.o(!!!main)
    !!!scatter                               0x0800018c   Section       52  __scatter.o(!!!scatter)
    !!handler_copy                           0x080001c0   Section       26  __scatter_copy.o(!!handler_copy)
    !!handler_zi                             0x080001dc   Section       28  __scatter_zi.o(!!handler_zi)
    .ARM.Collect$$_printf_percent$$00000000  0x080001f8   Section        0  _printf_percent.o(.ARM.Collect$$_printf_percent$$00000000)
    .ARM.Collect$$_printf_percent$$00000009  0x080001f8   Section        6  _printf_d.o(.ARM.Collect$$_printf_percent$$00000009)
    .ARM.Collect$$_printf_percent$$0000000C  0x080001fe   Section        6  _printf_x.o(.ARM.Collect$$_printf_percent$$0000000C)
    .ARM.Collect$$_printf_percent$$00000013  0x08000204   Section        6  _printf_c.o(.ARM.Collect$$_printf_percent$$00000013)
    .ARM.Collect$$_printf_percent$$00000017  0x0800020a   Section        4  _printf_percent_end.o(.ARM.Collect$$_printf_percent$$00000017)
    .ARM.Collect$$libinit$$00000000          0x0800020e   Section        6  libinit.o(.ARM.Collect$$libinit$$00000000)
    .ARM.Collect$$libinit$$00000006          0x08000214   Section        0  libinit2.o(.ARM.Collect$$libinit$$00000006)
    .ARM.Collect$$libinit$$00000008          0x08000214   Section        0  libinit2.o(.ARM.Collect$$libinit$$00000008)
    .ARM.Collect$$libinit$$0000000A          0x08000214   Section        0  libinit2.o(.ARM.Collect$$libinit$$0000000A)
    .ARM.Collect$$libinit$$0000000D          0x08000214   Section        0  libinit2.o(.ARM.Collect$$libinit$$0000000D)
    .ARM.Collect$$libinit$$0000000F          0x08000214   Section        0  libinit2.o(.ARM.Collect$$libinit$$0000000F)
    .ARM.Collect$$libinit$$00000011          0x08000214   Section        0  libinit2.o(.ARM.Collect$$libinit$$00000011)
    .ARM.Collect$$libinit$$00000013          0x08000214   Section        0  libinit2.o(.ARM.Collect$$libinit$$00000013)
    .ARM.Collect$$libinit$$00000015          0x08000214   Section        0  libinit2.o(.ARM.Collect$$libinit$$00000015)
    .ARM.Collect$$libinit$$00000017          0x08000214   Section        0  libinit2.o(.ARM.Collect$$libinit$$00000017)
    .ARM.Collect$$libinit$$00000019          0x08000214   Section        0  libinit2.o(.ARM.Collect$$libinit$$00000019)
    .ARM.Collect$$libinit$$0000001B          0x08000214   Section        0  libinit2.o(.ARM.Collect$$libinit$$0000001B)
    .ARM.Collect$$libinit$$0000001D          0x08000214   Section        0  libinit2.o(.ARM.Collect$$libinit$$0000001D)
    .ARM.Collect$$libinit$$0000001F          0x08000214   Section        0  libinit2.o(.ARM.Collect$$libinit$$0000001F)
    .ARM.Collect$$libinit$$00000021          0x08000214   Section        0  libinit2.o(.ARM.Collect$$libinit$$00000021)
    .ARM.Collect$$libinit$$00000028          0x08000214   Section        0  libinit2.o(.ARM.Collect$$libinit$$00000028)
    .ARM.Collect$$libinit$$0000002A          0x08000214   Section        0  libinit2.o(.ARM.Collect$$libinit$$0000002A)
    .ARM.Collect$$libinit$$0000002C          0x08000214   Section        0  libinit2.o(.ARM.Collect$$libinit$$0000002C)
    .ARM.Collect$$libinit$$0000002E          0x08000214   Section        0  libinit2.o(.ARM.Collect$$libinit$$0000002E)
    .ARM.Collect$$libinit$$0000002F          0x08000214   Section        2  libinit2.o(.ARM.Collect$$libinit$$0000002F)
    .ARM.Collect$$libshutdown$$00000000      0x08000216   Section        2  libshutdown.o(.ARM.Collect$$libshutdown$$00000000)
    .ARM.Collect$$libshutdown$$00000003      0x08000218   Section        0  libshutdown2.o(.ARM.Collect$$libshutdown$$00000003)
    .ARM.Collect$$libshutdown$$00000006      0x08000218   Section        0  libshutdown2.o(.ARM.Collect$$libshutdown$$00000006)
    .ARM.Collect$$libshutdown$$00000009      0x08000218   Section        0  libshutdown2.o(.ARM.Collect$$libshutdown$$00000009)
    .ARM.Collect$$libshutdown$$0000000B      0x08000218   Section        0  libshutdown2.o(.ARM.Collect$$libshutdown$$0000000B)
    .ARM.Collect$$libshutdown$$0000000E      0x08000218   Section        0  libshutdown2.o(.ARM.Collect$$libshutdown$$0000000E)
    .ARM.Collect$$libshutdown$$0000000F      0x08000218   Section        2  libshutdown2.o(.ARM.Collect$$libshutdown$$0000000F)
    .ARM.Collect$$rtentry$$00000000          0x0800021a   Section        0  rtentry.o(.ARM.Collect$$rtentry$$00000000)
    .ARM.Collect$$rtentry$$00000002          0x0800021a   Section        0  rtentry2.o(.ARM.Collect$$rtentry$$00000002)
    .ARM.Collect$$rtentry$$00000004          0x0800021a   Section        6  rtentry4.o(.ARM.Collect$$rtentry$$00000004)
    .ARM.Collect$$rtentry$$00000009          0x08000220   Section        0  rtentry2.o(.ARM.Collect$$rtentry$$00000009)
    .ARM.Collect$$rtentry$$0000000A          0x08000220   Section        4  rtentry2.o(.ARM.Collect$$rtentry$$0000000A)
    .ARM.Collect$$rtentry$$0000000C          0x08000224   Section        0  rtentry2.o(.ARM.Collect$$rtentry$$0000000C)
    .ARM.Collect$$rtentry$$0000000D          0x08000224   Section        8  rtentry2.o(.ARM.Collect$$rtentry$$0000000D)
    .ARM.Collect$$rtexit$$00000000           0x0800022c   Section        2  rtexit.o(.ARM.Collect$$rtexit$$00000000)
    .ARM.Collect$$rtexit$$00000002           0x0800022e   Section        0  rtexit2.o(.ARM.Collect$$rtexit$$00000002)
    .ARM.Collect$$rtexit$$00000003           0x0800022e   Section        4  rtexit2.o(.ARM.Collect$$rtexit$$00000003)
    .ARM.Collect$$rtexit$$00000004           0x08000232   Section        6  rtexit2.o(.ARM.Collect$$rtexit$$00000004)
    .text                                    0x08000238   Section       64  startup_stm32f2xx.o(.text)
    .text                                    0x08000278   Section        0  misc.o(.text)
    .text                                    0x0800035c   Section        0  stm32f2xx_dma.o(.text)
    .text                                    0x08000700   Section        0  stm32f2xx_gpio.o(.text)
    .text                                    0x0800094c   Section        0  stm32f2xx_i2c.o(.text)
    .text                                    0x08000d60   Section        0  stm32f2xx_rcc.o(.text)
    .text                                    0x080012e4   Section        0  stm32f2xx_sdio.o(.text)
    .text                                    0x080014d0   Section        0  stm32f2xx_spi.o(.text)
    .text                                    0x08001878   Section        0  stm32f2xx_usart.o(.text)
    .text                                    0x08001c98   Section        0  system_stm32f2xx.o(.text)
    SetSysClock                              0x08001c99   Thumb Code   170  system_stm32f2xx.o(.text)
    .text                                    0x08001e64   Section        0  main.o(.text)
    .text                                    0x08002714   Section        0  stm32f2xx_it.o(.text)
    .text                                    0x08002794   Section        0  usart.o(.text)
    .text                                    0x08002898   Section        0  i2c.o(.text)
    .text                                    0x08002a18   Section        0  i2s.o(.text)
    .text                                    0x08002c9c   Section        0  uda1380.o(.text)
    .text                                    0x08002d90   Section        0  sdcard.o(.text)
    CmdResp2Error                            0x08002d91   Thumb Code    68  sdcard.o(.text)
    CmdResp6Error                            0x08002dd5   Thumb Code   150  sdcard.o(.text)
    CmdResp3Error                            0x08002f97   Thumb Code    50  sdcard.o(.text)
    CmdResp1Error                            0x08002fc9   Thumb Code   296  sdcard.o(.text)
    CmdResp7Error                            0x080030f1   Thumb Code    72  sdcard.o(.text)
    CmdError                                 0x08003139   Thumb Code    44  sdcard.o(.text)
    SD_GPIO_Configuration                    0x08003307   Thumb Code   158  sdcard.o(.text)
    FindSCR                                  0x08003717   Thumb Code   390  sdcard.o(.text)
    SDEnWideBus                              0x0800389d   Thumb Code   280  sdcard.o(.text)
    DMA_RxConfiguration                      0x08003aab   Thumb Code   128  sdcard.o(.text)
    convert_from_bytes_to_power_of_two       0x08003b2b   Thumb Code    18  sdcard.o(.text)
    IsCardProgramming                        0x080041d3   Thumb Code   394  sdcard.o(.text)
    DMA_TxConfiguration                      0x0800435d   Thumb Code   128  sdcard.o(.text)
    .text                                    0x08004dac   Section        0  diskio.o(.text)
    .text                                    0x08004fcc   Section        0  ff.o(.text)
    mem_cpy                                  0x08004fcd   Thumb Code    26  ff.o(.text)
    mem_set                                  0x08004fe7   Thumb Code    20  ff.o(.text)
    mem_cmp                                  0x08004ffb   Thumb Code    38  ff.o(.text)
    chk_chr                                  0x08005021   Thumb Code    20  ff.o(.text)
    move_window                              0x08005035   Thumb Code   114  ff.o(.text)
    sync                                     0x080050a7   Thumb Code   200  ff.o(.text)
    remove_chain                             0x080053df   Thumb Code   104  ff.o(.text)
    create_chain                             0x08005447   Thumb Code   182  ff.o(.text)
    dir_seek                                 0x08005517   Thumb Code   156  ff.o(.text)
    dir_next                                 0x080055b3   Thumb Code   274  ff.o(.text)
    dir_find                                 0x080056c5   Thumb Code    92  ff.o(.text)
    dir_read                                 0x08005721   Thumb Code    86  ff.o(.text)
    dir_register                             0x08005777   Thumb Code   120  ff.o(.text)
    dir_remove                               0x080057ef   Thumb Code    44  ff.o(.text)
    create_name                              0x0800581b   Thumb Code   310  ff.o(.text)
    get_fileinfo                             0x08005951   Thumb Code   152  ff.o(.text)
    follow_path                              0x080059e9   Thumb Code   166  ff.o(.text)
    check_fs                                 0x08005a8f   Thumb Code   138  ff.o(.text)
    validate                                 0x08005e07   Thumb Code    42  ff.o(.text)
    .text                                    0x08006d00   Section        2  use_no_semi_2.o(.text)
    .text                                    0x08006d04   Section        0  noretval__2printf.o(.text)
    .text                                    0x08006d1c   Section        0  __printf.o(.text)
    .text                                    0x08006d86   Section        0  _printf_str.o(.text)
    .text                                    0x08006dd8   Section        0  _printf_dec.o(.text)
    .text                                    0x08006e50   Section        0  _printf_hex_int.o(.text)
    .text                                    0x08006eac   Section        0  heapauxi.o(.text)
    .text                                    0x08006eb2   Section        2  use_no_semi.o(.text)
    .text                                    0x08006eb4   Section        0  _printf_intcommon.o(.text)
    .text                                    0x08006f6c   Section        0  _printf_char.o(.text)
    .text                                    0x08006f98   Section        0  _printf_char_file.o(.text)
    .text                                    0x08006fbc   Section        0  _printf_char_common.o(.text)
    _printf_input_char                       0x08006fbd   Thumb Code    10  _printf_char_common.o(.text)
    .text                                    0x08006fec   Section        0  ferror.o(.text)
    .text                                    0x08006ff4   Section       74  sys_stackheap_outer.o(.text)
    .text                                    0x0800703e   Section        0  exit.o(.text)
    .text                                    0x0800704c   Section        8  libspace.o(.text)
    .text                                    0x08007054   Section        8  rt_fp_status_addr_intlibspace.o(.text)
    x$fpl$fpinit                             0x0800705c   Section       14  fpinit.o(x$fpl$fpinit)
    .constdata                               0x0800706a   Section       40  _printf_hex_int.o(.constdata)
    uc_hextab                                0x0800706a   Data          20  _printf_hex_int.o(.constdata)
    lc_hextab                                0x0800707e   Data          20  _printf_hex_int.o(.constdata)
    .data                                    0x20000000   Section       16  stm32f2xx_rcc.o(.data)
    APBAHBPrescTable                         0x20000000   Data          16  stm32f2xx_rcc.o(.data)
    .data                                    0x20000010   Section       20  system_stm32f2xx.o(.data)
    .data                                    0x20000024   Section       32  main.o(.data)
    SpeechDataOffset                         0x2000002c   Data           4  main.o(.data)
    wavelen                                  0x20000034   Data           4  main.o(.data)
    .data                                    0x20000044   Section        4  usart.o(.data)
    .data                                    0x20000048   Section        4  i2c.o(.data)
    .data                                    0x2000004c   Section       60  uda1380.o(.data)
    .data                                    0x20000088   Section       40  sdcard.o(.data)
    CardType                                 0x20000088   Data           4  sdcard.o(.data)
    RCA                                      0x2000008c   Data           4  sdcard.o(.data)
    DeviceMode                               0x20000090   Data           4  sdcard.o(.data)
    TotalNumberOfBytes                       0x20000094   Data           4  sdcard.o(.data)
    StopCondition                            0x20000098   Data           4  sdcard.o(.data)
    .data                                    0x200000b0   Section        6  ff.o(.data)
    FatFs                                    0x200000b0   Data           4  ff.o(.data)
    Fsid                                     0x200000b4   Data           2  ff.o(.data)
    .bss                                     0x200000b8   Section     5228  main.o(.bss)
    .bss                                     0x20001524   Section       60  i2s.o(.bss)
    DMA_InitStructure                        0x20001524   Data          60  i2s.o(.bss)
    .bss                                     0x20001560   Section      100  sdcard.o(.bss)
    CSD_Tab                                  0x20001560   Data          16  sdcard.o(.bss)
    CID_Tab                                  0x20001570   Data          16  sdcard.o(.bss)
    .bss                                     0x200015c4   Section       80  diskio.o(.bss)
    SDCardInfo                               0x200015c4   Data          80  diskio.o(.bss)
    .bss                                     0x20001614   Section       96  libspace.o(.bss)
    HEAP                                     0x20001678   Section      512  startup_stm32f2xx.o(HEAP)
    Heap_Mem                                 0x20001678   Data         512  startup_stm32f2xx.o(HEAP)
    STACK                                    0x20001878   Section     1024  startup_stm32f2xx.o(STACK)
    Stack_Mem                                0x20001878   Data        1024  startup_stm32f2xx.o(STACK)
    __initial_sp                             0x20001c78   Data           0  startup_stm32f2xx.o(STACK)

    Global Symbols

    Symbol Name                              Value     Ov Type        Size  Object(Section)

    BuildAttributes$$THM_ISAv4$P$D$K$B$S$PE$A:L22UL41UL21$X:L11$S22US41US21$IEEE1$IW$USESV6$~STKCKD$USESV7$~SHL$OSPACE$ROPI$EBA8$UX$STANDARDLIB$REQ8$PRES8$EABIv2 0x00000000   Number         0  anon$$obj.o ABSOLUTE
    __ARM_use_no_argv                        0x00000000   Number         0  main.o ABSOLUTE
    __ARM_exceptions_init                     - Undefined Weak Reference
    __alloca_initialize                       - Undefined Weak Reference
    __cpp_initialize__aeabi_                  - Undefined Weak Reference
    __cxa_finalize                            - Undefined Weak Reference
    __rt_locale                               - Undefined Weak Reference
    __sigvec_lookup                           - Undefined Weak Reference
    _atexit_init                              - Undefined Weak Reference
    _call_atexit_fns                          - Undefined Weak Reference
    _clock_init                               - Undefined Weak Reference
    _fp_trap_init                             - Undefined Weak Reference
    _fp_trap_shutdown                         - Undefined Weak Reference
    _get_lc_collate                           - Undefined Weak Reference
    _get_lc_ctype                             - Undefined Weak Reference
    _get_lc_monetary                          - Undefined Weak Reference
    _get_lc_numeric                           - Undefined Weak Reference
    _get_lc_time                              - Undefined Weak Reference
    _getenv_init                              - Undefined Weak Reference
    _handle_redirection                       - Undefined Weak Reference
    _init_alloc                               - Undefined Weak Reference
    _init_user_alloc                          - Undefined Weak Reference
    _initio                                   - Undefined Weak Reference
    _mutex_acquire                            - Undefined Weak Reference
    _mutex_release                            - Undefined Weak Reference
    _printf_mbtowc                            - Undefined Weak Reference
    _printf_post_padding                      - Undefined Weak Reference
    _printf_pre_padding                       - Undefined Weak Reference
    _printf_truncate_signed                   - Undefined Weak Reference
    _printf_truncate_unsigned                 - Undefined Weak Reference
    _rand_init                                - Undefined Weak Reference
    _signal_finish                            - Undefined Weak Reference
    _signal_init                              - Undefined Weak Reference
    _terminate_alloc                          - Undefined Weak Reference
    _terminate_user_alloc                     - Undefined Weak Reference
    _terminateio                              - Undefined Weak Reference
    __Vectors_Size                           0x00000184   Number         0  startup_stm32f2xx.o ABSOLUTE
    __Vectors                                0x08000000   Data           4  startup_stm32f2xx.o(RESET)
    __Vectors_End                            0x08000184   Data           0  startup_stm32f2xx.o(RESET)
    __main                                   0x08000185   Thumb Code     8  __main.o(!!!main)
    __scatterload                            0x0800018d   Thumb Code     0  __scatter.o(!!!scatter)
    __scatterload_rt2                        0x0800018d   Thumb Code    44  __scatter.o(!!!scatter)
    __scatterload_rt2_thumb_only             0x0800018d   Thumb Code     0  __scatter.o(!!!scatter)
    __scatterload_null                       0x0800019b   Thumb Code     0  __scatter.o(!!!scatter)
    __scatterload_copy                       0x080001c1   Thumb Code    26  __scatter_copy.o(!!handler_copy)
    __scatterload_zeroinit                   0x080001dd   Thumb Code    28  __scatter_zi.o(!!handler_zi)
    _printf_d                                0x080001f9   Thumb Code     0  _printf_d.o(.ARM.Collect$$_printf_percent$$00000009)
    _printf_percent                          0x080001f9   Thumb Code     0  _printf_percent.o(.ARM.Collect$$_printf_percent$$00000000)
    _printf_x                                0x080001ff   Thumb Code     0  _printf_x.o(.ARM.Collect$$_printf_percent$$0000000C)
    _printf_c                                0x08000205   Thumb Code     0  _printf_c.o(.ARM.Collect$$_printf_percent$$00000013)
    _printf_percent_end                      0x0800020b   Thumb Code     0  _printf_percent_end.o(.ARM.Collect$$_printf_percent$$00000017)
    __rt_lib_init                            0x0800020f   Thumb Code     0  libinit.o(.ARM.Collect$$libinit$$00000000)
    __rt_lib_init_alloca_1                   0x08000215   Thumb Code     0  libinit2.o(.ARM.Collect$$libinit$$0000002A)
    __rt_lib_init_argv_1                     0x08000215   Thumb Code     0  libinit2.o(.ARM.Collect$$libinit$$00000028)
    __rt_lib_init_atexit_1                   0x08000215   Thumb Code     0  libinit2.o(.ARM.Collect$$libinit$$00000017)
    __rt_lib_init_clock_1                    0x08000215   Thumb Code     0  libinit2.o(.ARM.Collect$$libinit$$0000001D)
    __rt_lib_init_cpp_1                      0x08000215   Thumb Code     0  libinit2.o(.ARM.Collect$$libinit$$0000002E)
    __rt_lib_init_exceptions_1               0x08000215   Thumb Code     0  libinit2.o(.ARM.Collect$$libinit$$0000002C)
    __rt_lib_init_fp_trap_1                  0x08000215   Thumb Code     0  libinit2.o(.ARM.Collect$$libinit$$0000001B)
    __rt_lib_init_getenv_1                   0x08000215   Thumb Code     0  libinit2.o(.ARM.Collect$$libinit$$0000001F)
    __rt_lib_init_heap_1                     0x08000215   Thumb Code     0  libinit2.o(.ARM.Collect$$libinit$$00000006)
    __rt_lib_init_lc_collate_1               0x08000215   Thumb Code     0  libinit2.o(.ARM.Collect$$libinit$$0000000D)
    __rt_lib_init_lc_ctype_1                 0x08000215   Thumb Code     0  libinit2.o(.ARM.Collect$$libinit$$0000000F)
    __rt_lib_init_lc_monetary_1              0x08000215   Thumb Code     0  libinit2.o(.ARM.Collect$$libinit$$00000011)
    __rt_lib_init_lc_numeric_1               0x08000215   Thumb Code     0  libinit2.o(.ARM.Collect$$libinit$$00000013)
    __rt_lib_init_lc_time_1                  0x08000215   Thumb Code     0  libinit2.o(.ARM.Collect$$libinit$$00000015)
    __rt_lib_init_rand_1                     0x08000215   Thumb Code     0  libinit2.o(.ARM.Collect$$libinit$$0000000A)
    __rt_lib_init_return                     0x08000215   Thumb Code     0  libinit2.o(.ARM.Collect$$libinit$$0000002F)
    __rt_lib_init_signal_1                   0x08000215   Thumb Code     0  libinit2.o(.ARM.Collect$$libinit$$00000019)
    __rt_lib_init_stdio_1                    0x08000215   Thumb Code     0  libinit2.o(.ARM.Collect$$libinit$$00000021)
    __rt_lib_init_user_alloc_1               0x08000215   Thumb Code     0  libinit2.o(.ARM.Collect$$libinit$$00000008)
    __rt_lib_shutdown                        0x08000217   Thumb Code     0  libshutdown.o(.ARM.Collect$$libshutdown$$00000000)
    __rt_lib_shutdown_fp_trap_1              0x08000219   Thumb Code     0  libshutdown2.o(.ARM.Collect$$libshutdown$$00000006)
    __rt_lib_shutdown_heap_1                 0x08000219   Thumb Code     0  libshutdown2.o(.ARM.Collect$$libshutdown$$0000000E)
    __rt_lib_shutdown_return                 0x08000219   Thumb Code     0  libshutdown2.o(.ARM.Collect$$libshutdown$$0000000F)
    __rt_lib_shutdown_signal_1               0x08000219   Thumb Code     0  libshutdown2.o(.ARM.Collect$$libshutdown$$00000009)
    __rt_lib_shutdown_stdio_1                0x08000219   Thumb Code     0  libshutdown2.o(.ARM.Collect$$libshutdown$$00000003)
    __rt_lib_shutdown_user_alloc_1           0x08000219   Thumb Code     0  libshutdown2.o(.ARM.Collect$$libshutdown$$0000000B)
    __rt_entry                               0x0800021b   Thumb Code     0  rtentry.o(.ARM.Collect$$rtentry$$00000000)
    __rt_entry_presh_1                       0x0800021b   Thumb Code     0  rtentry2.o(.ARM.Collect$$rtentry$$00000002)
    __rt_entry_sh                            0x0800021b   Thumb Code     0  rtentry4.o(.ARM.Collect$$rtentry$$00000004)
    __rt_entry_li                            0x08000221   Thumb Code     0  rtentry2.o(.ARM.Collect$$rtentry$$0000000A)
    __rt_entry_postsh_1                      0x08000221   Thumb Code     0  rtentry2.o(.ARM.Collect$$rtentry$$00000009)
    __rt_entry_main                          0x08000225   Thumb Code     0  rtentry2.o(.ARM.Collect$$rtentry$$0000000D)
    __rt_entry_postli_1                      0x08000225   Thumb Code     0  rtentry2.o(.ARM.Collect$$rtentry$$0000000C)
    __rt_exit                                0x0800022d   Thumb Code     0  rtexit.o(.ARM.Collect$$rtexit$$00000000)
    __rt_exit_ls                             0x0800022f   Thumb Code     0  rtexit2.o(.ARM.Collect$$rtexit$$00000003)
    __rt_exit_prels_1                        0x0800022f   Thumb Code     0  rtexit2.o(.ARM.Collect$$rtexit$$00000002)
    __rt_exit_exit                           0x08000233   Thumb Code     0  rtexit2.o(.ARM.Collect$$rtexit$$00000004)
    Reset_Handler                            0x08000239   Thumb Code     8  startup_stm32f2xx.o(.text)
    ADC_IRQHandler                           0x08000253   Thumb Code     0  startup_stm32f2xx.o(.text)
    CAN1_RX0_IRQHandler                      0x08000253   Thumb Code     0  startup_stm32f2xx.o(.text)
    CAN1_RX1_IRQHandler                      0x08000253   Thumb Code     0  startup_stm32f2xx.o(.text)
    CAN1_SCE_IRQHandler                      0x08000253   Thumb Code     0  startup_stm32f2xx.o(.text)
    CAN1_TX_IRQHandler                       0x08000253   Thumb Code     0  startup_stm32f2xx.o(.text)
    CAN2_RX0_IRQHandler                      0x08000253   Thumb Code     0  startup_stm32f2xx.o(.text)
    CAN2_RX1_IRQHandler                      0x08000253   Thumb Code     0  startup_stm32f2xx.o(.text)
    CAN2_SCE_IRQHandler                      0x08000253   Thumb Code     0  startup_stm32f2xx.o(.text)
    CAN2_TX_IRQHandler                       0x08000253   Thumb Code     0  startup_stm32f2xx.o(.text)
    CRYP_IRQHandler                          0x08000253   Thumb Code     0  startup_stm32f2xx.o(.text)
    DCMI_IRQHandler                          0x08000253   Thumb Code     0  startup_stm32f2xx.o(.text)
    DMA1_Stream0_IRQHandler                  0x08000253   Thumb Code     0  startup_stm32f2xx.o(.text)
    DMA1_Stream1_IRQHandler                  0x08000253   Thumb Code     0  startup_stm32f2xx.o(.text)
    DMA1_Stream2_IRQHandler                  0x08000253   Thumb Code     0  startup_stm32f2xx.o(.text)
    DMA1_Stream3_IRQHandler                  0x08000253   Thumb Code     0  startup_stm32f2xx.o(.text)
    DMA1_Stream5_IRQHandler                  0x08000253   Thumb Code     0  startup_stm32f2xx.o(.text)
    DMA1_Stream6_IRQHandler                  0x08000253   Thumb Code     0  startup_stm32f2xx.o(.text)
    DMA1_Stream7_IRQHandler                  0x08000253   Thumb Code     0  startup_stm32f2xx.o(.text)
    DMA2_Stream0_IRQHandler                  0x08000253   Thumb Code     0  startup_stm32f2xx.o(.text)
    DMA2_Stream1_IRQHandler                  0x08000253   Thumb Code     0  startup_stm32f2xx.o(.text)
    DMA2_Stream2_IRQHandler                  0x08000253   Thumb Code     0  startup_stm32f2xx.o(.text)
    DMA2_Stream3_IRQHandler                  0x08000253   Thumb Code     0  startup_stm32f2xx.o(.text)
    DMA2_Stream4_IRQHandler                  0x08000253   Thumb Code     0  startup_stm32f2xx.o(.text)
    DMA2_Stream5_IRQHandler                  0x08000253   Thumb Code     0  startup_stm32f2xx.o(.text)
    DMA2_Stream6_IRQHandler                  0x08000253   Thumb Code     0  startup_stm32f2xx.o(.text)
    DMA2_Stream7_IRQHandler                  0x08000253   Thumb Code     0  startup_stm32f2xx.o(.text)
    ETH_IRQHandler                           0x08000253   Thumb Code     0  startup_stm32f2xx.o(.text)
    ETH_WKUP_IRQHandler                      0x08000253   Thumb Code     0  startup_stm32f2xx.o(.text)
    EXTI0_IRQHandler                         0x08000253   Thumb Code     0  startup_stm32f2xx.o(.text)
    EXTI15_10_IRQHandler                     0x08000253   Thumb Code     0  startup_stm32f2xx.o(.text)
    EXTI1_IRQHandler                         0x08000253   Thumb Code     0  startup_stm32f2xx.o(.text)
    EXTI2_IRQHandler                         0x08000253   Thumb Code     0  startup_stm32f2xx.o(.text)
    EXTI3_IRQHandler                         0x08000253   Thumb Code     0  startup_stm32f2xx.o(.text)
    EXTI4_IRQHandler                         0x08000253   Thumb Code     0  startup_stm32f2xx.o(.text)
    EXTI9_5_IRQHandler                       0x08000253   Thumb Code     0  startup_stm32f2xx.o(.text)
    FLASH_IRQHandler                         0x08000253   Thumb Code     0  startup_stm32f2xx.o(.text)
    FSMC_IRQHandler                          0x08000253   Thumb Code     0  startup_stm32f2xx.o(.text)
    HASH_RNG_IRQHandler                      0x08000253   Thumb Code     0  startup_stm32f2xx.o(.text)
    I2C1_ER_IRQHandler                       0x08000253   Thumb Code     0  startup_stm32f2xx.o(.text)
    I2C1_EV_IRQHandler                       0x08000253   Thumb Code     0  startup_stm32f2xx.o(.text)
    I2C2_ER_IRQHandler                       0x08000253   Thumb Code     0  startup_stm32f2xx.o(.text)
    I2C2_EV_IRQHandler                       0x08000253   Thumb Code     0  startup_stm32f2xx.o(.text)
    I2C3_ER_IRQHandler                       0x08000253   Thumb Code     0  startup_stm32f2xx.o(.text)
    I2C3_EV_IRQHandler                       0x08000253   Thumb Code     0  startup_stm32f2xx.o(.text)
    OTG_FS_IRQHandler                        0x08000253   Thumb Code     0  startup_stm32f2xx.o(.text)
    OTG_FS_WKUP_IRQHandler                   0x08000253   Thumb Code     0  startup_stm32f2xx.o(.text)
    OTG_HS_EP1_IN_IRQHandler                 0x08000253   Thumb Code     0  startup_stm32f2xx.o(.text)
    OTG_HS_EP1_OUT_IRQHandler                0x08000253   Thumb Code     0  startup_stm32f2xx.o(.text)
    OTG_HS_IRQHandler                        0x08000253   Thumb Code     0  startup_stm32f2xx.o(.text)
    OTG_HS_WKUP_IRQHandler                   0x08000253   Thumb Code     0  startup_stm32f2xx.o(.text)
    PVD_IRQHandler                           0x08000253   Thumb Code     0  startup_stm32f2xx.o(.text)
    RCC_IRQHandler                           0x08000253   Thumb Code     0  startup_stm32f2xx.o(.text)
    RTC_Alarm_IRQHandler                     0x08000253   Thumb Code     0  startup_stm32f2xx.o(.text)
    RTC_WKUP_IRQHandler                      0x08000253   Thumb Code     0  startup_stm32f2xx.o(.text)
    SPI1_IRQHandler                          0x08000253   Thumb Code     0  startup_stm32f2xx.o(.text)
    SPI2_IRQHandler                          0x08000253   Thumb Code     0  startup_stm32f2xx.o(.text)
    SPI3_IRQHandler                          0x08000253   Thumb Code     0  startup_stm32f2xx.o(.text)
    TAMP_STAMP_IRQHandler                    0x08000253   Thumb Code     0  startup_stm32f2xx.o(.text)
    TIM1_BRK_TIM9_IRQHandler                 0x08000253   Thumb Code     0  startup_stm32f2xx.o(.text)
    TIM1_CC_IRQHandler                       0x08000253   Thumb Code     0  startup_stm32f2xx.o(.text)
    TIM1_TRG_COM_TIM11_IRQHandler            0x08000253   Thumb Code     0  startup_stm32f2xx.o(.text)
    TIM1_UP_TIM10_IRQHandler                 0x08000253   Thumb Code     0  startup_stm32f2xx.o(.text)
    TIM2_IRQHandler                          0x08000253   Thumb Code     0  startup_stm32f2xx.o(.text)
    TIM3_IRQHandler                          0x08000253   Thumb Code     0  startup_stm32f2xx.o(.text)
    TIM4_IRQHandler                          0x08000253   Thumb Code     0  startup_stm32f2xx.o(.text)
    TIM5_IRQHandler                          0x08000253   Thumb Code     0  startup_stm32f2xx.o(.text)
    TIM6_DAC_IRQHandler                      0x08000253   Thumb Code     0  startup_stm32f2xx.o(.text)
    TIM7_IRQHandler                          0x08000253   Thumb Code     0  startup_stm32f2xx.o(.text)
    TIM8_BRK_TIM12_IRQHandler                0x08000253   Thumb Code     0  startup_stm32f2xx.o(.text)
    TIM8_CC_IRQHandler                       0x08000253   Thumb Code     0  startup_stm32f2xx.o(.text)
    TIM8_TRG_COM_TIM14_IRQHandler            0x08000253   Thumb Code     0  startup_stm32f2xx.o(.text)
    TIM8_UP_TIM13_IRQHandler                 0x08000253   Thumb Code     0  startup_stm32f2xx.o(.text)
    UART4_IRQHandler                         0x08000253   Thumb Code     0  startup_stm32f2xx.o(.text)
    UART5_IRQHandler                         0x08000253   Thumb Code     0  startup_stm32f2xx.o(.text)
    USART2_IRQHandler                        0x08000253   Thumb Code     0  startup_stm32f2xx.o(.text)
    USART3_IRQHandler                        0x08000253   Thumb Code     0  startup_stm32f2xx.o(.text)
    USART6_IRQHandler                        0x08000253   Thumb Code     0  startup_stm32f2xx.o(.text)
    WWDG_IRQHandler                          0x08000253   Thumb Code     0  startup_stm32f2xx.o(.text)
    __user_initial_stackheap                 0x08000255   Thumb Code     0  startup_stm32f2xx.o(.text)
    NVIC_PriorityGroupConfig                 0x08000279   Thumb Code    10  misc.o(.text)
    NVIC_Init                                0x08000283   Thumb Code   108  misc.o(.text)
    NVIC_SetVectorTable                      0x080002ef   Thumb Code    14  misc.o(.text)
    NVIC_SystemLPConfig                      0x080002fd   Thumb Code    34  misc.o(.text)
    SysTick_CLKSourceConfig                  0x0800031f   Thumb Code    40  misc.o(.text)
    DMA_DeInit                               0x0800035d   Thumb Code   324  stm32f2xx_dma.o(.text)
    DMA_Init                                 0x080004a1   Thumb Code    82  stm32f2xx_dma.o(.text)
    DMA_StructInit                           0x080004f3   Thumb Code    34  stm32f2xx_dma.o(.text)
    DMA_Cmd                                  0x08000515   Thumb Code    22  stm32f2xx_dma.o(.text)
    DMA_PeriphIncOffsetSizeConfig            0x0800052b   Thumb Code    22  stm32f2xx_dma.o(.text)
    DMA_FlowControllerConfig                 0x08000541   Thumb Code    22  stm32f2xx_dma.o(.text)
    DMA_SetCurrDataCounter                   0x08000557   Thumb Code     4  stm32f2xx_dma.o(.text)
    DMA_GetCurrDataCounter                   0x0800055b   Thumb Code     8  stm32f2xx_dma.o(.text)
    DMA_DoubleBufferModeConfig               0x08000563   Thumb Code    24  stm32f2xx_dma.o(.text)
    DMA_DoubleBufferModeCmd                  0x0800057b   Thumb Code    22  stm32f2xx_dma.o(.text)
    DMA_MemoryTargetConfig                   0x08000591   Thumb Code    10  stm32f2xx_dma.o(.text)
    DMA_GetCurrentMemoryTarget               0x0800059b   Thumb Code    20  stm32f2xx_dma.o(.text)
    DMA_GetCmdStatus                         0x080005af   Thumb Code    20  stm32f2xx_dma.o(.text)
    DMA_GetFIFOStatus                        0x080005c3   Thumb Code    12  stm32f2xx_dma.o(.text)
    DMA_GetFlagStatus                        0x080005cf   Thumb Code    54  stm32f2xx_dma.o(.text)
    DMA_ClearFlag                            0x08000605   Thumb Code    40  stm32f2xx_dma.o(.text)
    DMA_ITConfig                             0x0800062d   Thumb Code    58  stm32f2xx_dma.o(.text)
    DMA_GetITStatus                          0x08000667   Thumb Code    82  stm32f2xx_dma.o(.text)
    DMA_ClearITPendingBit                    0x080006b9   Thumb Code    40  stm32f2xx_dma.o(.text)
    GPIO_DeInit                              0x08000701   Thumb Code   220  stm32f2xx_gpio.o(.text)
    GPIO_Init                                0x080007dd   Thumb Code   144  stm32f2xx_gpio.o(.text)
    GPIO_StructInit                          0x0800086d   Thumb Code    18  stm32f2xx_gpio.o(.text)
    GPIO_PinLockConfig                       0x0800087f   Thumb Code    18  stm32f2xx_gpio.o(.text)
    GPIO_ReadInputDataBit                    0x08000891   Thumb Code    18  stm32f2xx_gpio.o(.text)
    GPIO_ReadInputData                       0x080008a3   Thumb Code     8  stm32f2xx_gpio.o(.text)
    GPIO_ReadOutputDataBit                   0x080008ab   Thumb Code    18  stm32f2xx_gpio.o(.text)
    GPIO_ReadOutputData                      0x080008bd   Thumb Code     8  stm32f2xx_gpio.o(.text)
    GPIO_SetBits                             0x080008c5   Thumb Code     4  stm32f2xx_gpio.o(.text)
    GPIO_ResetBits                           0x080008c9   Thumb Code     4  stm32f2xx_gpio.o(.text)
    GPIO_WriteBit                            0x080008cd   Thumb Code    10  stm32f2xx_gpio.o(.text)
    GPIO_Write                               0x080008d7   Thumb Code     4  stm32f2xx_gpio.o(.text)
    GPIO_ToggleBits                          0x080008db   Thumb Code     8  stm32f2xx_gpio.o(.text)
    GPIO_PinAFConfig                         0x080008e3   Thumb Code    70  stm32f2xx_gpio.o(.text)
    I2C_DeInit                               0x0800094d   Thumb Code    82  stm32f2xx_i2c.o(.text)
    I2C_Init                                 0x0800099f   Thumb Code   218  stm32f2xx_i2c.o(.text)
    I2C_StructInit                           0x08000a79   Thumb Code    30  stm32f2xx_i2c.o(.text)
    I2C_Cmd                                  0x08000a97   Thumb Code    24  stm32f2xx_i2c.o(.text)
    I2C_GenerateSTART                        0x08000aaf   Thumb Code    24  stm32f2xx_i2c.o(.text)
    I2C_GenerateSTOP                         0x08000ac7   Thumb Code    24  stm32f2xx_i2c.o(.text)
    I2C_Send7bitAddress                      0x08000adf   Thumb Code    16  stm32f2xx_i2c.o(.text)
    I2C_AcknowledgeConfig                    0x08000aef   Thumb Code    24  stm32f2xx_i2c.o(.text)
    I2C_OwnAddress2Config                    0x08000b07   Thumb Code    22  stm32f2xx_i2c.o(.text)
    I2C_DualAddressCmd                       0x08000b1d   Thumb Code    24  stm32f2xx_i2c.o(.text)
    I2C_GeneralCallCmd                       0x08000b35   Thumb Code    24  stm32f2xx_i2c.o(.text)
    I2C_SoftwareResetCmd                     0x08000b4d   Thumb Code    22  stm32f2xx_i2c.o(.text)
    I2C_StretchClockCmd                      0x08000b63   Thumb Code    24  stm32f2xx_i2c.o(.text)
    I2C_FastModeDutyCycleConfig              0x08000b7b   Thumb Code    28  stm32f2xx_i2c.o(.text)
    I2C_NACKPositionConfig                   0x08000b97   Thumb Code    28  stm32f2xx_i2c.o(.text)
    I2C_SMBusAlertConfig                     0x08000bb3   Thumb Code    28  stm32f2xx_i2c.o(.text)
    I2C_ARPCmd                               0x08000bcf   Thumb Code    24  stm32f2xx_i2c.o(.text)
    I2C_SendData                             0x08000be7   Thumb Code     4  stm32f2xx_i2c.o(.text)
    I2C_ReceiveData                          0x08000beb   Thumb Code     8  stm32f2xx_i2c.o(.text)
    I2C_TransmitPEC                          0x08000bf3   Thumb Code    24  stm32f2xx_i2c.o(.text)
    I2C_PECPositionConfig                    0x08000c0b   Thumb Code    28  stm32f2xx_i2c.o(.text)
    I2C_CalculatePEC                         0x08000c27   Thumb Code    24  stm32f2xx_i2c.o(.text)
    I2C_GetPEC                               0x08000c3f   Thumb Code     8  stm32f2xx_i2c.o(.text)
    I2C_DMACmd                               0x08000c47   Thumb Code    24  stm32f2xx_i2c.o(.text)
    I2C_DMALastTransferCmd                   0x08000c5f   Thumb Code    24  stm32f2xx_i2c.o(.text)
    I2C_ReadRegister                         0x08000c77   Thumb Code    12  stm32f2xx_i2c.o(.text)
    I2C_ITConfig                             0x08000c83   Thumb Code    24  stm32f2xx_i2c.o(.text)
    I2C_CheckEvent                           0x08000c9b   Thumb Code    42  stm32f2xx_i2c.o(.text)
    I2C_GetLastEvent                         0x08000cc5   Thumb Code    26  stm32f2xx_i2c.o(.text)
    I2C_GetFlagStatus                        0x08000cdf   Thumb Code    42  stm32f2xx_i2c.o(.text)
    I2C_ClearFlag                            0x08000d09   Thumb Code    12  stm32f2xx_i2c.o(.text)
    I2C_GetITStatus                          0x08000d15   Thumb Code    64  stm32f2xx_i2c.o(.text)
    I2C_ClearITPendingBit                    0x08000d55   Thumb Code    12  stm32f2xx_i2c.o(.text)
    RCC_DeInit                               0x08000d61   Thumb Code    60  stm32f2xx_rcc.o(.text)
    RCC_HSEConfig                            0x08000d9d   Thumb Code    14  stm32f2xx_rcc.o(.text)
    RCC_GetFlagStatus                        0x08000dab   Thumb Code    60  stm32f2xx_rcc.o(.text)
    RCC_WaitForHSEStartUp                    0x08000de7   Thumb Code    48  stm32f2xx_rcc.o(.text)
    RCC_AdjustHSICalibrationValue            0x08000e17   Thumb Code    20  stm32f2xx_rcc.o(.text)
    RCC_HSICmd                               0x08000e2b   Thumb Code     6  stm32f2xx_rcc.o(.text)
    RCC_LSEConfig                            0x08000e31   Thumb Code    46  stm32f2xx_rcc.o(.text)
    RCC_LSICmd                               0x08000e5f   Thumb Code     6  stm32f2xx_rcc.o(.text)
    RCC_PLLConfig                            0x08000e65   Thumb Code    32  stm32f2xx_rcc.o(.text)
    RCC_PLLCmd                               0x08000e85   Thumb Code     6  stm32f2xx_rcc.o(.text)
    RCC_PLLI2SConfig                         0x08000e8b   Thumb Code    14  stm32f2xx_rcc.o(.text)
    RCC_PLLI2SCmd                            0x08000e99   Thumb Code     6  stm32f2xx_rcc.o(.text)
    RCC_ClockSecuritySystemCmd               0x08000e9f   Thumb Code     6  stm32f2xx_rcc.o(.text)
    RCC_MCO1Config                           0x08000ea5   Thumb Code    28  stm32f2xx_rcc.o(.text)
    RCC_MCO2Config                           0x08000ec1   Thumb Code    28  stm32f2xx_rcc.o(.text)
    RCC_SYSCLKConfig                         0x08000edd   Thumb Code    20  stm32f2xx_rcc.o(.text)
    RCC_GetSYSCLKSource                      0x08000ef1   Thumb Code    12  stm32f2xx_rcc.o(.text)
    RCC_HCLKConfig                           0x08000efd   Thumb Code    20  stm32f2xx_rcc.o(.text)
    RCC_PCLK1Config                          0x08000f11   Thumb Code    20  stm32f2xx_rcc.o(.text)
    RCC_PCLK2Config                          0x08000f25   Thumb Code    22  stm32f2xx_rcc.o(.text)
    RCC_GetClocksFreq                        0x08000f3b   Thumb Code   222  stm32f2xx_rcc.o(.text)
    RCC_RTCCLKConfig                         0x08001019   Thumb Code    54  stm32f2xx_rcc.o(.text)
    RCC_RTCCLKCmd                            0x0800104f   Thumb Code     8  stm32f2xx_rcc.o(.text)
    RCC_BackupResetCmd                       0x08001057   Thumb Code     8  stm32f2xx_rcc.o(.text)
    RCC_I2SCLKConfig                         0x0800105f   Thumb Code     6  stm32f2xx_rcc.o(.text)
    RCC_AHB1PeriphClockCmd                   0x08001065   Thumb Code    34  stm32f2xx_rcc.o(.text)
    RCC_AHB2PeriphClockCmd                   0x08001087   Thumb Code    34  stm32f2xx_rcc.o(.text)
    RCC_AHB3PeriphClockCmd                   0x080010a9   Thumb Code    34  stm32f2xx_rcc.o(.text)
    RCC_APB1PeriphClockCmd                   0x080010cb   Thumb Code    34  stm32f2xx_rcc.o(.text)
    RCC_APB2PeriphClockCmd                   0x080010ed   Thumb Code    34  stm32f2xx_rcc.o(.text)
    RCC_AHB1PeriphResetCmd                   0x0800110f   Thumb Code    34  stm32f2xx_rcc.o(.text)
    RCC_AHB2PeriphResetCmd                   0x08001131   Thumb Code    72  stm32f2xx_rcc.o(.text)
    RCC_AHB3PeriphResetCmd                   0x08001179   Thumb Code    34  stm32f2xx_rcc.o(.text)
    RCC_APB1PeriphResetCmd                   0x0800119b   Thumb Code    34  stm32f2xx_rcc.o(.text)
    RCC_APB2PeriphResetCmd                   0x080011bd   Thumb Code    34  stm32f2xx_rcc.o(.text)
    RCC_AHB1PeriphClockLPModeCmd             0x080011df   Thumb Code    34  stm32f2xx_rcc.o(.text)
    RCC_AHB2PeriphClockLPModeCmd             0x08001201   Thumb Code    34  stm32f2xx_rcc.o(.text)
    RCC_AHB3PeriphClockLPModeCmd             0x08001223   Thumb Code    34  stm32f2xx_rcc.o(.text)
    RCC_APB1PeriphClockLPModeCmd             0x08001245   Thumb Code    34  stm32f2xx_rcc.o(.text)
    RCC_APB2PeriphClockLPModeCmd             0x08001267   Thumb Code    34  stm32f2xx_rcc.o(.text)
    RCC_ITConfig                             0x08001289   Thumb Code    38  stm32f2xx_rcc.o(.text)
    RCC_ClearFlag                            0x080012af   Thumb Code    18  stm32f2xx_rcc.o(.text)
    RCC_GetITStatus                          0x080012c1   Thumb Code    22  stm32f2xx_rcc.o(.text)
    RCC_ClearITPendingBit                    0x080012d7   Thumb Code     8  stm32f2xx_rcc.o(.text)
    SDIO_DeInit                              0x080012e5   Thumb Code    22  stm32f2xx_sdio.o(.text)
    SDIO_Init                                0x080012fb   Thumb Code    42  stm32f2xx_sdio.o(.text)
    SDIO_StructInit                          0x08001325   Thumb Code    16  stm32f2xx_sdio.o(.text)
    SDIO_ClockCmd                            0x08001335   Thumb Code     6  stm32f2xx_sdio.o(.text)
    SDIO_SetPowerState                       0x0800133b   Thumb Code    26  stm32f2xx_sdio.o(.text)
    SDIO_GetPowerState                       0x08001355   Thumb Code    12  stm32f2xx_sdio.o(.text)
    SDIO_SendCommand                         0x08001361   Thumb Code    42  stm32f2xx_sdio.o(.text)
    SDIO_CmdStructInit                       0x0800138b   Thumb Code    14  stm32f2xx_sdio.o(.text)
    SDIO_GetCommandResponse                  0x08001399   Thumb Code    10  stm32f2xx_sdio.o(.text)
    SDIO_GetResponse                         0x080013a3   Thumb Code    14  stm32f2xx_sdio.o(.text)
    SDIO_DataConfig                          0x080013b1   Thumb Code    48  stm32f2xx_sdio.o(.text)
    SDIO_DataStructInit                      0x080013e1   Thumb Code    20  stm32f2xx_sdio.o(.text)
    SDIO_GetDataCounter                      0x080013f5   Thumb Code     8  stm32f2xx_sdio.o(.text)
    SDIO_ReadData                            0x080013fd   Thumb Code     8  stm32f2xx_sdio.o(.text)
    SDIO_WriteData                           0x08001405   Thumb Code     8  stm32f2xx_sdio.o(.text)
    SDIO_GetFIFOCount                        0x0800140d   Thumb Code     8  stm32f2xx_sdio.o(.text)
    SDIO_StartSDIOReadWait                   0x08001415   Thumb Code     6  stm32f2xx_sdio.o(.text)
    SDIO_StopSDIOReadWait                    0x0800141b   Thumb Code     8  stm32f2xx_sdio.o(.text)
    SDIO_SetSDIOReadWaitMode                 0x08001423   Thumb Code     8  stm32f2xx_sdio.o(.text)
    SDIO_SetSDIOOperation                    0x0800142b   Thumb Code     8  stm32f2xx_sdio.o(.text)
    SDIO_SendSDIOSuspendCmd                  0x08001433   Thumb Code     6  stm32f2xx_sdio.o(.text)
    SDIO_CommandCompletionCmd                0x08001439   Thumb Code     6  stm32f2xx_sdio.o(.text)
    SDIO_CEATAITCmd                          0x0800143f   Thumb Code    10  stm32f2xx_sdio.o(.text)
    SDIO_SendCEATACmd                        0x08001449   Thumb Code     6  stm32f2xx_sdio.o(.text)
    SDIO_DMACmd                              0x0800144f   Thumb Code     8  stm32f2xx_sdio.o(.text)
    SDIO_ITConfig                            0x08001457   Thumb Code    34  stm32f2xx_sdio.o(.text)
    SDIO_GetFlagStatus                       0x08001479   Thumb Code    22  stm32f2xx_sdio.o(.text)
    SDIO_ClearFlag                           0x0800148f   Thumb Code     8  stm32f2xx_sdio.o(.text)
    SDIO_GetITStatus                         0x08001497   Thumb Code    22  stm32f2xx_sdio.o(.text)
    SDIO_ClearITPendingBit                   0x080014ad   Thumb Code     8  stm32f2xx_sdio.o(.text)
    SPI_I2S_DeInit                           0x080014d1   Thumb Code    76  stm32f2xx_spi.o(.text)
    SPI_Init                                 0x0800151d   Thumb Code    60  stm32f2xx_spi.o(.text)
    I2S_Init                                 0x08001559   Thumb Code   340  stm32f2xx_spi.o(.text)
    SPI_StructInit                           0x080016ad   Thumb Code    24  stm32f2xx_spi.o(.text)
    I2S_StructInit                           0x080016c5   Thumb Code    20  stm32f2xx_spi.o(.text)
    SPI_Cmd                                  0x080016d9   Thumb Code    24  stm32f2xx_spi.o(.text)
    I2S_Cmd                                  0x080016f1   Thumb Code    24  stm32f2xx_spi.o(.text)
    SPI_DataSizeConfig                       0x08001709   Thumb Code    18  stm32f2xx_spi.o(.text)
    SPI_BiDirectionalLineConfig              0x0800171b   Thumb Code    28  stm32f2xx_spi.o(.text)
    SPI_NSSInternalSoftwareConfig            0x08001737   Thumb Code    30  stm32f2xx_spi.o(.text)
    SPI_SSOutputCmd                          0x08001755   Thumb Code    24  stm32f2xx_spi.o(.text)
    SPI_TIModeCmd                            0x0800176d   Thumb Code    24  stm32f2xx_spi.o(.text)
    SPI_I2S_ReceiveData                      0x08001785   Thumb Code     6  stm32f2xx_spi.o(.text)
    SPI_I2S_SendData                         0x0800178b   Thumb Code     4  stm32f2xx_spi.o(.text)
    SPI_CalculateCRC                         0x0800178f   Thumb Code    24  stm32f2xx_spi.o(.text)
    SPI_TransmitCRC                          0x080017a7   Thumb Code    10  stm32f2xx_spi.o(.text)
    SPI_GetCRC                               0x080017b1   Thumb Code    16  stm32f2xx_spi.o(.text)
    SPI_GetCRCPolynomial                     0x080017c1   Thumb Code     6  stm32f2xx_spi.o(.text)
    SPI_I2S_DMACmd                           0x080017c7   Thumb Code    24  stm32f2xx_spi.o(.text)
    SPI_I2S_ITConfig                         0x080017df   Thumb Code    36  stm32f2xx_spi.o(.text)
    SPI_I2S_GetFlagStatus                    0x08001803   Thumb Code    18  stm32f2xx_spi.o(.text)
    SPI_I2S_ClearFlag                        0x08001815   Thumb Code     6  stm32f2xx_spi.o(.text)
    SPI_I2S_GetITStatus                      0x0800181b   Thumb Code    52  stm32f2xx_spi.o(.text)
    SPI_I2S_ClearITPendingBit                0x0800184f   Thumb Code    20  stm32f2xx_spi.o(.text)
    USART_DeInit                             0x08001879   Thumb Code   156  stm32f2xx_usart.o(.text)
    USART_Init                               0x08001915   Thumb Code   204  stm32f2xx_usart.o(.text)
    USART_StructInit                         0x080019e1   Thumb Code    24  stm32f2xx_usart.o(.text)
    USART_ClockInit                          0x080019f9   Thumb Code    32  stm32f2xx_usart.o(.text)
    USART_ClockStructInit                    0x08001a19   Thumb Code    12  stm32f2xx_usart.o(.text)
    USART_Cmd                                0x08001a25   Thumb Code    24  stm32f2xx_usart.o(.text)
    USART_SetPrescaler                       0x08001a3d   Thumb Code    16  stm32f2xx_usart.o(.text)
    USART_OverSampling8Cmd                   0x08001a4d   Thumb Code    22  stm32f2xx_usart.o(.text)
    USART_OneBitMethodCmd                    0x08001a63   Thumb Code    24  stm32f2xx_usart.o(.text)
    USART_SendData                           0x08001a7b   Thumb Code     8  stm32f2xx_usart.o(.text)
    USART_ReceiveData                        0x08001a83   Thumb Code    10  stm32f2xx_usart.o(.text)
    USART_SetAddress                         0x08001a8d   Thumb Code    18  stm32f2xx_usart.o(.text)
    USART_ReceiverWakeUpCmd                  0x08001a9f   Thumb Code    24  stm32f2xx_usart.o(.text)
    USART_WakeUpConfig                       0x08001ab7   Thumb Code    18  stm32f2xx_usart.o(.text)
    USART_LINBreakDetectLengthConfig         0x08001ac9   Thumb Code    18  stm32f2xx_usart.o(.text)
    USART_LINCmd                             0x08001adb   Thumb Code    24  stm32f2xx_usart.o(.text)
    USART_SendBreak                          0x08001af3   Thumb Code    10  stm32f2xx_usart.o(.text)
    USART_HalfDuplexCmd                      0x08001afd   Thumb Code    24  stm32f2xx_usart.o(.text)
    USART_SetGuardTime                       0x08001b15   Thumb Code    16  stm32f2xx_usart.o(.text)
    USART_SmartCardCmd                       0x08001b25   Thumb Code    24  stm32f2xx_usart.o(.text)
    USART_SmartCardNACKCmd                   0x08001b3d   Thumb Code    24  stm32f2xx_usart.o(.text)
    USART_IrDAConfig                         0x08001b55   Thumb Code    18  stm32f2xx_usart.o(.text)
    USART_IrDACmd                            0x08001b67   Thumb Code    24  stm32f2xx_usart.o(.text)
    USART_DMACmd                             0x08001b7f   Thumb Code    24  stm32f2xx_usart.o(.text)
    USART_ITConfig                           0x08001b97   Thumb Code    74  stm32f2xx_usart.o(.text)
    USART_GetFlagStatus                      0x08001be1   Thumb Code    26  stm32f2xx_usart.o(.text)
    USART_ClearFlag                          0x08001bfb   Thumb Code    18  stm32f2xx_usart.o(.text)
    USART_GetITStatus                        0x08001c0d   Thumb Code   108  stm32f2xx_usart.o(.text)
    USART_ClearITPendingBit                  0x08001c79   Thumb Code    30  stm32f2xx_usart.o(.text)
    SystemInit                               0x08001d43   Thumb Code    74  system_stm32f2xx.o(.text)
    SystemCoreClockUpdate                    0x08001d8d   Thumb Code   174  system_stm32f2xx.o(.text)
    NVIC_Configuration                       0x08001e65   Thumb Code    70  main.o(.text)
    ReadUnit                                 0x08001eab   Thumb Code    38  main.o(.text)
    WavePlayer_WaveParsing                   0x08001ed1   Thumb Code   518  main.o(.text)
    OutPutFile                               0x080020d7   Thumb Code   166  main.o(.text)
    AUDIO_TransferComplete_CallBack          0x0800217d   Thumb Code    42  main.o(.text)
    Audio_Play                               0x080021a7   Thumb Code  1042  main.o(.text)
    GET_SYSclock                             0x080025b9   Thumb Code   120  main.o(.text)
    main                                     0x08002631   Thumb Code    28  main.o(.text)
    NMI_Handler                              0x08002715   Thumb Code     2  stm32f2xx_it.o(.text)
    HardFault_Handler                        0x08002717   Thumb Code     4  stm32f2xx_it.o(.text)
    MemManage_Handler                        0x0800271b   Thumb Code     4  stm32f2xx_it.o(.text)
    BusFault_Handler                         0x0800271f   Thumb Code     4  stm32f2xx_it.o(.text)
    UsageFault_Handler                       0x08002723   Thumb Code     4  stm32f2xx_it.o(.text)
    SVC_Handler                              0x08002727   Thumb Code     2  stm32f2xx_it.o(.text)
    DebugMon_Handler                         0x08002729   Thumb Code     2  stm32f2xx_it.o(.text)
    PendSV_Handler                           0x0800272b   Thumb Code     2  stm32f2xx_it.o(.text)
    SysTick_Handler                          0x0800272d   Thumb Code     2  stm32f2xx_it.o(.text)
    USART1_IRQHandler                        0x0800272f   Thumb Code    32  stm32f2xx_it.o(.text)
    SDIO_IRQHandler                          0x0800274f   Thumb Code     8  stm32f2xx_it.o(.text)
    USART_NVIC_Config                        0x08002795   Thumb Code    34  usart.o(.text)
    USART_Configuration                      0x080027b7   Thumb Code   178  usart.o(.text)
    _sys_exit                                0x08002869   Thumb Code     6  usart.o(.text)
    fputc                                    0x0800286f   Thumb Code    32  usart.o(.text)
    CODEC_I2C_Configuration                  0x08002899   Thumb Code   152  i2c.o(.text)
    CODEC_I2C_Write                          0x08002931   Thumb Code   206  i2c.o(.text)
    CODEC_I2S_Configuration                  0x08002a19   Thumb Code   364  i2s.o(.text)
    Audio_MAL_Play                           0x08002b85   Thumb Code    52  i2s.o(.text)
    DMA1_Stream4_IRQHandler                  0x08002bb9   Thumb Code   188  i2s.o(.text)
    UDA1380_Configuration                    0x08002c9d   Thumb Code    72  uda1380.o(.text)
    AUDIO_Play                               0x08002ce5   Thumb Code    96  uda1380.o(.text)
    AudioFlashPlay                           0x08002d45   Thumb Code    20  uda1380.o(.text)
    SD_InitializeCards                       0x08002e6b   Thumb Code   300  sdcard.o(.text)
    SD_PowerON                               0x08003165   Thumb Code   418  sdcard.o(.text)
    SD_Init                                  0x080033a5   Thumb Code    68  sdcard.o(.text)
    SD_PowerOFF                              0x080033e9   Thumb Code    14  sdcard.o(.text)
    SD_GetCardInfo                           0x080033f7   Thumb Code   800  sdcard.o(.text)
    SD_EnableWideBusOperation                0x080039b5   Thumb Code   174  sdcard.o(.text)
    SD_SetDeviceMode                         0x08003a63   Thumb Code    24  sdcard.o(.text)
    SD_SelectDeselect                        0x08003a7b   Thumb Code    48  sdcard.o(.text)
    SD_ReadBlock                             0x08003b3d   Thumb Code   574  sdcard.o(.text)
    SD_ReadMultiBlocks                       0x08003d7b   Thumb Code   772  sdcard.o(.text)
    SD_WriteBlock                            0x0800407f   Thumb Code   340  sdcard.o(.text)
    SD_WriteMultiBlocks                      0x080043dd   Thumb Code  1026  sdcard.o(.text)
    SD_GetTransferState                      0x080047df   Thumb Code    18  sdcard.o(.text)
    SD_StopTransfer                          0x080047f1   Thumb Code    46  sdcard.o(.text)
    SD_Erase                                 0x0800481f   Thumb Code   298  sdcard.o(.text)
    SD_SendStatus                            0x08004949   Thumb Code    76  sdcard.o(.text)
    SD_SendSDStatus                          0x08004995   Thumb Code   418  sdcard.o(.text)
    SD_ProcessIRQSrc                         0x08004b37   Thumb Code   598  sdcard.o(.text)
    disk_initialize                          0x08004dad   Thumb Code   154  diskio.o(.text)
    disk_status                              0x08004e47   Thumb Code    12  diskio.o(.text)
    disk_read                                0x08004e53   Thumb Code   128  diskio.o(.text)
    disk_write                               0x08004ed3   Thumb Code   128  diskio.o(.text)
    disk_ioctl                               0x08004f53   Thumb Code   114  diskio.o(.text)
    get_fattime                              0x08004fc5   Thumb Code     4  diskio.o(.text)
    get_fat                                  0x0800516f   Thumb Code   286  ff.o(.text)
    put_fat                                  0x0800528d   Thumb Code   338  ff.o(.text)
    clust2sect                               0x080054fd   Thumb Code    26  ff.o(.text)
    chk_mounted                              0x08005b19   Thumb Code   750  ff.o(.text)
    f_mount                                  0x08005e31   Thumb Code    38  ff.o(.text)
    f_open                                   0x08005e57   Thumb Code   392  ff.o(.text)
    f_read                                   0x08005fdf   Thumb Code   476  ff.o(.text)
    f_write                                  0x080061bb   Thumb Code   520  ff.o(.text)
    f_sync                                   0x080063c3   Thumb Code   182  ff.o(.text)
    f_close                                  0x08006479   Thumb Code    22  ff.o(.text)
    f_lseek                                  0x0800648f   Thumb Code   448  ff.o(.text)
    f_opendir                                0x0800664f   Thumb Code   104  ff.o(.text)
    f_readdir                                0x080066b7   Thumb Code    88  ff.o(.text)
    f_stat                                   0x0800670f   Thumb Code    58  ff.o(.text)
    f_getfree                                0x08006749   Thumb Code   276  ff.o(.text)
    f_truncate                               0x0800685d   Thumb Code   158  ff.o(.text)
    f_unlink                                 0x080068fb   Thumb Code   186  ff.o(.text)
    f_mkdir                                  0x080069b5   Thumb Code   390  ff.o(.text)
    f_chmod                                  0x08006b3b   Thumb Code    88  ff.o(.text)
    f_utime                                  0x08006b93   Thumb Code    86  ff.o(.text)
    f_rename                                 0x08006be9   Thumb Code   280  ff.o(.text)
    __use_no_semihosting                     0x08006d01   Thumb Code     2  use_no_semi_2.o(.text)
    __2printf                                0x08006d05   Thumb Code    20  noretval__2printf.o(.text)
    __printf                                 0x08006d1d   Thumb Code   106  __printf.o(.text)
    _printf_str                              0x08006d87   Thumb Code    82  _printf_str.o(.text)
    _printf_int_dec                          0x08006dd9   Thumb Code   102  _printf_dec.o(.text)
    _printf_int_hex                          0x08006e51   Thumb Code    88  _printf_hex_int.o(.text)
    _printf_longlong_hex                     0x08006e51   Thumb Code     0  _printf_hex_int.o(.text)
    __use_two_region_memory                  0x08006ead   Thumb Code     2  heapauxi.o(.text)
    __rt_heap_escrow$2region                 0x08006eaf   Thumb Code     2  heapauxi.o(.text)
    __rt_heap_expand$2region                 0x08006eb1   Thumb Code     2  heapauxi.o(.text)
    __I$use$semihosting                      0x08006eb3   Thumb Code     0  use_no_semi.o(.text)
    __use_no_semihosting_swi                 0x08006eb3   Thumb Code     2  use_no_semi.o(.text)
    _printf_int_common                       0x08006eb5   Thumb Code   184  _printf_intcommon.o(.text)
    _printf_cs_common                        0x08006f6d   Thumb Code    20  _printf_char.o(.text)
    _printf_char                             0x08006f81   Thumb Code    16  _printf_char.o(.text)
    _printf_string                           0x08006f91   Thumb Code     8  _printf_char.o(.text)
    _printf_char_file                        0x08006f99   Thumb Code    32  _printf_char_file.o(.text)
    _printf_char_common                      0x08006fc7   Thumb Code    32  _printf_char_common.o(.text)
    ferror                                   0x08006fed   Thumb Code     8  ferror.o(.text)
    __user_setup_stackheap                   0x08006ff5   Thumb Code    74  sys_stackheap_outer.o(.text)
    exit                                     0x0800703f   Thumb Code    12  exit.o(.text)
    __user_libspace                          0x0800704d   Thumb Code     8  libspace.o(.text)
    __user_perproc_libspace                  0x0800704d   Thumb Code     0  libspace.o(.text)
    __user_perthread_libspace                0x0800704d   Thumb Code     0  libspace.o(.text)
    __rt_fp_status_addr                      0x08007055   Thumb Code     8  rt_fp_status_addr_intlibspace.o(.text)
    _fp_init                                 0x0800705d   Thumb Code    14  fpinit.o(x$fpl$fpinit)
    __fplib_config_pureend_doubles           0x08007069   Thumb Code     0  fpinit.o(x$fpl$fpinit)
    Region$$Table$$Base                      0x08007094   Number         0  anon$$obj.o(Region$$Table)
    Region$$Table$$Limit                     0x080070b4   Number         0  anon$$obj.o(Region$$Table)
    SystemCoreClock                          0x20000010   Data           4  system_stm32f2xx.o(.data)
    AHBPrescTable                            0x20000014   Data          16  system_stm32f2xx.o(.data)
    WaveDataLength                           0x20000024   Data           4  main.o(.data)
    WaveFileStatus                           0x20000028   Data           1  main.o(.data)
    XferCplt                                 0x20000030   Data           4  main.o(.data)
    WaveCounter                              0x20000038   Data           4  main.o(.data)
    res                                      0x2000003c   Data           1  main.o(.data)
    BytesRead                                0x20000040   Data           4  main.o(.data)
    __stdout                                 0x20000044   Data           4  usart.o(.data)
    I2C_TIMEOUT_MAX                          0x20000048   Data           4  i2c.o(.data)
    UDA1380InitData                          0x2000004c   Data          45  uda1380.o(.data)
    AudioTotalSize                           0x2000007c   Data           4  uda1380.o(.data)
    AudioRemSize                             0x20000080   Data           4  uda1380.o(.data)
    CurrentPos                               0x20000084   Data           4  uda1380.o(.data)
    TransferError                            0x2000009c   Data           1  sdcard.o(.data)
    TransferEnd                              0x200000a0   Data           4  sdcard.o(.data)
    NumberOfBytes                            0x200000a4   Data           4  sdcard.o(.data)
    SrcBuffer                                0x200000a8   Data           4  sdcard.o(.data)
    DestBuffer                               0x200000ac   Data           4  sdcard.o(.data)
    buffer1                                  0x200000b8   Data        2048  main.o(.bss)
    buffer2                                  0x200008b8   Data        2048  main.o(.bss)
    WAVE_Format                              0x200010b8   Data          24  main.o(.bss)
    fs                                       0x200010d0   Data         560  main.o(.bss)
    fileR                                    0x20001300   Data         548  main.o(.bss)
    SDIO_InitStructure                       0x20001580   Data          24  sdcard.o(.bss)
    SDIO_CmdInitStructure                    0x20001598   Data          20  sdcard.o(.bss)
    SDIO_DataInitStructure                   0x200015ac   Data          24  sdcard.o(.bss)
    __libspace_start                         0x20001614   Data          96  libspace.o(.bss)
    __temporary_stack_top$libspace           0x20001674   Data           0  libspace.o(.bss)



==============================================================================

Memory Map of the image

  Image Entry point : 0x08000185

  Load Region LR_IROM1 (Base: 0x08000000, Size: 0x0000716c, Max: 0x00100000, ABSOLUTE)

    Execution Region ER_IROM1 (Base: 0x08000000, Size: 0x000070b4, Max: 0x00100000, ABSOLUTE)

    Base Addr    Size         Type   Attr      Idx    E Section Name        Object

    0x08000000   0x00000184   Data   RO            3    RESET               startup_stm32f2xx.o
    0x08000184   0x00000008   Code   RO          754  * !!!main             c_w.l(__main.o)
    0x0800018c   0x00000034   Code   RO          924    !!!scatter          c_w.l(__scatter.o)
    0x080001c0   0x0000001a   Code   RO          926    !!handler_copy      c_w.l(__scatter_copy.o)
    0x080001da   0x00000002   PAD
    0x080001dc   0x0000001c   Code   RO          928    !!handler_zi        c_w.l(__scatter_zi.o)
    0x080001f8   0x00000000   Code   RO          751    .ARM.Collect$$_printf_percent$$00000000  c_w.l(_printf_percent.o)
    0x080001f8   0x00000006   Code   RO          750    .ARM.Collect$$_printf_percent$$00000009  c_w.l(_printf_d.o)
    0x080001fe   0x00000006   Code   RO          749    .ARM.Collect$$_printf_percent$$0000000C  c_w.l(_printf_x.o)
    0x08000204   0x00000006   Code   RO          748    .ARM.Collect$$_printf_percent$$00000013  c_w.l(_printf_c.o)
    0x0800020a   0x00000004   Code   RO          765    .ARM.Collect$$_printf_percent$$00000017  c_w.l(_printf_percent_end.o)
    0x0800020e   0x00000006   Code   RO          798    .ARM.Collect$$libinit$$00000000  c_w.l(libinit.o)
    0x08000214   0x00000000   Code   RO          806    .ARM.Collect$$libinit$$00000006  c_w.l(libinit2.o)
    0x08000214   0x00000000   Code   RO          808    .ARM.Collect$$libinit$$00000008  c_w.l(libinit2.o)
    0x08000214   0x00000000   Code   RO          810    .ARM.Collect$$libinit$$0000000A  c_w.l(libinit2.o)
    0x08000214   0x00000000   Code   RO          813    .ARM.Collect$$libinit$$0000000D  c_w.l(libinit2.o)
    0x08000214   0x00000000   Code   RO          815    .ARM.Collect$$libinit$$0000000F  c_w.l(libinit2.o)
    0x08000214   0x00000000   Code   RO          817    .ARM.Collect$$libinit$$00000011  c_w.l(libinit2.o)
    0x08000214   0x00000000   Code   RO          819    .ARM.Collect$$libinit$$00000013  c_w.l(libinit2.o)
    0x08000214   0x00000000   Code   RO          821    .ARM.Collect$$libinit$$00000015  c_w.l(libinit2.o)
    0x08000214   0x00000000   Code   RO          823    .ARM.Collect$$libinit$$00000017  c_w.l(libinit2.o)
    0x08000214   0x00000000   Code   RO          825    .ARM.Collect$$libinit$$00000019  c_w.l(libinit2.o)
    0x08000214   0x00000000   Code   RO          827    .ARM.Collect$$libinit$$0000001B  c_w.l(libinit2.o)
    0x08000214   0x00000000   Code   RO          829    .ARM.Collect$$libinit$$0000001D  c_w.l(libinit2.o)
    0x08000214   0x00000000   Code   RO          831    .ARM.Collect$$libinit$$0000001F  c_w.l(libinit2.o)
    0x08000214   0x00000000   Code   RO          833    .ARM.Collect$$libinit$$00000021  c_w.l(libinit2.o)
    0x08000214   0x00000000   Code   RO          837    .ARM.Collect$$libinit$$00000028  c_w.l(libinit2.o)
    0x08000214   0x00000000   Code   RO          839    .ARM.Collect$$libinit$$0000002A  c_w.l(libinit2.o)
    0x08000214   0x00000000   Code   RO          841    .ARM.Collect$$libinit$$0000002C  c_w.l(libinit2.o)
    0x08000214   0x00000000   Code   RO          843    .ARM.Collect$$libinit$$0000002E  c_w.l(libinit2.o)
    0x08000214   0x00000002   Code   RO          844    .ARM.Collect$$libinit$$0000002F  c_w.l(libinit2.o)
    0x08000216   0x00000002   Code   RO          867    .ARM.Collect$$libshutdown$$00000000  c_w.l(libshutdown.o)
    0x08000218   0x00000000   Code   RO          878    .ARM.Collect$$libshutdown$$00000003  c_w.l(libshutdown2.o)
    0x08000218   0x00000000   Code   RO          881    .ARM.Collect$$libshutdown$$00000006  c_w.l(libshutdown2.o)
    0x08000218   0x00000000   Code   RO          884    .ARM.Collect$$libshutdown$$00000009  c_w.l(libshutdown2.o)
    0x08000218   0x00000000   Code   RO          886    .ARM.Collect$$libshutdown$$0000000B  c_w.l(libshutdown2.o)
    0x08000218   0x00000000   Code   RO          889    .ARM.Collect$$libshutdown$$0000000E  c_w.l(libshutdown2.o)
    0x08000218   0x00000002   Code   RO          890    .ARM.Collect$$libshutdown$$0000000F  c_w.l(libshutdown2.o)
    0x0800021a   0x00000000   Code   RO          758    .ARM.Collect$$rtentry$$00000000  c_w.l(rtentry.o)
    0x0800021a   0x00000000   Code   RO          767    .ARM.Collect$$rtentry$$00000002  c_w.l(rtentry2.o)
    0x0800021a   0x00000006   Code   RO          779    .ARM.Collect$$rtentry$$00000004  c_w.l(rtentry4.o)
    0x08000220   0x00000000   Code   RO          769    .ARM.Collect$$rtentry$$00000009  c_w.l(rtentry2.o)
    0x08000220   0x00000004   Code   RO          770    .ARM.Collect$$rtentry$$0000000A  c_w.l(rtentry2.o)
    0x08000224   0x00000000   Code   RO          772    .ARM.Collect$$rtentry$$0000000C  c_w.l(rtentry2.o)
    0x08000224   0x00000008   Code   RO          773    .ARM.Collect$$rtentry$$0000000D  c_w.l(rtentry2.o)
    0x0800022c   0x00000002   Code   RO          802    .ARM.Collect$$rtexit$$00000000  c_w.l(rtexit.o)
    0x0800022e   0x00000000   Code   RO          848    .ARM.Collect$$rtexit$$00000002  c_w.l(rtexit2.o)
    0x0800022e   0x00000004   Code   RO          849    .ARM.Collect$$rtexit$$00000003  c_w.l(rtexit2.o)
    0x08000232   0x00000006   Code   RO          850    .ARM.Collect$$rtexit$$00000004  c_w.l(rtexit2.o)
    0x08000238   0x00000040   Code   RO            4    .text               startup_stm32f2xx.o
    0x08000278   0x000000e4   Code   RO           10    .text               misc.o
    0x0800035c   0x000003a4   Code   RO          238    .text               stm32f2xx_dma.o
    0x08000700   0x0000024c   Code   RO          286    .text               stm32f2xx_gpio.o
    0x0800094c   0x00000414   Code   RO          334    .text               stm32f2xx_i2c.o
    0x08000d60   0x00000584   Code   RO          370    .text               stm32f2xx_rcc.o
    0x080012e4   0x000001ec   Code   RO          408    .text               stm32f2xx_sdio.o
    0x080014d0   0x000003a8   Code   RO          420    .text               stm32f2xx_spi.o
    0x08001878   0x0000041e   Code   RO          456    .text               stm32f2xx_usart.o
    0x08001c96   0x00000002   PAD
    0x08001c98   0x000001cc   Code   RO          490    .text               system_stm32f2xx.o
    0x08001e64   0x000008b0   Code   RO          508    .text               main.o
    0x08002714   0x00000080   Code   RO          558    .text               stm32f2xx_it.o
    0x08002794   0x00000104   Code   RO          576    .text               usart.o
    0x08002898   0x00000180   Code   RO          595    .text               i2c.o
    0x08002a18   0x00000284   Code   RO          610    .text               i2s.o
    0x08002c9c   0x000000f4   Code   RO          631    .text               uda1380.o
    0x08002d90   0x0000201c   Code   RO          649    .text               sdcard.o
    0x08004dac   0x00000220   Code   RO          665    .text               diskio.o
    0x08004fcc   0x00001d34   Code   RO          679    .text               ff.o
    0x08006d00   0x00000002   Code   RO          695    .text               c_w.l(use_no_semi_2.o)
    0x08006d02   0x00000002   PAD
    0x08006d04   0x00000018   Code   RO          699    .text               c_w.l(noretval__2printf.o)
    0x08006d1c   0x0000006a   Code   RO          701    .text               c_w.l(__printf.o)
    0x08006d86   0x00000052   Code   RO          703    .text               c_w.l(_printf_str.o)
    0x08006dd8   0x00000078   Code   RO          705    .text               c_w.l(_printf_dec.o)
    0x08006e50   0x0000005c   Code   RO          710    .text               c_w.l(_printf_hex_int.o)
    0x08006eac   0x00000006   Code   RO          752    .text               c_w.l(heapauxi.o)
    0x08006eb2   0x00000002   Code   RO          756    .text               c_w.l(use_no_semi.o)
    0x08006eb4   0x000000b8   Code   RO          759    .text               c_w.l(_printf_intcommon.o)
    0x08006f6c   0x0000002c   Code   RO          761    .text               c_w.l(_printf_char.o)
    0x08006f98   0x00000024   Code   RO          763    .text               c_w.l(_printf_char_file.o)
    0x08006fbc   0x00000030   Code   RO          781    .text               c_w.l(_printf_char_common.o)
    0x08006fec   0x00000008   Code   RO          783    .text               c_w.l(ferror.o)
    0x08006ff4   0x0000004a   Code   RO          787    .text               c_w.l(sys_stackheap_outer.o)
    0x0800703e   0x0000000c   Code   RO          791    .text               c_w.l(exit.o)
    0x0800704a   0x00000002   PAD
    0x0800704c   0x00000008   Code   RO          799    .text               c_w.l(libspace.o)
    0x08007054   0x00000008   Code   RO          857    .text               c_w.l(rt_fp_status_addr_intlibspace.o)
    0x0800705c   0x0000000e   Code   RO          845    x$fpl$fpinit        fz_ws.l(fpinit.o)
    0x0800706a   0x00000028   Data   RO          711    .constdata          c_w.l(_printf_hex_int.o)
    0x08007092   0x00000002   PAD
    0x08007094   0x00000020   Data   RO          922    Region$$Table       anon$$obj.o


    Execution Region RW_IRAM1 (Base: 0x20000000, Size: 0x00001c78, Max: 0x00020000, ABSOLUTE)

    Base Addr    Size         Type   Attr      Idx    E Section Name        Object

    0x20000000   0x00000010   Data   RW          371    .data               stm32f2xx_rcc.o
    0x20000010   0x00000014   Data   RW          491    .data               system_stm32f2xx.o
    0x20000024   0x00000020   Data   RW          510    .data               main.o
    0x20000044   0x00000004   Data   RW          577    .data               usart.o
    0x20000048   0x00000004   Data   RW          596    .data               i2c.o
    0x2000004c   0x0000003c   Data   RW          632    .data               uda1380.o
    0x20000088   0x00000028   Data   RW          651    .data               sdcard.o
    0x200000b0   0x00000006   Data   RW          680    .data               ff.o
    0x200000b6   0x00000002   PAD
    0x200000b8   0x0000146c   Zero   RW          509    .bss                main.o
    0x20001524   0x0000003c   Zero   RW          611    .bss                i2s.o
    0x20001560   0x00000064   Zero   RW          650    .bss                sdcard.o
    0x200015c4   0x00000050   Zero   RW          666    .bss                diskio.o
    0x20001614   0x00000060   Zero   RW          800    .bss                c_w.l(libspace.o)
    0x20001674   0x00000004   PAD
    0x20001678   0x00000200   Zero   RW            2    HEAP                startup_stm32f2xx.o
    0x20001878   0x00000400   Zero   RW            1    STACK               startup_stm32f2xx.o


==============================================================================

Image component sizes


      Code (inc. data)   RO Data    RW Data    ZI Data      Debug   Object Name

       544          4          0          0         80       3310   diskio.o
      7476         38          0          6          0      19816   ff.o
       384         26          0          4          0       1752   i2c.o
       644         40          0          0         60       1557   i2s.o
      2224       1052          0         32       5228      14913   main.o
       228         22          0          0          0     274353   misc.o
      8220        320          0         40        100      19269   sdcard.o
        64         26        388          0       1536        924   startup_stm32f2xx.o
       932         32          0          0          0       6429   stm32f2xx_dma.o
       588         36          0          0          0       4049   stm32f2xx_gpio.o
      1044         26          0          0          0       8167   stm32f2xx_i2c.o
       128         62          0          0          0       1572   stm32f2xx_it.o
      1412         48          0         16          0      11067   stm32f2xx_rcc.o
       492         28          0          0          0       7180   stm32f2xx_sdio.o
       936         22          0          0          0       6476   stm32f2xx_spi.o
      1054         24          0          0          0       7812   stm32f2xx_usart.o
       460         42          0         20          0       1951   system_stm32f2xx.o
       244         56          0         60          0       2475   uda1380.o
       260         10          0          4          0       2910   usart.o

    ----------------------------------------------------------------------
     27336       1914        420        184       7004     395982   Object Totals
         0          0         32          0          0          0   (incl. Generated)
         2          0          0          2          0          0   (incl. Padding)

    ----------------------------------------------------------------------

      Code (inc. data)   RO Data    RW Data    ZI Data      Debug   Library Member Name

         8          0          0          0          0         68   __main.o
       106          0          0          0          0         84   __printf.o
        52          8          0          0          0          0   __scatter.o
        26          0          0          0          0          0   __scatter_copy.o
        28          0          0          0          0          0   __scatter_zi.o
         6          0          0          0          0          0   _printf_c.o
        44          0          0          0          0        108   _printf_char.o
        48          6          0          0          0         96   _printf_char_common.o
        36          4          0          0          0         80   _printf_char_file.o
         6          0          0          0          0          0   _printf_d.o
       120         18          0          0          0         92   _printf_dec.o
        92          4         40          0          0         88   _printf_hex_int.o
       184          0          0          0          0         88   _printf_intcommon.o
         0          0          0          0          0          0   _printf_percent.o
         4          0          0          0          0          0   _printf_percent_end.o
        82          0          0          0          0         80   _printf_str.o
         6          0          0          0          0          0   _printf_x.o
        12          0          0          0          0         72   exit.o
         8          0          0          0          0         68   ferror.o
         6          0          0          0          0        152   heapauxi.o
         6          0          0          0          0          0   libinit.o
         2          0          0          0          0          0   libinit2.o
         2          0          0          0          0          0   libshutdown.o
         2          0          0          0          0          0   libshutdown2.o
         8          4          0          0         96         68   libspace.o
        24          4          0          0          0         84   noretval__2printf.o
         8          4          0          0          0         68   rt_fp_status_addr_intlibspace.o
         0          0          0          0          0          0   rtentry.o
        12          0          0          0          0          0   rtentry2.o
         6          0          0          0          0          0   rtentry4.o
         2          0          0          0          0          0   rtexit.o
        10          0          0          0          0          0   rtexit2.o
        74          0          0          0          0         80   sys_stackheap_outer.o
         2          0          0          0          0         68   use_no_semi.o
         2          0          0          0          0         68   use_no_semi_2.o
        14          0          0          0          0         76   fpinit.o

    ----------------------------------------------------------------------
      1054         52         42          0        100       1588   Library Totals
         6          0          2          0          4          0   (incl. Padding)

    ----------------------------------------------------------------------

      Code (inc. data)   RO Data    RW Data    ZI Data      Debug   Library Name

      1034         52         40          0         96       1512   c_w.l
        14          0          0          0          0         76   fz_ws.l

    ----------------------------------------------------------------------
      1054         52         42          0        100       1588   Library Totals

    ----------------------------------------------------------------------

==============================================================================


      Code (inc. data)   RO Data    RW Data    ZI Data      Debug   

     28390       1966        462        184       7104     394710   Grand Totals
     28390       1966        462        184       7104     394710   ELF Image Totals
     28390       1966        462        184          0          0   ROM Totals

==============================================================================

    Total RO  Size (Code + RO Data)                28852 (  28.18kB)
    Total RW  Size (RW Data + ZI Data)              7288 (   7.12kB)
    Total ROM Size (Code + RO Data + RW Data)      29036 (  28.36kB)

==============================================================================

