ARM GAS  C:\Users\Ian\AppData\Local\Temp\cciP9aee.s 			page 1


   1              		.syntax unified
   2              		.cpu cortex-m3
   3              		.fpu softvfp
   4              		.eabi_attribute 20, 1
   5              		.eabi_attribute 21, 1
   6              		.eabi_attribute 23, 3
   7              		.eabi_attribute 24, 1
   8              		.eabi_attribute 25, 1
   9              		.eabi_attribute 26, 1
  10              		.eabi_attribute 30, 1
  11              		.eabi_attribute 34, 1
  12              		.eabi_attribute 18, 4
  13              		.thumb
  14              		.file	"cyfitter_cfg.c"
  15              		.text
  16              	.Ltext0:
  17              		.cfi_sections	.debug_frame
  18              		.section	.text.CyClockStartupError,"ax",%progbits
  19              		.align	2
  20              		.thumb
  21              		.thumb_func
  22              		.type	CyClockStartupError, %function
  23              	CyClockStartupError:
  24              	.LFB3:
  25              		.file 1 ".\\Generated_Source\\PSoC5\\cyfitter_cfg.c"
   1:.\Generated_Source\PSoC5/cyfitter_cfg.c **** /*******************************************************************************
   2:.\Generated_Source\PSoC5/cyfitter_cfg.c **** * File Name: cyfitter_cfg.c
   3:.\Generated_Source\PSoC5/cyfitter_cfg.c **** * 
   4:.\Generated_Source\PSoC5/cyfitter_cfg.c **** * PSoC Creator  3.3 CP1
   5:.\Generated_Source\PSoC5/cyfitter_cfg.c **** *
   6:.\Generated_Source\PSoC5/cyfitter_cfg.c **** * Description:
   7:.\Generated_Source\PSoC5/cyfitter_cfg.c **** * This file contains device initialization code.
   8:.\Generated_Source\PSoC5/cyfitter_cfg.c **** * Except for the user defined sections in CyClockStartupError(), this file should not be modified.
   9:.\Generated_Source\PSoC5/cyfitter_cfg.c **** * This file is automatically generated by PSoC Creator.
  10:.\Generated_Source\PSoC5/cyfitter_cfg.c **** *
  11:.\Generated_Source\PSoC5/cyfitter_cfg.c **** ********************************************************************************
  12:.\Generated_Source\PSoC5/cyfitter_cfg.c **** * Copyright (c) 2007-2015 Cypress Semiconductor.  All rights reserved.
  13:.\Generated_Source\PSoC5/cyfitter_cfg.c **** * You may use this file only in accordance with the license, terms, conditions, 
  14:.\Generated_Source\PSoC5/cyfitter_cfg.c **** * disclaimers, and limitations in the end user license agreement accompanying 
  15:.\Generated_Source\PSoC5/cyfitter_cfg.c **** * the software package with which this file was provided.
  16:.\Generated_Source\PSoC5/cyfitter_cfg.c **** ********************************************************************************/
  17:.\Generated_Source\PSoC5/cyfitter_cfg.c **** 
  18:.\Generated_Source\PSoC5/cyfitter_cfg.c **** #include <string.h>
  19:.\Generated_Source\PSoC5/cyfitter_cfg.c **** #include "cytypes.h"
  20:.\Generated_Source\PSoC5/cyfitter_cfg.c **** #include "cydevice_trm.h"
  21:.\Generated_Source\PSoC5/cyfitter_cfg.c **** #include "cyfitter.h"
  22:.\Generated_Source\PSoC5/cyfitter_cfg.c **** #include "CyLib.h"
  23:.\Generated_Source\PSoC5/cyfitter_cfg.c **** #include "cyfitter_cfg.h"
  24:.\Generated_Source\PSoC5/cyfitter_cfg.c **** 
  25:.\Generated_Source\PSoC5/cyfitter_cfg.c **** #define CY_NEED_CYCLOCKSTARTUPERROR 1
  26:.\Generated_Source\PSoC5/cyfitter_cfg.c **** 
  27:.\Generated_Source\PSoC5/cyfitter_cfg.c **** 
  28:.\Generated_Source\PSoC5/cyfitter_cfg.c **** #if defined(__GNUC__) || defined(__ARMCC_VERSION)
  29:.\Generated_Source\PSoC5/cyfitter_cfg.c ****     #define CYPACKED 
  30:.\Generated_Source\PSoC5/cyfitter_cfg.c ****     #define CYPACKED_ATTR __attribute__ ((packed))
  31:.\Generated_Source\PSoC5/cyfitter_cfg.c ****     #define CYALIGNED __attribute__ ((aligned))
  32:.\Generated_Source\PSoC5/cyfitter_cfg.c ****     #define CY_CFG_UNUSED __attribute__ ((unused))
ARM GAS  C:\Users\Ian\AppData\Local\Temp\cciP9aee.s 			page 2


  33:.\Generated_Source\PSoC5/cyfitter_cfg.c ****     #define CY_CFG_SECTION __attribute__ ((section(".psocinit")))
  34:.\Generated_Source\PSoC5/cyfitter_cfg.c ****     
  35:.\Generated_Source\PSoC5/cyfitter_cfg.c ****     #if defined(__ARMCC_VERSION)
  36:.\Generated_Source\PSoC5/cyfitter_cfg.c ****         #define CY_CFG_MEMORY_BARRIER() __memory_changed()
  37:.\Generated_Source\PSoC5/cyfitter_cfg.c ****     #else
  38:.\Generated_Source\PSoC5/cyfitter_cfg.c ****         #define CY_CFG_MEMORY_BARRIER() __sync_synchronize()
  39:.\Generated_Source\PSoC5/cyfitter_cfg.c ****     #endif
  40:.\Generated_Source\PSoC5/cyfitter_cfg.c ****     
  41:.\Generated_Source\PSoC5/cyfitter_cfg.c **** #elif defined(__ICCARM__)
  42:.\Generated_Source\PSoC5/cyfitter_cfg.c ****     #include <intrinsics.h>
  43:.\Generated_Source\PSoC5/cyfitter_cfg.c **** 
  44:.\Generated_Source\PSoC5/cyfitter_cfg.c ****     #define CYPACKED __packed
  45:.\Generated_Source\PSoC5/cyfitter_cfg.c ****     #define CYPACKED_ATTR 
  46:.\Generated_Source\PSoC5/cyfitter_cfg.c ****     #define CYALIGNED _Pragma("data_alignment=4")
  47:.\Generated_Source\PSoC5/cyfitter_cfg.c ****     #define CY_CFG_UNUSED _Pragma("diag_suppress=Pe177")
  48:.\Generated_Source\PSoC5/cyfitter_cfg.c ****     #define CY_CFG_SECTION _Pragma("location=\".psocinit\"")
  49:.\Generated_Source\PSoC5/cyfitter_cfg.c ****     
  50:.\Generated_Source\PSoC5/cyfitter_cfg.c ****     #define CY_CFG_MEMORY_BARRIER() __DMB()
  51:.\Generated_Source\PSoC5/cyfitter_cfg.c ****     
  52:.\Generated_Source\PSoC5/cyfitter_cfg.c **** #else
  53:.\Generated_Source\PSoC5/cyfitter_cfg.c ****     #error Unsupported toolchain
  54:.\Generated_Source\PSoC5/cyfitter_cfg.c **** #endif
  55:.\Generated_Source\PSoC5/cyfitter_cfg.c **** 
  56:.\Generated_Source\PSoC5/cyfitter_cfg.c **** 
  57:.\Generated_Source\PSoC5/cyfitter_cfg.c **** CY_CFG_UNUSED
  58:.\Generated_Source\PSoC5/cyfitter_cfg.c **** static void CYMEMZERO(void *s, size_t n);
  59:.\Generated_Source\PSoC5/cyfitter_cfg.c **** CY_CFG_UNUSED
  60:.\Generated_Source\PSoC5/cyfitter_cfg.c **** static void CYMEMZERO(void *s, size_t n)
  61:.\Generated_Source\PSoC5/cyfitter_cfg.c **** {
  62:.\Generated_Source\PSoC5/cyfitter_cfg.c **** 	(void)memset(s, 0, n);
  63:.\Generated_Source\PSoC5/cyfitter_cfg.c **** }
  64:.\Generated_Source\PSoC5/cyfitter_cfg.c **** CY_CFG_UNUSED
  65:.\Generated_Source\PSoC5/cyfitter_cfg.c **** static void CYCONFIGCPY(void *dest, const void *src, size_t n);
  66:.\Generated_Source\PSoC5/cyfitter_cfg.c **** CY_CFG_UNUSED
  67:.\Generated_Source\PSoC5/cyfitter_cfg.c **** static void CYCONFIGCPY(void *dest, const void *src, size_t n)
  68:.\Generated_Source\PSoC5/cyfitter_cfg.c **** {
  69:.\Generated_Source\PSoC5/cyfitter_cfg.c **** 	(void)memcpy(dest, src, n);
  70:.\Generated_Source\PSoC5/cyfitter_cfg.c **** }
  71:.\Generated_Source\PSoC5/cyfitter_cfg.c **** CY_CFG_UNUSED
  72:.\Generated_Source\PSoC5/cyfitter_cfg.c **** static void CYCONFIGCPYCODE(void *dest, const void *src, size_t n);
  73:.\Generated_Source\PSoC5/cyfitter_cfg.c **** CY_CFG_UNUSED
  74:.\Generated_Source\PSoC5/cyfitter_cfg.c **** static void CYCONFIGCPYCODE(void *dest, const void *src, size_t n)
  75:.\Generated_Source\PSoC5/cyfitter_cfg.c **** {
  76:.\Generated_Source\PSoC5/cyfitter_cfg.c **** 	(void)memcpy(dest, src, n);
  77:.\Generated_Source\PSoC5/cyfitter_cfg.c **** }
  78:.\Generated_Source\PSoC5/cyfitter_cfg.c **** 
  79:.\Generated_Source\PSoC5/cyfitter_cfg.c **** 
  80:.\Generated_Source\PSoC5/cyfitter_cfg.c **** 
  81:.\Generated_Source\PSoC5/cyfitter_cfg.c **** /* Clock startup error codes                                                   */
  82:.\Generated_Source\PSoC5/cyfitter_cfg.c **** #define CYCLOCKSTART_NO_ERROR    0u
  83:.\Generated_Source\PSoC5/cyfitter_cfg.c **** #define CYCLOCKSTART_XTAL_ERROR  1u
  84:.\Generated_Source\PSoC5/cyfitter_cfg.c **** #define CYCLOCKSTART_32KHZ_ERROR 2u
  85:.\Generated_Source\PSoC5/cyfitter_cfg.c **** #define CYCLOCKSTART_PLL_ERROR   3u
  86:.\Generated_Source\PSoC5/cyfitter_cfg.c **** 
  87:.\Generated_Source\PSoC5/cyfitter_cfg.c **** #ifdef CY_NEED_CYCLOCKSTARTUPERROR
  88:.\Generated_Source\PSoC5/cyfitter_cfg.c **** /*******************************************************************************
  89:.\Generated_Source\PSoC5/cyfitter_cfg.c **** * Function Name: CyClockStartupError
ARM GAS  C:\Users\Ian\AppData\Local\Temp\cciP9aee.s 			page 3


  90:.\Generated_Source\PSoC5/cyfitter_cfg.c **** ********************************************************************************
  91:.\Generated_Source\PSoC5/cyfitter_cfg.c **** * Summary:
  92:.\Generated_Source\PSoC5/cyfitter_cfg.c **** *  If an error is encountered during clock configuration (crystal startup error,
  93:.\Generated_Source\PSoC5/cyfitter_cfg.c **** *  PLL lock error, etc.), the system will end up here.  Unless reimplemented by
  94:.\Generated_Source\PSoC5/cyfitter_cfg.c **** *  the customer, this function will stop in an infinite loop.
  95:.\Generated_Source\PSoC5/cyfitter_cfg.c **** *
  96:.\Generated_Source\PSoC5/cyfitter_cfg.c **** * Parameters:
  97:.\Generated_Source\PSoC5/cyfitter_cfg.c **** *   void
  98:.\Generated_Source\PSoC5/cyfitter_cfg.c **** *
  99:.\Generated_Source\PSoC5/cyfitter_cfg.c **** * Return:
 100:.\Generated_Source\PSoC5/cyfitter_cfg.c **** *   void
 101:.\Generated_Source\PSoC5/cyfitter_cfg.c **** *
 102:.\Generated_Source\PSoC5/cyfitter_cfg.c **** *******************************************************************************/
 103:.\Generated_Source\PSoC5/cyfitter_cfg.c **** CY_CFG_UNUSED
 104:.\Generated_Source\PSoC5/cyfitter_cfg.c **** static void CyClockStartupError(uint8 errorCode);
 105:.\Generated_Source\PSoC5/cyfitter_cfg.c **** CY_CFG_UNUSED
 106:.\Generated_Source\PSoC5/cyfitter_cfg.c **** static void CyClockStartupError(uint8 errorCode)
 107:.\Generated_Source\PSoC5/cyfitter_cfg.c **** {
  26              		.loc 1 107 0
  27              		.cfi_startproc
  28              		@ Volatile: function does not return.
  29              		@ args = 0, pretend = 0, frame = 0
  30              		@ frame_needed = 0, uses_anonymous_args = 0
  31              		@ link register save eliminated.
  32              	.LVL0:
  33              	.L2:
 108:.\Generated_Source\PSoC5/cyfitter_cfg.c ****     /* To remove the compiler warning if errorCode not used.                */
 109:.\Generated_Source\PSoC5/cyfitter_cfg.c ****     errorCode = errorCode;
 110:.\Generated_Source\PSoC5/cyfitter_cfg.c **** 
 111:.\Generated_Source\PSoC5/cyfitter_cfg.c ****     /* `#START CyClockStartupError` */
 112:.\Generated_Source\PSoC5/cyfitter_cfg.c **** 
 113:.\Generated_Source\PSoC5/cyfitter_cfg.c ****     /* If we have a clock startup error (bad MHz crystal, PLL lock, etc.),  */
 114:.\Generated_Source\PSoC5/cyfitter_cfg.c ****     /* we will end up here to allow the customer to implement something to  */
 115:.\Generated_Source\PSoC5/cyfitter_cfg.c ****     /* deal with the clock condition.                                       */
 116:.\Generated_Source\PSoC5/cyfitter_cfg.c **** 
 117:.\Generated_Source\PSoC5/cyfitter_cfg.c ****     /* `#END` */
 118:.\Generated_Source\PSoC5/cyfitter_cfg.c **** 
 119:.\Generated_Source\PSoC5/cyfitter_cfg.c ****     /* If nothing else, stop here since the clocks have not started         */
 120:.\Generated_Source\PSoC5/cyfitter_cfg.c ****     /* correctly.                                                           */
 121:.\Generated_Source\PSoC5/cyfitter_cfg.c ****     while(1) {}
  34              		.loc 1 121 0 discriminator 1
  35 0000 FEE7     		b	.L2
  36              		.cfi_endproc
  37              	.LFE3:
  38              		.size	CyClockStartupError, .-CyClockStartupError
  39 0002 00BF     		.section	.text.cfg_write_bytes32,"ax",%progbits
  40              		.align	2
  41              		.thumb
  42              		.thumb_func
  43              		.type	cfg_write_bytes32, %function
  44              	cfg_write_bytes32:
  45              	.LFB4:
 122:.\Generated_Source\PSoC5/cyfitter_cfg.c **** }
 123:.\Generated_Source\PSoC5/cyfitter_cfg.c **** #endif
 124:.\Generated_Source\PSoC5/cyfitter_cfg.c **** 
 125:.\Generated_Source\PSoC5/cyfitter_cfg.c **** #define CY_CFG_BASE_ADDR_COUNT 29u
 126:.\Generated_Source\PSoC5/cyfitter_cfg.c **** CYPACKED typedef struct
ARM GAS  C:\Users\Ian\AppData\Local\Temp\cciP9aee.s 			page 4


 127:.\Generated_Source\PSoC5/cyfitter_cfg.c **** {
 128:.\Generated_Source\PSoC5/cyfitter_cfg.c **** 	uint8 offset;
 129:.\Generated_Source\PSoC5/cyfitter_cfg.c **** 	uint8 value;
 130:.\Generated_Source\PSoC5/cyfitter_cfg.c **** } CYPACKED_ATTR cy_cfg_addrvalue_t;
 131:.\Generated_Source\PSoC5/cyfitter_cfg.c **** 
 132:.\Generated_Source\PSoC5/cyfitter_cfg.c **** #define cy_cfg_addr_table ((const uint32 CYFAR *)0x48000000u)
 133:.\Generated_Source\PSoC5/cyfitter_cfg.c **** #define cy_cfg_data_table ((const cy_cfg_addrvalue_t CYFAR *)0x48000074u)
 134:.\Generated_Source\PSoC5/cyfitter_cfg.c **** 
 135:.\Generated_Source\PSoC5/cyfitter_cfg.c **** /* UDB_1_5_1_CONFIG Address: CYDEV_UCFG_B0_P0_U1_BASE Size (bytes): 128 */
 136:.\Generated_Source\PSoC5/cyfitter_cfg.c **** #define BS_UDB_1_5_1_CONFIG_VAL ((const uint8 CYFAR *)0x480003F4u)
 137:.\Generated_Source\PSoC5/cyfitter_cfg.c **** 
 138:.\Generated_Source\PSoC5/cyfitter_cfg.c **** /* UDB_1_3_1_CONFIG Address: CYDEV_UCFG_B0_P2_U1_BASE Size (bytes): 128 */
 139:.\Generated_Source\PSoC5/cyfitter_cfg.c **** #define BS_UDB_1_3_1_CONFIG_VAL ((const uint8 CYFAR *)0x48000474u)
 140:.\Generated_Source\PSoC5/cyfitter_cfg.c **** 
 141:.\Generated_Source\PSoC5/cyfitter_cfg.c **** /* IOPINS0_0 Address: CYREG_PRT0_DM0 Size (bytes): 8 */
 142:.\Generated_Source\PSoC5/cyfitter_cfg.c **** #define BS_IOPINS0_0_VAL ((const uint8 CYFAR *)0x480004F4u)
 143:.\Generated_Source\PSoC5/cyfitter_cfg.c **** 
 144:.\Generated_Source\PSoC5/cyfitter_cfg.c **** /* IOPINS0_1 Address: CYREG_PRT1_DM0 Size (bytes): 8 */
 145:.\Generated_Source\PSoC5/cyfitter_cfg.c **** #define BS_IOPINS0_1_VAL ((const uint8 CYFAR *)0x480004FCu)
 146:.\Generated_Source\PSoC5/cyfitter_cfg.c **** 
 147:.\Generated_Source\PSoC5/cyfitter_cfg.c **** /* IOPINS0_4 Address: CYREG_PRT4_DM0 Size (bytes): 8 */
 148:.\Generated_Source\PSoC5/cyfitter_cfg.c **** #define BS_IOPINS0_4_VAL ((const uint8 CYFAR *)0x48000504u)
 149:.\Generated_Source\PSoC5/cyfitter_cfg.c **** 
 150:.\Generated_Source\PSoC5/cyfitter_cfg.c **** /* IOPINS0_5 Address: CYREG_PRT5_DR Size (bytes): 10 */
 151:.\Generated_Source\PSoC5/cyfitter_cfg.c **** #define BS_IOPINS0_5_VAL ((const uint8 CYFAR *)0x4800050Cu)
 152:.\Generated_Source\PSoC5/cyfitter_cfg.c **** 
 153:.\Generated_Source\PSoC5/cyfitter_cfg.c **** 
 154:.\Generated_Source\PSoC5/cyfitter_cfg.c **** /*******************************************************************************
 155:.\Generated_Source\PSoC5/cyfitter_cfg.c **** * Function Name: cfg_write_bytes32
 156:.\Generated_Source\PSoC5/cyfitter_cfg.c **** ********************************************************************************
 157:.\Generated_Source\PSoC5/cyfitter_cfg.c **** * Summary:
 158:.\Generated_Source\PSoC5/cyfitter_cfg.c **** *  This function is used for setting up the chip configuration areas that
 159:.\Generated_Source\PSoC5/cyfitter_cfg.c **** *  contain relatively sparse data.
 160:.\Generated_Source\PSoC5/cyfitter_cfg.c **** *
 161:.\Generated_Source\PSoC5/cyfitter_cfg.c **** * Parameters:
 162:.\Generated_Source\PSoC5/cyfitter_cfg.c **** *   void
 163:.\Generated_Source\PSoC5/cyfitter_cfg.c **** *
 164:.\Generated_Source\PSoC5/cyfitter_cfg.c **** * Return:
 165:.\Generated_Source\PSoC5/cyfitter_cfg.c **** *   void
 166:.\Generated_Source\PSoC5/cyfitter_cfg.c **** *
 167:.\Generated_Source\PSoC5/cyfitter_cfg.c **** *******************************************************************************/
 168:.\Generated_Source\PSoC5/cyfitter_cfg.c **** static void cfg_write_bytes32(const uint32 addr_table[], const cy_cfg_addrvalue_t data_table[]);
 169:.\Generated_Source\PSoC5/cyfitter_cfg.c **** static void cfg_write_bytes32(const uint32 addr_table[], const cy_cfg_addrvalue_t data_table[])
 170:.\Generated_Source\PSoC5/cyfitter_cfg.c **** {
  46              		.loc 1 170 0
  47              		.cfi_startproc
  48              		@ args = 0, pretend = 0, frame = 0
  49              		@ frame_needed = 0, uses_anonymous_args = 0
  50              		@ link register save eliminated.
  51              	.LVL1:
  52 0000 F0B4     		push	{r4, r5, r6, r7}
  53              		.cfi_def_cfa_offset 16
  54              		.cfi_offset 4, -16
  55              		.cfi_offset 5, -12
  56              		.cfi_offset 6, -8
  57              		.cfi_offset 7, -4
  58              	.LVL2:
ARM GAS  C:\Users\Ian\AppData\Local\Temp\cciP9aee.s 			page 5


 171:.\Generated_Source\PSoC5/cyfitter_cfg.c **** 	/* For 32-bit little-endian architectures */
 172:.\Generated_Source\PSoC5/cyfitter_cfg.c **** 	uint32 i, j = 0u;
  59              		.loc 1 172 0
  60 0002 0022     		movs	r2, #0
 173:.\Generated_Source\PSoC5/cyfitter_cfg.c **** 	for (i = 0u; i < CY_CFG_BASE_ADDR_COUNT; i++)
  61              		.loc 1 173 0
  62 0004 1746     		mov	r7, r2
  63 0006 11E0     		b	.L4
  64              	.LVL3:
  65              	.L7:
  66              	.LBB2:
 174:.\Generated_Source\PSoC5/cyfitter_cfg.c **** 	{
 175:.\Generated_Source\PSoC5/cyfitter_cfg.c **** 		uint32 baseAddr = addr_table[i];
  67              		.loc 1 175 0
  68 0008 50F82760 		ldr	r6, [r0, r7, lsl #2]
  69              	.LVL4:
 176:.\Generated_Source\PSoC5/cyfitter_cfg.c **** 		uint8 count = (uint8)baseAddr;
  70              		.loc 1 176 0
  71 000c F3B2     		uxtb	r3, r6
  72              	.LVL5:
 177:.\Generated_Source\PSoC5/cyfitter_cfg.c **** 		baseAddr &= 0xFFFFFF00u;
  73              		.loc 1 177 0
  74 000e 26F0FF06 		bic	r6, r6, #255
  75              	.LVL6:
 178:.\Generated_Source\PSoC5/cyfitter_cfg.c **** 		while (count != 0u)
  76              		.loc 1 178 0
  77 0012 08E0     		b	.L5
  78              	.L6:
 179:.\Generated_Source\PSoC5/cyfitter_cfg.c **** 		{
 180:.\Generated_Source\PSoC5/cyfitter_cfg.c **** 			CY_SET_XTND_REG8((void CYFAR *)(baseAddr + data_table[j].offset), data_table[j].value);
  79              		.loc 1 180 0
  80 0014 01EB4205 		add	r5, r1, r2, lsl #1
  81 0018 11F81240 		ldrb	r4, [r1, r2, lsl #1]	@ zero_extendqisi2
  82 001c 6D78     		ldrb	r5, [r5, #1]	@ zero_extendqisi2
  83 001e A555     		strb	r5, [r4, r6]
 181:.\Generated_Source\PSoC5/cyfitter_cfg.c **** 			j++;
  84              		.loc 1 181 0
  85 0020 0132     		adds	r2, r2, #1
  86              	.LVL7:
 182:.\Generated_Source\PSoC5/cyfitter_cfg.c **** 			count--;
  87              		.loc 1 182 0
  88 0022 013B     		subs	r3, r3, #1
  89              	.LVL8:
  90 0024 DBB2     		uxtb	r3, r3
  91              	.LVL9:
  92              	.L5:
 178:.\Generated_Source\PSoC5/cyfitter_cfg.c **** 		{
  93              		.loc 1 178 0
  94 0026 002B     		cmp	r3, #0
  95 0028 F4D1     		bne	.L6
  96              	.LBE2:
 173:.\Generated_Source\PSoC5/cyfitter_cfg.c **** 	{
  97              		.loc 1 173 0 discriminator 2
  98 002a 0137     		adds	r7, r7, #1
  99              	.LVL10:
 100              	.L4:
 173:.\Generated_Source\PSoC5/cyfitter_cfg.c **** 	{
ARM GAS  C:\Users\Ian\AppData\Local\Temp\cciP9aee.s 			page 6


 101              		.loc 1 173 0 is_stmt 0 discriminator 1
 102 002c 1C2F     		cmp	r7, #28
 103 002e EBD9     		bls	.L7
 183:.\Generated_Source\PSoC5/cyfitter_cfg.c **** 		}
 184:.\Generated_Source\PSoC5/cyfitter_cfg.c **** 	}
 185:.\Generated_Source\PSoC5/cyfitter_cfg.c **** }
 104              		.loc 1 185 0 is_stmt 1
 105 0030 F0BC     		pop	{r4, r5, r6, r7}
 106              		.cfi_restore 7
 107              		.cfi_restore 6
 108              		.cfi_restore 5
 109              		.cfi_restore 4
 110              		.cfi_def_cfa_offset 0
 111              	.LVL11:
 112 0032 7047     		bx	lr
 113              		.cfi_endproc
 114              	.LFE4:
 115              		.size	cfg_write_bytes32, .-cfg_write_bytes32
 116              		.section	.text.AnalogSetDefault,"ax",%progbits
 117              		.align	2
 118              		.thumb
 119              		.thumb_func
 120              		.type	AnalogSetDefault, %function
 121              	AnalogSetDefault:
 122              	.LFB6:
 186:.\Generated_Source\PSoC5/cyfitter_cfg.c **** 
 187:.\Generated_Source\PSoC5/cyfitter_cfg.c **** /*******************************************************************************
 188:.\Generated_Source\PSoC5/cyfitter_cfg.c **** * Function Name: ClockSetup
 189:.\Generated_Source\PSoC5/cyfitter_cfg.c **** ********************************************************************************
 190:.\Generated_Source\PSoC5/cyfitter_cfg.c **** *
 191:.\Generated_Source\PSoC5/cyfitter_cfg.c **** * Summary:
 192:.\Generated_Source\PSoC5/cyfitter_cfg.c **** *  Performs the initialization of all of the clocks in the device based on the
 193:.\Generated_Source\PSoC5/cyfitter_cfg.c **** *  settings in the Clock tab of the DWR.  This includes enabling the requested
 194:.\Generated_Source\PSoC5/cyfitter_cfg.c **** *  clocks and setting the necessary dividers to produce the desired frequency. 
 195:.\Generated_Source\PSoC5/cyfitter_cfg.c **** *
 196:.\Generated_Source\PSoC5/cyfitter_cfg.c **** * Parameters:
 197:.\Generated_Source\PSoC5/cyfitter_cfg.c **** *  void
 198:.\Generated_Source\PSoC5/cyfitter_cfg.c **** *
 199:.\Generated_Source\PSoC5/cyfitter_cfg.c **** * Return:
 200:.\Generated_Source\PSoC5/cyfitter_cfg.c **** *  void
 201:.\Generated_Source\PSoC5/cyfitter_cfg.c **** *
 202:.\Generated_Source\PSoC5/cyfitter_cfg.c **** *******************************************************************************/
 203:.\Generated_Source\PSoC5/cyfitter_cfg.c **** static void ClockSetup(void);
 204:.\Generated_Source\PSoC5/cyfitter_cfg.c **** static void ClockSetup(void)
 205:.\Generated_Source\PSoC5/cyfitter_cfg.c **** {
 206:.\Generated_Source\PSoC5/cyfitter_cfg.c **** 	uint32 timeout;
 207:.\Generated_Source\PSoC5/cyfitter_cfg.c **** 	uint8 pllLock;
 208:.\Generated_Source\PSoC5/cyfitter_cfg.c **** 
 209:.\Generated_Source\PSoC5/cyfitter_cfg.c **** 
 210:.\Generated_Source\PSoC5/cyfitter_cfg.c **** 	/* Configure Digital Clocks based on settings from Clock DWR */
 211:.\Generated_Source\PSoC5/cyfitter_cfg.c **** 	CY_SET_XTND_REG16((void CYFAR *)(CYREG_CLKDIST_DCFG0_CFG0), 0x0001u);
 212:.\Generated_Source\PSoC5/cyfitter_cfg.c **** 	CY_SET_XTND_REG8((void CYFAR *)(CYREG_CLKDIST_DCFG0_CFG0 + 0x2u), 0x19u);
 213:.\Generated_Source\PSoC5/cyfitter_cfg.c **** 	CY_SET_XTND_REG16((void CYFAR *)(CYREG_CLKDIST_DCFG1_CFG0), 0x0007u);
 214:.\Generated_Source\PSoC5/cyfitter_cfg.c **** 	CY_SET_XTND_REG8((void CYFAR *)(CYREG_CLKDIST_DCFG1_CFG0 + 0x2u), 0x19u);
 215:.\Generated_Source\PSoC5/cyfitter_cfg.c **** 	CY_SET_XTND_REG16((void CYFAR *)(CYREG_CLKDIST_DCFG2_CFG0), 0x0019u);
 216:.\Generated_Source\PSoC5/cyfitter_cfg.c **** 	CY_SET_XTND_REG8((void CYFAR *)(CYREG_CLKDIST_DCFG2_CFG0 + 0x2u), 0x19u);
 217:.\Generated_Source\PSoC5/cyfitter_cfg.c **** 	CY_SET_XTND_REG16((void CYFAR *)(CYREG_CLKDIST_DCFG3_CFG0), 0x01F3u);
ARM GAS  C:\Users\Ian\AppData\Local\Temp\cciP9aee.s 			page 7


 218:.\Generated_Source\PSoC5/cyfitter_cfg.c **** 	CY_SET_XTND_REG8((void CYFAR *)(CYREG_CLKDIST_DCFG3_CFG0 + 0x2u), 0x19u);
 219:.\Generated_Source\PSoC5/cyfitter_cfg.c **** 
 220:.\Generated_Source\PSoC5/cyfitter_cfg.c **** 	/* Configure ILO based on settings from Clock DWR */
 221:.\Generated_Source\PSoC5/cyfitter_cfg.c **** 	CY_SET_XTND_REG8((void CYFAR *)(CYREG_SLOWCLK_ILO_CR0), 0x06u);
 222:.\Generated_Source\PSoC5/cyfitter_cfg.c **** 
 223:.\Generated_Source\PSoC5/cyfitter_cfg.c **** 	/* Configure IMO based on settings from Clock DWR */
 224:.\Generated_Source\PSoC5/cyfitter_cfg.c **** 	CY_SET_XTND_REG8((void CYFAR *)(CYREG_FASTCLK_IMO_CR), 0x52u);
 225:.\Generated_Source\PSoC5/cyfitter_cfg.c **** 	CY_SET_XTND_REG8((void CYFAR *)(CYREG_IMO_TR1), (CY_GET_XTND_REG8((void CYFAR *)CYREG_FLSHID_CUST_
 226:.\Generated_Source\PSoC5/cyfitter_cfg.c **** 
 227:.\Generated_Source\PSoC5/cyfitter_cfg.c **** 	/* Configure PLL based on settings from Clock DWR */
 228:.\Generated_Source\PSoC5/cyfitter_cfg.c **** 	CY_SET_XTND_REG16((void CYFAR *)(CYREG_FASTCLK_PLL_P), 0x0708u);
 229:.\Generated_Source\PSoC5/cyfitter_cfg.c **** 	CY_SET_XTND_REG16((void CYFAR *)(CYREG_FASTCLK_PLL_CFG0), 0x1251u);
 230:.\Generated_Source\PSoC5/cyfitter_cfg.c **** 	/* Wait up to 250us for the PLL to lock */
 231:.\Generated_Source\PSoC5/cyfitter_cfg.c **** 	pllLock = 0u;
 232:.\Generated_Source\PSoC5/cyfitter_cfg.c **** 	for (timeout = 250u / 10u; (timeout > 0u) && (pllLock != 0x03u); timeout--)
 233:.\Generated_Source\PSoC5/cyfitter_cfg.c **** 	{ 
 234:.\Generated_Source\PSoC5/cyfitter_cfg.c **** 		pllLock = 0x03u & ((uint8)((uint8)pllLock << 1) | ((CY_GET_XTND_REG8((void CYFAR *)CYREG_FASTCLK_
 235:.\Generated_Source\PSoC5/cyfitter_cfg.c **** 		CyDelayCycles(10u * 48u); /* Delay 10us based on 48MHz clock */
 236:.\Generated_Source\PSoC5/cyfitter_cfg.c **** 	}
 237:.\Generated_Source\PSoC5/cyfitter_cfg.c **** 	/* If we ran out of time the PLL didn't lock so go to the error function */
 238:.\Generated_Source\PSoC5/cyfitter_cfg.c **** 	if (timeout == 0u)
 239:.\Generated_Source\PSoC5/cyfitter_cfg.c **** 	{
 240:.\Generated_Source\PSoC5/cyfitter_cfg.c **** 		CyClockStartupError(CYCLOCKSTART_PLL_ERROR);
 241:.\Generated_Source\PSoC5/cyfitter_cfg.c **** 	}
 242:.\Generated_Source\PSoC5/cyfitter_cfg.c **** 
 243:.\Generated_Source\PSoC5/cyfitter_cfg.c **** 	/* Configure Bus/Master Clock based on settings from Clock DWR */
 244:.\Generated_Source\PSoC5/cyfitter_cfg.c **** 	CY_SET_XTND_REG16((void CYFAR *)(CYREG_CLKDIST_MSTR0), 0x0100u);
 245:.\Generated_Source\PSoC5/cyfitter_cfg.c **** 	CY_SET_XTND_REG8((void CYFAR *)(CYREG_CLKDIST_MSTR0), 0x07u);
 246:.\Generated_Source\PSoC5/cyfitter_cfg.c **** 	CY_SET_XTND_REG8((void CYFAR *)(CYREG_CLKDIST_BCFG0), 0x00u);
 247:.\Generated_Source\PSoC5/cyfitter_cfg.c **** 	CY_SET_XTND_REG8((void CYFAR *)(CYREG_CLKDIST_BCFG2), 0x48u);
 248:.\Generated_Source\PSoC5/cyfitter_cfg.c **** 	CY_SET_XTND_REG8((void CYFAR *)(CYREG_CLKDIST_MSTR0), 0x00u);
 249:.\Generated_Source\PSoC5/cyfitter_cfg.c **** 
 250:.\Generated_Source\PSoC5/cyfitter_cfg.c **** 	/* Configure USB Clock based on settings from Clock DWR */
 251:.\Generated_Source\PSoC5/cyfitter_cfg.c **** 	CY_SET_XTND_REG8((void CYFAR *)(CYREG_CLKDIST_UCFG), 0x00u);
 252:.\Generated_Source\PSoC5/cyfitter_cfg.c **** 	CY_SET_XTND_REG8((void CYFAR *)(CYREG_CLKDIST_LD), 0x02u);
 253:.\Generated_Source\PSoC5/cyfitter_cfg.c **** 
 254:.\Generated_Source\PSoC5/cyfitter_cfg.c **** 	CY_SET_XTND_REG8((void CYFAR *)(CYREG_PM_ACT_CFG2), ((CY_GET_XTND_REG8((void CYFAR *)CYREG_PM_ACT_
 255:.\Generated_Source\PSoC5/cyfitter_cfg.c **** }
 256:.\Generated_Source\PSoC5/cyfitter_cfg.c **** 
 257:.\Generated_Source\PSoC5/cyfitter_cfg.c **** 
 258:.\Generated_Source\PSoC5/cyfitter_cfg.c **** /* Analog API Functions */
 259:.\Generated_Source\PSoC5/cyfitter_cfg.c **** 
 260:.\Generated_Source\PSoC5/cyfitter_cfg.c **** 
 261:.\Generated_Source\PSoC5/cyfitter_cfg.c **** /*******************************************************************************
 262:.\Generated_Source\PSoC5/cyfitter_cfg.c **** * Function Name: AnalogSetDefault
 263:.\Generated_Source\PSoC5/cyfitter_cfg.c **** ********************************************************************************
 264:.\Generated_Source\PSoC5/cyfitter_cfg.c **** *
 265:.\Generated_Source\PSoC5/cyfitter_cfg.c **** * Summary:
 266:.\Generated_Source\PSoC5/cyfitter_cfg.c **** *  Sets up the analog portions of the chip to default values based on chip
 267:.\Generated_Source\PSoC5/cyfitter_cfg.c **** *  configuration options from the project.
 268:.\Generated_Source\PSoC5/cyfitter_cfg.c **** *
 269:.\Generated_Source\PSoC5/cyfitter_cfg.c **** * Parameters:
 270:.\Generated_Source\PSoC5/cyfitter_cfg.c **** *  void
 271:.\Generated_Source\PSoC5/cyfitter_cfg.c **** *
 272:.\Generated_Source\PSoC5/cyfitter_cfg.c **** * Return:
 273:.\Generated_Source\PSoC5/cyfitter_cfg.c **** *  void
 274:.\Generated_Source\PSoC5/cyfitter_cfg.c **** *
ARM GAS  C:\Users\Ian\AppData\Local\Temp\cciP9aee.s 			page 8


 275:.\Generated_Source\PSoC5/cyfitter_cfg.c **** *******************************************************************************/
 276:.\Generated_Source\PSoC5/cyfitter_cfg.c **** static void AnalogSetDefault(void);
 277:.\Generated_Source\PSoC5/cyfitter_cfg.c **** static void AnalogSetDefault(void)
 278:.\Generated_Source\PSoC5/cyfitter_cfg.c **** {
 123              		.loc 1 278 0
 124              		.cfi_startproc
 125              		@ args = 0, pretend = 0, frame = 0
 126              		@ frame_needed = 0, uses_anonymous_args = 0
 127              		@ link register save eliminated.
 128 0000 70B4     		push	{r4, r5, r6}
 129              		.cfi_def_cfa_offset 12
 130              		.cfi_offset 4, -12
 131              		.cfi_offset 5, -8
 132              		.cfi_offset 6, -4
 279:.\Generated_Source\PSoC5/cyfitter_cfg.c **** 	uint8 bg_xover_inl_trim = CY_GET_XTND_REG8((void CYFAR *)(CYREG_FLSHID_MFG_CFG_BG_XOVER_INL_TRIM +
 133              		.loc 1 279 0
 134 0002 164B     		ldr	r3, .L11
 135 0004 1B78     		ldrb	r3, [r3]	@ zero_extendqisi2
 136 0006 DBB2     		uxtb	r3, r3
 137              	.LVL12:
 280:.\Generated_Source\PSoC5/cyfitter_cfg.c **** 	uint8 cr4 = CY_GET_XTND_REG8((void CYFAR *)(CYREG_RESET_CR4));
 138              		.loc 1 280 0
 139 0008 1548     		ldr	r0, .L11+4
 140 000a 0278     		ldrb	r2, [r0]	@ zero_extendqisi2
 141 000c D2B2     		uxtb	r2, r2
 142              	.LVL13:
 281:.\Generated_Source\PSoC5/cyfitter_cfg.c **** 	uint8 cr5 = CY_GET_XTND_REG8((void CYFAR *)(CYREG_RESET_CR5));
 143              		.loc 1 281 0
 144 000e 154C     		ldr	r4, .L11+8
 145 0010 2178     		ldrb	r1, [r4]	@ zero_extendqisi2
 146 0012 C9B2     		uxtb	r1, r1
 147              	.LVL14:
 282:.\Generated_Source\PSoC5/cyfitter_cfg.c **** 	CY_SET_XTND_REG8((void CYFAR *)(CYREG_BG_DFT0), (bg_xover_inl_trim & 0x07u));
 148              		.loc 1 282 0
 149 0014 03F00706 		and	r6, r3, #7
 150 0018 134D     		ldr	r5, .L11+12
 151 001a 2E70     		strb	r6, [r5]
 283:.\Generated_Source\PSoC5/cyfitter_cfg.c **** 	CY_SET_XTND_REG8((void CYFAR *)(CYREG_BG_DFT1), ((bg_xover_inl_trim >> 4) & 0x0Fu));
 152              		.loc 1 283 0
 153 001c 1B09     		lsrs	r3, r3, #4
 154              	.LVL15:
 155 001e 0135     		adds	r5, r5, #1
 156 0020 2B70     		strb	r3, [r5]
 284:.\Generated_Source\PSoC5/cyfitter_cfg.c **** 	/* Disable PRES while setting up SAR voltage reference */
 285:.\Generated_Source\PSoC5/cyfitter_cfg.c **** 	CY_SET_XTND_REG8((void CYFAR *)(CYREG_RESET_CR4), (cr4 | 0x03u));
 157              		.loc 1 285 0
 158 0022 42F00303 		orr	r3, r2, #3
 159 0026 0370     		strb	r3, [r0]
 286:.\Generated_Source\PSoC5/cyfitter_cfg.c **** 	CY_SET_XTND_REG8((void CYFAR *)(CYREG_RESET_CR5), (cr5 | 0x03u));
 160              		.loc 1 286 0
 161 0028 41F00303 		orr	r3, r1, #3
 162 002c 2370     		strb	r3, [r4]
 287:.\Generated_Source\PSoC5/cyfitter_cfg.c **** 	CY_SET_XTND_REG8((void CYFAR *)CYREG_PRT1_AMUX, 0x40u);
 163              		.loc 1 287 0
 164 002e 4025     		movs	r5, #64
 165 0030 0E4B     		ldr	r3, .L11+16
 166 0032 1D70     		strb	r5, [r3]
ARM GAS  C:\Users\Ian\AppData\Local\Temp\cciP9aee.s 			page 9


 288:.\Generated_Source\PSoC5/cyfitter_cfg.c **** 	CY_SET_XTND_REG8((void CYFAR *)CYREG_SAR1_CSR1, 0x80u);
 167              		.loc 1 288 0
 168 0034 8025     		movs	r5, #128
 169 0036 03F2ED73 		addw	r3, r3, #2029
 170 003a 1D70     		strb	r5, [r3]
 289:.\Generated_Source\PSoC5/cyfitter_cfg.c **** 	CY_SET_XTND_REG8((void CYFAR *)CYREG_DAC1_SW3, 0x01u);
 171              		.loc 1 289 0
 172 003c 0125     		movs	r5, #1
 173 003e 03F5C173 		add	r3, r3, #386
 174 0042 1D70     		strb	r5, [r3]
 290:.\Generated_Source\PSoC5/cyfitter_cfg.c **** 	CY_SET_XTND_REG8((void CYFAR *)CYREG_SAR1_SW3, 0x21u);
 175              		.loc 1 290 0
 176 0044 2125     		movs	r5, #33
 177 0046 A033     		adds	r3, r3, #160
 178 0048 1D70     		strb	r5, [r3]
 291:.\Generated_Source\PSoC5/cyfitter_cfg.c **** 	CY_SET_XTND_REG8((void CYFAR *)(CYREG_RESET_CR5), (cr5));
 179              		.loc 1 291 0
 180 004a 2170     		strb	r1, [r4]
 292:.\Generated_Source\PSoC5/cyfitter_cfg.c **** 	CY_SET_XTND_REG8((void CYFAR *)(CYREG_RESET_CR4), (cr4));
 181              		.loc 1 292 0
 182 004c 0270     		strb	r2, [r0]
 293:.\Generated_Source\PSoC5/cyfitter_cfg.c **** 	CY_SET_XTND_REG8((void CYFAR *)CYREG_PUMP_CR0, 0x44u);
 183              		.loc 1 293 0
 184 004e 4422     		movs	r2, #68
 185              	.LVL16:
 186 0050 A3F2B523 		subw	r3, r3, #693
 187 0054 1A70     		strb	r2, [r3]
 188              	.LVL17:
 294:.\Generated_Source\PSoC5/cyfitter_cfg.c **** }
 189              		.loc 1 294 0
 190 0056 70BC     		pop	{r4, r5, r6}
 191              		.cfi_restore 6
 192              		.cfi_restore 5
 193              		.cfi_restore 4
 194              		.cfi_def_cfa_offset 0
 195 0058 7047     		bx	lr
 196              	.L12:
 197 005a 00BF     		.align	2
 198              	.L11:
 199 005c CF010049 		.word	1224737231
 200 0060 F8460040 		.word	1073759992
 201 0064 F9460040 		.word	1073759993
 202 0068 6E580040 		.word	1073764462
 203 006c 1C510040 		.word	1073762588
 204              		.cfi_endproc
 205              	.LFE6:
 206              		.size	AnalogSetDefault, .-AnalogSetDefault
 207              		.section	.text.CYMEMZERO,"ax",%progbits
 208              		.align	2
 209              		.thumb
 210              		.thumb_func
 211              		.type	CYMEMZERO, %function
 212              	CYMEMZERO:
 213              	.LFB0:
  61:.\Generated_Source\PSoC5/cyfitter_cfg.c **** 	(void)memset(s, 0, n);
 214              		.loc 1 61 0
 215              		.cfi_startproc
ARM GAS  C:\Users\Ian\AppData\Local\Temp\cciP9aee.s 			page 10


 216              		@ args = 0, pretend = 0, frame = 0
 217              		@ frame_needed = 0, uses_anonymous_args = 0
 218              	.LVL18:
 219 0000 08B5     		push	{r3, lr}
 220              		.cfi_def_cfa_offset 8
 221              		.cfi_offset 3, -8
 222              		.cfi_offset 14, -4
 223 0002 0A46     		mov	r2, r1
  62:.\Generated_Source\PSoC5/cyfitter_cfg.c **** }
 224              		.loc 1 62 0
 225 0004 0021     		movs	r1, #0
 226              	.LVL19:
 227 0006 FFF7FEFF 		bl	memset
 228              	.LVL20:
 229 000a 08BD     		pop	{r3, pc}
 230              		.cfi_endproc
 231              	.LFE0:
 232              		.size	CYMEMZERO, .-CYMEMZERO
 233              		.section	.text.ClockSetup,"ax",%progbits
 234              		.align	2
 235              		.thumb
 236              		.thumb_func
 237              		.type	ClockSetup, %function
 238              	ClockSetup:
 239              	.LFB5:
 205:.\Generated_Source\PSoC5/cyfitter_cfg.c **** 	uint32 timeout;
 240              		.loc 1 205 0
 241              		.cfi_startproc
 242              		@ args = 0, pretend = 0, frame = 0
 243              		@ frame_needed = 0, uses_anonymous_args = 0
 244 0000 38B5     		push	{r3, r4, r5, lr}
 245              		.cfi_def_cfa_offset 16
 246              		.cfi_offset 3, -16
 247              		.cfi_offset 4, -12
 248              		.cfi_offset 5, -8
 249              		.cfi_offset 14, -4
 211:.\Generated_Source\PSoC5/cyfitter_cfg.c **** 	CY_SET_XTND_REG8((void CYFAR *)(CYREG_CLKDIST_DCFG0_CFG0 + 0x2u), 0x19u);
 250              		.loc 1 211 0
 251 0002 0122     		movs	r2, #1
 252 0004 2B4B     		ldr	r3, .L21
 253 0006 1A80     		strh	r2, [r3]	@ movhi
 212:.\Generated_Source\PSoC5/cyfitter_cfg.c **** 	CY_SET_XTND_REG16((void CYFAR *)(CYREG_CLKDIST_DCFG1_CFG0), 0x0007u);
 254              		.loc 1 212 0
 255 0008 1925     		movs	r5, #25
 256 000a 0233     		adds	r3, r3, #2
 257 000c 1D70     		strb	r5, [r3]
 213:.\Generated_Source\PSoC5/cyfitter_cfg.c **** 	CY_SET_XTND_REG8((void CYFAR *)(CYREG_CLKDIST_DCFG1_CFG0 + 0x2u), 0x19u);
 258              		.loc 1 213 0
 259 000e 0722     		movs	r2, #7
 260 0010 0233     		adds	r3, r3, #2
 261 0012 1A80     		strh	r2, [r3]	@ movhi
 214:.\Generated_Source\PSoC5/cyfitter_cfg.c **** 	CY_SET_XTND_REG16((void CYFAR *)(CYREG_CLKDIST_DCFG2_CFG0), 0x0019u);
 262              		.loc 1 214 0
 263 0014 0233     		adds	r3, r3, #2
 264 0016 1D70     		strb	r5, [r3]
 215:.\Generated_Source\PSoC5/cyfitter_cfg.c **** 	CY_SET_XTND_REG8((void CYFAR *)(CYREG_CLKDIST_DCFG2_CFG0 + 0x2u), 0x19u);
 265              		.loc 1 215 0
ARM GAS  C:\Users\Ian\AppData\Local\Temp\cciP9aee.s 			page 11


 266 0018 0233     		adds	r3, r3, #2
 267 001a 1D80     		strh	r5, [r3]	@ movhi
 216:.\Generated_Source\PSoC5/cyfitter_cfg.c **** 	CY_SET_XTND_REG16((void CYFAR *)(CYREG_CLKDIST_DCFG3_CFG0), 0x01F3u);
 268              		.loc 1 216 0
 269 001c 0233     		adds	r3, r3, #2
 270 001e 1D70     		strb	r5, [r3]
 217:.\Generated_Source\PSoC5/cyfitter_cfg.c **** 	CY_SET_XTND_REG8((void CYFAR *)(CYREG_CLKDIST_DCFG3_CFG0 + 0x2u), 0x19u);
 271              		.loc 1 217 0
 272 0020 40F2F312 		movw	r2, #499
 273 0024 0233     		adds	r3, r3, #2
 274 0026 1A80     		strh	r2, [r3]	@ movhi
 218:.\Generated_Source\PSoC5/cyfitter_cfg.c **** 
 275              		.loc 1 218 0
 276 0028 0233     		adds	r3, r3, #2
 277 002a 1D70     		strb	r5, [r3]
 221:.\Generated_Source\PSoC5/cyfitter_cfg.c **** 
 278              		.loc 1 221 0
 279 002c 0622     		movs	r2, #6
 280 002e 03F27223 		addw	r3, r3, #626
 281 0032 1A70     		strb	r2, [r3]
 224:.\Generated_Source\PSoC5/cyfitter_cfg.c **** 	CY_SET_XTND_REG8((void CYFAR *)(CYREG_IMO_TR1), (CY_GET_XTND_REG8((void CYFAR *)CYREG_FLSHID_CUST_
 282              		.loc 1 224 0
 283 0034 5222     		movs	r2, #82
 284 0036 A3F58073 		sub	r3, r3, #256
 285 003a 1A70     		strb	r2, [r3]
 225:.\Generated_Source\PSoC5/cyfitter_cfg.c **** 
 286              		.loc 1 225 0
 287 003c 1E4B     		ldr	r3, .L21+4
 288 003e 1B78     		ldrb	r3, [r3]	@ zero_extendqisi2
 289 0040 DBB2     		uxtb	r3, r3
 290 0042 1E4A     		ldr	r2, .L21+8
 291 0044 1370     		strb	r3, [r2]
 228:.\Generated_Source\PSoC5/cyfitter_cfg.c **** 	CY_SET_XTND_REG16((void CYFAR *)(CYREG_FASTCLK_PLL_CFG0), 0x1251u);
 292              		.loc 1 228 0
 293 0046 4FF4E162 		mov	r2, #1800
 294 004a 1D4B     		ldr	r3, .L21+12
 295 004c 1A80     		strh	r2, [r3]	@ movhi
 229:.\Generated_Source\PSoC5/cyfitter_cfg.c **** 	/* Wait up to 250us for the PLL to lock */
 296              		.loc 1 229 0
 297 004e 41F25122 		movw	r2, #4689
 298 0052 023B     		subs	r3, r3, #2
 299 0054 1A80     		strh	r2, [r3]	@ movhi
 300              	.LVL21:
 231:.\Generated_Source\PSoC5/cyfitter_cfg.c **** 	for (timeout = 250u / 10u; (timeout > 0u) && (pllLock != 0x03u); timeout--)
 301              		.loc 1 231 0
 302 0056 0024     		movs	r4, #0
 232:.\Generated_Source\PSoC5/cyfitter_cfg.c **** 	{ 
 303              		.loc 1 232 0
 304 0058 0CE0     		b	.L16
 305              	.LVL22:
 306              	.L18:
 234:.\Generated_Source\PSoC5/cyfitter_cfg.c **** 		CyDelayCycles(10u * 48u); /* Delay 10us based on 48MHz clock */
 307              		.loc 1 234 0 discriminator 4
 308 005a 1A4B     		ldr	r3, .L21+16
 309 005c 1B78     		ldrb	r3, [r3]	@ zero_extendqisi2
 310 005e 03F00103 		and	r3, r3, #1
 311 0062 43EA4404 		orr	r4, r3, r4, lsl #1
ARM GAS  C:\Users\Ian\AppData\Local\Temp\cciP9aee.s 			page 12


 312              	.LVL23:
 313 0066 04F00304 		and	r4, r4, #3
 314              	.LVL24:
 235:.\Generated_Source\PSoC5/cyfitter_cfg.c **** 	}
 315              		.loc 1 235 0 discriminator 4
 316 006a 4FF4F070 		mov	r0, #480
 317 006e FFF7FEFF 		bl	CyDelayCycles
 318              	.LVL25:
 232:.\Generated_Source\PSoC5/cyfitter_cfg.c **** 	{ 
 319              		.loc 1 232 0 discriminator 4
 320 0072 013D     		subs	r5, r5, #1
 321              	.LVL26:
 322              	.L16:
 232:.\Generated_Source\PSoC5/cyfitter_cfg.c **** 	{ 
 323              		.loc 1 232 0 is_stmt 0 discriminator 1
 324 0074 0DB1     		cbz	r5, .L17
 232:.\Generated_Source\PSoC5/cyfitter_cfg.c **** 	{ 
 325              		.loc 1 232 0 discriminator 3
 326 0076 032C     		cmp	r4, #3
 327 0078 EFD1     		bne	.L18
 328              	.L17:
 238:.\Generated_Source\PSoC5/cyfitter_cfg.c **** 	{
 329              		.loc 1 238 0 is_stmt 1
 330 007a 15B9     		cbnz	r5, .L19
 240:.\Generated_Source\PSoC5/cyfitter_cfg.c **** 	}
 331              		.loc 1 240 0
 332 007c 0320     		movs	r0, #3
 333 007e FFF7FEFF 		bl	CyClockStartupError
 334              	.LVL27:
 335              	.L19:
 244:.\Generated_Source\PSoC5/cyfitter_cfg.c **** 	CY_SET_XTND_REG8((void CYFAR *)(CYREG_CLKDIST_MSTR0), 0x07u);
 336              		.loc 1 244 0
 337 0082 114A     		ldr	r2, .L21+20
 338 0084 4FF48073 		mov	r3, #256
 339 0088 1380     		strh	r3, [r2]	@ movhi
 245:.\Generated_Source\PSoC5/cyfitter_cfg.c **** 	CY_SET_XTND_REG8((void CYFAR *)(CYREG_CLKDIST_BCFG0), 0x00u);
 340              		.loc 1 245 0
 341 008a 0723     		movs	r3, #7
 342 008c 1370     		strb	r3, [r2]
 246:.\Generated_Source\PSoC5/cyfitter_cfg.c **** 	CY_SET_XTND_REG8((void CYFAR *)(CYREG_CLKDIST_BCFG2), 0x48u);
 343              		.loc 1 246 0
 344 008e 0023     		movs	r3, #0
 345 0090 0E49     		ldr	r1, .L21+24
 346 0092 0B70     		strb	r3, [r1]
 247:.\Generated_Source\PSoC5/cyfitter_cfg.c **** 	CY_SET_XTND_REG8((void CYFAR *)(CYREG_CLKDIST_MSTR0), 0x00u);
 347              		.loc 1 247 0
 348 0094 4820     		movs	r0, #72
 349 0096 0231     		adds	r1, r1, #2
 350 0098 0870     		strb	r0, [r1]
 248:.\Generated_Source\PSoC5/cyfitter_cfg.c **** 
 351              		.loc 1 248 0
 352 009a 1370     		strb	r3, [r2]
 251:.\Generated_Source\PSoC5/cyfitter_cfg.c **** 	CY_SET_XTND_REG8((void CYFAR *)(CYREG_CLKDIST_LD), 0x02u);
 353              		.loc 1 251 0
 354 009c 0532     		adds	r2, r2, #5
 355 009e 1370     		strb	r3, [r2]
 252:.\Generated_Source\PSoC5/cyfitter_cfg.c **** 
ARM GAS  C:\Users\Ian\AppData\Local\Temp\cciP9aee.s 			page 13


 356              		.loc 1 252 0
 357 00a0 0222     		movs	r2, #2
 358 00a2 0B4B     		ldr	r3, .L21+28
 359 00a4 1A70     		strb	r2, [r3]
 254:.\Generated_Source\PSoC5/cyfitter_cfg.c **** }
 360              		.loc 1 254 0
 361 00a6 0B4A     		ldr	r2, .L21+32
 362 00a8 1378     		ldrb	r3, [r2]	@ zero_extendqisi2
 363 00aa 43F00F03 		orr	r3, r3, #15
 364 00ae 1370     		strb	r3, [r2]
 365 00b0 38BD     		pop	{r3, r4, r5, pc}
 366              	.LVL28:
 367              	.L22:
 368 00b2 00BF     		.align	2
 369              	.L21:
 370 00b4 80400040 		.word	1073758336
 371 00b8 0F010049 		.word	1224737039
 372 00bc A1460040 		.word	1073759905
 373 00c0 22420040 		.word	1073758754
 374 00c4 25420040 		.word	1073758757
 375 00c8 04400040 		.word	1073758212
 376 00cc 06400040 		.word	1073758214
 377 00d0 01400040 		.word	1073758209
 378 00d4 A2430040 		.word	1073759138
 379              		.cfi_endproc
 380              	.LFE5:
 381              		.size	ClockSetup, .-ClockSetup
 382              		.section	.text.CYCONFIGCPY,"ax",%progbits
 383              		.align	2
 384              		.thumb
 385              		.thumb_func
 386              		.type	CYCONFIGCPY, %function
 387              	CYCONFIGCPY:
 388              	.LFB1:
  68:.\Generated_Source\PSoC5/cyfitter_cfg.c **** 	(void)memcpy(dest, src, n);
 389              		.loc 1 68 0
 390              		.cfi_startproc
 391              		@ args = 0, pretend = 0, frame = 0
 392              		@ frame_needed = 0, uses_anonymous_args = 0
 393              	.LVL29:
 394 0000 08B5     		push	{r3, lr}
 395              		.cfi_def_cfa_offset 8
 396              		.cfi_offset 3, -8
 397              		.cfi_offset 14, -4
  69:.\Generated_Source\PSoC5/cyfitter_cfg.c **** }
 398              		.loc 1 69 0
 399 0002 FFF7FEFF 		bl	memcpy
 400              	.LVL30:
 401 0006 08BD     		pop	{r3, pc}
 402              		.cfi_endproc
 403              	.LFE1:
 404              		.size	CYCONFIGCPY, .-CYCONFIGCPY
 405              		.section	.text.SetAnalogRoutingPumps,"ax",%progbits
 406              		.align	2
 407              		.global	SetAnalogRoutingPumps
 408              		.thumb
 409              		.thumb_func
ARM GAS  C:\Users\Ian\AppData\Local\Temp\cciP9aee.s 			page 14


 410              		.type	SetAnalogRoutingPumps, %function
 411              	SetAnalogRoutingPumps:
 412              	.LFB7:
 295:.\Generated_Source\PSoC5/cyfitter_cfg.c **** 
 296:.\Generated_Source\PSoC5/cyfitter_cfg.c **** 
 297:.\Generated_Source\PSoC5/cyfitter_cfg.c **** /*******************************************************************************
 298:.\Generated_Source\PSoC5/cyfitter_cfg.c **** * Function Name: SetAnalogRoutingPumps
 299:.\Generated_Source\PSoC5/cyfitter_cfg.c **** ********************************************************************************
 300:.\Generated_Source\PSoC5/cyfitter_cfg.c **** *
 301:.\Generated_Source\PSoC5/cyfitter_cfg.c **** * Summary:
 302:.\Generated_Source\PSoC5/cyfitter_cfg.c **** * Enables or disables the analog pumps feeding analog routing switches.
 303:.\Generated_Source\PSoC5/cyfitter_cfg.c **** * Intended to be called at startup, based on the Vdda system configuration;
 304:.\Generated_Source\PSoC5/cyfitter_cfg.c **** * may be called during operation when the user informs us that the Vdda voltage
 305:.\Generated_Source\PSoC5/cyfitter_cfg.c **** * crossed the pump threshold.
 306:.\Generated_Source\PSoC5/cyfitter_cfg.c **** *
 307:.\Generated_Source\PSoC5/cyfitter_cfg.c **** * Parameters:
 308:.\Generated_Source\PSoC5/cyfitter_cfg.c **** *  enabled - 1 to enable the pumps, 0 to disable the pumps
 309:.\Generated_Source\PSoC5/cyfitter_cfg.c **** *
 310:.\Generated_Source\PSoC5/cyfitter_cfg.c **** * Return:
 311:.\Generated_Source\PSoC5/cyfitter_cfg.c **** *  void
 312:.\Generated_Source\PSoC5/cyfitter_cfg.c **** *
 313:.\Generated_Source\PSoC5/cyfitter_cfg.c **** *******************************************************************************/
 314:.\Generated_Source\PSoC5/cyfitter_cfg.c **** void SetAnalogRoutingPumps(uint8 enabled)
 315:.\Generated_Source\PSoC5/cyfitter_cfg.c **** {
 413              		.loc 1 315 0
 414              		.cfi_startproc
 415              		@ args = 0, pretend = 0, frame = 0
 416              		@ frame_needed = 0, uses_anonymous_args = 0
 417              		@ link register save eliminated.
 418              	.LVL31:
 316:.\Generated_Source\PSoC5/cyfitter_cfg.c **** 	uint8 regValue = CY_GET_XTND_REG8((void CYFAR *)CYREG_PUMP_CR0);
 419              		.loc 1 316 0
 420 0000 024A     		ldr	r2, .L26
 421 0002 1378     		ldrb	r3, [r2]	@ zero_extendqisi2
 422 0004 DBB2     		uxtb	r3, r3
 423              	.LVL32:
 317:.\Generated_Source\PSoC5/cyfitter_cfg.c **** 	if (enabled != 0u)
 318:.\Generated_Source\PSoC5/cyfitter_cfg.c **** 	{
 319:.\Generated_Source\PSoC5/cyfitter_cfg.c **** 		regValue |= 0x00u;
 320:.\Generated_Source\PSoC5/cyfitter_cfg.c **** 	}
 321:.\Generated_Source\PSoC5/cyfitter_cfg.c **** 	else
 322:.\Generated_Source\PSoC5/cyfitter_cfg.c **** 	{
 323:.\Generated_Source\PSoC5/cyfitter_cfg.c **** 		regValue &= (uint8)~0x00u;
 324:.\Generated_Source\PSoC5/cyfitter_cfg.c **** 	}
 325:.\Generated_Source\PSoC5/cyfitter_cfg.c **** 	CY_SET_XTND_REG8((void CYFAR *)CYREG_PUMP_CR0, regValue);
 424              		.loc 1 325 0
 425 0006 1370     		strb	r3, [r2]
 426 0008 7047     		bx	lr
 427              	.L27:
 428 000a 00BF     		.align	2
 429              	.L26:
 430 000c 76580040 		.word	1073764470
 431              		.cfi_endproc
 432              	.LFE7:
 433              		.size	SetAnalogRoutingPumps, .-SetAnalogRoutingPumps
 434              		.section	.text.cyfitter_cfg,"ax",%progbits
 435              		.align	2
ARM GAS  C:\Users\Ian\AppData\Local\Temp\cciP9aee.s 			page 15


 436              		.global	cyfitter_cfg
 437              		.thumb
 438              		.thumb_func
 439              		.type	cyfitter_cfg, %function
 440              	cyfitter_cfg:
 441              	.LFB8:
 326:.\Generated_Source\PSoC5/cyfitter_cfg.c **** }
 327:.\Generated_Source\PSoC5/cyfitter_cfg.c **** 
 328:.\Generated_Source\PSoC5/cyfitter_cfg.c **** #define CY_AMUX_UNUSED CYREG_BOOST_SR
 329:.\Generated_Source\PSoC5/cyfitter_cfg.c **** 
 330:.\Generated_Source\PSoC5/cyfitter_cfg.c **** 
 331:.\Generated_Source\PSoC5/cyfitter_cfg.c **** /*******************************************************************************
 332:.\Generated_Source\PSoC5/cyfitter_cfg.c **** * Function Name: cyfitter_cfg
 333:.\Generated_Source\PSoC5/cyfitter_cfg.c **** ********************************************************************************
 334:.\Generated_Source\PSoC5/cyfitter_cfg.c **** * Summary:
 335:.\Generated_Source\PSoC5/cyfitter_cfg.c **** *  This function is called by the start-up code for the selected device. It
 336:.\Generated_Source\PSoC5/cyfitter_cfg.c **** *  performs all of the necessary device configuration based on the design
 337:.\Generated_Source\PSoC5/cyfitter_cfg.c **** *  settings.  This includes settings from the Design Wide Resources (DWR) such
 338:.\Generated_Source\PSoC5/cyfitter_cfg.c **** *  as Clocks and Pins as well as any component configuration that is necessary.
 339:.\Generated_Source\PSoC5/cyfitter_cfg.c **** *
 340:.\Generated_Source\PSoC5/cyfitter_cfg.c **** * Parameters:  
 341:.\Generated_Source\PSoC5/cyfitter_cfg.c **** *   void
 342:.\Generated_Source\PSoC5/cyfitter_cfg.c **** *
 343:.\Generated_Source\PSoC5/cyfitter_cfg.c **** * Return:
 344:.\Generated_Source\PSoC5/cyfitter_cfg.c **** *   void
 345:.\Generated_Source\PSoC5/cyfitter_cfg.c **** *
 346:.\Generated_Source\PSoC5/cyfitter_cfg.c **** *******************************************************************************/
 347:.\Generated_Source\PSoC5/cyfitter_cfg.c **** 
 348:.\Generated_Source\PSoC5/cyfitter_cfg.c **** void cyfitter_cfg(void)
 349:.\Generated_Source\PSoC5/cyfitter_cfg.c **** {
 442              		.loc 1 349 0
 443              		.cfi_startproc
 444              		@ args = 0, pretend = 0, frame = 0
 445              		@ frame_needed = 0, uses_anonymous_args = 0
 446 0000 70B5     		push	{r4, r5, r6, lr}
 447              		.cfi_def_cfa_offset 16
 448              		.cfi_offset 4, -16
 449              		.cfi_offset 5, -12
 450              		.cfi_offset 6, -8
 451              		.cfi_offset 14, -4
 350:.\Generated_Source\PSoC5/cyfitter_cfg.c **** #ifdef CYGlobalIntDisable
 351:.\Generated_Source\PSoC5/cyfitter_cfg.c **** 	/* Disable interrupts by default. Let user enable if/when they want. */
 352:.\Generated_Source\PSoC5/cyfitter_cfg.c **** 	CYGlobalIntDisable
 452              		.loc 1 352 0
 453              	@ 352 ".\Generated_Source\PSoC5\cyfitter_cfg.c" 1
 454 0002 72B6     		CPSID   i
 455              	@ 0 "" 2
 353:.\Generated_Source\PSoC5/cyfitter_cfg.c **** #endif
 354:.\Generated_Source\PSoC5/cyfitter_cfg.c **** 
 355:.\Generated_Source\PSoC5/cyfitter_cfg.c **** 	/* Enable/Disable Debug functionality based on settings from System DWR */
 356:.\Generated_Source\PSoC5/cyfitter_cfg.c **** 	CY_SET_XTND_REG8((void CYFAR *)CYREG_MLOGIC_DEBUG, (CY_GET_XTND_REG8((void CYFAR *)CYREG_MLOGIC_DE
 456              		.loc 1 356 0
 457              		.thumb
 458 0004 434A     		ldr	r2, .L34
 459 0006 1378     		ldrb	r3, [r2]	@ zero_extendqisi2
 460 0008 43F00403 		orr	r3, r3, #4
 461 000c 1370     		strb	r3, [r2]
ARM GAS  C:\Users\Ian\AppData\Local\Temp\cciP9aee.s 			page 16


 462              	.LVL33:
 463              	.LBB3:
 357:.\Generated_Source\PSoC5/cyfitter_cfg.c **** 
 358:.\Generated_Source\PSoC5/cyfitter_cfg.c **** 	{
 359:.\Generated_Source\PSoC5/cyfitter_cfg.c **** 
 360:.\Generated_Source\PSoC5/cyfitter_cfg.c **** 		CYPACKED typedef struct {
 361:.\Generated_Source\PSoC5/cyfitter_cfg.c **** 			void CYFAR *address;
 362:.\Generated_Source\PSoC5/cyfitter_cfg.c **** 			uint16 size;
 363:.\Generated_Source\PSoC5/cyfitter_cfg.c **** 		} CYPACKED_ATTR cfg_memset_t;
 364:.\Generated_Source\PSoC5/cyfitter_cfg.c **** 
 365:.\Generated_Source\PSoC5/cyfitter_cfg.c **** 
 366:.\Generated_Source\PSoC5/cyfitter_cfg.c **** 		CYPACKED typedef struct {
 367:.\Generated_Source\PSoC5/cyfitter_cfg.c **** 			void CYFAR *dest;
 368:.\Generated_Source\PSoC5/cyfitter_cfg.c **** 			const void CYFAR *src;
 369:.\Generated_Source\PSoC5/cyfitter_cfg.c **** 			uint16 size;
 370:.\Generated_Source\PSoC5/cyfitter_cfg.c **** 		} CYPACKED_ATTR cfg_memcpy_t;
 371:.\Generated_Source\PSoC5/cyfitter_cfg.c **** 
 372:.\Generated_Source\PSoC5/cyfitter_cfg.c **** 		static const cfg_memset_t CYCODE cfg_memset_list [] = {
 373:.\Generated_Source\PSoC5/cyfitter_cfg.c **** 			/* address, size */
 374:.\Generated_Source\PSoC5/cyfitter_cfg.c **** 			{(void CYFAR *)(CYREG_PRT2_DR), 32u},
 375:.\Generated_Source\PSoC5/cyfitter_cfg.c **** 			{(void CYFAR *)(CYREG_PRT6_DR), 16u},
 376:.\Generated_Source\PSoC5/cyfitter_cfg.c **** 			{(void CYFAR *)(CYREG_PRT12_DR), 16u},
 377:.\Generated_Source\PSoC5/cyfitter_cfg.c **** 			{(void CYFAR *)(CYREG_PRT15_DR), 16u},
 378:.\Generated_Source\PSoC5/cyfitter_cfg.c **** 			{(void CYFAR *)(CYDEV_UCFG_B0_P0_U0_BASE), 128u},
 379:.\Generated_Source\PSoC5/cyfitter_cfg.c **** 			{(void CYFAR *)(CYDEV_UCFG_B0_P0_ROUTE_BASE), 896u},
 380:.\Generated_Source\PSoC5/cyfitter_cfg.c **** 			{(void CYFAR *)(CYDEV_UCFG_B0_P2_ROUTE_BASE), 2816u},
 381:.\Generated_Source\PSoC5/cyfitter_cfg.c **** 			{(void CYFAR *)(CYDEV_UCFG_B1_P2_U0_BASE), 2048u},
 382:.\Generated_Source\PSoC5/cyfitter_cfg.c **** 			{(void CYFAR *)(CYDEV_UCFG_DSI0_BASE), 2560u},
 383:.\Generated_Source\PSoC5/cyfitter_cfg.c **** 			{(void CYFAR *)(CYDEV_UCFG_DSI12_BASE), 512u},
 384:.\Generated_Source\PSoC5/cyfitter_cfg.c **** 			{(void CYFAR *)(CYREG_BCTL0_MDCLK_EN), 32u},
 385:.\Generated_Source\PSoC5/cyfitter_cfg.c **** 		};
 386:.\Generated_Source\PSoC5/cyfitter_cfg.c **** 
 387:.\Generated_Source\PSoC5/cyfitter_cfg.c **** 		static const cfg_memcpy_t CYCODE cfg_memcpy_list [] = {
 388:.\Generated_Source\PSoC5/cyfitter_cfg.c **** 			/* dest, src, size */
 389:.\Generated_Source\PSoC5/cyfitter_cfg.c **** 			{(void CYFAR *)(CYDEV_UCFG_B0_P0_U1_BASE), BS_UDB_1_5_1_CONFIG_VAL, 128u},
 390:.\Generated_Source\PSoC5/cyfitter_cfg.c **** 			{(void CYFAR *)(CYDEV_UCFG_B0_P2_U1_BASE), BS_UDB_1_3_1_CONFIG_VAL, 128u},
 391:.\Generated_Source\PSoC5/cyfitter_cfg.c **** 		};
 392:.\Generated_Source\PSoC5/cyfitter_cfg.c **** 
 393:.\Generated_Source\PSoC5/cyfitter_cfg.c **** 		uint8 CYDATA i;
 394:.\Generated_Source\PSoC5/cyfitter_cfg.c **** 
 395:.\Generated_Source\PSoC5/cyfitter_cfg.c **** 		/* Zero out critical memory blocks before beginning configuration */
 396:.\Generated_Source\PSoC5/cyfitter_cfg.c **** 		for (i = 0u; i < (sizeof(cfg_memset_list)/sizeof(cfg_memset_list[0])); i++)
 464              		.loc 1 396 0
 465 000e 0024     		movs	r4, #0
 466 0010 0CE0     		b	.L29
 467              	.LVL34:
 468              	.L30:
 469              	.LBB4:
 397:.\Generated_Source\PSoC5/cyfitter_cfg.c **** 		{
 398:.\Generated_Source\PSoC5/cyfitter_cfg.c **** 			const cfg_memset_t CYCODE * CYDATA ms = &cfg_memset_list[i];
 399:.\Generated_Source\PSoC5/cyfitter_cfg.c **** 			CYMEMZERO(ms->address, (size_t)(uint32)(ms->size));
 470              		.loc 1 399 0 discriminator 3
 471 0012 4149     		ldr	r1, .L34+4
 472 0014 6300     		lsls	r3, r4, #1
 473 0016 1A19     		adds	r2, r3, r4
 474 0018 5200     		lsls	r2, r2, #1
 475 001a 0A44     		add	r2, r2, r1
ARM GAS  C:\Users\Ian\AppData\Local\Temp\cciP9aee.s 			page 17


 476 001c 2344     		add	r3, r3, r4
 477 001e 5B00     		lsls	r3, r3, #1
 478 0020 C858     		ldr	r0, [r1, r3]	@ unaligned
 479 0022 9188     		ldrh	r1, [r2, #4]
 480 0024 FFF7FEFF 		bl	CYMEMZERO
 481              	.LVL35:
 482              	.LBE4:
 396:.\Generated_Source\PSoC5/cyfitter_cfg.c **** 		{
 483              		.loc 1 396 0 discriminator 3
 484 0028 0134     		adds	r4, r4, #1
 485              	.LVL36:
 486 002a E4B2     		uxtb	r4, r4
 487              	.LVL37:
 488              	.L29:
 396:.\Generated_Source\PSoC5/cyfitter_cfg.c **** 		{
 489              		.loc 1 396 0 is_stmt 0 discriminator 1
 490 002c 0A2C     		cmp	r4, #10
 491 002e F0D9     		bls	.L30
 492 0030 0024     		movs	r4, #0
 493              	.LVL38:
 494 0032 10E0     		b	.L31
 495              	.LVL39:
 496              	.L32:
 497              	.LBB5:
 400:.\Generated_Source\PSoC5/cyfitter_cfg.c **** 		}
 401:.\Generated_Source\PSoC5/cyfitter_cfg.c **** 
 402:.\Generated_Source\PSoC5/cyfitter_cfg.c **** 		/* Copy device configuration data into registers */
 403:.\Generated_Source\PSoC5/cyfitter_cfg.c **** 		for (i = 0u; i < (sizeof(cfg_memcpy_list)/sizeof(cfg_memcpy_list[0])); i++)
 404:.\Generated_Source\PSoC5/cyfitter_cfg.c **** 		{
 405:.\Generated_Source\PSoC5/cyfitter_cfg.c **** 			const cfg_memcpy_t CYCODE * CYDATA mc = &cfg_memcpy_list[i];
 406:.\Generated_Source\PSoC5/cyfitter_cfg.c **** 			void * CYDATA destPtr = mc->dest;
 498              		.loc 1 406 0 is_stmt 1 discriminator 3
 499 0034 3849     		ldr	r1, .L34+4
 500 0036 A300     		lsls	r3, r4, #2
 501 0038 1A19     		adds	r2, r3, r4
 502 003a 5200     		lsls	r2, r2, #1
 503 003c 0A44     		add	r2, r2, r1
 504 003e 52F8440F 		ldr	r0, [r2, #68]!	@ unaligned
 505              	.LVL40:
 407:.\Generated_Source\PSoC5/cyfitter_cfg.c **** 			const void * CYDATA srcPtr = mc->src;
 408:.\Generated_Source\PSoC5/cyfitter_cfg.c **** 			uint16 CYDATA numBytes = mc->size;
 506              		.loc 1 408 0 discriminator 3
 507 0042 2344     		add	r3, r3, r4
 508 0044 5B00     		lsls	r3, r3, #1
 509 0046 0B44     		add	r3, r3, r1
 510              	.LVL41:
 409:.\Generated_Source\PSoC5/cyfitter_cfg.c **** 			CYCONFIGCPY(destPtr, srcPtr, numBytes);
 511              		.loc 1 409 0 discriminator 3
 512 0048 5168     		ldr	r1, [r2, #4]	@ unaligned
 513              	.LVL42:
 514 004a B3F84C20 		ldrh	r2, [r3, #76]
 515 004e FFF7FEFF 		bl	CYCONFIGCPY
 516              	.LVL43:
 517              	.LBE5:
 403:.\Generated_Source\PSoC5/cyfitter_cfg.c **** 		{
 518              		.loc 1 403 0 discriminator 3
 519 0052 0134     		adds	r4, r4, #1
ARM GAS  C:\Users\Ian\AppData\Local\Temp\cciP9aee.s 			page 18


 520              	.LVL44:
 521 0054 E4B2     		uxtb	r4, r4
 522              	.LVL45:
 523              	.L31:
 403:.\Generated_Source\PSoC5/cyfitter_cfg.c **** 		{
 524              		.loc 1 403 0 is_stmt 0 discriminator 1
 525 0056 012C     		cmp	r4, #1
 526 0058 ECD9     		bls	.L32
 410:.\Generated_Source\PSoC5/cyfitter_cfg.c **** 		}
 411:.\Generated_Source\PSoC5/cyfitter_cfg.c **** 
 412:.\Generated_Source\PSoC5/cyfitter_cfg.c **** 		cfg_write_bytes32(cy_cfg_addr_table, cy_cfg_data_table);
 527              		.loc 1 412 0 is_stmt 1
 528 005a 4FF09040 		mov	r0, #1207959552
 529 005e 2F49     		ldr	r1, .L34+8
 530 0060 FFF7FEFF 		bl	cfg_write_bytes32
 531              	.LVL46:
 413:.\Generated_Source\PSoC5/cyfitter_cfg.c **** 
 414:.\Generated_Source\PSoC5/cyfitter_cfg.c **** 		/* Perform normal device configuration. Order is not critical for these items. */
 415:.\Generated_Source\PSoC5/cyfitter_cfg.c **** 		CYMEMZERO((void CYFAR *)(CYREG_PHUB_CFGMEM0_CFG0), 4u);
 532              		.loc 1 415 0
 533 0064 2E48     		ldr	r0, .L34+12
 534 0066 0421     		movs	r1, #4
 535 0068 FFF7FEFF 		bl	CYMEMZERO
 536              	.LVL47:
 416:.\Generated_Source\PSoC5/cyfitter_cfg.c **** 		CYMEMZERO((void CYFAR *)(CYREG_PHUB_CFGMEM1_CFG0), 4u);
 537              		.loc 1 416 0
 538 006c 2D48     		ldr	r0, .L34+16
 539 006e 0421     		movs	r1, #4
 540 0070 FFF7FEFF 		bl	CYMEMZERO
 541              	.LVL48:
 417:.\Generated_Source\PSoC5/cyfitter_cfg.c **** 		CYMEMZERO((void CYFAR *)(CYREG_PHUB_CFGMEM2_CFG0), 4u);
 542              		.loc 1 417 0
 543 0074 2C48     		ldr	r0, .L34+20
 544 0076 0421     		movs	r1, #4
 545 0078 FFF7FEFF 		bl	CYMEMZERO
 546              	.LVL49:
 418:.\Generated_Source\PSoC5/cyfitter_cfg.c **** 		CYMEMZERO((void CYFAR *)(CYREG_PHUB_CFGMEM3_CFG0), 4u);
 547              		.loc 1 418 0
 548 007c 2B48     		ldr	r0, .L34+24
 549 007e 0421     		movs	r1, #4
 550 0080 FFF7FEFF 		bl	CYMEMZERO
 551              	.LVL50:
 419:.\Generated_Source\PSoC5/cyfitter_cfg.c **** 		CYMEMZERO((void CYFAR *)(CYREG_PHUB_CFGMEM4_CFG0), 4u);
 552              		.loc 1 419 0
 553 0084 2A48     		ldr	r0, .L34+28
 554 0086 0421     		movs	r1, #4
 555 0088 FFF7FEFF 		bl	CYMEMZERO
 556              	.LVL51:
 420:.\Generated_Source\PSoC5/cyfitter_cfg.c **** 		CYMEMZERO((void CYFAR *)(CYREG_PHUB_CFGMEM5_CFG0), 4u);
 557              		.loc 1 420 0
 558 008c 2948     		ldr	r0, .L34+32
 559 008e 0421     		movs	r1, #4
 560 0090 FFF7FEFF 		bl	CYMEMZERO
 561              	.LVL52:
 421:.\Generated_Source\PSoC5/cyfitter_cfg.c **** 
 422:.\Generated_Source\PSoC5/cyfitter_cfg.c **** 		/* Enable digital routing */
 423:.\Generated_Source\PSoC5/cyfitter_cfg.c **** 		CY_SET_XTND_REG8((void CYFAR *)CYREG_BCTL0_BANK_CTL, CY_GET_XTND_REG8((void CYFAR *)CYREG_BCTL0_B
ARM GAS  C:\Users\Ian\AppData\Local\Temp\cciP9aee.s 			page 19


 562              		.loc 1 423 0
 563 0094 284A     		ldr	r2, .L34+36
 564 0096 1378     		ldrb	r3, [r2]	@ zero_extendqisi2
 565 0098 43F00203 		orr	r3, r3, #2
 566 009c 1370     		strb	r3, [r2]
 424:.\Generated_Source\PSoC5/cyfitter_cfg.c **** 		CY_SET_XTND_REG8((void CYFAR *)CYREG_BCTL1_BANK_CTL, CY_GET_XTND_REG8((void CYFAR *)CYREG_BCTL1_B
 567              		.loc 1 424 0
 568 009e 1032     		adds	r2, r2, #16
 569 00a0 1378     		ldrb	r3, [r2]	@ zero_extendqisi2
 570 00a2 43F00203 		orr	r3, r3, #2
 571 00a6 1370     		strb	r3, [r2]
 425:.\Generated_Source\PSoC5/cyfitter_cfg.c **** 
 426:.\Generated_Source\PSoC5/cyfitter_cfg.c **** 		/* Enable UDB array */
 427:.\Generated_Source\PSoC5/cyfitter_cfg.c **** 		CY_SET_XTND_REG8((void CYFAR *)CYREG_PM_ACT_CFG0, CY_GET_XTND_REG8((void CYFAR *)CYREG_PM_ACT_CFG
 572              		.loc 1 427 0
 573 00a8 244C     		ldr	r4, .L34+40
 574              	.LVL53:
 575 00aa 2378     		ldrb	r3, [r4]	@ zero_extendqisi2
 576 00ac 43F04003 		orr	r3, r3, #64
 577 00b0 2370     		strb	r3, [r4]
 428:.\Generated_Source\PSoC5/cyfitter_cfg.c **** 		CY_SET_XTND_REG8((void CYFAR *)CYREG_PM_AVAIL_CR2, CY_GET_XTND_REG8((void CYFAR *)CYREG_PM_AVAIL_
 578              		.loc 1 428 0
 579 00b2 A2F58632 		sub	r2, r2, #68608
 580 00b6 513A     		subs	r2, r2, #81
 581 00b8 1378     		ldrb	r3, [r2]	@ zero_extendqisi2
 582 00ba 43F01003 		orr	r3, r3, #16
 583 00be 1370     		strb	r3, [r2]
 584              	.LBE3:
 429:.\Generated_Source\PSoC5/cyfitter_cfg.c **** 	}
 430:.\Generated_Source\PSoC5/cyfitter_cfg.c **** 
 431:.\Generated_Source\PSoC5/cyfitter_cfg.c **** 
 432:.\Generated_Source\PSoC5/cyfitter_cfg.c **** 	/* Perform second pass device configuration. These items must be configured in specific order afte
 433:.\Generated_Source\PSoC5/cyfitter_cfg.c **** 	CYCONFIGCPY((void CYFAR *)(CYREG_PRT0_DM0), (const void CYFAR *)(BS_IOPINS0_0_VAL), 8u);
 585              		.loc 1 433 0
 586 00c0 1F48     		ldr	r0, .L34+44
 587 00c2 2049     		ldr	r1, .L34+48
 588 00c4 0822     		movs	r2, #8
 589 00c6 FFF7FEFF 		bl	CYCONFIGCPY
 590              	.LVL54:
 434:.\Generated_Source\PSoC5/cyfitter_cfg.c **** 	CYCONFIGCPY((void CYFAR *)(CYREG_PRT1_DM0), (const void CYFAR *)(BS_IOPINS0_1_VAL), 8u);
 591              		.loc 1 434 0
 592 00ca 1F48     		ldr	r0, .L34+52
 593 00cc 1F49     		ldr	r1, .L34+56
 594 00ce 0822     		movs	r2, #8
 595 00d0 FFF7FEFF 		bl	CYCONFIGCPY
 596              	.LVL55:
 435:.\Generated_Source\PSoC5/cyfitter_cfg.c **** 	CYCONFIGCPY((void CYFAR *)(CYREG_PRT4_DM0), (const void CYFAR *)(BS_IOPINS0_4_VAL), 8u);
 597              		.loc 1 435 0
 598 00d4 1E48     		ldr	r0, .L34+60
 599 00d6 1F49     		ldr	r1, .L34+64
 600 00d8 0822     		movs	r2, #8
 601 00da FFF7FEFF 		bl	CYCONFIGCPY
 602              	.LVL56:
 436:.\Generated_Source\PSoC5/cyfitter_cfg.c **** 	CYCONFIGCPY((void CYFAR *)(CYREG_PRT5_DR), (const void CYFAR *)(BS_IOPINS0_5_VAL), 10u);
 603              		.loc 1 436 0
 604 00de 1E48     		ldr	r0, .L34+68
 605 00e0 1E49     		ldr	r1, .L34+72
ARM GAS  C:\Users\Ian\AppData\Local\Temp\cciP9aee.s 			page 20


 606 00e2 0A22     		movs	r2, #10
 607 00e4 FFF7FEFF 		bl	CYCONFIGCPY
 608              	.LVL57:
 437:.\Generated_Source\PSoC5/cyfitter_cfg.c **** 	/* Switch Boost to the precision bandgap reference from its internal reference */
 438:.\Generated_Source\PSoC5/cyfitter_cfg.c **** 	CY_SET_REG8((void CYXDATA *)CYREG_BOOST_CR2, (CY_GET_REG8((void CYXDATA *)CYREG_BOOST_CR2) | 0x08u
 609              		.loc 1 438 0
 610 00e8 1D4A     		ldr	r2, .L34+76
 611 00ea 1378     		ldrb	r3, [r2]	@ zero_extendqisi2
 612 00ec 43F00803 		orr	r3, r3, #8
 613 00f0 1370     		strb	r3, [r2]
 439:.\Generated_Source\PSoC5/cyfitter_cfg.c **** 
 440:.\Generated_Source\PSoC5/cyfitter_cfg.c **** 	/* Set Flash Cycles based on max possible frequency in case a glitch occurs during ClockSetup(). *
 441:.\Generated_Source\PSoC5/cyfitter_cfg.c **** 	CY_SET_XTND_REG8((void CYFAR *)(CYREG_CACHE_CC_CTL), (((CYDEV_INSTRUCT_CACHE_ENABLED) != 0) ? 0x01
 614              		.loc 1 441 0
 615 00f2 1C4E     		ldr	r6, .L34+80
 616 00f4 0125     		movs	r5, #1
 617 00f6 3570     		strb	r5, [r6]
 442:.\Generated_Source\PSoC5/cyfitter_cfg.c **** 	/* Setup clocks based on selections from Clock DWR */
 443:.\Generated_Source\PSoC5/cyfitter_cfg.c **** 	ClockSetup();
 618              		.loc 1 443 0
 619 00f8 FFF7FEFF 		bl	ClockSetup
 620              	.LVL58:
 444:.\Generated_Source\PSoC5/cyfitter_cfg.c **** 	/* Set Flash Cycles based on newly configured 24.00MHz Bus Clock. */
 445:.\Generated_Source\PSoC5/cyfitter_cfg.c **** 	CY_SET_XTND_REG8((void CYFAR *)(CYREG_CACHE_CC_CTL), (((CYDEV_INSTRUCT_CACHE_ENABLED) != 0) ? 0x81
 621              		.loc 1 445 0
 622 00fc 8123     		movs	r3, #129
 623 00fe 3370     		strb	r3, [r6]
 446:.\Generated_Source\PSoC5/cyfitter_cfg.c **** 	CY_SET_XTND_REG8((void CYFAR *)(CYREG_PANTHER_WAITPIPE), 0x01u);
 624              		.loc 1 446 0
 625 0100 194B     		ldr	r3, .L34+84
 626 0102 1D70     		strb	r5, [r3]
 447:.\Generated_Source\PSoC5/cyfitter_cfg.c **** 
 448:.\Generated_Source\PSoC5/cyfitter_cfg.c **** 	/* Perform basic analog initialization to defaults */
 449:.\Generated_Source\PSoC5/cyfitter_cfg.c **** 	AnalogSetDefault();
 627              		.loc 1 449 0
 628 0104 FFF7FEFF 		bl	AnalogSetDefault
 629              	.LVL59:
 450:.\Generated_Source\PSoC5/cyfitter_cfg.c **** 
 451:.\Generated_Source\PSoC5/cyfitter_cfg.c **** 	/* Configure alternate active mode */
 452:.\Generated_Source\PSoC5/cyfitter_cfg.c **** 	CYCONFIGCPY((void CYFAR *)CYDEV_PM_STBY_BASE, (const void CYFAR *)CYDEV_PM_ACT_BASE, 14u);
 630              		.loc 1 452 0
 631 0108 1848     		ldr	r0, .L34+88
 632 010a 2146     		mov	r1, r4
 633 010c 0E22     		movs	r2, #14
 634 010e FFF7FEFF 		bl	CYCONFIGCPY
 635              	.LVL60:
 636 0112 70BD     		pop	{r4, r5, r6, pc}
 637              	.L35:
 638              		.align	2
 639              	.L34:
 640 0114 E8460040 		.word	1073759976
 641 0118 00000000 		.word	.LANCHOR0
 642 011c 74000048 		.word	1207959668
 643 0120 00760040 		.word	1073772032
 644 0124 08760040 		.word	1073772040
 645 0128 10760040 		.word	1073772048
 646 012c 18760040 		.word	1073772056
ARM GAS  C:\Users\Ian\AppData\Local\Temp\cciP9aee.s 			page 21


 647 0130 20760040 		.word	1073772064
 648 0134 28760040 		.word	1073772072
 649 0138 03500140 		.word	1073827843
 650 013c A0430040 		.word	1073759136
 651 0140 02510040 		.word	1073762562
 652 0144 F4040048 		.word	1207960820
 653 0148 12510040 		.word	1073762578
 654 014c FC040048 		.word	1207960828
 655 0150 42510040 		.word	1073762626
 656 0154 04050048 		.word	1207960836
 657 0158 50510040 		.word	1073762640
 658 015c 0C050048 		.word	1207960844
 659 0160 22430040 		.word	1073759010
 660 0164 00480040 		.word	1073760256
 661 0168 04000840 		.word	1074266116
 662 016c B0430040 		.word	1073759152
 663              		.cfi_endproc
 664              	.LFE8:
 665              		.size	cyfitter_cfg, .-cyfitter_cfg
 666              		.section	.rodata
 667              		.align	2
 668              		.set	.LANCHOR0,. + 0
 669              		.type	cfg_memset_list.4843, %object
 670              		.size	cfg_memset_list.4843, 66
 671              	cfg_memset_list.4843:
 672 0000 20510040 		.word	1073762592
 673 0004 2000     		.short	32
 674 0006 60510040 		.4byte	1073762656
 675 000a 1000     		.short	16
 676 000c C0510040 		.word	1073762752
 677 0010 1000     		.short	16
 678 0012 F0510040 		.4byte	1073762800
 679 0016 1000     		.short	16
 680 0018 00000140 		.word	1073807360
 681 001c 8000     		.short	128
 682 001e 00010140 		.4byte	1073807616
 683 0022 8003     		.short	896
 684 0024 00050140 		.word	1073808640
 685 0028 000B     		.short	2816
 686 002a 00140140 		.4byte	1073812480
 687 002e 0008     		.short	2048
 688 0030 00400140 		.word	1073823744
 689 0034 000A     		.short	2560
 690 0036 004C0140 		.4byte	1073826816
 691 003a 0002     		.short	512
 692 003c 00500140 		.word	1073827840
 693 0040 2000     		.short	32
 694 0042 0000     		.space	2
 695              		.type	cfg_memcpy_list.4844, %object
 696              		.size	cfg_memcpy_list.4844, 20
 697              	cfg_memcpy_list.4844:
 698 0044 80000140 		.word	1073807488
 699 0048 F4030048 		.word	1207960564
 700 004c 8000     		.short	128
 701 004e 80040140 		.4byte	1073808512
 702 0052 74040048 		.4byte	1207960692
 703 0056 8000     		.short	128
ARM GAS  C:\Users\Ian\AppData\Local\Temp\cciP9aee.s 			page 22


 704              		.text
 705              	.Letext0:
 706              		.file 2 "c:\\program files (x86)\\cypress\\psoc creator\\3.3\\psoc creator\\import\\gnu\\arm\\4.9.
 707              		.file 3 ".\\Generated_Source\\PSoC5\\cytypes.h"
 708              		.file 4 ".\\Generated_Source\\PSoC5\\CyLib.h"