ARM GAS  C:\Users\Ian\AppData\Local\Temp\cctxMqmc.s 			page 1


   1              		.syntax unified
   2              		.cpu cortex-m3
   3              		.fpu softvfp
   4              		.eabi_attribute 20, 1
   5              		.eabi_attribute 21, 1
   6              		.eabi_attribute 23, 3
   7              		.eabi_attribute 24, 1
   8              		.eabi_attribute 25, 1
   9              		.eabi_attribute 26, 1
  10              		.eabi_attribute 30, 1
  11              		.eabi_attribute 34, 1
  12              		.eabi_attribute 18, 4
  13              		.thumb
  14              		.file	"CySpc.c"
  15              		.text
  16              	.Ltext0:
  17              		.cfi_sections	.debug_frame
  18              		.section	.text.CySpcStart,"ax",%progbits
  19              		.align	2
  20              		.global	CySpcStart
  21              		.thumb
  22              		.thumb_func
  23              		.type	CySpcStart, %function
  24              	CySpcStart:
  25              	.LFB0:
  26              		.file 1 ".\\Generated_Source\\PSoC5\\CySpc.c"
   1:.\Generated_Source\PSoC5/CySpc.c **** /*******************************************************************************
   2:.\Generated_Source\PSoC5/CySpc.c **** * File Name: CySpc.c
   3:.\Generated_Source\PSoC5/CySpc.c **** * Version 4.11
   4:.\Generated_Source\PSoC5/CySpc.c **** *
   5:.\Generated_Source\PSoC5/CySpc.c **** *  Description:
   6:.\Generated_Source\PSoC5/CySpc.c **** *   Provides an API for the System Performance Component.
   7:.\Generated_Source\PSoC5/CySpc.c **** *   The SPC functions are not meant to be called directly by the user
   8:.\Generated_Source\PSoC5/CySpc.c **** *   application.
   9:.\Generated_Source\PSoC5/CySpc.c **** *
  10:.\Generated_Source\PSoC5/CySpc.c **** ********************************************************************************
  11:.\Generated_Source\PSoC5/CySpc.c **** * Copyright 2008-2014, Cypress Semiconductor Corporation.  All rights reserved.
  12:.\Generated_Source\PSoC5/CySpc.c **** * You may use this file only in accordance with the license, terms, conditions,
  13:.\Generated_Source\PSoC5/CySpc.c **** * disclaimers, and limitations in the end user license agreement accompanying
  14:.\Generated_Source\PSoC5/CySpc.c **** * the software package with which this file was provided.
  15:.\Generated_Source\PSoC5/CySpc.c **** *******************************************************************************/
  16:.\Generated_Source\PSoC5/CySpc.c **** 
  17:.\Generated_Source\PSoC5/CySpc.c **** #include "CySpc.h"
  18:.\Generated_Source\PSoC5/CySpc.c **** 
  19:.\Generated_Source\PSoC5/CySpc.c **** #define CY_SPC_KEY_ONE                      (0xB6u)
  20:.\Generated_Source\PSoC5/CySpc.c **** #define CY_SPC_KEY_TWO(x)                   ((uint8) (((uint16) 0xD3u) + ((uint16) (x))))
  21:.\Generated_Source\PSoC5/CySpc.c **** 
  22:.\Generated_Source\PSoC5/CySpc.c **** /* Command Codes */
  23:.\Generated_Source\PSoC5/CySpc.c **** #define CY_SPC_CMD_LD_BYTE                  (0x00u)
  24:.\Generated_Source\PSoC5/CySpc.c **** #define CY_SPC_CMD_LD_MULTI_BYTE            (0x01u)
  25:.\Generated_Source\PSoC5/CySpc.c **** #define CY_SPC_CMD_LD_ROW                   (0x02u)
  26:.\Generated_Source\PSoC5/CySpc.c **** #define CY_SPC_CMD_RD_BYTE                  (0x03u)
  27:.\Generated_Source\PSoC5/CySpc.c **** #define CY_SPC_CMD_RD_MULTI_BYTE            (0x04u)
  28:.\Generated_Source\PSoC5/CySpc.c **** #define CY_SPC_CMD_WR_ROW                   (0x05u)
  29:.\Generated_Source\PSoC5/CySpc.c **** #define CY_SPC_CMD_WR_USER_NVL              (0x06u)
  30:.\Generated_Source\PSoC5/CySpc.c **** #define CY_SPC_CMD_PRG_ROW                  (0x07u)
  31:.\Generated_Source\PSoC5/CySpc.c **** #define CY_SPC_CMD_ER_SECTOR                (0x08u)
ARM GAS  C:\Users\Ian\AppData\Local\Temp\cctxMqmc.s 			page 2


  32:.\Generated_Source\PSoC5/CySpc.c **** #define CY_SPC_CMD_ER_ALL                   (0x09u)
  33:.\Generated_Source\PSoC5/CySpc.c **** #define CY_SPC_CMD_RD_HIDDEN                (0x0Au)
  34:.\Generated_Source\PSoC5/CySpc.c **** #define CY_SPC_CMD_PRG_PROTECT              (0x0Bu)
  35:.\Generated_Source\PSoC5/CySpc.c **** #define CY_SPC_CMD_CHECKSUM                 (0x0Cu)
  36:.\Generated_Source\PSoC5/CySpc.c **** #define CY_SPC_CMD_DWNLD_ALGORITHM          (0x0Du)
  37:.\Generated_Source\PSoC5/CySpc.c **** #define CY_SPC_CMD_GET_TEMP                 (0x0Eu)
  38:.\Generated_Source\PSoC5/CySpc.c **** #define CY_SPC_CMD_GET_ADC                  (0x0Fu)
  39:.\Generated_Source\PSoC5/CySpc.c **** #define CY_SPC_CMD_RD_NVL_VOLATILE          (0x10u)
  40:.\Generated_Source\PSoC5/CySpc.c **** #define CY_SPC_CMD_SETUP_TS                 (0x11u)
  41:.\Generated_Source\PSoC5/CySpc.c **** #define CY_SPC_CMD_DISABLE_TS               (0x12u)
  42:.\Generated_Source\PSoC5/CySpc.c **** #define CY_SPC_CMD_ER_ROW                   (0x13u)
  43:.\Generated_Source\PSoC5/CySpc.c **** 
  44:.\Generated_Source\PSoC5/CySpc.c **** /* Enable bit in Active and Alternate Active mode templates */
  45:.\Generated_Source\PSoC5/CySpc.c **** #define PM_SPC_PM_EN                        (0x08u)
  46:.\Generated_Source\PSoC5/CySpc.c **** 
  47:.\Generated_Source\PSoC5/CySpc.c **** /* Gate calls to the SPC. */
  48:.\Generated_Source\PSoC5/CySpc.c **** uint8 SpcLockState = CY_SPC_UNLOCKED;
  49:.\Generated_Source\PSoC5/CySpc.c **** 
  50:.\Generated_Source\PSoC5/CySpc.c **** 
  51:.\Generated_Source\PSoC5/CySpc.c **** #if(CY_PSOC5)
  52:.\Generated_Source\PSoC5/CySpc.c **** 
  53:.\Generated_Source\PSoC5/CySpc.c ****     /***************************************************************************
  54:.\Generated_Source\PSoC5/CySpc.c ****     * The wait-state pipeline must be enabled prior to accessing the SPC
  55:.\Generated_Source\PSoC5/CySpc.c ****     * register interface regardless of CPU frequency. The CySpcLock() saves
  56:.\Generated_Source\PSoC5/CySpc.c ****     * current wait-state pipeline state and enables it. The CySpcUnlock()
  57:.\Generated_Source\PSoC5/CySpc.c ****     * function, which must be called after SPC transaction, restores original
  58:.\Generated_Source\PSoC5/CySpc.c ****     * state.
  59:.\Generated_Source\PSoC5/CySpc.c ****     ***************************************************************************/
  60:.\Generated_Source\PSoC5/CySpc.c ****     static uint32 spcWaitPipeBypass = 0u;
  61:.\Generated_Source\PSoC5/CySpc.c **** 
  62:.\Generated_Source\PSoC5/CySpc.c **** #endif  /* (CY_PSOC5) */
  63:.\Generated_Source\PSoC5/CySpc.c **** 
  64:.\Generated_Source\PSoC5/CySpc.c **** 
  65:.\Generated_Source\PSoC5/CySpc.c **** /*******************************************************************************
  66:.\Generated_Source\PSoC5/CySpc.c **** * Function Name: CySpcStart
  67:.\Generated_Source\PSoC5/CySpc.c **** ********************************************************************************
  68:.\Generated_Source\PSoC5/CySpc.c **** * Summary:
  69:.\Generated_Source\PSoC5/CySpc.c **** *  Starts the SPC.
  70:.\Generated_Source\PSoC5/CySpc.c **** *
  71:.\Generated_Source\PSoC5/CySpc.c **** * Parameters:
  72:.\Generated_Source\PSoC5/CySpc.c **** *  None
  73:.\Generated_Source\PSoC5/CySpc.c **** *
  74:.\Generated_Source\PSoC5/CySpc.c **** * Return:
  75:.\Generated_Source\PSoC5/CySpc.c **** *  None
  76:.\Generated_Source\PSoC5/CySpc.c **** *
  77:.\Generated_Source\PSoC5/CySpc.c **** *******************************************************************************/
  78:.\Generated_Source\PSoC5/CySpc.c **** void CySpcStart(void) 
  79:.\Generated_Source\PSoC5/CySpc.c **** {
  27              		.loc 1 79 0
  28              		.cfi_startproc
  29              		@ args = 0, pretend = 0, frame = 0
  30              		@ frame_needed = 0, uses_anonymous_args = 0
  31 0000 08B5     		push	{r3, lr}
  32              		.cfi_def_cfa_offset 8
  33              		.cfi_offset 3, -8
  34              		.cfi_offset 14, -4
  80:.\Generated_Source\PSoC5/CySpc.c ****     /* Save current global interrupt enable and disable it */
ARM GAS  C:\Users\Ian\AppData\Local\Temp\cctxMqmc.s 			page 3


  81:.\Generated_Source\PSoC5/CySpc.c ****     uint8 interruptState = CyEnterCriticalSection();
  35              		.loc 1 81 0
  36 0002 FFF7FEFF 		bl	CyEnterCriticalSection
  37              	.LVL0:
  82:.\Generated_Source\PSoC5/CySpc.c **** 
  83:.\Generated_Source\PSoC5/CySpc.c ****     CY_SPC_PM_ACT_REG  |= PM_SPC_PM_EN;
  38              		.loc 1 83 0
  39 0006 064A     		ldr	r2, .L3
  40 0008 1378     		ldrb	r3, [r2]	@ zero_extendqisi2
  41 000a 43F00803 		orr	r3, r3, #8
  42 000e 1370     		strb	r3, [r2]
  84:.\Generated_Source\PSoC5/CySpc.c ****     CY_SPC_PM_STBY_REG |= PM_SPC_PM_EN;
  43              		.loc 1 84 0
  44 0010 1032     		adds	r2, r2, #16
  45 0012 1378     		ldrb	r3, [r2]	@ zero_extendqisi2
  46 0014 43F00803 		orr	r3, r3, #8
  47 0018 1370     		strb	r3, [r2]
  85:.\Generated_Source\PSoC5/CySpc.c **** 
  86:.\Generated_Source\PSoC5/CySpc.c ****     /* Restore global interrupt enable state */
  87:.\Generated_Source\PSoC5/CySpc.c ****     CyExitCriticalSection(interruptState);
  48              		.loc 1 87 0
  49 001a FFF7FEFF 		bl	CyExitCriticalSection
  50              	.LVL1:
  51 001e 08BD     		pop	{r3, pc}
  52              	.L4:
  53              		.align	2
  54              	.L3:
  55 0020 A0430040 		.word	1073759136
  56              		.cfi_endproc
  57              	.LFE0:
  58              		.size	CySpcStart, .-CySpcStart
  59              		.section	.text.CySpcStop,"ax",%progbits
  60              		.align	2
  61              		.global	CySpcStop
  62              		.thumb
  63              		.thumb_func
  64              		.type	CySpcStop, %function
  65              	CySpcStop:
  66              	.LFB1:
  88:.\Generated_Source\PSoC5/CySpc.c **** }
  89:.\Generated_Source\PSoC5/CySpc.c **** 
  90:.\Generated_Source\PSoC5/CySpc.c **** 
  91:.\Generated_Source\PSoC5/CySpc.c **** /*******************************************************************************
  92:.\Generated_Source\PSoC5/CySpc.c **** * Function Name: CySpcStop
  93:.\Generated_Source\PSoC5/CySpc.c **** ********************************************************************************
  94:.\Generated_Source\PSoC5/CySpc.c **** * Summary:
  95:.\Generated_Source\PSoC5/CySpc.c **** *  Stops the SPC.
  96:.\Generated_Source\PSoC5/CySpc.c **** *
  97:.\Generated_Source\PSoC5/CySpc.c **** * Parameters:
  98:.\Generated_Source\PSoC5/CySpc.c **** *  None
  99:.\Generated_Source\PSoC5/CySpc.c **** *
 100:.\Generated_Source\PSoC5/CySpc.c **** * Return:
 101:.\Generated_Source\PSoC5/CySpc.c **** *  None
 102:.\Generated_Source\PSoC5/CySpc.c **** *
 103:.\Generated_Source\PSoC5/CySpc.c **** *******************************************************************************/
 104:.\Generated_Source\PSoC5/CySpc.c **** void CySpcStop(void) 
 105:.\Generated_Source\PSoC5/CySpc.c **** {
ARM GAS  C:\Users\Ian\AppData\Local\Temp\cctxMqmc.s 			page 4


  67              		.loc 1 105 0
  68              		.cfi_startproc
  69              		@ args = 0, pretend = 0, frame = 0
  70              		@ frame_needed = 0, uses_anonymous_args = 0
  71 0000 08B5     		push	{r3, lr}
  72              		.cfi_def_cfa_offset 8
  73              		.cfi_offset 3, -8
  74              		.cfi_offset 14, -4
 106:.\Generated_Source\PSoC5/CySpc.c ****     /* Save current global interrupt enable and disable it */
 107:.\Generated_Source\PSoC5/CySpc.c ****     uint8 interruptState = CyEnterCriticalSection();
  75              		.loc 1 107 0
  76 0002 FFF7FEFF 		bl	CyEnterCriticalSection
  77              	.LVL2:
 108:.\Generated_Source\PSoC5/CySpc.c **** 
 109:.\Generated_Source\PSoC5/CySpc.c ****     CY_SPC_PM_ACT_REG  &= ((uint8)(~PM_SPC_PM_EN));
  78              		.loc 1 109 0
  79 0006 064A     		ldr	r2, .L7
  80 0008 1378     		ldrb	r3, [r2]	@ zero_extendqisi2
  81 000a 03F0F703 		and	r3, r3, #247
  82 000e 1370     		strb	r3, [r2]
 110:.\Generated_Source\PSoC5/CySpc.c ****     CY_SPC_PM_STBY_REG &= ((uint8)(~PM_SPC_PM_EN));
  83              		.loc 1 110 0
  84 0010 1032     		adds	r2, r2, #16
  85 0012 1378     		ldrb	r3, [r2]	@ zero_extendqisi2
  86 0014 03F0F703 		and	r3, r3, #247
  87 0018 1370     		strb	r3, [r2]
 111:.\Generated_Source\PSoC5/CySpc.c **** 
 112:.\Generated_Source\PSoC5/CySpc.c ****     /* Restore global interrupt enable state */
 113:.\Generated_Source\PSoC5/CySpc.c ****     CyExitCriticalSection(interruptState);
  88              		.loc 1 113 0
  89 001a FFF7FEFF 		bl	CyExitCriticalSection
  90              	.LVL3:
  91 001e 08BD     		pop	{r3, pc}
  92              	.L8:
  93              		.align	2
  94              	.L7:
  95 0020 A0430040 		.word	1073759136
  96              		.cfi_endproc
  97              	.LFE1:
  98              		.size	CySpcStop, .-CySpcStop
  99              		.section	.text.CySpcReadData,"ax",%progbits
 100              		.align	2
 101              		.global	CySpcReadData
 102              		.thumb
 103              		.thumb_func
 104              		.type	CySpcReadData, %function
 105              	CySpcReadData:
 106              	.LFB2:
 114:.\Generated_Source\PSoC5/CySpc.c **** }
 115:.\Generated_Source\PSoC5/CySpc.c **** 
 116:.\Generated_Source\PSoC5/CySpc.c **** 
 117:.\Generated_Source\PSoC5/CySpc.c **** /*******************************************************************************
 118:.\Generated_Source\PSoC5/CySpc.c **** * Function Name: CySpcReadData
 119:.\Generated_Source\PSoC5/CySpc.c **** ********************************************************************************
 120:.\Generated_Source\PSoC5/CySpc.c **** * Summary:
 121:.\Generated_Source\PSoC5/CySpc.c **** *  Reads data from the SPC.
 122:.\Generated_Source\PSoC5/CySpc.c **** *
ARM GAS  C:\Users\Ian\AppData\Local\Temp\cctxMqmc.s 			page 5


 123:.\Generated_Source\PSoC5/CySpc.c **** * Parameters:
 124:.\Generated_Source\PSoC5/CySpc.c **** *  uint8 buffer:
 125:.\Generated_Source\PSoC5/CySpc.c **** *   Address to store data read.
 126:.\Generated_Source\PSoC5/CySpc.c **** *
 127:.\Generated_Source\PSoC5/CySpc.c **** *  uint8 size:
 128:.\Generated_Source\PSoC5/CySpc.c **** *   Number of bytes to read from the SPC.
 129:.\Generated_Source\PSoC5/CySpc.c **** *
 130:.\Generated_Source\PSoC5/CySpc.c **** * Return:
 131:.\Generated_Source\PSoC5/CySpc.c **** *  uint8:
 132:.\Generated_Source\PSoC5/CySpc.c **** *   The number of bytes read from the SPC.
 133:.\Generated_Source\PSoC5/CySpc.c **** *
 134:.\Generated_Source\PSoC5/CySpc.c **** *******************************************************************************/
 135:.\Generated_Source\PSoC5/CySpc.c **** uint8 CySpcReadData(uint8 buffer[], uint8 size) 
 136:.\Generated_Source\PSoC5/CySpc.c **** {
 107              		.loc 1 136 0
 108              		.cfi_startproc
 109              		@ args = 0, pretend = 0, frame = 0
 110              		@ frame_needed = 0, uses_anonymous_args = 0
 111              	.LVL4:
 112 0000 70B5     		push	{r4, r5, r6, lr}
 113              		.cfi_def_cfa_offset 16
 114              		.cfi_offset 4, -16
 115              		.cfi_offset 5, -12
 116              		.cfi_offset 6, -8
 117              		.cfi_offset 14, -4
 118 0002 0646     		mov	r6, r0
 119 0004 0D46     		mov	r5, r1
 120              	.LVL5:
 137:.\Generated_Source\PSoC5/CySpc.c ****     uint8 i;
 138:.\Generated_Source\PSoC5/CySpc.c **** 
 139:.\Generated_Source\PSoC5/CySpc.c ****     for(i = 0u; i < size; i++)
 121              		.loc 1 139 0
 122 0006 0024     		movs	r4, #0
 123 0008 0CE0     		b	.L10
 124              	.LVL6:
 125              	.L11:
 140:.\Generated_Source\PSoC5/CySpc.c ****     {
 141:.\Generated_Source\PSoC5/CySpc.c ****         while(!CY_SPC_DATA_READY)
 142:.\Generated_Source\PSoC5/CySpc.c ****         {
 143:.\Generated_Source\PSoC5/CySpc.c ****             CyDelayUs(1u);
 126              		.loc 1 143 0
 127 000a 0120     		movs	r0, #1
 128 000c FFF7FEFF 		bl	CyDelayUs
 129              	.LVL7:
 130              	.L12:
 141:.\Generated_Source\PSoC5/CySpc.c ****         {
 131              		.loc 1 141 0
 132 0010 064B     		ldr	r3, .L14
 133 0012 1B78     		ldrb	r3, [r3]	@ zero_extendqisi2
 134 0014 13F0010F 		tst	r3, #1
 135 0018 F7D0     		beq	.L11
 144:.\Generated_Source\PSoC5/CySpc.c ****         }
 145:.\Generated_Source\PSoC5/CySpc.c ****         buffer[i] = CY_SPC_CPU_DATA_REG;
 136              		.loc 1 145 0 discriminator 2
 137 001a 054B     		ldr	r3, .L14+4
 138 001c 1B78     		ldrb	r3, [r3]	@ zero_extendqisi2
 139 001e 3355     		strb	r3, [r6, r4]
ARM GAS  C:\Users\Ian\AppData\Local\Temp\cctxMqmc.s 			page 6


 139:.\Generated_Source\PSoC5/CySpc.c ****     {
 140              		.loc 1 139 0 discriminator 2
 141 0020 0134     		adds	r4, r4, #1
 142              	.LVL8:
 143 0022 E4B2     		uxtb	r4, r4
 144              	.LVL9:
 145              	.L10:
 139:.\Generated_Source\PSoC5/CySpc.c ****     {
 146              		.loc 1 139 0 is_stmt 0 discriminator 1
 147 0024 AC42     		cmp	r4, r5
 148 0026 F3D3     		bcc	.L12
 146:.\Generated_Source\PSoC5/CySpc.c ****     }
 147:.\Generated_Source\PSoC5/CySpc.c **** 
 148:.\Generated_Source\PSoC5/CySpc.c ****     return(i);
 149:.\Generated_Source\PSoC5/CySpc.c **** }
 149              		.loc 1 149 0 is_stmt 1
 150 0028 2046     		mov	r0, r4
 151 002a 70BD     		pop	{r4, r5, r6, pc}
 152              	.LVL10:
 153              	.L15:
 154              		.align	2
 155              	.L14:
 156 002c 22470040 		.word	1073760034
 157 0030 20470040 		.word	1073760032
 158              		.cfi_endproc
 159              	.LFE2:
 160              		.size	CySpcReadData, .-CySpcReadData
 161              		.section	.text.CySpcLoadMultiByte,"ax",%progbits
 162              		.align	2
 163              		.global	CySpcLoadMultiByte
 164              		.thumb
 165              		.thumb_func
 166              		.type	CySpcLoadMultiByte, %function
 167              	CySpcLoadMultiByte:
 168              	.LFB3:
 150:.\Generated_Source\PSoC5/CySpc.c **** 
 151:.\Generated_Source\PSoC5/CySpc.c **** 
 152:.\Generated_Source\PSoC5/CySpc.c **** /*******************************************************************************
 153:.\Generated_Source\PSoC5/CySpc.c **** * Function Name: CySpcLoadMultiByte
 154:.\Generated_Source\PSoC5/CySpc.c **** ********************************************************************************
 155:.\Generated_Source\PSoC5/CySpc.c **** * Summary:
 156:.\Generated_Source\PSoC5/CySpc.c **** *  Loads 1 to 32 bytes of data into the row latch of a Flash/EEPROM array.
 157:.\Generated_Source\PSoC5/CySpc.c **** *
 158:.\Generated_Source\PSoC5/CySpc.c **** * Parameters:
 159:.\Generated_Source\PSoC5/CySpc.c **** *  uint8 array:
 160:.\Generated_Source\PSoC5/CySpc.c **** *   Id of the array.
 161:.\Generated_Source\PSoC5/CySpc.c **** *
 162:.\Generated_Source\PSoC5/CySpc.c **** *  uint16 address:
 163:.\Generated_Source\PSoC5/CySpc.c **** *   Flash/eeprom addrress
 164:.\Generated_Source\PSoC5/CySpc.c **** *
 165:.\Generated_Source\PSoC5/CySpc.c **** *  uint8* buffer:
 166:.\Generated_Source\PSoC5/CySpc.c **** *   Data to load to the row latch
 167:.\Generated_Source\PSoC5/CySpc.c **** *
 168:.\Generated_Source\PSoC5/CySpc.c **** *  uint16 number:
 169:.\Generated_Source\PSoC5/CySpc.c **** *   Number bytes to load.
 170:.\Generated_Source\PSoC5/CySpc.c **** *
 171:.\Generated_Source\PSoC5/CySpc.c **** * Return:
ARM GAS  C:\Users\Ian\AppData\Local\Temp\cctxMqmc.s 			page 7


 172:.\Generated_Source\PSoC5/CySpc.c **** *  CYRET_STARTED
 173:.\Generated_Source\PSoC5/CySpc.c **** *  CYRET_CANCELED
 174:.\Generated_Source\PSoC5/CySpc.c **** *  CYRET_LOCKED
 175:.\Generated_Source\PSoC5/CySpc.c **** *  CYRET_BAD_PARAM
 176:.\Generated_Source\PSoC5/CySpc.c **** *
 177:.\Generated_Source\PSoC5/CySpc.c **** *******************************************************************************/
 178:.\Generated_Source\PSoC5/CySpc.c **** cystatus CySpcLoadMultiByte(uint8 array, uint16 address, const uint8 buffer[], uint8 size)\
 179:.\Generated_Source\PSoC5/CySpc.c **** 
 180:.\Generated_Source\PSoC5/CySpc.c **** {
 169              		.loc 1 180 0
 170              		.cfi_startproc
 171              		@ args = 0, pretend = 0, frame = 0
 172              		@ frame_needed = 0, uses_anonymous_args = 0
 173              		@ link register save eliminated.
 174              	.LVL11:
 175 0000 30B4     		push	{r4, r5}
 176              		.cfi_def_cfa_offset 8
 177              		.cfi_offset 4, -8
 178              		.cfi_offset 5, -4
 179              	.LVL12:
 181:.\Generated_Source\PSoC5/CySpc.c ****     cystatus status = CYRET_STARTED;
 182:.\Generated_Source\PSoC5/CySpc.c ****     uint8 i;
 183:.\Generated_Source\PSoC5/CySpc.c **** 
 184:.\Generated_Source\PSoC5/CySpc.c ****     /***************************************************************************
 185:.\Generated_Source\PSoC5/CySpc.c ****     * Check if number is correct for array. Number must be less than
 186:.\Generated_Source\PSoC5/CySpc.c ****     * 32 for Flash or less than 16 for EEPROM.
 187:.\Generated_Source\PSoC5/CySpc.c ****     ***************************************************************************/
 188:.\Generated_Source\PSoC5/CySpc.c ****     if(((array < CY_SPC_LAST_FLASH_ARRAYID) && (size < 32u)) ||
 180              		.loc 1 188 0
 181 0002 3E28     		cmp	r0, #62
 182 0004 01D8     		bhi	.L17
 183              		.loc 1 188 0 is_stmt 0 discriminator 1
 184 0006 1F2B     		cmp	r3, #31
 185 0008 03D9     		bls	.L18
 186              	.L17:
 187              		.loc 1 188 0 discriminator 3
 188 000a 3F28     		cmp	r0, #63
 189 000c 27D9     		bls	.L22
 189:.\Generated_Source\PSoC5/CySpc.c ****        ((array > CY_SPC_LAST_FLASH_ARRAYID) && (size < 16u)))
 190              		.loc 1 189 0 is_stmt 1
 191 000e 0F2B     		cmp	r3, #15
 192 0010 27D8     		bhi	.L23
 193              	.L18:
 190:.\Generated_Source\PSoC5/CySpc.c ****     {
 191:.\Generated_Source\PSoC5/CySpc.c ****         if(CY_SPC_IDLE)
 194              		.loc 1 191 0
 195 0012 174C     		ldr	r4, .L27
 196 0014 2478     		ldrb	r4, [r4]	@ zero_extendqisi2
 197 0016 14F0020F 		tst	r4, #2
 198 001a 24D0     		beq	.L24
 192:.\Generated_Source\PSoC5/CySpc.c ****         {
 193:.\Generated_Source\PSoC5/CySpc.c ****             CY_SPC_CPU_DATA_REG = CY_SPC_KEY_ONE;
 199              		.loc 1 193 0
 200 001c 154C     		ldr	r4, .L27+4
 201 001e B625     		movs	r5, #182
 202 0020 2570     		strb	r5, [r4]
 194:.\Generated_Source\PSoC5/CySpc.c ****             CY_SPC_CPU_DATA_REG = CY_SPC_KEY_TWO(CY_SPC_CMD_LD_MULTI_BYTE);
ARM GAS  C:\Users\Ian\AppData\Local\Temp\cctxMqmc.s 			page 8


 203              		.loc 1 194 0
 204 0022 D425     		movs	r5, #212
 205 0024 2570     		strb	r5, [r4]
 195:.\Generated_Source\PSoC5/CySpc.c ****             CY_SPC_CPU_DATA_REG = CY_SPC_CMD_LD_MULTI_BYTE;
 206              		.loc 1 195 0
 207 0026 0125     		movs	r5, #1
 208 0028 2570     		strb	r5, [r4]
 196:.\Generated_Source\PSoC5/CySpc.c **** 
 197:.\Generated_Source\PSoC5/CySpc.c ****             if(CY_SPC_BUSY)
 209              		.loc 1 197 0
 210 002a 0234     		adds	r4, r4, #2
 211 002c 2478     		ldrb	r4, [r4]	@ zero_extendqisi2
 212 002e 14F0020F 		tst	r4, #2
 213 0032 1AD1     		bne	.L25
 198:.\Generated_Source\PSoC5/CySpc.c ****             {
 199:.\Generated_Source\PSoC5/CySpc.c ****                 CY_SPC_CPU_DATA_REG = array;
 214              		.loc 1 199 0
 215 0034 0F4C     		ldr	r4, .L27+4
 216 0036 2070     		strb	r0, [r4]
 200:.\Generated_Source\PSoC5/CySpc.c ****                 CY_SPC_CPU_DATA_REG = 1u & HI8(address);
 217              		.loc 1 200 0
 218 0038 C1F30020 		ubfx	r0, r1, #8, #1
 219              	.LVL13:
 220 003c 2070     		strb	r0, [r4]
 221              	.LVL14:
 201:.\Generated_Source\PSoC5/CySpc.c ****                 CY_SPC_CPU_DATA_REG = LO8(address);
 222              		.loc 1 201 0
 223 003e C9B2     		uxtb	r1, r1
 224              	.LVL15:
 225 0040 2170     		strb	r1, [r4]
 202:.\Generated_Source\PSoC5/CySpc.c ****                 CY_SPC_CPU_DATA_REG = ((uint8)(size - 1u));
 226              		.loc 1 202 0
 227 0042 591E     		subs	r1, r3, #1
 228 0044 C9B2     		uxtb	r1, r1
 229 0046 2170     		strb	r1, [r4]
 230              	.LVL16:
 203:.\Generated_Source\PSoC5/CySpc.c **** 
 204:.\Generated_Source\PSoC5/CySpc.c ****                 for(i = 0u; i < size; i++)
 231              		.loc 1 204 0
 232 0048 0021     		movs	r1, #0
 233 004a 04E0     		b	.L20
 234              	.LVL17:
 235              	.L21:
 205:.\Generated_Source\PSoC5/CySpc.c ****                 {
 206:.\Generated_Source\PSoC5/CySpc.c ****                     CY_SPC_CPU_DATA_REG = buffer[i];
 236              		.loc 1 206 0 discriminator 3
 237 004c 545C     		ldrb	r4, [r2, r1]	@ zero_extendqisi2
 238 004e 0948     		ldr	r0, .L27+4
 239 0050 0470     		strb	r4, [r0]
 204:.\Generated_Source\PSoC5/CySpc.c ****                 {
 240              		.loc 1 204 0 discriminator 3
 241 0052 0131     		adds	r1, r1, #1
 242              	.LVL18:
 243 0054 C9B2     		uxtb	r1, r1
 244              	.LVL19:
 245              	.L20:
 204:.\Generated_Source\PSoC5/CySpc.c ****                 {
ARM GAS  C:\Users\Ian\AppData\Local\Temp\cctxMqmc.s 			page 9


 246              		.loc 1 204 0 is_stmt 0 discriminator 1
 247 0056 9942     		cmp	r1, r3
 248 0058 F8D3     		bcc	.L21
 181:.\Generated_Source\PSoC5/CySpc.c ****     uint8 i;
 249              		.loc 1 181 0 is_stmt 1
 250 005a 0720     		movs	r0, #7
 251 005c 06E0     		b	.L19
 252              	.LVL20:
 253              	.L22:
 207:.\Generated_Source\PSoC5/CySpc.c ****                 }
 208:.\Generated_Source\PSoC5/CySpc.c ****             }
 209:.\Generated_Source\PSoC5/CySpc.c ****             else
 210:.\Generated_Source\PSoC5/CySpc.c ****             {
 211:.\Generated_Source\PSoC5/CySpc.c ****                 status = CYRET_CANCELED;
 212:.\Generated_Source\PSoC5/CySpc.c ****             }
 213:.\Generated_Source\PSoC5/CySpc.c ****         }
 214:.\Generated_Source\PSoC5/CySpc.c ****         else
 215:.\Generated_Source\PSoC5/CySpc.c ****         {
 216:.\Generated_Source\PSoC5/CySpc.c ****             status = CYRET_LOCKED;
 217:.\Generated_Source\PSoC5/CySpc.c ****         }
 218:.\Generated_Source\PSoC5/CySpc.c ****     }
 219:.\Generated_Source\PSoC5/CySpc.c ****     else
 220:.\Generated_Source\PSoC5/CySpc.c ****     {
 221:.\Generated_Source\PSoC5/CySpc.c ****         status = CYRET_BAD_PARAM;
 254              		.loc 1 221 0
 255 005e 0120     		movs	r0, #1
 256              	.LVL21:
 257 0060 04E0     		b	.L19
 258              	.LVL22:
 259              	.L23:
 260 0062 0120     		movs	r0, #1
 261              	.LVL23:
 262 0064 02E0     		b	.L19
 263              	.LVL24:
 264              	.L24:
 216:.\Generated_Source\PSoC5/CySpc.c ****         }
 265              		.loc 1 216 0
 266 0066 0420     		movs	r0, #4
 267              	.LVL25:
 268 0068 00E0     		b	.L19
 269              	.LVL26:
 270              	.L25:
 211:.\Generated_Source\PSoC5/CySpc.c ****             }
 271              		.loc 1 211 0
 272 006a 0920     		movs	r0, #9
 273              	.LVL27:
 274              	.L19:
 222:.\Generated_Source\PSoC5/CySpc.c ****     }
 223:.\Generated_Source\PSoC5/CySpc.c **** 
 224:.\Generated_Source\PSoC5/CySpc.c ****     return(status);
 225:.\Generated_Source\PSoC5/CySpc.c **** }
 275              		.loc 1 225 0
 276 006c 30BC     		pop	{r4, r5}
 277              		.cfi_restore 5
 278              		.cfi_restore 4
 279              		.cfi_def_cfa_offset 0
 280 006e 7047     		bx	lr
ARM GAS  C:\Users\Ian\AppData\Local\Temp\cctxMqmc.s 			page 10


 281              	.L28:
 282              		.align	2
 283              	.L27:
 284 0070 22470040 		.word	1073760034
 285 0074 20470040 		.word	1073760032
 286              		.cfi_endproc
 287              	.LFE3:
 288              		.size	CySpcLoadMultiByte, .-CySpcLoadMultiByte
 289              		.section	.text.CySpcLoadRow,"ax",%progbits
 290              		.align	2
 291              		.global	CySpcLoadRow
 292              		.thumb
 293              		.thumb_func
 294              		.type	CySpcLoadRow, %function
 295              	CySpcLoadRow:
 296              	.LFB4:
 226:.\Generated_Source\PSoC5/CySpc.c **** 
 227:.\Generated_Source\PSoC5/CySpc.c **** 
 228:.\Generated_Source\PSoC5/CySpc.c **** /*******************************************************************************
 229:.\Generated_Source\PSoC5/CySpc.c **** * Function Name: CySpcLoadRow
 230:.\Generated_Source\PSoC5/CySpc.c **** ********************************************************************************
 231:.\Generated_Source\PSoC5/CySpc.c **** * Summary:
 232:.\Generated_Source\PSoC5/CySpc.c **** *  Loads a row of data into the row latch of a Flash/EEPROM array.
 233:.\Generated_Source\PSoC5/CySpc.c **** *
 234:.\Generated_Source\PSoC5/CySpc.c **** * Parameters:
 235:.\Generated_Source\PSoC5/CySpc.c **** *  uint8 array:
 236:.\Generated_Source\PSoC5/CySpc.c **** *   Id of the array.
 237:.\Generated_Source\PSoC5/CySpc.c **** *
 238:.\Generated_Source\PSoC5/CySpc.c **** *  uint8* buffer:
 239:.\Generated_Source\PSoC5/CySpc.c **** *   Data to be loaded to the row latch
 240:.\Generated_Source\PSoC5/CySpc.c **** *
 241:.\Generated_Source\PSoC5/CySpc.c **** *  uint8 size:
 242:.\Generated_Source\PSoC5/CySpc.c **** *   The number of data bytes that the SPC expects to be written. Depends on the
 243:.\Generated_Source\PSoC5/CySpc.c **** *   type of the array and, if the array is Flash, whether ECC is being enabled
 244:.\Generated_Source\PSoC5/CySpc.c **** *   or not. There are following values: flash row latch size with ECC enabled,
 245:.\Generated_Source\PSoC5/CySpc.c **** *   flash row latch size with ECC disabled and EEPROM row latch size.
 246:.\Generated_Source\PSoC5/CySpc.c **** *
 247:.\Generated_Source\PSoC5/CySpc.c **** * Return:
 248:.\Generated_Source\PSoC5/CySpc.c **** *  CYRET_STARTED
 249:.\Generated_Source\PSoC5/CySpc.c **** *  CYRET_CANCELED
 250:.\Generated_Source\PSoC5/CySpc.c **** *  CYRET_LOCKED
 251:.\Generated_Source\PSoC5/CySpc.c **** *
 252:.\Generated_Source\PSoC5/CySpc.c **** *******************************************************************************/
 253:.\Generated_Source\PSoC5/CySpc.c **** cystatus CySpcLoadRow(uint8 array, const uint8 buffer[], uint16 size)
 254:.\Generated_Source\PSoC5/CySpc.c **** {
 297              		.loc 1 254 0
 298              		.cfi_startproc
 299              		@ args = 0, pretend = 0, frame = 0
 300              		@ frame_needed = 0, uses_anonymous_args = 0
 301              		@ link register save eliminated.
 302              	.LVL28:
 255:.\Generated_Source\PSoC5/CySpc.c ****     cystatus status = CYRET_STARTED;
 256:.\Generated_Source\PSoC5/CySpc.c ****     uint16 i;
 257:.\Generated_Source\PSoC5/CySpc.c **** 
 258:.\Generated_Source\PSoC5/CySpc.c ****     /* Make sure the SPC is ready to accept command */
 259:.\Generated_Source\PSoC5/CySpc.c ****     if(CY_SPC_IDLE)
 303              		.loc 1 259 0
ARM GAS  C:\Users\Ian\AppData\Local\Temp\cctxMqmc.s 			page 11


 304 0000 124B     		ldr	r3, .L36
 305 0002 1B78     		ldrb	r3, [r3]	@ zero_extendqisi2
 306 0004 13F0020F 		tst	r3, #2
 307 0008 19D0     		beq	.L33
 254:.\Generated_Source\PSoC5/CySpc.c ****     cystatus status = CYRET_STARTED;
 308              		.loc 1 254 0
 309 000a 10B4     		push	{r4}
 310              		.cfi_def_cfa_offset 4
 311              		.cfi_offset 4, -4
 260:.\Generated_Source\PSoC5/CySpc.c ****     {
 261:.\Generated_Source\PSoC5/CySpc.c ****         CY_SPC_CPU_DATA_REG = CY_SPC_KEY_ONE;
 312              		.loc 1 261 0
 313 000c 104B     		ldr	r3, .L36+4
 314 000e B624     		movs	r4, #182
 315 0010 1C70     		strb	r4, [r3]
 262:.\Generated_Source\PSoC5/CySpc.c ****         CY_SPC_CPU_DATA_REG = CY_SPC_KEY_TWO(CY_SPC_CMD_LD_ROW);
 316              		.loc 1 262 0
 317 0012 D524     		movs	r4, #213
 318 0014 1C70     		strb	r4, [r3]
 263:.\Generated_Source\PSoC5/CySpc.c ****         CY_SPC_CPU_DATA_REG = CY_SPC_CMD_LD_ROW;
 319              		.loc 1 263 0
 320 0016 0224     		movs	r4, #2
 321 0018 1C70     		strb	r4, [r3]
 264:.\Generated_Source\PSoC5/CySpc.c **** 
 265:.\Generated_Source\PSoC5/CySpc.c ****         /* Make sure the command was accepted */
 266:.\Generated_Source\PSoC5/CySpc.c ****         if(CY_SPC_BUSY)
 322              		.loc 1 266 0
 323 001a 0233     		adds	r3, r3, #2
 324 001c 1B78     		ldrb	r3, [r3]	@ zero_extendqisi2
 325 001e 13F0020F 		tst	r3, #2
 326 0022 0ED1     		bne	.L34
 267:.\Generated_Source\PSoC5/CySpc.c ****         {
 268:.\Generated_Source\PSoC5/CySpc.c ****             CY_SPC_CPU_DATA_REG = array;
 327              		.loc 1 268 0
 328 0024 0A4B     		ldr	r3, .L36+4
 329 0026 1870     		strb	r0, [r3]
 330              	.LVL29:
 269:.\Generated_Source\PSoC5/CySpc.c **** 
 270:.\Generated_Source\PSoC5/CySpc.c ****             for(i = 0u; i < size; i++)
 331              		.loc 1 270 0
 332 0028 0023     		movs	r3, #0
 333 002a 04E0     		b	.L31
 334              	.LVL30:
 335              	.L32:
 271:.\Generated_Source\PSoC5/CySpc.c ****             {
 272:.\Generated_Source\PSoC5/CySpc.c ****                 CY_SPC_CPU_DATA_REG = buffer[i];
 336              		.loc 1 272 0 discriminator 3
 337 002c CC5C     		ldrb	r4, [r1, r3]	@ zero_extendqisi2
 338 002e 0848     		ldr	r0, .L36+4
 339 0030 0470     		strb	r4, [r0]
 270:.\Generated_Source\PSoC5/CySpc.c ****             {
 340              		.loc 1 270 0 discriminator 3
 341 0032 0133     		adds	r3, r3, #1
 342              	.LVL31:
 343 0034 9BB2     		uxth	r3, r3
 344              	.LVL32:
 345              	.L31:
ARM GAS  C:\Users\Ian\AppData\Local\Temp\cctxMqmc.s 			page 12


 270:.\Generated_Source\PSoC5/CySpc.c ****             {
 346              		.loc 1 270 0 is_stmt 0 discriminator 1
 347 0036 9342     		cmp	r3, r2
 348 0038 F8D3     		bcc	.L32
 255:.\Generated_Source\PSoC5/CySpc.c ****     uint16 i;
 349              		.loc 1 255 0 is_stmt 1
 350 003a 0720     		movs	r0, #7
 351 003c 02E0     		b	.L30
 352              	.LVL33:
 353              	.L33:
 354              		.cfi_def_cfa_offset 0
 355              		.cfi_restore 4
 273:.\Generated_Source\PSoC5/CySpc.c ****             }
 274:.\Generated_Source\PSoC5/CySpc.c ****         }
 275:.\Generated_Source\PSoC5/CySpc.c ****         else
 276:.\Generated_Source\PSoC5/CySpc.c ****         {
 277:.\Generated_Source\PSoC5/CySpc.c ****             status = CYRET_CANCELED;
 278:.\Generated_Source\PSoC5/CySpc.c ****         }
 279:.\Generated_Source\PSoC5/CySpc.c ****     }
 280:.\Generated_Source\PSoC5/CySpc.c ****     else
 281:.\Generated_Source\PSoC5/CySpc.c ****     {
 282:.\Generated_Source\PSoC5/CySpc.c ****         status = CYRET_LOCKED;
 356              		.loc 1 282 0
 357 003e 0420     		movs	r0, #4
 358              	.LVL34:
 283:.\Generated_Source\PSoC5/CySpc.c ****     }
 284:.\Generated_Source\PSoC5/CySpc.c **** 
 285:.\Generated_Source\PSoC5/CySpc.c ****     return(status);
 286:.\Generated_Source\PSoC5/CySpc.c **** }
 359              		.loc 1 286 0
 360 0040 7047     		bx	lr
 361              	.LVL35:
 362              	.L34:
 363              		.cfi_def_cfa_offset 4
 364              		.cfi_offset 4, -4
 277:.\Generated_Source\PSoC5/CySpc.c ****         }
 365              		.loc 1 277 0
 366 0042 0920     		movs	r0, #9
 367              	.LVL36:
 368              	.L30:
 369              		.loc 1 286 0
 370 0044 5DF8044B 		ldr	r4, [sp], #4
 371              		.cfi_restore 4
 372              		.cfi_def_cfa_offset 0
 373 0048 7047     		bx	lr
 374              	.L37:
 375 004a 00BF     		.align	2
 376              	.L36:
 377 004c 22470040 		.word	1073760034
 378 0050 20470040 		.word	1073760032
 379              		.cfi_endproc
 380              	.LFE4:
 381              		.size	CySpcLoadRow, .-CySpcLoadRow
 382              		.section	.text.CySpcWriteRow,"ax",%progbits
 383              		.align	2
 384              		.global	CySpcWriteRow
 385              		.thumb
ARM GAS  C:\Users\Ian\AppData\Local\Temp\cctxMqmc.s 			page 13


 386              		.thumb_func
 387              		.type	CySpcWriteRow, %function
 388              	CySpcWriteRow:
 389              	.LFB5:
 287:.\Generated_Source\PSoC5/CySpc.c **** 
 288:.\Generated_Source\PSoC5/CySpc.c **** 
 289:.\Generated_Source\PSoC5/CySpc.c **** /*******************************************************************************
 290:.\Generated_Source\PSoC5/CySpc.c **** * Function Name: CySpcWriteRow
 291:.\Generated_Source\PSoC5/CySpc.c **** ********************************************************************************
 292:.\Generated_Source\PSoC5/CySpc.c **** * Summary:
 293:.\Generated_Source\PSoC5/CySpc.c **** *  Erases then programs a row in Flash/EEPROM with data in row latch.
 294:.\Generated_Source\PSoC5/CySpc.c **** *
 295:.\Generated_Source\PSoC5/CySpc.c **** * Parameters:
 296:.\Generated_Source\PSoC5/CySpc.c **** *  uint8 array:
 297:.\Generated_Source\PSoC5/CySpc.c **** *   Id of the array.
 298:.\Generated_Source\PSoC5/CySpc.c **** *
 299:.\Generated_Source\PSoC5/CySpc.c **** *  uint16 address:
 300:.\Generated_Source\PSoC5/CySpc.c **** *   flash/eeprom addrress
 301:.\Generated_Source\PSoC5/CySpc.c **** *
 302:.\Generated_Source\PSoC5/CySpc.c **** *  uint8 tempPolarity:
 303:.\Generated_Source\PSoC5/CySpc.c **** *   temperature polarity.
 304:.\Generated_Source\PSoC5/CySpc.c **** *   1: the Temp Magnitude is interpreted as a positive value
 305:.\Generated_Source\PSoC5/CySpc.c **** *   0: the Temp Magnitude is interpreted as a negative value
 306:.\Generated_Source\PSoC5/CySpc.c **** *
 307:.\Generated_Source\PSoC5/CySpc.c **** *  uint8 tempMagnitude:
 308:.\Generated_Source\PSoC5/CySpc.c **** *   temperature magnitude.
 309:.\Generated_Source\PSoC5/CySpc.c **** *
 310:.\Generated_Source\PSoC5/CySpc.c **** * Return:
 311:.\Generated_Source\PSoC5/CySpc.c **** *  CYRET_STARTED
 312:.\Generated_Source\PSoC5/CySpc.c **** *  CYRET_CANCELED
 313:.\Generated_Source\PSoC5/CySpc.c **** *  CYRET_LOCKED
 314:.\Generated_Source\PSoC5/CySpc.c **** *
 315:.\Generated_Source\PSoC5/CySpc.c **** *******************************************************************************/
 316:.\Generated_Source\PSoC5/CySpc.c **** cystatus CySpcWriteRow(uint8 array, uint16 address, uint8 tempPolarity, uint8 tempMagnitude)\
 317:.\Generated_Source\PSoC5/CySpc.c **** 
 318:.\Generated_Source\PSoC5/CySpc.c **** {
 390              		.loc 1 318 0
 391              		.cfi_startproc
 392              		@ args = 0, pretend = 0, frame = 0
 393              		@ frame_needed = 0, uses_anonymous_args = 0
 394              		@ link register save eliminated.
 395              	.LVL37:
 396 0000 30B4     		push	{r4, r5}
 397              		.cfi_def_cfa_offset 8
 398              		.cfi_offset 4, -8
 399              		.cfi_offset 5, -4
 400              	.LVL38:
 319:.\Generated_Source\PSoC5/CySpc.c ****     cystatus status = CYRET_STARTED;
 320:.\Generated_Source\PSoC5/CySpc.c **** 
 321:.\Generated_Source\PSoC5/CySpc.c ****     /* Make sure the SPC is ready to accept command */
 322:.\Generated_Source\PSoC5/CySpc.c ****     if(CY_SPC_IDLE)
 401              		.loc 1 322 0
 402 0002 104C     		ldr	r4, .L43
 403 0004 2478     		ldrb	r4, [r4]	@ zero_extendqisi2
 404 0006 14F0020F 		tst	r4, #2
 405 000a 15D0     		beq	.L40
 323:.\Generated_Source\PSoC5/CySpc.c ****     {
ARM GAS  C:\Users\Ian\AppData\Local\Temp\cctxMqmc.s 			page 14


 324:.\Generated_Source\PSoC5/CySpc.c ****         CY_SPC_CPU_DATA_REG = CY_SPC_KEY_ONE;
 406              		.loc 1 324 0
 407 000c 0E4C     		ldr	r4, .L43+4
 408 000e B625     		movs	r5, #182
 409 0010 2570     		strb	r5, [r4]
 325:.\Generated_Source\PSoC5/CySpc.c ****         CY_SPC_CPU_DATA_REG = CY_SPC_KEY_TWO(CY_SPC_CMD_WR_ROW);
 410              		.loc 1 325 0
 411 0012 D825     		movs	r5, #216
 412 0014 2570     		strb	r5, [r4]
 326:.\Generated_Source\PSoC5/CySpc.c ****         CY_SPC_CPU_DATA_REG = CY_SPC_CMD_WR_ROW;
 413              		.loc 1 326 0
 414 0016 0525     		movs	r5, #5
 415 0018 2570     		strb	r5, [r4]
 327:.\Generated_Source\PSoC5/CySpc.c **** 
 328:.\Generated_Source\PSoC5/CySpc.c ****         /* Make sure the command was accepted */
 329:.\Generated_Source\PSoC5/CySpc.c ****         if(CY_SPC_BUSY)
 416              		.loc 1 329 0
 417 001a 0234     		adds	r4, r4, #2
 418 001c 2478     		ldrb	r4, [r4]	@ zero_extendqisi2
 419 001e 14F0020F 		tst	r4, #2
 420 0022 0BD1     		bne	.L41
 330:.\Generated_Source\PSoC5/CySpc.c ****         {
 331:.\Generated_Source\PSoC5/CySpc.c ****             CY_SPC_CPU_DATA_REG = array;
 421              		.loc 1 331 0
 422 0024 084C     		ldr	r4, .L43+4
 423 0026 2070     		strb	r0, [r4]
 332:.\Generated_Source\PSoC5/CySpc.c ****             CY_SPC_CPU_DATA_REG = HI8(address);
 424              		.loc 1 332 0
 425 0028 080A     		lsrs	r0, r1, #8
 426              	.LVL39:
 427 002a 2070     		strb	r0, [r4]
 428              	.LVL40:
 333:.\Generated_Source\PSoC5/CySpc.c ****             CY_SPC_CPU_DATA_REG = LO8(address);
 429              		.loc 1 333 0
 430 002c C9B2     		uxtb	r1, r1
 431              	.LVL41:
 432 002e 2170     		strb	r1, [r4]
 334:.\Generated_Source\PSoC5/CySpc.c ****             CY_SPC_CPU_DATA_REG = tempPolarity;
 433              		.loc 1 334 0
 434 0030 2270     		strb	r2, [r4]
 335:.\Generated_Source\PSoC5/CySpc.c ****             CY_SPC_CPU_DATA_REG = tempMagnitude;
 435              		.loc 1 335 0
 436 0032 2370     		strb	r3, [r4]
 319:.\Generated_Source\PSoC5/CySpc.c **** 
 437              		.loc 1 319 0
 438 0034 0720     		movs	r0, #7
 439 0036 02E0     		b	.L39
 440              	.LVL42:
 441              	.L40:
 336:.\Generated_Source\PSoC5/CySpc.c ****         }
 337:.\Generated_Source\PSoC5/CySpc.c ****         else
 338:.\Generated_Source\PSoC5/CySpc.c ****         {
 339:.\Generated_Source\PSoC5/CySpc.c ****             status = CYRET_CANCELED;
 340:.\Generated_Source\PSoC5/CySpc.c ****         }
 341:.\Generated_Source\PSoC5/CySpc.c ****     }
 342:.\Generated_Source\PSoC5/CySpc.c ****     else
 343:.\Generated_Source\PSoC5/CySpc.c ****     {
ARM GAS  C:\Users\Ian\AppData\Local\Temp\cctxMqmc.s 			page 15


 344:.\Generated_Source\PSoC5/CySpc.c ****         status = CYRET_LOCKED;
 442              		.loc 1 344 0
 443 0038 0420     		movs	r0, #4
 444              	.LVL43:
 445 003a 00E0     		b	.L39
 446              	.LVL44:
 447              	.L41:
 339:.\Generated_Source\PSoC5/CySpc.c ****         }
 448              		.loc 1 339 0
 449 003c 0920     		movs	r0, #9
 450              	.LVL45:
 451              	.L39:
 345:.\Generated_Source\PSoC5/CySpc.c ****     }
 346:.\Generated_Source\PSoC5/CySpc.c **** 
 347:.\Generated_Source\PSoC5/CySpc.c ****     return(status);
 348:.\Generated_Source\PSoC5/CySpc.c **** }
 452              		.loc 1 348 0
 453 003e 30BC     		pop	{r4, r5}
 454              		.cfi_restore 5
 455              		.cfi_restore 4
 456              		.cfi_def_cfa_offset 0
 457 0040 7047     		bx	lr
 458              	.L44:
 459 0042 00BF     		.align	2
 460              	.L43:
 461 0044 22470040 		.word	1073760034
 462 0048 20470040 		.word	1073760032
 463              		.cfi_endproc
 464              	.LFE5:
 465              		.size	CySpcWriteRow, .-CySpcWriteRow
 466              		.section	.text.CySpcEraseSector,"ax",%progbits
 467              		.align	2
 468              		.global	CySpcEraseSector
 469              		.thumb
 470              		.thumb_func
 471              		.type	CySpcEraseSector, %function
 472              	CySpcEraseSector:
 473              	.LFB6:
 349:.\Generated_Source\PSoC5/CySpc.c **** 
 350:.\Generated_Source\PSoC5/CySpc.c **** 
 351:.\Generated_Source\PSoC5/CySpc.c **** /*******************************************************************************
 352:.\Generated_Source\PSoC5/CySpc.c **** * Function Name: CySpcEraseSector
 353:.\Generated_Source\PSoC5/CySpc.c **** ********************************************************************************
 354:.\Generated_Source\PSoC5/CySpc.c **** * Summary:
 355:.\Generated_Source\PSoC5/CySpc.c **** *  Erases all data in the addressed sector (block of 64 rows).
 356:.\Generated_Source\PSoC5/CySpc.c **** *
 357:.\Generated_Source\PSoC5/CySpc.c **** * Parameters:
 358:.\Generated_Source\PSoC5/CySpc.c **** *  uint8 array:
 359:.\Generated_Source\PSoC5/CySpc.c **** *   Id of the array.
 360:.\Generated_Source\PSoC5/CySpc.c **** *
 361:.\Generated_Source\PSoC5/CySpc.c **** *  uint8 sectorNumber:
 362:.\Generated_Source\PSoC5/CySpc.c **** *   Zero based sector number within Flash/EEPROM array
 363:.\Generated_Source\PSoC5/CySpc.c **** *
 364:.\Generated_Source\PSoC5/CySpc.c **** * Return:
 365:.\Generated_Source\PSoC5/CySpc.c **** *  CYRET_STARTED
 366:.\Generated_Source\PSoC5/CySpc.c **** *  CYRET_CANCELED
 367:.\Generated_Source\PSoC5/CySpc.c **** *  CYRET_LOCKED
ARM GAS  C:\Users\Ian\AppData\Local\Temp\cctxMqmc.s 			page 16


 368:.\Generated_Source\PSoC5/CySpc.c **** *
 369:.\Generated_Source\PSoC5/CySpc.c **** *******************************************************************************/
 370:.\Generated_Source\PSoC5/CySpc.c **** cystatus CySpcEraseSector(uint8 array, uint8 sectorNumber)
 371:.\Generated_Source\PSoC5/CySpc.c **** {
 474              		.loc 1 371 0
 475              		.cfi_startproc
 476              		@ args = 0, pretend = 0, frame = 0
 477              		@ frame_needed = 0, uses_anonymous_args = 0
 478              		@ link register save eliminated.
 479              	.LVL46:
 372:.\Generated_Source\PSoC5/CySpc.c ****     cystatus status = CYRET_STARTED;
 373:.\Generated_Source\PSoC5/CySpc.c **** 
 374:.\Generated_Source\PSoC5/CySpc.c ****     /* Make sure the SPC is ready to accept command */
 375:.\Generated_Source\PSoC5/CySpc.c ****     if(CY_SPC_IDLE)
 480              		.loc 1 375 0
 481 0000 0C4B     		ldr	r3, .L49
 482 0002 1B78     		ldrb	r3, [r3]	@ zero_extendqisi2
 483 0004 13F0020F 		tst	r3, #2
 484 0008 10D0     		beq	.L47
 376:.\Generated_Source\PSoC5/CySpc.c ****     {
 377:.\Generated_Source\PSoC5/CySpc.c ****         CY_SPC_CPU_DATA_REG = CY_SPC_KEY_ONE;
 485              		.loc 1 377 0
 486 000a 0B4B     		ldr	r3, .L49+4
 487 000c B622     		movs	r2, #182
 488 000e 1A70     		strb	r2, [r3]
 378:.\Generated_Source\PSoC5/CySpc.c ****         CY_SPC_CPU_DATA_REG = CY_SPC_KEY_TWO(CY_SPC_CMD_ER_SECTOR);
 489              		.loc 1 378 0
 490 0010 DB22     		movs	r2, #219
 491 0012 1A70     		strb	r2, [r3]
 379:.\Generated_Source\PSoC5/CySpc.c ****         CY_SPC_CPU_DATA_REG = CY_SPC_CMD_ER_SECTOR;
 492              		.loc 1 379 0
 493 0014 0822     		movs	r2, #8
 494 0016 1A70     		strb	r2, [r3]
 380:.\Generated_Source\PSoC5/CySpc.c **** 
 381:.\Generated_Source\PSoC5/CySpc.c ****         /* Make sure the command was accepted */
 382:.\Generated_Source\PSoC5/CySpc.c ****         if(CY_SPC_BUSY)
 495              		.loc 1 382 0
 496 0018 0233     		adds	r3, r3, #2
 497 001a 1B78     		ldrb	r3, [r3]	@ zero_extendqisi2
 498 001c 13F0020F 		tst	r3, #2
 499 0020 06D1     		bne	.L48
 383:.\Generated_Source\PSoC5/CySpc.c ****         {
 384:.\Generated_Source\PSoC5/CySpc.c ****             CY_SPC_CPU_DATA_REG = array;
 500              		.loc 1 384 0
 501 0022 054B     		ldr	r3, .L49+4
 502 0024 1870     		strb	r0, [r3]
 385:.\Generated_Source\PSoC5/CySpc.c ****             CY_SPC_CPU_DATA_REG = sectorNumber;
 503              		.loc 1 385 0
 504 0026 1970     		strb	r1, [r3]
 372:.\Generated_Source\PSoC5/CySpc.c **** 
 505              		.loc 1 372 0
 506 0028 0720     		movs	r0, #7
 507              	.LVL47:
 508 002a 7047     		bx	lr
 509              	.LVL48:
 510              	.L47:
 386:.\Generated_Source\PSoC5/CySpc.c ****         }
ARM GAS  C:\Users\Ian\AppData\Local\Temp\cctxMqmc.s 			page 17


 387:.\Generated_Source\PSoC5/CySpc.c ****         else
 388:.\Generated_Source\PSoC5/CySpc.c ****         {
 389:.\Generated_Source\PSoC5/CySpc.c ****             status = CYRET_CANCELED;
 390:.\Generated_Source\PSoC5/CySpc.c ****         }
 391:.\Generated_Source\PSoC5/CySpc.c ****     }
 392:.\Generated_Source\PSoC5/CySpc.c ****     else
 393:.\Generated_Source\PSoC5/CySpc.c ****     {
 394:.\Generated_Source\PSoC5/CySpc.c ****         status = CYRET_LOCKED;
 511              		.loc 1 394 0
 512 002c 0420     		movs	r0, #4
 513              	.LVL49:
 514 002e 7047     		bx	lr
 515              	.LVL50:
 516              	.L48:
 389:.\Generated_Source\PSoC5/CySpc.c ****         }
 517              		.loc 1 389 0
 518 0030 0920     		movs	r0, #9
 519              	.LVL51:
 395:.\Generated_Source\PSoC5/CySpc.c ****     }
 396:.\Generated_Source\PSoC5/CySpc.c **** 
 397:.\Generated_Source\PSoC5/CySpc.c ****     return(status);
 398:.\Generated_Source\PSoC5/CySpc.c **** }
 520              		.loc 1 398 0
 521 0032 7047     		bx	lr
 522              	.L50:
 523              		.align	2
 524              	.L49:
 525 0034 22470040 		.word	1073760034
 526 0038 20470040 		.word	1073760032
 527              		.cfi_endproc
 528              	.LFE6:
 529              		.size	CySpcEraseSector, .-CySpcEraseSector
 530              		.section	.text.CySpcGetTemp,"ax",%progbits
 531              		.align	2
 532              		.global	CySpcGetTemp
 533              		.thumb
 534              		.thumb_func
 535              		.type	CySpcGetTemp, %function
 536              	CySpcGetTemp:
 537              	.LFB7:
 399:.\Generated_Source\PSoC5/CySpc.c **** 
 400:.\Generated_Source\PSoC5/CySpc.c **** 
 401:.\Generated_Source\PSoC5/CySpc.c **** /*******************************************************************************
 402:.\Generated_Source\PSoC5/CySpc.c **** * Function Name: CySpcGetTemp
 403:.\Generated_Source\PSoC5/CySpc.c **** ********************************************************************************
 404:.\Generated_Source\PSoC5/CySpc.c **** * Summary:
 405:.\Generated_Source\PSoC5/CySpc.c **** *  Returns the internal die temperature
 406:.\Generated_Source\PSoC5/CySpc.c **** *
 407:.\Generated_Source\PSoC5/CySpc.c **** * Parameters:
 408:.\Generated_Source\PSoC5/CySpc.c **** *  uint8 numSamples:
 409:.\Generated_Source\PSoC5/CySpc.c **** *   Number of samples. Valid values are 1-5, resulting in 2 - 32 samples
 410:.\Generated_Source\PSoC5/CySpc.c **** *   respectively.
 411:.\Generated_Source\PSoC5/CySpc.c **** *
 412:.\Generated_Source\PSoC5/CySpc.c **** * uint16 timerPeriod:
 413:.\Generated_Source\PSoC5/CySpc.c **** *   Number of ADC ACLK cycles. A valid 14 bit value is accepted, higher 2 bits
 414:.\Generated_Source\PSoC5/CySpc.c **** *   of 16 bit values are ignored.
 415:.\Generated_Source\PSoC5/CySpc.c **** *
ARM GAS  C:\Users\Ian\AppData\Local\Temp\cctxMqmc.s 			page 18


 416:.\Generated_Source\PSoC5/CySpc.c **** * uint8 clkDivSelect:
 417:.\Generated_Source\PSoC5/CySpc.c **** *   ADC ACLK clock divide value. Valid values are 2 - 225.
 418:.\Generated_Source\PSoC5/CySpc.c **** *
 419:.\Generated_Source\PSoC5/CySpc.c **** * Return:
 420:.\Generated_Source\PSoC5/CySpc.c **** *  CYRET_STARTED
 421:.\Generated_Source\PSoC5/CySpc.c **** *  CYRET_CANCELED
 422:.\Generated_Source\PSoC5/CySpc.c **** *  CYRET_LOCKED
 423:.\Generated_Source\PSoC5/CySpc.c **** *
 424:.\Generated_Source\PSoC5/CySpc.c **** *******************************************************************************/
 425:.\Generated_Source\PSoC5/CySpc.c **** cystatus CySpcGetTemp(uint8 numSamples)
 426:.\Generated_Source\PSoC5/CySpc.c **** {
 538              		.loc 1 426 0
 539              		.cfi_startproc
 540              		@ args = 0, pretend = 0, frame = 0
 541              		@ frame_needed = 0, uses_anonymous_args = 0
 542              		@ link register save eliminated.
 543              	.LVL52:
 427:.\Generated_Source\PSoC5/CySpc.c ****     cystatus status = CYRET_STARTED;
 428:.\Generated_Source\PSoC5/CySpc.c **** 
 429:.\Generated_Source\PSoC5/CySpc.c ****     /* Make sure the SPC is ready to accept command */
 430:.\Generated_Source\PSoC5/CySpc.c ****     if(CY_SPC_IDLE)
 544              		.loc 1 430 0
 545 0000 0C4B     		ldr	r3, .L55
 546 0002 1B78     		ldrb	r3, [r3]	@ zero_extendqisi2
 547 0004 13F0020F 		tst	r3, #2
 548 0008 0FD0     		beq	.L53
 431:.\Generated_Source\PSoC5/CySpc.c ****     {
 432:.\Generated_Source\PSoC5/CySpc.c ****         CY_SPC_CPU_DATA_REG = CY_SPC_KEY_ONE;
 549              		.loc 1 432 0
 550 000a 0B4B     		ldr	r3, .L55+4
 551 000c B622     		movs	r2, #182
 552 000e 1A70     		strb	r2, [r3]
 433:.\Generated_Source\PSoC5/CySpc.c ****         CY_SPC_CPU_DATA_REG = CY_SPC_KEY_TWO(CY_SPC_CMD_GET_TEMP);
 553              		.loc 1 433 0
 554 0010 E122     		movs	r2, #225
 555 0012 1A70     		strb	r2, [r3]
 434:.\Generated_Source\PSoC5/CySpc.c ****         CY_SPC_CPU_DATA_REG = CY_SPC_CMD_GET_TEMP;
 556              		.loc 1 434 0
 557 0014 0E22     		movs	r2, #14
 558 0016 1A70     		strb	r2, [r3]
 435:.\Generated_Source\PSoC5/CySpc.c **** 
 436:.\Generated_Source\PSoC5/CySpc.c ****         /* Make sure the command was accepted */
 437:.\Generated_Source\PSoC5/CySpc.c ****         if(CY_SPC_BUSY)
 559              		.loc 1 437 0
 560 0018 0233     		adds	r3, r3, #2
 561 001a 1B78     		ldrb	r3, [r3]	@ zero_extendqisi2
 562 001c 13F0020F 		tst	r3, #2
 563 0020 05D1     		bne	.L54
 438:.\Generated_Source\PSoC5/CySpc.c ****         {
 439:.\Generated_Source\PSoC5/CySpc.c ****             CY_SPC_CPU_DATA_REG = numSamples;
 564              		.loc 1 439 0
 565 0022 054B     		ldr	r3, .L55+4
 566 0024 1870     		strb	r0, [r3]
 427:.\Generated_Source\PSoC5/CySpc.c **** 
 567              		.loc 1 427 0
 568 0026 0720     		movs	r0, #7
 569              	.LVL53:
ARM GAS  C:\Users\Ian\AppData\Local\Temp\cctxMqmc.s 			page 19


 570 0028 7047     		bx	lr
 571              	.LVL54:
 572              	.L53:
 440:.\Generated_Source\PSoC5/CySpc.c ****         }
 441:.\Generated_Source\PSoC5/CySpc.c ****         else
 442:.\Generated_Source\PSoC5/CySpc.c ****         {
 443:.\Generated_Source\PSoC5/CySpc.c ****             status = CYRET_CANCELED;
 444:.\Generated_Source\PSoC5/CySpc.c ****         }
 445:.\Generated_Source\PSoC5/CySpc.c ****     }
 446:.\Generated_Source\PSoC5/CySpc.c ****     else
 447:.\Generated_Source\PSoC5/CySpc.c ****     {
 448:.\Generated_Source\PSoC5/CySpc.c ****         status = CYRET_LOCKED;
 573              		.loc 1 448 0
 574 002a 0420     		movs	r0, #4
 575              	.LVL55:
 576 002c 7047     		bx	lr
 577              	.LVL56:
 578              	.L54:
 443:.\Generated_Source\PSoC5/CySpc.c ****         }
 579              		.loc 1 443 0
 580 002e 0920     		movs	r0, #9
 581              	.LVL57:
 449:.\Generated_Source\PSoC5/CySpc.c ****     }
 450:.\Generated_Source\PSoC5/CySpc.c **** 
 451:.\Generated_Source\PSoC5/CySpc.c ****     return(status);
 452:.\Generated_Source\PSoC5/CySpc.c **** }
 582              		.loc 1 452 0
 583 0030 7047     		bx	lr
 584              	.L56:
 585 0032 00BF     		.align	2
 586              	.L55:
 587 0034 22470040 		.word	1073760034
 588 0038 20470040 		.word	1073760032
 589              		.cfi_endproc
 590              	.LFE7:
 591              		.size	CySpcGetTemp, .-CySpcGetTemp
 592              		.section	.text.CySpcLock,"ax",%progbits
 593              		.align	2
 594              		.global	CySpcLock
 595              		.thumb
 596              		.thumb_func
 597              		.type	CySpcLock, %function
 598              	CySpcLock:
 599              	.LFB8:
 453:.\Generated_Source\PSoC5/CySpc.c **** 
 454:.\Generated_Source\PSoC5/CySpc.c **** 
 455:.\Generated_Source\PSoC5/CySpc.c **** /*******************************************************************************
 456:.\Generated_Source\PSoC5/CySpc.c **** * Function Name: CySpcLock
 457:.\Generated_Source\PSoC5/CySpc.c **** ********************************************************************************
 458:.\Generated_Source\PSoC5/CySpc.c **** * Summary:
 459:.\Generated_Source\PSoC5/CySpc.c **** *  Locks the SPC so it can not be used by someone else:
 460:.\Generated_Source\PSoC5/CySpc.c **** *   - Saves wait-pipeline enable state and enable pipeline (PSoC5)
 461:.\Generated_Source\PSoC5/CySpc.c **** *
 462:.\Generated_Source\PSoC5/CySpc.c **** * Parameters:
 463:.\Generated_Source\PSoC5/CySpc.c **** *  Note
 464:.\Generated_Source\PSoC5/CySpc.c **** *
 465:.\Generated_Source\PSoC5/CySpc.c **** * Return:
ARM GAS  C:\Users\Ian\AppData\Local\Temp\cctxMqmc.s 			page 20


 466:.\Generated_Source\PSoC5/CySpc.c **** *  CYRET_SUCCESS - if the resource was free.
 467:.\Generated_Source\PSoC5/CySpc.c **** *  CYRET_LOCKED  - if the SPC is in use.
 468:.\Generated_Source\PSoC5/CySpc.c **** *
 469:.\Generated_Source\PSoC5/CySpc.c **** *******************************************************************************/
 470:.\Generated_Source\PSoC5/CySpc.c **** cystatus CySpcLock(void)
 471:.\Generated_Source\PSoC5/CySpc.c **** {
 600              		.loc 1 471 0
 601              		.cfi_startproc
 602              		@ args = 0, pretend = 0, frame = 0
 603              		@ frame_needed = 0, uses_anonymous_args = 0
 604 0000 10B5     		push	{r4, lr}
 605              		.cfi_def_cfa_offset 8
 606              		.cfi_offset 4, -8
 607              		.cfi_offset 14, -4
 608              	.LVL58:
 472:.\Generated_Source\PSoC5/CySpc.c ****     cystatus status = CYRET_LOCKED;
 473:.\Generated_Source\PSoC5/CySpc.c ****     uint8 interruptState;
 474:.\Generated_Source\PSoC5/CySpc.c **** 
 475:.\Generated_Source\PSoC5/CySpc.c ****     /* Enter critical section */
 476:.\Generated_Source\PSoC5/CySpc.c ****     interruptState = CyEnterCriticalSection();
 609              		.loc 1 476 0
 610 0002 FFF7FEFF 		bl	CyEnterCriticalSection
 611              	.LVL59:
 477:.\Generated_Source\PSoC5/CySpc.c **** 
 478:.\Generated_Source\PSoC5/CySpc.c ****     if(CY_SPC_UNLOCKED == SpcLockState)
 612              		.loc 1 478 0
 613 0006 0F4B     		ldr	r3, .L62
 614 0008 1B78     		ldrb	r3, [r3]	@ zero_extendqisi2
 615 000a A3B9     		cbnz	r3, .L59
 479:.\Generated_Source\PSoC5/CySpc.c ****     {
 480:.\Generated_Source\PSoC5/CySpc.c ****         SpcLockState = CY_SPC_LOCKED;
 616              		.loc 1 480 0
 617 000c 0122     		movs	r2, #1
 618 000e 0D4B     		ldr	r3, .L62
 619 0010 1A70     		strb	r2, [r3]
 620              	.LVL60:
 481:.\Generated_Source\PSoC5/CySpc.c ****         status = CYRET_SUCCESS;
 482:.\Generated_Source\PSoC5/CySpc.c **** 
 483:.\Generated_Source\PSoC5/CySpc.c ****         #if(CY_PSOC5)
 484:.\Generated_Source\PSoC5/CySpc.c **** 
 485:.\Generated_Source\PSoC5/CySpc.c ****             if(0u != (CY_SPC_CPU_WAITPIPE_REG & CY_SPC_CPU_WAITPIPE_BYPASS))
 621              		.loc 1 485 0
 622 0012 0D4B     		ldr	r3, .L62+4
 623 0014 1B68     		ldr	r3, [r3]
 624 0016 13F0010F 		tst	r3, #1
 625 001a 0ED0     		beq	.L60
 486:.\Generated_Source\PSoC5/CySpc.c ****             {
 487:.\Generated_Source\PSoC5/CySpc.c ****                 /* Enable pipeline registers */
 488:.\Generated_Source\PSoC5/CySpc.c ****                 CY_SPC_CPU_WAITPIPE_REG &= ((uint32)(~CY_SPC_CPU_WAITPIPE_BYPASS));
 626              		.loc 1 488 0
 627 001c 0A4A     		ldr	r2, .L62+4
 628 001e 1368     		ldr	r3, [r2]
 629 0020 23F00103 		bic	r3, r3, #1
 630 0024 1360     		str	r3, [r2]
 489:.\Generated_Source\PSoC5/CySpc.c **** 
 490:.\Generated_Source\PSoC5/CySpc.c ****                 /* At least 2 NOP instructions are recommended */
 491:.\Generated_Source\PSoC5/CySpc.c ****                 CY_NOP;
ARM GAS  C:\Users\Ian\AppData\Local\Temp\cctxMqmc.s 			page 21


 631              		.loc 1 491 0
 632              	@ 491 ".\Generated_Source\PSoC5\CySpc.c" 1
 633 0026 00BF     		NOP
 634              	
 635              	@ 0 "" 2
 492:.\Generated_Source\PSoC5/CySpc.c ****                 CY_NOP;
 636              		.loc 1 492 0
 637              	@ 492 ".\Generated_Source\PSoC5\CySpc.c" 1
 638 0028 00BF     		NOP
 639              	
 640              	@ 0 "" 2
 493:.\Generated_Source\PSoC5/CySpc.c ****                 CY_NOP;
 641              		.loc 1 493 0
 642              	@ 493 ".\Generated_Source\PSoC5\CySpc.c" 1
 643 002a 00BF     		NOP
 644              	
 645              	@ 0 "" 2
 494:.\Generated_Source\PSoC5/CySpc.c **** 
 495:.\Generated_Source\PSoC5/CySpc.c ****                 spcWaitPipeBypass = CY_SPC_CPU_WAITPIPE_BYPASS;
 646              		.loc 1 495 0
 647              		.thumb
 648 002c 0122     		movs	r2, #1
 649 002e 054B     		ldr	r3, .L62
 650 0030 5A60     		str	r2, [r3, #4]
 481:.\Generated_Source\PSoC5/CySpc.c **** 
 651              		.loc 1 481 0
 652 0032 0024     		movs	r4, #0
 653 0034 02E0     		b	.L58
 654              	.LVL61:
 655              	.L59:
 472:.\Generated_Source\PSoC5/CySpc.c ****     uint8 interruptState;
 656              		.loc 1 472 0
 657 0036 0424     		movs	r4, #4
 658 0038 00E0     		b	.L58
 659              	.LVL62:
 660              	.L60:
 481:.\Generated_Source\PSoC5/CySpc.c **** 
 661              		.loc 1 481 0
 662 003a 0024     		movs	r4, #0
 663              	.LVL63:
 664              	.L58:
 496:.\Generated_Source\PSoC5/CySpc.c ****             }
 497:.\Generated_Source\PSoC5/CySpc.c **** 
 498:.\Generated_Source\PSoC5/CySpc.c ****         #endif  /* (CY_PSOC5) */
 499:.\Generated_Source\PSoC5/CySpc.c ****     }
 500:.\Generated_Source\PSoC5/CySpc.c **** 
 501:.\Generated_Source\PSoC5/CySpc.c ****     /* Exit critical section */
 502:.\Generated_Source\PSoC5/CySpc.c ****     CyExitCriticalSection(interruptState);
 665              		.loc 1 502 0
 666 003c FFF7FEFF 		bl	CyExitCriticalSection
 667              	.LVL64:
 503:.\Generated_Source\PSoC5/CySpc.c **** 
 504:.\Generated_Source\PSoC5/CySpc.c ****     return(status);
 505:.\Generated_Source\PSoC5/CySpc.c **** }
 668              		.loc 1 505 0
 669 0040 2046     		mov	r0, r4
 670 0042 10BD     		pop	{r4, pc}
ARM GAS  C:\Users\Ian\AppData\Local\Temp\cctxMqmc.s 			page 22


 671              	.LVL65:
 672              	.L63:
 673              		.align	2
 674              	.L62:
 675 0044 00000000 		.word	.LANCHOR0
 676 0048 04000840 		.word	1074266116
 677              		.cfi_endproc
 678              	.LFE8:
 679              		.size	CySpcLock, .-CySpcLock
 680              		.section	.text.CySpcUnlock,"ax",%progbits
 681              		.align	2
 682              		.global	CySpcUnlock
 683              		.thumb
 684              		.thumb_func
 685              		.type	CySpcUnlock, %function
 686              	CySpcUnlock:
 687              	.LFB9:
 506:.\Generated_Source\PSoC5/CySpc.c **** 
 507:.\Generated_Source\PSoC5/CySpc.c **** 
 508:.\Generated_Source\PSoC5/CySpc.c **** /*******************************************************************************
 509:.\Generated_Source\PSoC5/CySpc.c **** * Function Name: CySpcUnlock
 510:.\Generated_Source\PSoC5/CySpc.c **** ********************************************************************************
 511:.\Generated_Source\PSoC5/CySpc.c **** * Summary:
 512:.\Generated_Source\PSoC5/CySpc.c **** *  Unlocks the SPC so it can be used by someone else:
 513:.\Generated_Source\PSoC5/CySpc.c **** *   - Restores wait-pipeline enable state (PSoC5)
 514:.\Generated_Source\PSoC5/CySpc.c **** *
 515:.\Generated_Source\PSoC5/CySpc.c **** * Parameters:
 516:.\Generated_Source\PSoC5/CySpc.c **** *  None
 517:.\Generated_Source\PSoC5/CySpc.c **** *
 518:.\Generated_Source\PSoC5/CySpc.c **** * Return:
 519:.\Generated_Source\PSoC5/CySpc.c **** *  None
 520:.\Generated_Source\PSoC5/CySpc.c **** *
 521:.\Generated_Source\PSoC5/CySpc.c **** *******************************************************************************/
 522:.\Generated_Source\PSoC5/CySpc.c **** void CySpcUnlock(void)
 523:.\Generated_Source\PSoC5/CySpc.c **** {
 688              		.loc 1 523 0
 689              		.cfi_startproc
 690              		@ args = 0, pretend = 0, frame = 0
 691              		@ frame_needed = 0, uses_anonymous_args = 0
 692 0000 08B5     		push	{r3, lr}
 693              		.cfi_def_cfa_offset 8
 694              		.cfi_offset 3, -8
 695              		.cfi_offset 14, -4
 524:.\Generated_Source\PSoC5/CySpc.c ****     uint8 interruptState;
 525:.\Generated_Source\PSoC5/CySpc.c **** 
 526:.\Generated_Source\PSoC5/CySpc.c ****     /* Enter critical section */
 527:.\Generated_Source\PSoC5/CySpc.c ****     interruptState = CyEnterCriticalSection();
 696              		.loc 1 527 0
 697 0002 FFF7FEFF 		bl	CyEnterCriticalSection
 698              	.LVL66:
 528:.\Generated_Source\PSoC5/CySpc.c **** 
 529:.\Generated_Source\PSoC5/CySpc.c ****     /* Release the SPC object */
 530:.\Generated_Source\PSoC5/CySpc.c ****     SpcLockState = CY_SPC_UNLOCKED;
 699              		.loc 1 530 0
 700 0006 0A4B     		ldr	r3, .L67
 701 0008 0022     		movs	r2, #0
 702 000a 1A70     		strb	r2, [r3]
ARM GAS  C:\Users\Ian\AppData\Local\Temp\cctxMqmc.s 			page 23


 531:.\Generated_Source\PSoC5/CySpc.c **** 
 532:.\Generated_Source\PSoC5/CySpc.c ****     #if(CY_PSOC5)
 533:.\Generated_Source\PSoC5/CySpc.c **** 
 534:.\Generated_Source\PSoC5/CySpc.c ****         if(CY_SPC_CPU_WAITPIPE_BYPASS == spcWaitPipeBypass)
 703              		.loc 1 534 0
 704 000c 5B68     		ldr	r3, [r3, #4]
 705 000e 012B     		cmp	r3, #1
 706 0010 0AD1     		bne	.L65
 535:.\Generated_Source\PSoC5/CySpc.c ****         {
 536:.\Generated_Source\PSoC5/CySpc.c ****             /* Force to bypass pipeline registers */
 537:.\Generated_Source\PSoC5/CySpc.c ****             CY_SPC_CPU_WAITPIPE_REG |= CY_SPC_CPU_WAITPIPE_BYPASS;
 707              		.loc 1 537 0
 708 0012 084A     		ldr	r2, .L67+4
 709 0014 1368     		ldr	r3, [r2]
 710 0016 43F00103 		orr	r3, r3, #1
 711 001a 1360     		str	r3, [r2]
 538:.\Generated_Source\PSoC5/CySpc.c **** 
 539:.\Generated_Source\PSoC5/CySpc.c ****             /* At least 2 NOP instructions are recommended */
 540:.\Generated_Source\PSoC5/CySpc.c ****             CY_NOP;
 712              		.loc 1 540 0
 713              	@ 540 ".\Generated_Source\PSoC5\CySpc.c" 1
 714 001c 00BF     		NOP
 715              	
 716              	@ 0 "" 2
 541:.\Generated_Source\PSoC5/CySpc.c ****             CY_NOP;
 717              		.loc 1 541 0
 718              	@ 541 ".\Generated_Source\PSoC5\CySpc.c" 1
 719 001e 00BF     		NOP
 720              	
 721              	@ 0 "" 2
 542:.\Generated_Source\PSoC5/CySpc.c ****             CY_NOP;
 722              		.loc 1 542 0
 723              	@ 542 ".\Generated_Source\PSoC5\CySpc.c" 1
 724 0020 00BF     		NOP
 725              	
 726              	@ 0 "" 2
 543:.\Generated_Source\PSoC5/CySpc.c **** 
 544:.\Generated_Source\PSoC5/CySpc.c ****             spcWaitPipeBypass = 0u;
 727              		.loc 1 544 0
 728              		.thumb
 729 0022 0022     		movs	r2, #0
 730 0024 024B     		ldr	r3, .L67
 731 0026 5A60     		str	r2, [r3, #4]
 732              	.L65:
 545:.\Generated_Source\PSoC5/CySpc.c ****         }
 546:.\Generated_Source\PSoC5/CySpc.c **** 
 547:.\Generated_Source\PSoC5/CySpc.c ****     #endif  /* (CY_PSOC5) */
 548:.\Generated_Source\PSoC5/CySpc.c **** 
 549:.\Generated_Source\PSoC5/CySpc.c ****     /* Exit critical section */
 550:.\Generated_Source\PSoC5/CySpc.c ****     CyExitCriticalSection(interruptState);
 733              		.loc 1 550 0
 734 0028 FFF7FEFF 		bl	CyExitCriticalSection
 735              	.LVL67:
 736 002c 08BD     		pop	{r3, pc}
 737              	.L68:
 738 002e 00BF     		.align	2
 739              	.L67:
ARM GAS  C:\Users\Ian\AppData\Local\Temp\cctxMqmc.s 			page 24


 740 0030 00000000 		.word	.LANCHOR0
 741 0034 04000840 		.word	1074266116
 742              		.cfi_endproc
 743              	.LFE9:
 744              		.size	CySpcUnlock, .-CySpcUnlock
 745              		.global	SpcLockState
 746              		.bss
 747              		.align	2
 748              		.set	.LANCHOR0,. + 0
 749              		.type	SpcLockState, %object
 750              		.size	SpcLockState, 1
 751              	SpcLockState:
 752 0000 00       		.space	1
 753 0001 000000   		.space	3
 754              		.type	spcWaitPipeBypass, %object
 755              		.size	spcWaitPipeBypass, 4
 756              	spcWaitPipeBypass:
 757 0004 00000000 		.space	4
 758              		.text
 759              	.Letext0:
 760              		.file 2 ".\\Generated_Source\\PSoC5\\cytypes.h"
 761              		.file 3 ".\\Generated_Source\\PSoC5\\CyLib.h"