ARM GAS  C:\Users\Ian\AppData\Local\Temp\ccHsHZAT.s 			page 1


   1              		.syntax unified
   2              		.cpu cortex-m3
   3              		.fpu softvfp
   4              		.eabi_attribute 20, 1
   5              		.eabi_attribute 21, 1
   6              		.eabi_attribute 23, 3
   7              		.eabi_attribute 24, 1
   8              		.eabi_attribute 25, 1
   9              		.eabi_attribute 26, 1
  10              		.eabi_attribute 30, 1
  11              		.eabi_attribute 34, 1
  12              		.eabi_attribute 18, 4
  13              		.thumb
  14              		.file	"main.c"
  15              		.text
  16              	.Ltext0:
  17              		.cfi_sections	.debug_frame
  18              		.section	.text.DmaRxConfiguration,"ax",%progbits
  19              		.align	2
  20              		.global	DmaRxConfiguration
  21              		.thumb
  22              		.thumb_func
  23              		.type	DmaRxConfiguration, %function
  24              	DmaRxConfiguration:
  25              	.LFB57:
  26              		.file 1 ".\\main.c"
   1:.\main.c      **** /* ========================================
   2:.\main.c      ****  *
   3:.\main.c      ****  * Copyright The College of New Jersey, 2016
   4:.\main.c      ****  * All Rights Reserved
   5:.\main.c      ****  * UNPUBLISHED, LICENSED SOFTWARE.
   6:.\main.c      ****  *
   7:.\main.c      ****  * CONFIDENTIAL AND PROPRIETARY INFORMATION
   8:.\main.c      ****  * WHICH IS THE PROPERTY OF your company.
   9:.\main.c      ****  *
  10:.\main.c      ****  * ========================================
  11:.\main.c      **** */
  12:.\main.c      **** 
  13:.\main.c      **** #include <project.h>
  14:.\main.c      **** #include <stdio.h>
  15:.\main.c      **** 
  16:.\main.c      **** void DmaRxConfiguration(void);
  17:.\main.c      **** void DmaTxConfiguration(void);
  18:.\main.c      **** 
  19:.\main.c      **** /* DMA Configuration for RxDMA */
  20:.\main.c      **** #define RxDMA_BYTES_PER_BURST       1
  21:.\main.c      **** #define RxDMA_REQUEST_PER_BURST     1
  22:.\main.c      **** #define RxDMA_SRC_BASE              (CYDEV_PERIPH_BASE)
  23:.\main.c      **** #define RxDMA_DST_BASE              (CYDEV_SRAM_BASE)
  24:.\main.c      **** 
  25:.\main.c      **** /* DMA Configuration for TxDMA */
  26:.\main.c      **** #define TxDMA_BYTES_PER_BURST       1
  27:.\main.c      **** #define TxDMA_REQUEST_PER_BURST     1
  28:.\main.c      **** #define TxDMA_SRC_BASE              (CYDEV_SRAM_BASE)
  29:.\main.c      **** #define TxDMA_DST_BASE              (CYDEV_PERIPH_BASE)
  30:.\main.c      **** 
  31:.\main.c      **** /* Variable declarations for RxDMA */
ARM GAS  C:\Users\Ian\AppData\Local\Temp\ccHsHZAT.s 			page 2


  32:.\main.c      **** uint8_t RxDMA_Chan_0;
  33:.\main.c      **** uint8_t RxDMA_TD_0[1];
  34:.\main.c      **** uint8_t RxDMA_Chan_1;
  35:.\main.c      **** uint8_t RxDMA_TD_1[1];
  36:.\main.c      **** 
  37:.\main.c      **** /* Variable declarations for TxDMA */
  38:.\main.c      **** uint8_t TxDMA_0_Chan;
  39:.\main.c      **** uint8_t TxDMA_0_TD[1];    
  40:.\main.c      **** uint8_t TxDMA_1_Chan;
  41:.\main.c      **** uint8_t TxDMA_1_TD[1];
  42:.\main.c      **** 
  43:.\main.c      **** #define TRANSFER_COUNT 48		// the "N" MATLAB prints
  44:.\main.c      **** uint16_t signal[TRANSFER_COUNT] = 
  45:.\main.c      **** {0x0, 0xAAB, 0x1555, 0x2000, 0x2AAB, 0x3555, 0x4000, 0x4AAA, 0x5555, 0x6000, 
  46:.\main.c      **** 0x6AAA, 0x7555, 0x8000, 0x8AAA, 0x9555, 0x9FFF, 0xAAAA, 0xB555, 0xBFFF, 0xCAAA, 
  47:.\main.c      **** 0xD554, 0xDFFF, 0xEAAA, 0xF554, 0xFFFF, 0xF554, 0xEAAA, 0xDFFF, 0xD555, 0xCAAA, 
  48:.\main.c      **** 0xBFFF, 0xB555, 0xAAAA, 0x9FFF, 0x9555, 0x8AAA, 0x8000, 0x7555, 0x6AAA, 0x6000, 
  49:.\main.c      **** 0x5555, 0x4AAA, 0x4000, 0x3555, 0x2AAB, 0x2000, 0x1555, 0xAAB};
  50:.\main.c      **** 
  51:.\main.c      **** #define BUFFER_SIZE 1024				/* number of samples to receive */
  52:.\main.c      **** uint16_t ReceivedData[BUFFER_SIZE];    	/* left IN buffer */
  53:.\main.c      **** uint16_t dummy[BUFFER_SIZE];			/* right IN buffer, ignored */
  54:.\main.c      **** 
  55:.\main.c      **** int main()
  56:.\main.c      **** {
  57:.\main.c      **** 	uint32_t i = 0;
  58:.\main.c      **** 	
  59:.\main.c      **** 	/* Enable global interrupts */
  60:.\main.c      **** 	CyGlobalIntEnable;
  61:.\main.c      **** 	
  62:.\main.c      **** 	// Initialize received data array
  63:.\main.c      **** 	for (i = 0; i < BUFFER_SIZE; i++)
  64:.\main.c      **** 		ReceivedData[i] = 0;
  65:.\main.c      **** 
  66:.\main.c      ****     /* Configure DMAs for each direction */ 
  67:.\main.c      ****     DmaRxConfiguration();
  68:.\main.c      ****     DmaTxConfiguration();
  69:.\main.c      **** 	
  70:.\main.c      **** 	/* Enable I2S component */
  71:.\main.c      ****     I2S_Start();
  72:.\main.c      **** 	I2S_EnableRx();		/* Enable Rx direction */
  73:.\main.c      ****     I2S_EnableTx();     /* Enable Tx direction */
  74:.\main.c      ****     	
  75:.\main.c      **** 	CyDelay(3000);		/* Wait for data transmissions to complete */
  76:.\main.c      **** 		
  77:.\main.c      **** 	UART_Start();     	/* Enabling the UART */
  78:.\main.c      **** 	
  79:.\main.c      **** 	/* Send the data to computer through the UART component, serial to USB */
  80:.\main.c      **** 	for(i = 0; i < BUFFER_SIZE; i++)
  81:.\main.c      **** 	{
  82:.\main.c      **** 		uint8_t part1 = (ReceivedData[i] >> 8) & 0x00ff;		/* get first byte */
  83:.\main.c      **** 		uint8_t part2 = (ReceivedData[i] >> 0) & 0x00ff;		/* get second byte */
  84:.\main.c      **** 		char part1_string[5];
  85:.\main.c      **** 		char part2_string[5];
  86:.\main.c      **** 		sprintf(part1_string, "%02X", part1);
  87:.\main.c      **** 		sprintf(part2_string, "%02X", part2);
  88:.\main.c      **** 		UART_PutString(part1_string);					
ARM GAS  C:\Users\Ian\AppData\Local\Temp\ccHsHZAT.s 			page 3


  89:.\main.c      **** 		UART_PutString(", ");							
  90:.\main.c      **** 		UART_PutString(part2_string);					
  91:.\main.c      **** 		UART_PutString("\n\r");
  92:.\main.c      **** 	}
  93:.\main.c      **** 	
  94:.\main.c      **** 	for(;;);
  95:.\main.c      **** }
  96:.\main.c      **** 
  97:.\main.c      **** /* Rx DMA Config */
  98:.\main.c      **** void DmaRxConfiguration(void)
  99:.\main.c      **** {
  27              		.loc 1 99 0
  28              		.cfi_startproc
  29              		@ args = 0, pretend = 0, frame = 0
  30              		@ frame_needed = 0, uses_anonymous_args = 0
  31 0000 F8B5     		push	{r3, r4, r5, r6, r7, lr}
  32              		.cfi_def_cfa_offset 24
  33              		.cfi_offset 3, -24
  34              		.cfi_offset 4, -20
  35              		.cfi_offset 5, -16
  36              		.cfi_offset 6, -12
  37              		.cfi_offset 7, -8
  38              		.cfi_offset 14, -4
 100:.\main.c      ****     /* Init DMA, 2 byte bursts, each burst requires a request */
 101:.\main.c      ****     RxDMA_Chan_0 = RxDMA_0_DmaInitialize(RxDMA_BYTES_PER_BURST, RxDMA_REQUEST_PER_BURST, 
  39              		.loc 1 101 0
  40 0002 0120     		movs	r0, #1
  41 0004 0146     		mov	r1, r0
  42 0006 4FF48042 		mov	r2, #16384
  43 000a 41F6FF73 		movw	r3, #8191
  44 000e FFF7FEFF 		bl	RxDMA_0_DmaInitialize
  45              	.LVL0:
  46 0012 204F     		ldr	r7, .L3
  47 0014 3870     		strb	r0, [r7]
 102:.\main.c      ****                                      HI16(RxDMA_SRC_BASE), HI16(RxDMA_DST_BASE));
 103:.\main.c      **** 	RxDMA_Chan_1 = RxDMA_1_DmaInitialize(RxDMA_BYTES_PER_BURST, RxDMA_REQUEST_PER_BURST, 
  48              		.loc 1 103 0
  49 0016 0120     		movs	r0, #1
  50 0018 0146     		mov	r1, r0
  51 001a 4FF48042 		mov	r2, #16384
  52 001e 41F6FF73 		movw	r3, #8191
  53 0022 FFF7FEFF 		bl	RxDMA_1_DmaInitialize
  54              	.LVL1:
  55 0026 1C4E     		ldr	r6, .L3+4
  56 0028 3070     		strb	r0, [r6]
 104:.\main.c      ****                                      HI16(RxDMA_SRC_BASE), HI16(RxDMA_DST_BASE));
 105:.\main.c      **** 	
 106:.\main.c      ****     RxDMA_TD_0[0] = CyDmaTdAllocate();
  57              		.loc 1 106 0
  58 002a FFF7FEFF 		bl	CyDmaTdAllocate
  59              	.LVL2:
  60 002e 1B4D     		ldr	r5, .L3+8
  61 0030 2870     		strb	r0, [r5]
 107:.\main.c      **** 	RxDMA_TD_1[0] = CyDmaTdAllocate();
  62              		.loc 1 107 0
  63 0032 FFF7FEFF 		bl	CyDmaTdAllocate
  64              	.LVL3:
ARM GAS  C:\Users\Ian\AppData\Local\Temp\ccHsHZAT.s 			page 4


  65 0036 1A4C     		ldr	r4, .L3+12
  66 0038 2070     		strb	r0, [r4]
 108:.\main.c      **** 	
 109:.\main.c      **** 	/* Configure this Td chain, get 8192 samples */
 110:.\main.c      ****     CyDmaTdSetConfiguration(RxDMA_TD_0[0], 2*BUFFER_SIZE, DMA_DISABLE_TD, TD_INC_DST_ADR | RxDMA_0_
  67              		.loc 1 110 0
  68 003a 2878     		ldrb	r0, [r5]	@ zero_extendqisi2
  69 003c 4FF40061 		mov	r1, #2048
  70 0040 FE22     		movs	r2, #254
  71 0042 8223     		movs	r3, #130
  72 0044 FFF7FEFF 		bl	CyDmaTdSetConfiguration
  73              	.LVL4:
 111:.\main.c      **** 	CyDmaTdSetConfiguration(RxDMA_TD_1[0], 2*BUFFER_SIZE, DMA_DISABLE_TD, TD_INC_DST_ADR | RxDMA_1__TD
  74              		.loc 1 111 0
  75 0048 2078     		ldrb	r0, [r4]	@ zero_extendqisi2
  76 004a 4FF40061 		mov	r1, #2048
  77 004e FE22     		movs	r2, #254
  78 0050 8223     		movs	r3, #130
  79 0052 FFF7FEFF 		bl	CyDmaTdSetConfiguration
  80              	.LVL5:
 112:.\main.c      **** 
 113:.\main.c      ****     /* From the I2S to the memory */
 114:.\main.c      ****     CyDmaTdSetAddress(RxDMA_TD_0[0], LO16((uint32)I2S_RX_CH0_F0_PTR), LO16((uint32)ReceivedData));
  81              		.loc 1 114 0
  82 0056 2878     		ldrb	r0, [r5]	@ zero_extendqisi2
  83 0058 46F24541 		movw	r1, #25669
  84 005c 114A     		ldr	r2, .L3+16
  85 005e 92B2     		uxth	r2, r2
  86 0060 FFF7FEFF 		bl	CyDmaTdSetAddress
  87              	.LVL6:
 115:.\main.c      **** 	CyDmaTdSetAddress(RxDMA_TD_1[0], LO16((uint32)I2S_RX_CH0_F1_PTR), LO16((uint32)dummy));
  88              		.loc 1 115 0
  89 0064 2078     		ldrb	r0, [r4]	@ zero_extendqisi2
  90 0066 46F25541 		movw	r1, #25685
  91 006a 0F4A     		ldr	r2, .L3+20
  92 006c 92B2     		uxth	r2, r2
  93 006e FFF7FEFF 		bl	CyDmaTdSetAddress
  94              	.LVL7:
 116:.\main.c      **** 	
 117:.\main.c      ****     /* Associate the TD with the channel */
 118:.\main.c      ****     CyDmaChSetInitialTd(RxDMA_Chan_0, RxDMA_TD_0[0]);
  95              		.loc 1 118 0
  96 0072 3878     		ldrb	r0, [r7]	@ zero_extendqisi2
  97 0074 2978     		ldrb	r1, [r5]	@ zero_extendqisi2
  98 0076 FFF7FEFF 		bl	CyDmaChSetInitialTd
  99              	.LVL8:
 119:.\main.c      **** 	CyDmaChSetInitialTd(RxDMA_Chan_1, RxDMA_TD_1[0]);
 100              		.loc 1 119 0
 101 007a 3078     		ldrb	r0, [r6]	@ zero_extendqisi2
 102 007c 2178     		ldrb	r1, [r4]	@ zero_extendqisi2
 103 007e FFF7FEFF 		bl	CyDmaChSetInitialTd
 104              	.LVL9:
 120:.\main.c      **** 	
 121:.\main.c      ****     /* Enable the channel */
 122:.\main.c      ****     CyDmaChEnable(RxDMA_Chan_0, 1);
 105              		.loc 1 122 0
 106 0082 3878     		ldrb	r0, [r7]	@ zero_extendqisi2
ARM GAS  C:\Users\Ian\AppData\Local\Temp\ccHsHZAT.s 			page 5


 107 0084 0121     		movs	r1, #1
 108 0086 FFF7FEFF 		bl	CyDmaChEnable
 109              	.LVL10:
 123:.\main.c      **** 	CyDmaChEnable(RxDMA_Chan_1, 1);
 110              		.loc 1 123 0
 111 008a 3078     		ldrb	r0, [r6]	@ zero_extendqisi2
 112 008c 0121     		movs	r1, #1
 113 008e FFF7FEFF 		bl	CyDmaChEnable
 114              	.LVL11:
 115 0092 F8BD     		pop	{r3, r4, r5, r6, r7, pc}
 116              	.L4:
 117              		.align	2
 118              	.L3:
 119 0094 00000000 		.word	RxDMA_Chan_0
 120 0098 00000000 		.word	RxDMA_Chan_1
 121 009c 00000000 		.word	RxDMA_TD_0
 122 00a0 00000000 		.word	RxDMA_TD_1
 123 00a4 00000000 		.word	ReceivedData
 124 00a8 00000000 		.word	dummy
 125              		.cfi_endproc
 126              	.LFE57:
 127              		.size	DmaRxConfiguration, .-DmaRxConfiguration
 128              		.section	.text.DmaTxConfiguration,"ax",%progbits
 129              		.align	2
 130              		.global	DmaTxConfiguration
 131              		.thumb
 132              		.thumb_func
 133              		.type	DmaTxConfiguration, %function
 134              	DmaTxConfiguration:
 135              	.LFB58:
 124:.\main.c      **** }
 125:.\main.c      **** 
 126:.\main.c      **** /* Tx DMA Config */
 127:.\main.c      **** void DmaTxConfiguration(void)
 128:.\main.c      **** {
 136              		.loc 1 128 0
 137              		.cfi_startproc
 138              		@ args = 0, pretend = 0, frame = 0
 139              		@ frame_needed = 0, uses_anonymous_args = 0
 140 0000 2DE9F041 		push	{r4, r5, r6, r7, r8, lr}
 141              		.cfi_def_cfa_offset 24
 142              		.cfi_offset 4, -24
 143              		.cfi_offset 5, -20
 144              		.cfi_offset 6, -16
 145              		.cfi_offset 7, -12
 146              		.cfi_offset 8, -8
 147              		.cfi_offset 14, -4
 129:.\main.c      ****     /* Init DMA, 2 byte bursts, each burst requires a request */
 130:.\main.c      ****     TxDMA_0_Chan = TxDMA_0_DmaInitialize(TxDMA_BYTES_PER_BURST, TxDMA_REQUEST_PER_BURST, 
 148              		.loc 1 130 0
 149 0004 0120     		movs	r0, #1
 150 0006 0146     		mov	r1, r0
 151 0008 41F6FF72 		movw	r2, #8191
 152 000c 4FF48043 		mov	r3, #16384
 153 0010 FFF7FEFF 		bl	TxDMA_0_DmaInitialize
 154              	.LVL12:
 155 0014 DFF89480 		ldr	r8, .L7+16
ARM GAS  C:\Users\Ian\AppData\Local\Temp\ccHsHZAT.s 			page 6


 156 0018 88F80000 		strb	r0, [r8]
 131:.\main.c      ****                                     HI16(TxDMA_SRC_BASE), HI16(TxDMA_DST_BASE));
 132:.\main.c      **** 	TxDMA_1_Chan = TxDMA_1_DmaInitialize(TxDMA_BYTES_PER_BURST, TxDMA_REQUEST_PER_BURST, 
 157              		.loc 1 132 0
 158 001c 0120     		movs	r0, #1
 159 001e 0146     		mov	r1, r0
 160 0020 41F6FF72 		movw	r2, #8191
 161 0024 4FF48043 		mov	r3, #16384
 162 0028 FFF7FEFF 		bl	TxDMA_1_DmaInitialize
 163              	.LVL13:
 164 002c 1B4F     		ldr	r7, .L7
 165 002e 3870     		strb	r0, [r7]
 133:.\main.c      ****                                     HI16(TxDMA_SRC_BASE), HI16(TxDMA_DST_BASE));
 134:.\main.c      **** 	
 135:.\main.c      ****     TxDMA_0_TD[0] = CyDmaTdAllocate();
 166              		.loc 1 135 0
 167 0030 FFF7FEFF 		bl	CyDmaTdAllocate
 168              	.LVL14:
 169 0034 1A4D     		ldr	r5, .L7+4
 170 0036 2870     		strb	r0, [r5]
 136:.\main.c      ****     TxDMA_1_TD[0] = CyDmaTdAllocate();
 171              		.loc 1 136 0
 172 0038 FFF7FEFF 		bl	CyDmaTdAllocate
 173              	.LVL15:
 174 003c 194C     		ldr	r4, .L7+8
 175 003e 2070     		strb	r0, [r4]
 137:.\main.c      **** 
 138:.\main.c      **** 	/* Configure this Td chain */
 139:.\main.c      **** 	CyDmaTdSetConfiguration(TxDMA_0_TD[0], 2*TRANSFER_COUNT, TxDMA_0_TD[0], TD_INC_SRC_ADR);
 176              		.loc 1 139 0
 177 0040 2A78     		ldrb	r2, [r5]	@ zero_extendqisi2
 178 0042 1046     		mov	r0, r2
 179 0044 6021     		movs	r1, #96
 180 0046 0123     		movs	r3, #1
 181 0048 FFF7FEFF 		bl	CyDmaTdSetConfiguration
 182              	.LVL16:
 140:.\main.c      ****     CyDmaTdSetConfiguration(TxDMA_1_TD[0], 2*TRANSFER_COUNT, TxDMA_1_TD[0], TD_INC_SRC_ADR);
 183              		.loc 1 140 0
 184 004c 2278     		ldrb	r2, [r4]	@ zero_extendqisi2
 185 004e 1046     		mov	r0, r2
 186 0050 6021     		movs	r1, #96
 187 0052 0123     		movs	r3, #1
 188 0054 FFF7FEFF 		bl	CyDmaTdSetConfiguration
 189              	.LVL17:
 141:.\main.c      **** 	
 142:.\main.c      **** 	/* From the ADC to the I2S */
 143:.\main.c      ****     CyDmaTdSetAddress(TxDMA_0_TD[0], LO16((uint32)signal), LO16((uint32)I2S_TX_CH0_F0_PTR));
 190              		.loc 1 143 0
 191 0058 134E     		ldr	r6, .L7+12
 192 005a B6B2     		uxth	r6, r6
 193 005c 2878     		ldrb	r0, [r5]	@ zero_extendqisi2
 194 005e 3146     		mov	r1, r6
 195 0060 46F24142 		movw	r2, #25665
 196 0064 FFF7FEFF 		bl	CyDmaTdSetAddress
 197              	.LVL18:
 144:.\main.c      ****     CyDmaTdSetAddress(TxDMA_1_TD[0], LO16((uint32)signal), LO16((uint32)I2S_TX_CH0_F1_PTR));
 198              		.loc 1 144 0
ARM GAS  C:\Users\Ian\AppData\Local\Temp\ccHsHZAT.s 			page 7


 199 0068 2078     		ldrb	r0, [r4]	@ zero_extendqisi2
 200 006a 3146     		mov	r1, r6
 201 006c 46F25142 		movw	r2, #25681
 202 0070 FFF7FEFF 		bl	CyDmaTdSetAddress
 203              	.LVL19:
 145:.\main.c      **** 
 146:.\main.c      **** 	/* Associate the TD with the channel */
 147:.\main.c      ****     CyDmaChSetInitialTd(TxDMA_0_Chan, TxDMA_0_TD[0]);
 204              		.loc 1 147 0
 205 0074 98F80000 		ldrb	r0, [r8]	@ zero_extendqisi2
 206 0078 2978     		ldrb	r1, [r5]	@ zero_extendqisi2
 207 007a FFF7FEFF 		bl	CyDmaChSetInitialTd
 208              	.LVL20:
 148:.\main.c      ****     CyDmaChSetInitialTd(TxDMA_1_Chan, TxDMA_1_TD[0]);
 209              		.loc 1 148 0
 210 007e 3878     		ldrb	r0, [r7]	@ zero_extendqisi2
 211 0080 2178     		ldrb	r1, [r4]	@ zero_extendqisi2
 212 0082 FFF7FEFF 		bl	CyDmaChSetInitialTd
 213              	.LVL21:
 149:.\main.c      **** 
 150:.\main.c      **** 	/* Enable the channel */
 151:.\main.c      ****     CyDmaChEnable(TxDMA_0_Chan, 1);
 214              		.loc 1 151 0
 215 0086 98F80000 		ldrb	r0, [r8]	@ zero_extendqisi2
 216 008a 0121     		movs	r1, #1
 217 008c FFF7FEFF 		bl	CyDmaChEnable
 218              	.LVL22:
 152:.\main.c      ****     CyDmaChEnable(TxDMA_1_Chan, 1);
 219              		.loc 1 152 0
 220 0090 3878     		ldrb	r0, [r7]	@ zero_extendqisi2
 221 0092 0121     		movs	r1, #1
 222 0094 FFF7FEFF 		bl	CyDmaChEnable
 223              	.LVL23:
 224 0098 BDE8F081 		pop	{r4, r5, r6, r7, r8, pc}
 225              	.L8:
 226              		.align	2
 227              	.L7:
 228 009c 00000000 		.word	TxDMA_1_Chan
 229 00a0 00000000 		.word	TxDMA_0_TD
 230 00a4 00000000 		.word	TxDMA_1_TD
 231 00a8 00000000 		.word	.LANCHOR0
 232 00ac 00000000 		.word	TxDMA_0_Chan
 233              		.cfi_endproc
 234              	.LFE58:
 235              		.size	DmaTxConfiguration, .-DmaTxConfiguration
 236              		.section	.text.main,"ax",%progbits
 237              		.align	2
 238              		.global	main
 239              		.thumb
 240              		.thumb_func
 241              		.type	main, %function
 242              	main:
 243              	.LFB56:
  56:.\main.c      **** 	uint32_t i = 0;
 244              		.loc 1 56 0
 245              		.cfi_startproc
 246              		@ args = 0, pretend = 0, frame = 16
ARM GAS  C:\Users\Ian\AppData\Local\Temp\ccHsHZAT.s 			page 8


 247              		@ frame_needed = 0, uses_anonymous_args = 0
 248              	.LVL24:
  60:.\main.c      **** 	
 249              		.loc 1 60 0
 250              	@ 60 ".\main.c" 1
 251 0000 62B6     		CPSIE   i
 252              	@ 0 "" 2
  63:.\main.c      **** 		ReceivedData[i] = 0;
 253              		.loc 1 63 0
 254              		.thumb
 255 0002 0023     		movs	r3, #0
 256 0004 04E0     		b	.L10
 257              	.LVL25:
 258              	.L11:
  64:.\main.c      **** 
 259              		.loc 1 64 0 discriminator 3
 260 0006 0021     		movs	r1, #0
 261 0008 1D4A     		ldr	r2, .L16
 262 000a 22F81310 		strh	r1, [r2, r3, lsl #1]	@ movhi
  63:.\main.c      **** 		ReceivedData[i] = 0;
 263              		.loc 1 63 0 discriminator 3
 264 000e 0133     		adds	r3, r3, #1
 265              	.LVL26:
 266              	.L10:
  63:.\main.c      **** 		ReceivedData[i] = 0;
 267              		.loc 1 63 0 is_stmt 0 discriminator 1
 268 0010 B3F5806F 		cmp	r3, #1024
 269 0014 F7D3     		bcc	.L11
  56:.\main.c      **** 	uint32_t i = 0;
 270              		.loc 1 56 0 is_stmt 1
 271 0016 70B5     		push	{r4, r5, r6, lr}
 272              		.cfi_def_cfa_offset 16
 273              		.cfi_offset 4, -16
 274              		.cfi_offset 5, -12
 275              		.cfi_offset 6, -8
 276              		.cfi_offset 14, -4
 277 0018 84B0     		sub	sp, sp, #16
 278              		.cfi_def_cfa_offset 32
  67:.\main.c      ****     DmaTxConfiguration();
 279              		.loc 1 67 0
 280 001a FFF7FEFF 		bl	DmaRxConfiguration
 281              	.LVL27:
  68:.\main.c      **** 	
 282              		.loc 1 68 0
 283 001e FFF7FEFF 		bl	DmaTxConfiguration
 284              	.LVL28:
  71:.\main.c      **** 	I2S_EnableRx();		/* Enable Rx direction */
 285              		.loc 1 71 0
 286 0022 FFF7FEFF 		bl	I2S_Start
 287              	.LVL29:
  72:.\main.c      ****     I2S_EnableTx();     /* Enable Tx direction */
 288              		.loc 1 72 0
 289 0026 FFF7FEFF 		bl	I2S_EnableRx
 290              	.LVL30:
  73:.\main.c      ****     	
 291              		.loc 1 73 0
 292 002a FFF7FEFF 		bl	I2S_EnableTx
ARM GAS  C:\Users\Ian\AppData\Local\Temp\ccHsHZAT.s 			page 9


 293              	.LVL31:
  75:.\main.c      **** 		
 294              		.loc 1 75 0
 295 002e 40F6B830 		movw	r0, #3000
 296 0032 FFF7FEFF 		bl	CyDelay
 297              	.LVL32:
  77:.\main.c      **** 	
 298              		.loc 1 77 0
 299 0036 FFF7FEFF 		bl	UART_Start
 300              	.LVL33:
  80:.\main.c      **** 	{
 301              		.loc 1 80 0
 302 003a 0024     		movs	r4, #0
 303 003c 1BE0     		b	.L12
 304              	.LVL34:
 305              	.L13:
 306              	.LBB2:
  82:.\main.c      **** 		uint8_t part2 = (ReceivedData[i] >> 0) & 0x00ff;		/* get second byte */
 307              		.loc 1 82 0 discriminator 3
 308 003e 104B     		ldr	r3, .L16
 309 0040 33F81420 		ldrh	r2, [r3, r4, lsl #1]
 310              	.LVL35:
  83:.\main.c      **** 		char part1_string[5];
 311              		.loc 1 83 0 discriminator 3
 312 0044 D6B2     		uxtb	r6, r2
 313              	.LVL36:
  86:.\main.c      **** 		sprintf(part2_string, "%02X", part2);
 314              		.loc 1 86 0 discriminator 3
 315 0046 0F4D     		ldr	r5, .L16+4
 316 0048 6846     		mov	r0, sp
 317 004a 2946     		mov	r1, r5
 318 004c 120A     		lsrs	r2, r2, #8
 319              	.LVL37:
 320 004e FFF7FEFF 		bl	sprintf
 321              	.LVL38:
  87:.\main.c      **** 		UART_PutString(part1_string);					
 322              		.loc 1 87 0 discriminator 3
 323 0052 02A8     		add	r0, sp, #8
 324 0054 2946     		mov	r1, r5
 325 0056 3246     		mov	r2, r6
 326 0058 FFF7FEFF 		bl	sprintf
 327              	.LVL39:
  88:.\main.c      **** 		UART_PutString(", ");							
 328              		.loc 1 88 0 discriminator 3
 329 005c 6846     		mov	r0, sp
 330 005e FFF7FEFF 		bl	UART_PutString
 331              	.LVL40:
  89:.\main.c      **** 		UART_PutString(part2_string);					
 332              		.loc 1 89 0 discriminator 3
 333 0062 0948     		ldr	r0, .L16+8
 334 0064 FFF7FEFF 		bl	UART_PutString
 335              	.LVL41:
  90:.\main.c      **** 		UART_PutString("\n\r");
 336              		.loc 1 90 0 discriminator 3
 337 0068 02A8     		add	r0, sp, #8
 338 006a FFF7FEFF 		bl	UART_PutString
 339              	.LVL42:
ARM GAS  C:\Users\Ian\AppData\Local\Temp\ccHsHZAT.s 			page 10


  91:.\main.c      **** 	}
 340              		.loc 1 91 0 discriminator 3
 341 006e 0748     		ldr	r0, .L16+12
 342 0070 FFF7FEFF 		bl	UART_PutString
 343              	.LVL43:
 344              	.LBE2:
  80:.\main.c      **** 	{
 345              		.loc 1 80 0 discriminator 3
 346 0074 0134     		adds	r4, r4, #1
 347              	.LVL44:
 348              	.L12:
  80:.\main.c      **** 	{
 349              		.loc 1 80 0 is_stmt 0 discriminator 1
 350 0076 B4F5806F 		cmp	r4, #1024
 351 007a E0D3     		bcc	.L13
 352              	.L14:
  94:.\main.c      **** }
 353              		.loc 1 94 0 is_stmt 1 discriminator 1
 354 007c FEE7     		b	.L14
 355              	.L17:
 356 007e 00BF     		.align	2
 357              	.L16:
 358 0080 00000000 		.word	ReceivedData
 359 0084 00000000 		.word	.LC0
 360 0088 08000000 		.word	.LC1
 361 008c 0C000000 		.word	.LC2
 362              		.cfi_endproc
 363              	.LFE56:
 364              		.size	main, .-main
 365              		.comm	dummy,2048,4
 366              		.comm	ReceivedData,2048,4
 367              		.global	signal
 368              		.comm	TxDMA_1_TD,1,4
 369              		.comm	TxDMA_1_Chan,1,1
 370              		.comm	TxDMA_0_TD,1,4
 371              		.comm	TxDMA_0_Chan,1,1
 372              		.comm	RxDMA_TD_1,1,4
 373              		.comm	RxDMA_Chan_1,1,1
 374              		.comm	RxDMA_TD_0,1,4
 375              		.comm	RxDMA_Chan_0,1,1
 376              		.data
 377              		.align	2
 378              		.set	.LANCHOR0,. + 0
 379              		.type	signal, %object
 380              		.size	signal, 96
 381              	signal:
 382 0000 0000     		.short	0
 383 0002 AB0A     		.short	2731
 384 0004 5515     		.short	5461
 385 0006 0020     		.short	8192
 386 0008 AB2A     		.short	10923
 387 000a 5535     		.short	13653
 388 000c 0040     		.short	16384
 389 000e AA4A     		.short	19114
 390 0010 5555     		.short	21845
 391 0012 0060     		.short	24576
 392 0014 AA6A     		.short	27306
ARM GAS  C:\Users\Ian\AppData\Local\Temp\ccHsHZAT.s 			page 11


 393 0016 5575     		.short	30037
 394 0018 0080     		.short	-32768
 395 001a AA8A     		.short	-30038
 396 001c 5595     		.short	-27307
 397 001e FF9F     		.short	-24577
 398 0020 AAAA     		.short	-21846
 399 0022 55B5     		.short	-19115
 400 0024 FFBF     		.short	-16385
 401 0026 AACA     		.short	-13654
 402 0028 54D5     		.short	-10924
 403 002a FFDF     		.short	-8193
 404 002c AAEA     		.short	-5462
 405 002e 54F5     		.short	-2732
 406 0030 FFFF     		.short	-1
 407 0032 54F5     		.short	-2732
 408 0034 AAEA     		.short	-5462
 409 0036 FFDF     		.short	-8193
 410 0038 55D5     		.short	-10923
 411 003a AACA     		.short	-13654
 412 003c FFBF     		.short	-16385
 413 003e 55B5     		.short	-19115
 414 0040 AAAA     		.short	-21846
 415 0042 FF9F     		.short	-24577
 416 0044 5595     		.short	-27307
 417 0046 AA8A     		.short	-30038
 418 0048 0080     		.short	-32768
 419 004a 5575     		.short	30037
 420 004c AA6A     		.short	27306
 421 004e 0060     		.short	24576
 422 0050 5555     		.short	21845
 423 0052 AA4A     		.short	19114
 424 0054 0040     		.short	16384
 425 0056 5535     		.short	13653
 426 0058 AB2A     		.short	10923
 427 005a 0020     		.short	8192
 428 005c 5515     		.short	5461
 429 005e AB0A     		.short	2731
 430              		.section	.rodata.str1.4,"aMS",%progbits,1
 431              		.align	2
 432              	.LC0:
 433 0000 25303258 		.ascii	"%02X\000"
 433      00
 434 0005 000000   		.space	3
 435              	.LC1:
 436 0008 2C2000   		.ascii	", \000"
 437 000b 00       		.space	1
 438              	.LC2:
 439 000c 0A0D00   		.ascii	"\012\015\000"
 440 000f 00       		.text
 441              	.Letext0:
 442              		.file 2 "c:\\program files (x86)\\cypress\\psoc creator\\3.3\\psoc creator\\import\\gnu\\arm\\4.9.
 443              		.file 3 "c:\\program files (x86)\\cypress\\psoc creator\\3.3\\psoc creator\\import\\gnu\\arm\\4.9.
 444              		.file 4 "Generated_Source\\PSoC5/cytypes.h"
 445              		.file 5 "Generated_Source\\PSoC5/core_cm3.h"
 446              		.file 6 "Generated_Source\\PSoC5/RxDMA_0_dma.h"
 447              		.file 7 "Generated_Source\\PSoC5/RxDMA_1_dma.h"
 448              		.file 8 "Generated_Source\\PSoC5/CYDMAC.H"
ARM GAS  C:\Users\Ian\AppData\Local\Temp\ccHsHZAT.s 			page 12


 449              		.file 9 "Generated_Source\\PSoC5/TxDMA_0_dma.h"
 450              		.file 10 "Generated_Source\\PSoC5/TxDMA_1_dma.h"
 451              		.file 11 "c:\\program files (x86)\\cypress\\psoc creator\\3.3\\psoc creator\\import\\gnu\\arm\\4.9
 452              		.file 12 "Generated_Source\\PSoC5/I2S.h"
 453              		.file 13 "Generated_Source\\PSoC5/UART.h"
 454              		.file 14 "Generated_Source\\PSoC5/CyLib.h"