ARM GAS  C:\Users\Ian\AppData\Local\Temp\ccURMmQY.s 			page 1


   1              		.syntax unified
   2              		.cpu cortex-m3
   3              		.fpu softvfp
   4              		.eabi_attribute 20, 1
   5              		.eabi_attribute 21, 1
   6              		.eabi_attribute 23, 3
   7              		.eabi_attribute 24, 1
   8              		.eabi_attribute 25, 1
   9              		.eabi_attribute 26, 1
  10              		.eabi_attribute 30, 1
  11              		.eabi_attribute 34, 1
  12              		.eabi_attribute 18, 4
  13              		.thumb
  14              		.file	"USBFS_1_drv.c"
  15              		.text
  16              	.Ltext0:
  17              		.cfi_sections	.debug_frame
  18              		.section	.text.USBFS_1_LoadEP0,"ax",%progbits
  19              		.align	2
  20              		.global	USBFS_1_LoadEP0
  21              		.thumb
  22              		.thumb_func
  23              		.type	USBFS_1_LoadEP0, %function
  24              	USBFS_1_LoadEP0:
  25              	.LFB4:
  26              		.file 1 ".\\Generated_Source\\PSoC5\\USBFS_1_drv.c"
   1:.\Generated_Source\PSoC5/USBFS_1_drv.c **** /*******************************************************************************
   2:.\Generated_Source\PSoC5/USBFS_1_drv.c **** * File Name: USBFS_1_drv.c
   3:.\Generated_Source\PSoC5/USBFS_1_drv.c **** * Version 2.80
   4:.\Generated_Source\PSoC5/USBFS_1_drv.c **** *
   5:.\Generated_Source\PSoC5/USBFS_1_drv.c **** * Description:
   6:.\Generated_Source\PSoC5/USBFS_1_drv.c **** *  Endpoint 0 Driver for the USBFS Component.
   7:.\Generated_Source\PSoC5/USBFS_1_drv.c **** *
   8:.\Generated_Source\PSoC5/USBFS_1_drv.c **** * Note:
   9:.\Generated_Source\PSoC5/USBFS_1_drv.c **** *
  10:.\Generated_Source\PSoC5/USBFS_1_drv.c **** ********************************************************************************
  11:.\Generated_Source\PSoC5/USBFS_1_drv.c **** * Copyright 2008-2014, Cypress Semiconductor Corporation.  All rights reserved.
  12:.\Generated_Source\PSoC5/USBFS_1_drv.c **** * You may use this file only in accordance with the license, terms, conditions,
  13:.\Generated_Source\PSoC5/USBFS_1_drv.c **** * disclaimers, and limitations in the end user license agreement accompanying
  14:.\Generated_Source\PSoC5/USBFS_1_drv.c **** * the software package with which this file was provided.
  15:.\Generated_Source\PSoC5/USBFS_1_drv.c **** *******************************************************************************/
  16:.\Generated_Source\PSoC5/USBFS_1_drv.c **** 
  17:.\Generated_Source\PSoC5/USBFS_1_drv.c **** #include "USBFS_1.h"
  18:.\Generated_Source\PSoC5/USBFS_1_drv.c **** #include "USBFS_1_pvt.h"
  19:.\Generated_Source\PSoC5/USBFS_1_drv.c **** 
  20:.\Generated_Source\PSoC5/USBFS_1_drv.c **** 
  21:.\Generated_Source\PSoC5/USBFS_1_drv.c **** 
  22:.\Generated_Source\PSoC5/USBFS_1_drv.c **** /***************************************
  23:.\Generated_Source\PSoC5/USBFS_1_drv.c **** * Global data allocation
  24:.\Generated_Source\PSoC5/USBFS_1_drv.c **** ***************************************/
  25:.\Generated_Source\PSoC5/USBFS_1_drv.c **** 
  26:.\Generated_Source\PSoC5/USBFS_1_drv.c **** volatile T_USBFS_1_EP_CTL_BLOCK USBFS_1_EP[USBFS_1_MAX_EP];
  27:.\Generated_Source\PSoC5/USBFS_1_drv.c **** volatile uint8 USBFS_1_configuration;
  28:.\Generated_Source\PSoC5/USBFS_1_drv.c **** volatile uint8 USBFS_1_interfaceNumber;
  29:.\Generated_Source\PSoC5/USBFS_1_drv.c **** volatile uint8 USBFS_1_configurationChanged;
  30:.\Generated_Source\PSoC5/USBFS_1_drv.c **** volatile uint8 USBFS_1_deviceAddress;
  31:.\Generated_Source\PSoC5/USBFS_1_drv.c **** volatile uint8 USBFS_1_deviceStatus;
ARM GAS  C:\Users\Ian\AppData\Local\Temp\ccURMmQY.s 			page 2


  32:.\Generated_Source\PSoC5/USBFS_1_drv.c **** volatile uint8 USBFS_1_interfaceSetting[USBFS_1_MAX_INTERFACES_NUMBER];
  33:.\Generated_Source\PSoC5/USBFS_1_drv.c **** volatile uint8 USBFS_1_interfaceSetting_last[USBFS_1_MAX_INTERFACES_NUMBER];
  34:.\Generated_Source\PSoC5/USBFS_1_drv.c **** volatile uint8 USBFS_1_interfaceStatus[USBFS_1_MAX_INTERFACES_NUMBER];
  35:.\Generated_Source\PSoC5/USBFS_1_drv.c **** volatile uint8 USBFS_1_device;
  36:.\Generated_Source\PSoC5/USBFS_1_drv.c **** const uint8 CYCODE *USBFS_1_interfaceClass;
  37:.\Generated_Source\PSoC5/USBFS_1_drv.c **** 
  38:.\Generated_Source\PSoC5/USBFS_1_drv.c **** 
  39:.\Generated_Source\PSoC5/USBFS_1_drv.c **** /***************************************
  40:.\Generated_Source\PSoC5/USBFS_1_drv.c **** * Local data allocation
  41:.\Generated_Source\PSoC5/USBFS_1_drv.c **** ***************************************/
  42:.\Generated_Source\PSoC5/USBFS_1_drv.c **** 
  43:.\Generated_Source\PSoC5/USBFS_1_drv.c **** volatile uint8 USBFS_1_ep0Toggle;
  44:.\Generated_Source\PSoC5/USBFS_1_drv.c **** volatile uint8 USBFS_1_lastPacketSize;
  45:.\Generated_Source\PSoC5/USBFS_1_drv.c **** volatile uint8 USBFS_1_transferState;
  46:.\Generated_Source\PSoC5/USBFS_1_drv.c **** volatile T_USBFS_1_TD USBFS_1_currentTD;
  47:.\Generated_Source\PSoC5/USBFS_1_drv.c **** volatile uint8 USBFS_1_ep0Mode;
  48:.\Generated_Source\PSoC5/USBFS_1_drv.c **** volatile uint8 USBFS_1_ep0Count;
  49:.\Generated_Source\PSoC5/USBFS_1_drv.c **** volatile uint16 USBFS_1_transferByteCount;
  50:.\Generated_Source\PSoC5/USBFS_1_drv.c **** 
  51:.\Generated_Source\PSoC5/USBFS_1_drv.c **** 
  52:.\Generated_Source\PSoC5/USBFS_1_drv.c **** /*******************************************************************************
  53:.\Generated_Source\PSoC5/USBFS_1_drv.c **** * Function Name: USBFS_1_ep_0_Interrupt
  54:.\Generated_Source\PSoC5/USBFS_1_drv.c **** ********************************************************************************
  55:.\Generated_Source\PSoC5/USBFS_1_drv.c **** *
  56:.\Generated_Source\PSoC5/USBFS_1_drv.c **** * Summary:
  57:.\Generated_Source\PSoC5/USBFS_1_drv.c **** *  This Interrupt Service Routine handles Endpoint 0 (Control Pipe) traffic.
  58:.\Generated_Source\PSoC5/USBFS_1_drv.c **** *  It dispatches setup requests and handles the data and status stages.
  59:.\Generated_Source\PSoC5/USBFS_1_drv.c **** *
  60:.\Generated_Source\PSoC5/USBFS_1_drv.c **** * Parameters:
  61:.\Generated_Source\PSoC5/USBFS_1_drv.c **** *  None.
  62:.\Generated_Source\PSoC5/USBFS_1_drv.c **** *
  63:.\Generated_Source\PSoC5/USBFS_1_drv.c **** * Return:
  64:.\Generated_Source\PSoC5/USBFS_1_drv.c **** *  None.
  65:.\Generated_Source\PSoC5/USBFS_1_drv.c **** *
  66:.\Generated_Source\PSoC5/USBFS_1_drv.c **** *******************************************************************************/
  67:.\Generated_Source\PSoC5/USBFS_1_drv.c **** CY_ISR(USBFS_1_EP_0_ISR)
  68:.\Generated_Source\PSoC5/USBFS_1_drv.c **** {
  69:.\Generated_Source\PSoC5/USBFS_1_drv.c ****     uint8 bRegTemp;
  70:.\Generated_Source\PSoC5/USBFS_1_drv.c ****     uint8 modifyReg;
  71:.\Generated_Source\PSoC5/USBFS_1_drv.c **** 
  72:.\Generated_Source\PSoC5/USBFS_1_drv.c ****     #ifdef USBFS_1_EP_0_ISR_ENTRY_CALLBACK
  73:.\Generated_Source\PSoC5/USBFS_1_drv.c ****         USBFS_1_EP_0_ISR_EntryCallback();
  74:.\Generated_Source\PSoC5/USBFS_1_drv.c ****     #endif /* USBFS_1_EP_0_ISR_ENTRY_CALLBACK */
  75:.\Generated_Source\PSoC5/USBFS_1_drv.c ****     
  76:.\Generated_Source\PSoC5/USBFS_1_drv.c ****     bRegTemp = CY_GET_REG8(USBFS_1_EP0_CR_PTR);
  77:.\Generated_Source\PSoC5/USBFS_1_drv.c ****     if ((bRegTemp & USBFS_1_MODE_ACKD) != 0u)
  78:.\Generated_Source\PSoC5/USBFS_1_drv.c ****     {
  79:.\Generated_Source\PSoC5/USBFS_1_drv.c ****         modifyReg = 1u;
  80:.\Generated_Source\PSoC5/USBFS_1_drv.c ****         if ((bRegTemp & USBFS_1_MODE_SETUP_RCVD) != 0u)
  81:.\Generated_Source\PSoC5/USBFS_1_drv.c ****         {
  82:.\Generated_Source\PSoC5/USBFS_1_drv.c ****             if((bRegTemp & USBFS_1_MODE_MASK) != USBFS_1_MODE_NAK_IN_OUT)
  83:.\Generated_Source\PSoC5/USBFS_1_drv.c ****             {
  84:.\Generated_Source\PSoC5/USBFS_1_drv.c ****                 modifyReg = 0u;                                     /* When mode not NAK_IN_OUT => 
  85:.\Generated_Source\PSoC5/USBFS_1_drv.c ****             }
  86:.\Generated_Source\PSoC5/USBFS_1_drv.c ****             else
  87:.\Generated_Source\PSoC5/USBFS_1_drv.c ****             {
  88:.\Generated_Source\PSoC5/USBFS_1_drv.c ****                 USBFS_1_HandleSetup();
ARM GAS  C:\Users\Ian\AppData\Local\Temp\ccURMmQY.s 			page 3


  89:.\Generated_Source\PSoC5/USBFS_1_drv.c ****                 if((USBFS_1_ep0Mode & USBFS_1_MODE_SETUP_RCVD) != 0u)
  90:.\Generated_Source\PSoC5/USBFS_1_drv.c ****                 {
  91:.\Generated_Source\PSoC5/USBFS_1_drv.c ****                     modifyReg = 0u;                         /* if SETUP bit set -> exit without mod
  92:.\Generated_Source\PSoC5/USBFS_1_drv.c ****                 }
  93:.\Generated_Source\PSoC5/USBFS_1_drv.c **** 
  94:.\Generated_Source\PSoC5/USBFS_1_drv.c ****             }
  95:.\Generated_Source\PSoC5/USBFS_1_drv.c ****         }
  96:.\Generated_Source\PSoC5/USBFS_1_drv.c ****         else if ((bRegTemp & USBFS_1_MODE_IN_RCVD) != 0u)
  97:.\Generated_Source\PSoC5/USBFS_1_drv.c ****         {
  98:.\Generated_Source\PSoC5/USBFS_1_drv.c ****             USBFS_1_HandleIN();
  99:.\Generated_Source\PSoC5/USBFS_1_drv.c ****         }
 100:.\Generated_Source\PSoC5/USBFS_1_drv.c ****         else if ((bRegTemp & USBFS_1_MODE_OUT_RCVD) != 0u)
 101:.\Generated_Source\PSoC5/USBFS_1_drv.c ****         {
 102:.\Generated_Source\PSoC5/USBFS_1_drv.c ****             USBFS_1_HandleOUT();
 103:.\Generated_Source\PSoC5/USBFS_1_drv.c ****         }
 104:.\Generated_Source\PSoC5/USBFS_1_drv.c ****         else
 105:.\Generated_Source\PSoC5/USBFS_1_drv.c ****         {
 106:.\Generated_Source\PSoC5/USBFS_1_drv.c ****             modifyReg = 0u;
 107:.\Generated_Source\PSoC5/USBFS_1_drv.c ****         }
 108:.\Generated_Source\PSoC5/USBFS_1_drv.c ****         if(modifyReg != 0u)
 109:.\Generated_Source\PSoC5/USBFS_1_drv.c ****         {
 110:.\Generated_Source\PSoC5/USBFS_1_drv.c ****             bRegTemp = CY_GET_REG8(USBFS_1_EP0_CR_PTR);    /* unlock registers */
 111:.\Generated_Source\PSoC5/USBFS_1_drv.c ****             if((bRegTemp & USBFS_1_MODE_SETUP_RCVD) == 0u)  /* Check if SETUP bit is not set, other
 112:.\Generated_Source\PSoC5/USBFS_1_drv.c ****             {
 113:.\Generated_Source\PSoC5/USBFS_1_drv.c ****                 /* Update the count register */
 114:.\Generated_Source\PSoC5/USBFS_1_drv.c ****                 bRegTemp = USBFS_1_ep0Toggle | USBFS_1_ep0Count;
 115:.\Generated_Source\PSoC5/USBFS_1_drv.c ****                 CY_SET_REG8(USBFS_1_EP0_CNT_PTR, bRegTemp);
 116:.\Generated_Source\PSoC5/USBFS_1_drv.c ****                 if(bRegTemp == CY_GET_REG8(USBFS_1_EP0_CNT_PTR))   /* continue if writing was succe
 117:.\Generated_Source\PSoC5/USBFS_1_drv.c ****                 {
 118:.\Generated_Source\PSoC5/USBFS_1_drv.c ****                     do
 119:.\Generated_Source\PSoC5/USBFS_1_drv.c ****                     {
 120:.\Generated_Source\PSoC5/USBFS_1_drv.c ****                         modifyReg = USBFS_1_ep0Mode;       /* Init temporary variable */
 121:.\Generated_Source\PSoC5/USBFS_1_drv.c ****                         /* Unlock registers */
 122:.\Generated_Source\PSoC5/USBFS_1_drv.c ****                         bRegTemp = CY_GET_REG8(USBFS_1_EP0_CR_PTR) & USBFS_1_MODE_SETUP_RCVD;
 123:.\Generated_Source\PSoC5/USBFS_1_drv.c ****                         if(bRegTemp == 0u)                          /* Check if SETUP bit is not se
 124:.\Generated_Source\PSoC5/USBFS_1_drv.c ****                         {
 125:.\Generated_Source\PSoC5/USBFS_1_drv.c ****                             /* Set the Mode Register  */
 126:.\Generated_Source\PSoC5/USBFS_1_drv.c ****                             CY_SET_REG8(USBFS_1_EP0_CR_PTR, USBFS_1_ep0Mode);
 127:.\Generated_Source\PSoC5/USBFS_1_drv.c ****                             /* Writing check */
 128:.\Generated_Source\PSoC5/USBFS_1_drv.c ****                             modifyReg = CY_GET_REG8(USBFS_1_EP0_CR_PTR) & USBFS_1_MODE_MASK;
 129:.\Generated_Source\PSoC5/USBFS_1_drv.c ****                         }
 130:.\Generated_Source\PSoC5/USBFS_1_drv.c ****                     }while(modifyReg != USBFS_1_ep0Mode);  /* Repeat if writing was not successful 
 131:.\Generated_Source\PSoC5/USBFS_1_drv.c ****                 }
 132:.\Generated_Source\PSoC5/USBFS_1_drv.c ****             }
 133:.\Generated_Source\PSoC5/USBFS_1_drv.c ****         }
 134:.\Generated_Source\PSoC5/USBFS_1_drv.c ****     }
 135:.\Generated_Source\PSoC5/USBFS_1_drv.c ****     #ifdef USBFS_1_EP_0_ISR_EXIT_CALLBACK
 136:.\Generated_Source\PSoC5/USBFS_1_drv.c ****         USBFS_1_EP_0_ISR_ExitCallback();
 137:.\Generated_Source\PSoC5/USBFS_1_drv.c ****     #endif /* USBFS_1_EP_0_ISR_EXIT_CALLBACK */
 138:.\Generated_Source\PSoC5/USBFS_1_drv.c **** }
 139:.\Generated_Source\PSoC5/USBFS_1_drv.c **** 
 140:.\Generated_Source\PSoC5/USBFS_1_drv.c **** 
 141:.\Generated_Source\PSoC5/USBFS_1_drv.c **** /*******************************************************************************
 142:.\Generated_Source\PSoC5/USBFS_1_drv.c **** * Function Name: USBFS_1_HandleSetup
 143:.\Generated_Source\PSoC5/USBFS_1_drv.c **** ********************************************************************************
 144:.\Generated_Source\PSoC5/USBFS_1_drv.c **** *
 145:.\Generated_Source\PSoC5/USBFS_1_drv.c **** * Summary:
ARM GAS  C:\Users\Ian\AppData\Local\Temp\ccURMmQY.s 			page 4


 146:.\Generated_Source\PSoC5/USBFS_1_drv.c **** *  This Routine dispatches requests for the four USB request types
 147:.\Generated_Source\PSoC5/USBFS_1_drv.c **** *
 148:.\Generated_Source\PSoC5/USBFS_1_drv.c **** * Parameters:
 149:.\Generated_Source\PSoC5/USBFS_1_drv.c **** *  None.
 150:.\Generated_Source\PSoC5/USBFS_1_drv.c **** *
 151:.\Generated_Source\PSoC5/USBFS_1_drv.c **** * Return:
 152:.\Generated_Source\PSoC5/USBFS_1_drv.c **** *  None.
 153:.\Generated_Source\PSoC5/USBFS_1_drv.c **** *
 154:.\Generated_Source\PSoC5/USBFS_1_drv.c **** * Reentrant:
 155:.\Generated_Source\PSoC5/USBFS_1_drv.c **** *  No.
 156:.\Generated_Source\PSoC5/USBFS_1_drv.c **** *
 157:.\Generated_Source\PSoC5/USBFS_1_drv.c **** *******************************************************************************/
 158:.\Generated_Source\PSoC5/USBFS_1_drv.c **** void USBFS_1_HandleSetup(void) 
 159:.\Generated_Source\PSoC5/USBFS_1_drv.c **** {
 160:.\Generated_Source\PSoC5/USBFS_1_drv.c ****     uint8 requestHandled;
 161:.\Generated_Source\PSoC5/USBFS_1_drv.c **** 
 162:.\Generated_Source\PSoC5/USBFS_1_drv.c ****     requestHandled = CY_GET_REG8(USBFS_1_EP0_CR_PTR);      /* unlock registers */
 163:.\Generated_Source\PSoC5/USBFS_1_drv.c ****     CY_SET_REG8(USBFS_1_EP0_CR_PTR, requestHandled);       /* clear setup bit */
 164:.\Generated_Source\PSoC5/USBFS_1_drv.c ****     requestHandled = CY_GET_REG8(USBFS_1_EP0_CR_PTR);      /* reread register */
 165:.\Generated_Source\PSoC5/USBFS_1_drv.c ****     if((requestHandled & USBFS_1_MODE_SETUP_RCVD) != 0u)
 166:.\Generated_Source\PSoC5/USBFS_1_drv.c ****     {
 167:.\Generated_Source\PSoC5/USBFS_1_drv.c ****         USBFS_1_ep0Mode = requestHandled;        /* if SETUP bit set -> exit without modifying the 
 168:.\Generated_Source\PSoC5/USBFS_1_drv.c ****     }
 169:.\Generated_Source\PSoC5/USBFS_1_drv.c ****     else
 170:.\Generated_Source\PSoC5/USBFS_1_drv.c ****     {
 171:.\Generated_Source\PSoC5/USBFS_1_drv.c ****         /* In case the previous transfer did not complete, close it out */
 172:.\Generated_Source\PSoC5/USBFS_1_drv.c ****         USBFS_1_UpdateStatusBlock(USBFS_1_XFER_PREMATURE);
 173:.\Generated_Source\PSoC5/USBFS_1_drv.c **** 
 174:.\Generated_Source\PSoC5/USBFS_1_drv.c ****         switch (CY_GET_REG8(USBFS_1_bmRequestType) & USBFS_1_RQST_TYPE_MASK)
 175:.\Generated_Source\PSoC5/USBFS_1_drv.c ****         {
 176:.\Generated_Source\PSoC5/USBFS_1_drv.c ****             case USBFS_1_RQST_TYPE_STD:
 177:.\Generated_Source\PSoC5/USBFS_1_drv.c ****                 requestHandled = USBFS_1_HandleStandardRqst();
 178:.\Generated_Source\PSoC5/USBFS_1_drv.c ****                 break;
 179:.\Generated_Source\PSoC5/USBFS_1_drv.c ****             case USBFS_1_RQST_TYPE_CLS:
 180:.\Generated_Source\PSoC5/USBFS_1_drv.c ****                 requestHandled = USBFS_1_DispatchClassRqst();
 181:.\Generated_Source\PSoC5/USBFS_1_drv.c ****                 break;
 182:.\Generated_Source\PSoC5/USBFS_1_drv.c ****             case USBFS_1_RQST_TYPE_VND:
 183:.\Generated_Source\PSoC5/USBFS_1_drv.c ****                 requestHandled = USBFS_1_HandleVendorRqst();
 184:.\Generated_Source\PSoC5/USBFS_1_drv.c ****                 break;
 185:.\Generated_Source\PSoC5/USBFS_1_drv.c ****             default:
 186:.\Generated_Source\PSoC5/USBFS_1_drv.c ****                 requestHandled = USBFS_1_FALSE;
 187:.\Generated_Source\PSoC5/USBFS_1_drv.c ****                 break;
 188:.\Generated_Source\PSoC5/USBFS_1_drv.c ****         }
 189:.\Generated_Source\PSoC5/USBFS_1_drv.c ****         if (requestHandled == USBFS_1_FALSE)
 190:.\Generated_Source\PSoC5/USBFS_1_drv.c ****         {
 191:.\Generated_Source\PSoC5/USBFS_1_drv.c ****             USBFS_1_ep0Mode = USBFS_1_MODE_STALL_IN_OUT;
 192:.\Generated_Source\PSoC5/USBFS_1_drv.c ****         }
 193:.\Generated_Source\PSoC5/USBFS_1_drv.c ****     }
 194:.\Generated_Source\PSoC5/USBFS_1_drv.c **** }
 195:.\Generated_Source\PSoC5/USBFS_1_drv.c **** 
 196:.\Generated_Source\PSoC5/USBFS_1_drv.c **** 
 197:.\Generated_Source\PSoC5/USBFS_1_drv.c **** /*******************************************************************************
 198:.\Generated_Source\PSoC5/USBFS_1_drv.c **** * Function Name: USBFS_1_HandleIN
 199:.\Generated_Source\PSoC5/USBFS_1_drv.c **** ********************************************************************************
 200:.\Generated_Source\PSoC5/USBFS_1_drv.c **** *
 201:.\Generated_Source\PSoC5/USBFS_1_drv.c **** * Summary:
 202:.\Generated_Source\PSoC5/USBFS_1_drv.c **** *  This routine handles EP0 IN transfers.
ARM GAS  C:\Users\Ian\AppData\Local\Temp\ccURMmQY.s 			page 5


 203:.\Generated_Source\PSoC5/USBFS_1_drv.c **** *
 204:.\Generated_Source\PSoC5/USBFS_1_drv.c **** * Parameters:
 205:.\Generated_Source\PSoC5/USBFS_1_drv.c **** *  None.
 206:.\Generated_Source\PSoC5/USBFS_1_drv.c **** *
 207:.\Generated_Source\PSoC5/USBFS_1_drv.c **** * Return:
 208:.\Generated_Source\PSoC5/USBFS_1_drv.c **** *  None.
 209:.\Generated_Source\PSoC5/USBFS_1_drv.c **** *
 210:.\Generated_Source\PSoC5/USBFS_1_drv.c **** * Reentrant:
 211:.\Generated_Source\PSoC5/USBFS_1_drv.c **** *  No.
 212:.\Generated_Source\PSoC5/USBFS_1_drv.c **** *
 213:.\Generated_Source\PSoC5/USBFS_1_drv.c **** *******************************************************************************/
 214:.\Generated_Source\PSoC5/USBFS_1_drv.c **** void USBFS_1_HandleIN(void) 
 215:.\Generated_Source\PSoC5/USBFS_1_drv.c **** {
 216:.\Generated_Source\PSoC5/USBFS_1_drv.c ****     switch (USBFS_1_transferState)
 217:.\Generated_Source\PSoC5/USBFS_1_drv.c ****     {
 218:.\Generated_Source\PSoC5/USBFS_1_drv.c ****         case USBFS_1_TRANS_STATE_IDLE:
 219:.\Generated_Source\PSoC5/USBFS_1_drv.c ****             break;
 220:.\Generated_Source\PSoC5/USBFS_1_drv.c ****         case USBFS_1_TRANS_STATE_CONTROL_READ:
 221:.\Generated_Source\PSoC5/USBFS_1_drv.c ****             USBFS_1_ControlReadDataStage();
 222:.\Generated_Source\PSoC5/USBFS_1_drv.c ****             break;
 223:.\Generated_Source\PSoC5/USBFS_1_drv.c ****         case USBFS_1_TRANS_STATE_CONTROL_WRITE:
 224:.\Generated_Source\PSoC5/USBFS_1_drv.c ****             USBFS_1_ControlWriteStatusStage();
 225:.\Generated_Source\PSoC5/USBFS_1_drv.c ****             break;
 226:.\Generated_Source\PSoC5/USBFS_1_drv.c ****         case USBFS_1_TRANS_STATE_NO_DATA_CONTROL:
 227:.\Generated_Source\PSoC5/USBFS_1_drv.c ****             USBFS_1_NoDataControlStatusStage();
 228:.\Generated_Source\PSoC5/USBFS_1_drv.c ****             break;
 229:.\Generated_Source\PSoC5/USBFS_1_drv.c ****         default:    /* there are no more states */
 230:.\Generated_Source\PSoC5/USBFS_1_drv.c ****             break;
 231:.\Generated_Source\PSoC5/USBFS_1_drv.c ****     }
 232:.\Generated_Source\PSoC5/USBFS_1_drv.c **** }
 233:.\Generated_Source\PSoC5/USBFS_1_drv.c **** 
 234:.\Generated_Source\PSoC5/USBFS_1_drv.c **** 
 235:.\Generated_Source\PSoC5/USBFS_1_drv.c **** /*******************************************************************************
 236:.\Generated_Source\PSoC5/USBFS_1_drv.c **** * Function Name: USBFS_1_HandleOUT
 237:.\Generated_Source\PSoC5/USBFS_1_drv.c **** ********************************************************************************
 238:.\Generated_Source\PSoC5/USBFS_1_drv.c **** *
 239:.\Generated_Source\PSoC5/USBFS_1_drv.c **** * Summary:
 240:.\Generated_Source\PSoC5/USBFS_1_drv.c **** *  This routine handles EP0 OUT transfers.
 241:.\Generated_Source\PSoC5/USBFS_1_drv.c **** *
 242:.\Generated_Source\PSoC5/USBFS_1_drv.c **** * Parameters:
 243:.\Generated_Source\PSoC5/USBFS_1_drv.c **** *  None.
 244:.\Generated_Source\PSoC5/USBFS_1_drv.c **** *
 245:.\Generated_Source\PSoC5/USBFS_1_drv.c **** * Return:
 246:.\Generated_Source\PSoC5/USBFS_1_drv.c **** *  None.
 247:.\Generated_Source\PSoC5/USBFS_1_drv.c **** *
 248:.\Generated_Source\PSoC5/USBFS_1_drv.c **** * Reentrant:
 249:.\Generated_Source\PSoC5/USBFS_1_drv.c **** *  No.
 250:.\Generated_Source\PSoC5/USBFS_1_drv.c **** *
 251:.\Generated_Source\PSoC5/USBFS_1_drv.c **** *******************************************************************************/
 252:.\Generated_Source\PSoC5/USBFS_1_drv.c **** void USBFS_1_HandleOUT(void) 
 253:.\Generated_Source\PSoC5/USBFS_1_drv.c **** {
 254:.\Generated_Source\PSoC5/USBFS_1_drv.c ****     switch (USBFS_1_transferState)
 255:.\Generated_Source\PSoC5/USBFS_1_drv.c ****     {
 256:.\Generated_Source\PSoC5/USBFS_1_drv.c ****         case USBFS_1_TRANS_STATE_IDLE:
 257:.\Generated_Source\PSoC5/USBFS_1_drv.c ****             break;
 258:.\Generated_Source\PSoC5/USBFS_1_drv.c ****         case USBFS_1_TRANS_STATE_CONTROL_READ:
 259:.\Generated_Source\PSoC5/USBFS_1_drv.c ****             USBFS_1_ControlReadStatusStage();
ARM GAS  C:\Users\Ian\AppData\Local\Temp\ccURMmQY.s 			page 6


 260:.\Generated_Source\PSoC5/USBFS_1_drv.c ****             break;
 261:.\Generated_Source\PSoC5/USBFS_1_drv.c ****         case USBFS_1_TRANS_STATE_CONTROL_WRITE:
 262:.\Generated_Source\PSoC5/USBFS_1_drv.c ****             USBFS_1_ControlWriteDataStage();
 263:.\Generated_Source\PSoC5/USBFS_1_drv.c ****             break;
 264:.\Generated_Source\PSoC5/USBFS_1_drv.c ****         case USBFS_1_TRANS_STATE_NO_DATA_CONTROL:
 265:.\Generated_Source\PSoC5/USBFS_1_drv.c ****             /* Update the completion block */
 266:.\Generated_Source\PSoC5/USBFS_1_drv.c ****             USBFS_1_UpdateStatusBlock(USBFS_1_XFER_ERROR);
 267:.\Generated_Source\PSoC5/USBFS_1_drv.c ****             /* We expect no more data, so stall INs and OUTs */
 268:.\Generated_Source\PSoC5/USBFS_1_drv.c ****             USBFS_1_ep0Mode = USBFS_1_MODE_STALL_IN_OUT;
 269:.\Generated_Source\PSoC5/USBFS_1_drv.c ****             break;
 270:.\Generated_Source\PSoC5/USBFS_1_drv.c ****         default:    /* There are no more states */
 271:.\Generated_Source\PSoC5/USBFS_1_drv.c ****             break;
 272:.\Generated_Source\PSoC5/USBFS_1_drv.c ****     }
 273:.\Generated_Source\PSoC5/USBFS_1_drv.c **** }
 274:.\Generated_Source\PSoC5/USBFS_1_drv.c **** 
 275:.\Generated_Source\PSoC5/USBFS_1_drv.c **** 
 276:.\Generated_Source\PSoC5/USBFS_1_drv.c **** /*******************************************************************************
 277:.\Generated_Source\PSoC5/USBFS_1_drv.c **** * Function Name: USBFS_1_LoadEP0
 278:.\Generated_Source\PSoC5/USBFS_1_drv.c **** ********************************************************************************
 279:.\Generated_Source\PSoC5/USBFS_1_drv.c **** *
 280:.\Generated_Source\PSoC5/USBFS_1_drv.c **** * Summary:
 281:.\Generated_Source\PSoC5/USBFS_1_drv.c **** *  This routine loads the EP0 data registers for OUT transfers.  It uses the
 282:.\Generated_Source\PSoC5/USBFS_1_drv.c **** *  currentTD (previously initialized by the _InitControlWrite function and
 283:.\Generated_Source\PSoC5/USBFS_1_drv.c **** *  updated for each OUT transfer, and the bLastPacketSize) to determine how
 284:.\Generated_Source\PSoC5/USBFS_1_drv.c **** *  many uint8s to transfer on the current OUT.
 285:.\Generated_Source\PSoC5/USBFS_1_drv.c **** *
 286:.\Generated_Source\PSoC5/USBFS_1_drv.c **** *  If the number of uint8s remaining is zero and the last transfer was full,
 287:.\Generated_Source\PSoC5/USBFS_1_drv.c **** *  we need to send a zero length packet.  Otherwise we send the minimum
 288:.\Generated_Source\PSoC5/USBFS_1_drv.c **** *  of the control endpoint size (8) or remaining number of uint8s for the
 289:.\Generated_Source\PSoC5/USBFS_1_drv.c **** *  transaction.
 290:.\Generated_Source\PSoC5/USBFS_1_drv.c **** *
 291:.\Generated_Source\PSoC5/USBFS_1_drv.c **** * Parameters:
 292:.\Generated_Source\PSoC5/USBFS_1_drv.c **** *  None.
 293:.\Generated_Source\PSoC5/USBFS_1_drv.c **** *
 294:.\Generated_Source\PSoC5/USBFS_1_drv.c **** * Return:
 295:.\Generated_Source\PSoC5/USBFS_1_drv.c **** *  None.
 296:.\Generated_Source\PSoC5/USBFS_1_drv.c **** *
 297:.\Generated_Source\PSoC5/USBFS_1_drv.c **** * Global variables:
 298:.\Generated_Source\PSoC5/USBFS_1_drv.c **** *  USBFS_1_transferByteCount - Update the transfer byte count from the
 299:.\Generated_Source\PSoC5/USBFS_1_drv.c **** *     last transaction.
 300:.\Generated_Source\PSoC5/USBFS_1_drv.c **** *  USBFS_1_ep0Count - counts the data loaded to the SIE memory in
 301:.\Generated_Source\PSoC5/USBFS_1_drv.c **** *     current packet.
 302:.\Generated_Source\PSoC5/USBFS_1_drv.c **** *  USBFS_1_lastPacketSize - remembers the USBFS_ep0Count value for the
 303:.\Generated_Source\PSoC5/USBFS_1_drv.c **** *     next packet.
 304:.\Generated_Source\PSoC5/USBFS_1_drv.c **** *  USBFS_1_transferByteCount - sum of the previous bytes transferred
 305:.\Generated_Source\PSoC5/USBFS_1_drv.c **** *     on previous packets(sum of USBFS_lastPacketSize)
 306:.\Generated_Source\PSoC5/USBFS_1_drv.c **** *  USBFS_1_ep0Toggle - inverted
 307:.\Generated_Source\PSoC5/USBFS_1_drv.c **** *  USBFS_1_ep0Mode  - prepare for mode register content.
 308:.\Generated_Source\PSoC5/USBFS_1_drv.c **** *  USBFS_1_transferState - set to TRANS_STATE_CONTROL_READ
 309:.\Generated_Source\PSoC5/USBFS_1_drv.c **** *
 310:.\Generated_Source\PSoC5/USBFS_1_drv.c **** * Reentrant:
 311:.\Generated_Source\PSoC5/USBFS_1_drv.c **** *  No.
 312:.\Generated_Source\PSoC5/USBFS_1_drv.c **** *
 313:.\Generated_Source\PSoC5/USBFS_1_drv.c **** *******************************************************************************/
 314:.\Generated_Source\PSoC5/USBFS_1_drv.c **** void USBFS_1_LoadEP0(void) 
 315:.\Generated_Source\PSoC5/USBFS_1_drv.c **** {
  27              		.loc 1 315 0
ARM GAS  C:\Users\Ian\AppData\Local\Temp\ccURMmQY.s 			page 7


  28              		.cfi_startproc
  29              		@ args = 0, pretend = 0, frame = 0
  30              		@ frame_needed = 0, uses_anonymous_args = 0
  31              		@ link register save eliminated.
  32              	.LVL0:
 316:.\Generated_Source\PSoC5/USBFS_1_drv.c ****     uint8 ep0Count = 0u;
 317:.\Generated_Source\PSoC5/USBFS_1_drv.c **** 
 318:.\Generated_Source\PSoC5/USBFS_1_drv.c ****     /* Update the transfer byte count from the last transaction */
 319:.\Generated_Source\PSoC5/USBFS_1_drv.c ****     USBFS_1_transferByteCount += USBFS_1_lastPacketSize;
  33              		.loc 1 319 0
  34 0000 1E4B     		ldr	r3, .L8
  35 0002 1978     		ldrb	r1, [r3]	@ zero_extendqisi2
  36 0004 1E4A     		ldr	r2, .L8+4
  37 0006 1388     		ldrh	r3, [r2]
  38 0008 0B44     		add	r3, r3, r1
  39 000a 9BB2     		uxth	r3, r3
  40 000c 1380     		strh	r3, [r2]	@ movhi
 316:.\Generated_Source\PSoC5/USBFS_1_drv.c ****     uint8 ep0Count = 0u;
  41              		.loc 1 316 0
  42 000e 0023     		movs	r3, #0
 320:.\Generated_Source\PSoC5/USBFS_1_drv.c ****     /* Now load the next transaction */
 321:.\Generated_Source\PSoC5/USBFS_1_drv.c ****     while ((USBFS_1_currentTD.count > 0u) && (ep0Count < 8u))
  43              		.loc 1 321 0
  44 0010 11E0     		b	.L2
  45              	.LVL1:
  46              	.L4:
 322:.\Generated_Source\PSoC5/USBFS_1_drv.c ****     {
 323:.\Generated_Source\PSoC5/USBFS_1_drv.c ****         CY_SET_REG8((reg8 *)(USBFS_1_EP0_DR0_IND + ep0Count), *USBFS_1_currentTD.pData);
  47              		.loc 1 323 0
  48 0012 03F18041 		add	r1, r3, #1073741824
  49 0016 01F5C041 		add	r1, r1, #24576
  50 001a 1A4A     		ldr	r2, .L8+8
  51 001c 5068     		ldr	r0, [r2, #4]
  52 001e 0078     		ldrb	r0, [r0]	@ zero_extendqisi2
  53 0020 C0B2     		uxtb	r0, r0
  54 0022 0870     		strb	r0, [r1]
 324:.\Generated_Source\PSoC5/USBFS_1_drv.c ****         USBFS_1_currentTD.pData = &USBFS_1_currentTD.pData[1u];
  55              		.loc 1 324 0
  56 0024 5168     		ldr	r1, [r2, #4]
  57 0026 0131     		adds	r1, r1, #1
  58 0028 5160     		str	r1, [r2, #4]
 325:.\Generated_Source\PSoC5/USBFS_1_drv.c ****         ep0Count++;
  59              		.loc 1 325 0
  60 002a 0133     		adds	r3, r3, #1
  61              	.LVL2:
  62 002c DBB2     		uxtb	r3, r3
  63              	.LVL3:
 326:.\Generated_Source\PSoC5/USBFS_1_drv.c ****         USBFS_1_currentTD.count--;
  64              		.loc 1 326 0
  65 002e 1188     		ldrh	r1, [r2]
  66 0030 0139     		subs	r1, r1, #1
  67 0032 89B2     		uxth	r1, r1
  68 0034 1180     		strh	r1, [r2]	@ movhi
  69              	.LVL4:
  70              	.L2:
 321:.\Generated_Source\PSoC5/USBFS_1_drv.c ****     {
  71              		.loc 1 321 0
ARM GAS  C:\Users\Ian\AppData\Local\Temp\ccURMmQY.s 			page 8


  72 0036 134A     		ldr	r2, .L8+8
  73 0038 1288     		ldrh	r2, [r2]
  74 003a 92B2     		uxth	r2, r2
  75 003c 0AB1     		cbz	r2, .L3
 321:.\Generated_Source\PSoC5/USBFS_1_drv.c ****     {
  76              		.loc 1 321 0 is_stmt 0 discriminator 1
  77 003e 072B     		cmp	r3, #7
  78 0040 E7D9     		bls	.L4
  79              	.L3:
 327:.\Generated_Source\PSoC5/USBFS_1_drv.c ****     }
 328:.\Generated_Source\PSoC5/USBFS_1_drv.c ****     /* Support zero-length packet*/
 329:.\Generated_Source\PSoC5/USBFS_1_drv.c ****     if( (USBFS_1_lastPacketSize == 8u) || (ep0Count > 0u) )
  80              		.loc 1 329 0 is_stmt 1
  81 0042 0E4A     		ldr	r2, .L8
  82 0044 1278     		ldrb	r2, [r2]	@ zero_extendqisi2
  83 0046 D2B2     		uxtb	r2, r2
  84 0048 082A     		cmp	r2, #8
  85 004a 00D0     		beq	.L5
  86              		.loc 1 329 0 is_stmt 0 discriminator 1
  87 004c 5BB1     		cbz	r3, .L6
  88              	.L5:
 330:.\Generated_Source\PSoC5/USBFS_1_drv.c ****     {
 331:.\Generated_Source\PSoC5/USBFS_1_drv.c ****         /* Update the data toggle */
 332:.\Generated_Source\PSoC5/USBFS_1_drv.c ****         USBFS_1_ep0Toggle ^= USBFS_1_EP0_CNT_DATA_TOGGLE;
  89              		.loc 1 332 0 is_stmt 1
  90 004e 0E49     		ldr	r1, .L8+12
  91 0050 0A78     		ldrb	r2, [r1]	@ zero_extendqisi2
  92 0052 82F08002 		eor	r2, r2, #128
  93 0056 0A70     		strb	r2, [r1]
 333:.\Generated_Source\PSoC5/USBFS_1_drv.c ****         /* Set the Mode Register  */
 334:.\Generated_Source\PSoC5/USBFS_1_drv.c ****         USBFS_1_ep0Mode = USBFS_1_MODE_ACK_IN_STATUS_OUT;
  94              		.loc 1 334 0
  95 0058 0F21     		movs	r1, #15
  96 005a 0C4A     		ldr	r2, .L8+16
  97 005c 1170     		strb	r1, [r2]
 335:.\Generated_Source\PSoC5/USBFS_1_drv.c ****         /* Update the state (or stay the same) */
 336:.\Generated_Source\PSoC5/USBFS_1_drv.c ****         USBFS_1_transferState = USBFS_1_TRANS_STATE_CONTROL_READ;
  98              		.loc 1 336 0
  99 005e 0221     		movs	r1, #2
 100 0060 0B4A     		ldr	r2, .L8+20
 101 0062 1170     		strb	r1, [r2]
 102 0064 04E0     		b	.L7
 103              	.L6:
 337:.\Generated_Source\PSoC5/USBFS_1_drv.c ****     }
 338:.\Generated_Source\PSoC5/USBFS_1_drv.c ****     else
 339:.\Generated_Source\PSoC5/USBFS_1_drv.c ****     {
 340:.\Generated_Source\PSoC5/USBFS_1_drv.c ****         /* Expect Status Stage Out */
 341:.\Generated_Source\PSoC5/USBFS_1_drv.c ****         USBFS_1_ep0Mode = USBFS_1_MODE_STATUS_OUT_ONLY;
 104              		.loc 1 341 0
 105 0066 0222     		movs	r2, #2
 106 0068 0849     		ldr	r1, .L8+16
 107 006a 0A70     		strb	r2, [r1]
 342:.\Generated_Source\PSoC5/USBFS_1_drv.c ****         /* Update the state (or stay the same) */
 343:.\Generated_Source\PSoC5/USBFS_1_drv.c ****         USBFS_1_transferState = USBFS_1_TRANS_STATE_CONTROL_READ;
 108              		.loc 1 343 0
 109 006c 0849     		ldr	r1, .L8+20
 110 006e 0A70     		strb	r2, [r1]
ARM GAS  C:\Users\Ian\AppData\Local\Temp\ccURMmQY.s 			page 9


 111              	.L7:
 344:.\Generated_Source\PSoC5/USBFS_1_drv.c ****     }
 345:.\Generated_Source\PSoC5/USBFS_1_drv.c **** 
 346:.\Generated_Source\PSoC5/USBFS_1_drv.c ****     /* Save the packet size for next time */
 347:.\Generated_Source\PSoC5/USBFS_1_drv.c ****     USBFS_1_lastPacketSize = ep0Count;
 112              		.loc 1 347 0
 113 0070 024A     		ldr	r2, .L8
 114 0072 1370     		strb	r3, [r2]
 348:.\Generated_Source\PSoC5/USBFS_1_drv.c ****     USBFS_1_ep0Count = ep0Count;
 115              		.loc 1 348 0
 116 0074 074A     		ldr	r2, .L8+24
 117 0076 1370     		strb	r3, [r2]
 118 0078 7047     		bx	lr
 119              	.L9:
 120 007a 00BF     		.align	2
 121              	.L8:
 122 007c 00000000 		.word	USBFS_1_lastPacketSize
 123 0080 00000000 		.word	USBFS_1_transferByteCount
 124 0084 00000000 		.word	USBFS_1_currentTD
 125 0088 00000000 		.word	USBFS_1_ep0Toggle
 126 008c 00000000 		.word	USBFS_1_ep0Mode
 127 0090 00000000 		.word	USBFS_1_transferState
 128 0094 00000000 		.word	USBFS_1_ep0Count
 129              		.cfi_endproc
 130              	.LFE4:
 131              		.size	USBFS_1_LoadEP0, .-USBFS_1_LoadEP0
 132              		.section	.text.USBFS_1_InitZeroLengthControlTransfer,"ax",%progbits
 133              		.align	2
 134              		.global	USBFS_1_InitZeroLengthControlTransfer
 135              		.thumb
 136              		.thumb_func
 137              		.type	USBFS_1_InitZeroLengthControlTransfer, %function
 138              	USBFS_1_InitZeroLengthControlTransfer:
 139              	.LFB6:
 349:.\Generated_Source\PSoC5/USBFS_1_drv.c **** }
 350:.\Generated_Source\PSoC5/USBFS_1_drv.c **** 
 351:.\Generated_Source\PSoC5/USBFS_1_drv.c **** 
 352:.\Generated_Source\PSoC5/USBFS_1_drv.c **** /*******************************************************************************
 353:.\Generated_Source\PSoC5/USBFS_1_drv.c **** * Function Name: USBFS_1_InitControlRead
 354:.\Generated_Source\PSoC5/USBFS_1_drv.c **** ********************************************************************************
 355:.\Generated_Source\PSoC5/USBFS_1_drv.c **** *
 356:.\Generated_Source\PSoC5/USBFS_1_drv.c **** * Summary:
 357:.\Generated_Source\PSoC5/USBFS_1_drv.c **** *  Initialize a control read transaction, usable to send data to the host.
 358:.\Generated_Source\PSoC5/USBFS_1_drv.c **** *  The following global variables should be initialized before this function
 359:.\Generated_Source\PSoC5/USBFS_1_drv.c **** *  called. To send zero length packet use InitZeroLengthControlTransfer
 360:.\Generated_Source\PSoC5/USBFS_1_drv.c **** *  function.
 361:.\Generated_Source\PSoC5/USBFS_1_drv.c **** *
 362:.\Generated_Source\PSoC5/USBFS_1_drv.c **** * Parameters:
 363:.\Generated_Source\PSoC5/USBFS_1_drv.c **** *  None.
 364:.\Generated_Source\PSoC5/USBFS_1_drv.c **** *
 365:.\Generated_Source\PSoC5/USBFS_1_drv.c **** * Return:
 366:.\Generated_Source\PSoC5/USBFS_1_drv.c **** *  requestHandled state.
 367:.\Generated_Source\PSoC5/USBFS_1_drv.c **** *
 368:.\Generated_Source\PSoC5/USBFS_1_drv.c **** * Global variables:
 369:.\Generated_Source\PSoC5/USBFS_1_drv.c **** *  USBFS_1_currentTD.count - counts of data to be sent.
 370:.\Generated_Source\PSoC5/USBFS_1_drv.c **** *  USBFS_1_currentTD.pData - data pointer.
 371:.\Generated_Source\PSoC5/USBFS_1_drv.c **** *
ARM GAS  C:\Users\Ian\AppData\Local\Temp\ccURMmQY.s 			page 10


 372:.\Generated_Source\PSoC5/USBFS_1_drv.c **** * Reentrant:
 373:.\Generated_Source\PSoC5/USBFS_1_drv.c **** *  No.
 374:.\Generated_Source\PSoC5/USBFS_1_drv.c **** *
 375:.\Generated_Source\PSoC5/USBFS_1_drv.c **** *******************************************************************************/
 376:.\Generated_Source\PSoC5/USBFS_1_drv.c **** uint8 USBFS_1_InitControlRead(void) 
 377:.\Generated_Source\PSoC5/USBFS_1_drv.c **** {
 378:.\Generated_Source\PSoC5/USBFS_1_drv.c ****     uint16 xferCount;
 379:.\Generated_Source\PSoC5/USBFS_1_drv.c ****     if(USBFS_1_currentTD.count == 0u)
 380:.\Generated_Source\PSoC5/USBFS_1_drv.c ****     {
 381:.\Generated_Source\PSoC5/USBFS_1_drv.c ****         (void) USBFS_1_InitZeroLengthControlTransfer();
 382:.\Generated_Source\PSoC5/USBFS_1_drv.c ****     }
 383:.\Generated_Source\PSoC5/USBFS_1_drv.c ****     else
 384:.\Generated_Source\PSoC5/USBFS_1_drv.c ****     {
 385:.\Generated_Source\PSoC5/USBFS_1_drv.c ****         /* Set up the state machine */
 386:.\Generated_Source\PSoC5/USBFS_1_drv.c ****         USBFS_1_transferState = USBFS_1_TRANS_STATE_CONTROL_READ;
 387:.\Generated_Source\PSoC5/USBFS_1_drv.c ****         /* Set the toggle, it gets updated in LoadEP */
 388:.\Generated_Source\PSoC5/USBFS_1_drv.c ****         USBFS_1_ep0Toggle = 0u;
 389:.\Generated_Source\PSoC5/USBFS_1_drv.c ****         /* Initialize the Status Block */
 390:.\Generated_Source\PSoC5/USBFS_1_drv.c ****         USBFS_1_InitializeStatusBlock();
 391:.\Generated_Source\PSoC5/USBFS_1_drv.c ****         xferCount = (((uint16)CY_GET_REG8(USBFS_1_lengthHi) << 8u) | (CY_GET_REG8(USBFS_1_lengthLo)
 392:.\Generated_Source\PSoC5/USBFS_1_drv.c **** 
 393:.\Generated_Source\PSoC5/USBFS_1_drv.c ****         if (USBFS_1_currentTD.count > xferCount)
 394:.\Generated_Source\PSoC5/USBFS_1_drv.c ****         {
 395:.\Generated_Source\PSoC5/USBFS_1_drv.c ****             USBFS_1_currentTD.count = xferCount;
 396:.\Generated_Source\PSoC5/USBFS_1_drv.c ****         }
 397:.\Generated_Source\PSoC5/USBFS_1_drv.c ****         USBFS_1_LoadEP0();
 398:.\Generated_Source\PSoC5/USBFS_1_drv.c ****     }
 399:.\Generated_Source\PSoC5/USBFS_1_drv.c **** 
 400:.\Generated_Source\PSoC5/USBFS_1_drv.c ****     return(USBFS_1_TRUE);
 401:.\Generated_Source\PSoC5/USBFS_1_drv.c **** }
 402:.\Generated_Source\PSoC5/USBFS_1_drv.c **** 
 403:.\Generated_Source\PSoC5/USBFS_1_drv.c **** 
 404:.\Generated_Source\PSoC5/USBFS_1_drv.c **** /*******************************************************************************
 405:.\Generated_Source\PSoC5/USBFS_1_drv.c **** * Function Name: USBFS_1_InitZeroLengthControlTransfer
 406:.\Generated_Source\PSoC5/USBFS_1_drv.c **** ********************************************************************************
 407:.\Generated_Source\PSoC5/USBFS_1_drv.c **** *
 408:.\Generated_Source\PSoC5/USBFS_1_drv.c **** * Summary:
 409:.\Generated_Source\PSoC5/USBFS_1_drv.c **** *  Initialize a zero length data IN transfer.
 410:.\Generated_Source\PSoC5/USBFS_1_drv.c **** *
 411:.\Generated_Source\PSoC5/USBFS_1_drv.c **** * Parameters:
 412:.\Generated_Source\PSoC5/USBFS_1_drv.c **** *  None.
 413:.\Generated_Source\PSoC5/USBFS_1_drv.c **** *
 414:.\Generated_Source\PSoC5/USBFS_1_drv.c **** * Return:
 415:.\Generated_Source\PSoC5/USBFS_1_drv.c **** *  requestHandled state.
 416:.\Generated_Source\PSoC5/USBFS_1_drv.c **** *
 417:.\Generated_Source\PSoC5/USBFS_1_drv.c **** * Global variables:
 418:.\Generated_Source\PSoC5/USBFS_1_drv.c **** *  USBFS_1_ep0Toggle - set to EP0_CNT_DATA_TOGGLE
 419:.\Generated_Source\PSoC5/USBFS_1_drv.c **** *  USBFS_1_ep0Mode  - prepare for mode register content.
 420:.\Generated_Source\PSoC5/USBFS_1_drv.c **** *  USBFS_1_transferState - set to TRANS_STATE_CONTROL_READ
 421:.\Generated_Source\PSoC5/USBFS_1_drv.c **** *  USBFS_1_ep0Count - cleared, means the zero-length packet.
 422:.\Generated_Source\PSoC5/USBFS_1_drv.c **** *  USBFS_1_lastPacketSize - cleared.
 423:.\Generated_Source\PSoC5/USBFS_1_drv.c **** *
 424:.\Generated_Source\PSoC5/USBFS_1_drv.c **** * Reentrant:
 425:.\Generated_Source\PSoC5/USBFS_1_drv.c **** *  No.
 426:.\Generated_Source\PSoC5/USBFS_1_drv.c **** *
 427:.\Generated_Source\PSoC5/USBFS_1_drv.c **** *******************************************************************************/
 428:.\Generated_Source\PSoC5/USBFS_1_drv.c **** uint8 USBFS_1_InitZeroLengthControlTransfer(void)
ARM GAS  C:\Users\Ian\AppData\Local\Temp\ccURMmQY.s 			page 11


 429:.\Generated_Source\PSoC5/USBFS_1_drv.c ****                                                 
 430:.\Generated_Source\PSoC5/USBFS_1_drv.c **** {
 140              		.loc 1 430 0
 141              		.cfi_startproc
 142              		@ args = 0, pretend = 0, frame = 0
 143              		@ frame_needed = 0, uses_anonymous_args = 0
 144              		@ link register save eliminated.
 431:.\Generated_Source\PSoC5/USBFS_1_drv.c ****     /* Update the state */
 432:.\Generated_Source\PSoC5/USBFS_1_drv.c ****     USBFS_1_transferState = USBFS_1_TRANS_STATE_CONTROL_READ;
 145              		.loc 1 432 0
 146 0000 0222     		movs	r2, #2
 147 0002 074B     		ldr	r3, .L11
 148 0004 1A70     		strb	r2, [r3]
 433:.\Generated_Source\PSoC5/USBFS_1_drv.c ****     /* Set the data toggle */
 434:.\Generated_Source\PSoC5/USBFS_1_drv.c ****     USBFS_1_ep0Toggle = USBFS_1_EP0_CNT_DATA_TOGGLE;
 149              		.loc 1 434 0
 150 0006 8022     		movs	r2, #128
 151 0008 064B     		ldr	r3, .L11+4
 152 000a 1A70     		strb	r2, [r3]
 435:.\Generated_Source\PSoC5/USBFS_1_drv.c ****     /* Set the Mode Register  */
 436:.\Generated_Source\PSoC5/USBFS_1_drv.c ****     USBFS_1_ep0Mode = USBFS_1_MODE_ACK_IN_STATUS_OUT;
 153              		.loc 1 436 0
 154 000c 0F22     		movs	r2, #15
 155 000e 064B     		ldr	r3, .L11+8
 156 0010 1A70     		strb	r2, [r3]
 437:.\Generated_Source\PSoC5/USBFS_1_drv.c ****     /* Save the packet size for next time */
 438:.\Generated_Source\PSoC5/USBFS_1_drv.c ****     USBFS_1_lastPacketSize = 0u;
 157              		.loc 1 438 0
 158 0012 0023     		movs	r3, #0
 159 0014 054A     		ldr	r2, .L11+12
 160 0016 1370     		strb	r3, [r2]
 439:.\Generated_Source\PSoC5/USBFS_1_drv.c ****     USBFS_1_ep0Count = 0u;
 161              		.loc 1 439 0
 162 0018 054A     		ldr	r2, .L11+16
 163 001a 1370     		strb	r3, [r2]
 440:.\Generated_Source\PSoC5/USBFS_1_drv.c **** 
 441:.\Generated_Source\PSoC5/USBFS_1_drv.c ****     return(USBFS_1_TRUE);
 442:.\Generated_Source\PSoC5/USBFS_1_drv.c **** }
 164              		.loc 1 442 0
 165 001c 0120     		movs	r0, #1
 166 001e 7047     		bx	lr
 167              	.L12:
 168              		.align	2
 169              	.L11:
 170 0020 00000000 		.word	USBFS_1_transferState
 171 0024 00000000 		.word	USBFS_1_ep0Toggle
 172 0028 00000000 		.word	USBFS_1_ep0Mode
 173 002c 00000000 		.word	USBFS_1_lastPacketSize
 174 0030 00000000 		.word	USBFS_1_ep0Count
 175              		.cfi_endproc
 176              	.LFE6:
 177              		.size	USBFS_1_InitZeroLengthControlTransfer, .-USBFS_1_InitZeroLengthControlTransfer
 178              		.section	.text.USBFS_1_ControlReadDataStage,"ax",%progbits
 179              		.align	2
 180              		.global	USBFS_1_ControlReadDataStage
 181              		.thumb
 182              		.thumb_func
ARM GAS  C:\Users\Ian\AppData\Local\Temp\ccURMmQY.s 			page 12


 183              		.type	USBFS_1_ControlReadDataStage, %function
 184              	USBFS_1_ControlReadDataStage:
 185              	.LFB7:
 443:.\Generated_Source\PSoC5/USBFS_1_drv.c **** 
 444:.\Generated_Source\PSoC5/USBFS_1_drv.c **** 
 445:.\Generated_Source\PSoC5/USBFS_1_drv.c **** /*******************************************************************************
 446:.\Generated_Source\PSoC5/USBFS_1_drv.c **** * Function Name: USBFS_1_ControlReadDataStage
 447:.\Generated_Source\PSoC5/USBFS_1_drv.c **** ********************************************************************************
 448:.\Generated_Source\PSoC5/USBFS_1_drv.c **** *
 449:.\Generated_Source\PSoC5/USBFS_1_drv.c **** * Summary:
 450:.\Generated_Source\PSoC5/USBFS_1_drv.c **** *  Handle the Data Stage of a control read transfer.
 451:.\Generated_Source\PSoC5/USBFS_1_drv.c **** *
 452:.\Generated_Source\PSoC5/USBFS_1_drv.c **** * Parameters:
 453:.\Generated_Source\PSoC5/USBFS_1_drv.c **** *  None.
 454:.\Generated_Source\PSoC5/USBFS_1_drv.c **** *
 455:.\Generated_Source\PSoC5/USBFS_1_drv.c **** * Return:
 456:.\Generated_Source\PSoC5/USBFS_1_drv.c **** *  None.
 457:.\Generated_Source\PSoC5/USBFS_1_drv.c **** *
 458:.\Generated_Source\PSoC5/USBFS_1_drv.c **** * Reentrant:
 459:.\Generated_Source\PSoC5/USBFS_1_drv.c **** *  No.
 460:.\Generated_Source\PSoC5/USBFS_1_drv.c **** *
 461:.\Generated_Source\PSoC5/USBFS_1_drv.c **** *******************************************************************************/
 462:.\Generated_Source\PSoC5/USBFS_1_drv.c **** void USBFS_1_ControlReadDataStage(void) 
 463:.\Generated_Source\PSoC5/USBFS_1_drv.c **** 
 464:.\Generated_Source\PSoC5/USBFS_1_drv.c **** {
 186              		.loc 1 464 0
 187              		.cfi_startproc
 188              		@ args = 0, pretend = 0, frame = 0
 189              		@ frame_needed = 0, uses_anonymous_args = 0
 190 0000 08B5     		push	{r3, lr}
 191              		.cfi_def_cfa_offset 8
 192              		.cfi_offset 3, -8
 193              		.cfi_offset 14, -4
 465:.\Generated_Source\PSoC5/USBFS_1_drv.c ****     USBFS_1_LoadEP0();
 194              		.loc 1 465 0
 195 0002 FFF7FEFF 		bl	USBFS_1_LoadEP0
 196              	.LVL5:
 197 0006 08BD     		pop	{r3, pc}
 198              		.cfi_endproc
 199              	.LFE7:
 200              		.size	USBFS_1_ControlReadDataStage, .-USBFS_1_ControlReadDataStage
 201              		.section	.text.USBFS_1_ControlWriteDataStage,"ax",%progbits
 202              		.align	2
 203              		.global	USBFS_1_ControlWriteDataStage
 204              		.thumb
 205              		.thumb_func
 206              		.type	USBFS_1_ControlWriteDataStage, %function
 207              	USBFS_1_ControlWriteDataStage:
 208              	.LFB10:
 466:.\Generated_Source\PSoC5/USBFS_1_drv.c **** }
 467:.\Generated_Source\PSoC5/USBFS_1_drv.c **** 
 468:.\Generated_Source\PSoC5/USBFS_1_drv.c **** 
 469:.\Generated_Source\PSoC5/USBFS_1_drv.c **** /*******************************************************************************
 470:.\Generated_Source\PSoC5/USBFS_1_drv.c **** * Function Name: USBFS_1_ControlReadStatusStage
 471:.\Generated_Source\PSoC5/USBFS_1_drv.c **** ********************************************************************************
 472:.\Generated_Source\PSoC5/USBFS_1_drv.c **** *
 473:.\Generated_Source\PSoC5/USBFS_1_drv.c **** * Summary:
ARM GAS  C:\Users\Ian\AppData\Local\Temp\ccURMmQY.s 			page 13


 474:.\Generated_Source\PSoC5/USBFS_1_drv.c **** *  Handle the Status Stage of a control read transfer.
 475:.\Generated_Source\PSoC5/USBFS_1_drv.c **** *
 476:.\Generated_Source\PSoC5/USBFS_1_drv.c **** * Parameters:
 477:.\Generated_Source\PSoC5/USBFS_1_drv.c **** *  None.
 478:.\Generated_Source\PSoC5/USBFS_1_drv.c **** *
 479:.\Generated_Source\PSoC5/USBFS_1_drv.c **** * Return:
 480:.\Generated_Source\PSoC5/USBFS_1_drv.c **** *  None.
 481:.\Generated_Source\PSoC5/USBFS_1_drv.c **** *
 482:.\Generated_Source\PSoC5/USBFS_1_drv.c **** * Global variables:
 483:.\Generated_Source\PSoC5/USBFS_1_drv.c **** *  USBFS_1_USBFS_transferByteCount - updated with last packet size.
 484:.\Generated_Source\PSoC5/USBFS_1_drv.c **** *  USBFS_1_transferState - set to TRANS_STATE_IDLE.
 485:.\Generated_Source\PSoC5/USBFS_1_drv.c **** *  USBFS_1_ep0Mode  - set to MODE_STALL_IN_OUT.
 486:.\Generated_Source\PSoC5/USBFS_1_drv.c **** *
 487:.\Generated_Source\PSoC5/USBFS_1_drv.c **** * Reentrant:
 488:.\Generated_Source\PSoC5/USBFS_1_drv.c **** *  No.
 489:.\Generated_Source\PSoC5/USBFS_1_drv.c **** *
 490:.\Generated_Source\PSoC5/USBFS_1_drv.c **** *******************************************************************************/
 491:.\Generated_Source\PSoC5/USBFS_1_drv.c **** void USBFS_1_ControlReadStatusStage(void) 
 492:.\Generated_Source\PSoC5/USBFS_1_drv.c **** {
 493:.\Generated_Source\PSoC5/USBFS_1_drv.c ****     /* Update the transfer byte count */
 494:.\Generated_Source\PSoC5/USBFS_1_drv.c ****     USBFS_1_transferByteCount += USBFS_1_lastPacketSize;
 495:.\Generated_Source\PSoC5/USBFS_1_drv.c ****     /* Go Idle */
 496:.\Generated_Source\PSoC5/USBFS_1_drv.c ****     USBFS_1_transferState = USBFS_1_TRANS_STATE_IDLE;
 497:.\Generated_Source\PSoC5/USBFS_1_drv.c ****     /* Update the completion block */
 498:.\Generated_Source\PSoC5/USBFS_1_drv.c ****     USBFS_1_UpdateStatusBlock(USBFS_1_XFER_STATUS_ACK);
 499:.\Generated_Source\PSoC5/USBFS_1_drv.c ****     /* We expect no more data, so stall INs and OUTs */
 500:.\Generated_Source\PSoC5/USBFS_1_drv.c ****     USBFS_1_ep0Mode =  USBFS_1_MODE_STALL_IN_OUT;
 501:.\Generated_Source\PSoC5/USBFS_1_drv.c **** }
 502:.\Generated_Source\PSoC5/USBFS_1_drv.c **** 
 503:.\Generated_Source\PSoC5/USBFS_1_drv.c **** 
 504:.\Generated_Source\PSoC5/USBFS_1_drv.c **** /*******************************************************************************
 505:.\Generated_Source\PSoC5/USBFS_1_drv.c **** * Function Name: USBFS_1_InitControlWrite
 506:.\Generated_Source\PSoC5/USBFS_1_drv.c **** ********************************************************************************
 507:.\Generated_Source\PSoC5/USBFS_1_drv.c **** *
 508:.\Generated_Source\PSoC5/USBFS_1_drv.c **** * Summary:
 509:.\Generated_Source\PSoC5/USBFS_1_drv.c **** *  Initialize a control write transaction
 510:.\Generated_Source\PSoC5/USBFS_1_drv.c **** *
 511:.\Generated_Source\PSoC5/USBFS_1_drv.c **** * Parameters:
 512:.\Generated_Source\PSoC5/USBFS_1_drv.c **** *  None.
 513:.\Generated_Source\PSoC5/USBFS_1_drv.c **** *
 514:.\Generated_Source\PSoC5/USBFS_1_drv.c **** * Return:
 515:.\Generated_Source\PSoC5/USBFS_1_drv.c **** *  requestHandled state.
 516:.\Generated_Source\PSoC5/USBFS_1_drv.c **** *
 517:.\Generated_Source\PSoC5/USBFS_1_drv.c **** * Global variables:
 518:.\Generated_Source\PSoC5/USBFS_1_drv.c **** *  USBFS_1_USBFS_transferState - set to TRANS_STATE_CONTROL_WRITE
 519:.\Generated_Source\PSoC5/USBFS_1_drv.c **** *  USBFS_1_ep0Toggle - set to EP0_CNT_DATA_TOGGLE
 520:.\Generated_Source\PSoC5/USBFS_1_drv.c **** *  USBFS_1_ep0Mode  - set to MODE_ACK_OUT_STATUS_IN
 521:.\Generated_Source\PSoC5/USBFS_1_drv.c **** *
 522:.\Generated_Source\PSoC5/USBFS_1_drv.c **** * Reentrant:
 523:.\Generated_Source\PSoC5/USBFS_1_drv.c **** *  No.
 524:.\Generated_Source\PSoC5/USBFS_1_drv.c **** *
 525:.\Generated_Source\PSoC5/USBFS_1_drv.c **** *******************************************************************************/
 526:.\Generated_Source\PSoC5/USBFS_1_drv.c **** uint8 USBFS_1_InitControlWrite(void) 
 527:.\Generated_Source\PSoC5/USBFS_1_drv.c **** {
 528:.\Generated_Source\PSoC5/USBFS_1_drv.c ****     uint16 xferCount;
 529:.\Generated_Source\PSoC5/USBFS_1_drv.c **** 
 530:.\Generated_Source\PSoC5/USBFS_1_drv.c ****     /* Set up the state machine */
ARM GAS  C:\Users\Ian\AppData\Local\Temp\ccURMmQY.s 			page 14


 531:.\Generated_Source\PSoC5/USBFS_1_drv.c ****     USBFS_1_transferState = USBFS_1_TRANS_STATE_CONTROL_WRITE;
 532:.\Generated_Source\PSoC5/USBFS_1_drv.c ****     /* This might not be necessary */
 533:.\Generated_Source\PSoC5/USBFS_1_drv.c ****     USBFS_1_ep0Toggle = USBFS_1_EP0_CNT_DATA_TOGGLE;
 534:.\Generated_Source\PSoC5/USBFS_1_drv.c ****     /* Initialize the Status Block */
 535:.\Generated_Source\PSoC5/USBFS_1_drv.c ****     USBFS_1_InitializeStatusBlock();
 536:.\Generated_Source\PSoC5/USBFS_1_drv.c **** 
 537:.\Generated_Source\PSoC5/USBFS_1_drv.c ****     xferCount = (((uint16)CY_GET_REG8(USBFS_1_lengthHi) << 8u) | (CY_GET_REG8(USBFS_1_lengthLo)));
 538:.\Generated_Source\PSoC5/USBFS_1_drv.c **** 
 539:.\Generated_Source\PSoC5/USBFS_1_drv.c ****     if (USBFS_1_currentTD.count > xferCount)
 540:.\Generated_Source\PSoC5/USBFS_1_drv.c ****     {
 541:.\Generated_Source\PSoC5/USBFS_1_drv.c ****         USBFS_1_currentTD.count = xferCount;
 542:.\Generated_Source\PSoC5/USBFS_1_drv.c ****     }
 543:.\Generated_Source\PSoC5/USBFS_1_drv.c **** 
 544:.\Generated_Source\PSoC5/USBFS_1_drv.c ****     /* Expect Data or Status Stage */
 545:.\Generated_Source\PSoC5/USBFS_1_drv.c ****     USBFS_1_ep0Mode = USBFS_1_MODE_ACK_OUT_STATUS_IN;
 546:.\Generated_Source\PSoC5/USBFS_1_drv.c **** 
 547:.\Generated_Source\PSoC5/USBFS_1_drv.c ****     return(USBFS_1_TRUE);
 548:.\Generated_Source\PSoC5/USBFS_1_drv.c **** }
 549:.\Generated_Source\PSoC5/USBFS_1_drv.c **** 
 550:.\Generated_Source\PSoC5/USBFS_1_drv.c **** 
 551:.\Generated_Source\PSoC5/USBFS_1_drv.c **** /*******************************************************************************
 552:.\Generated_Source\PSoC5/USBFS_1_drv.c **** * Function Name: USBFS_1_ControlWriteDataStage
 553:.\Generated_Source\PSoC5/USBFS_1_drv.c **** ********************************************************************************
 554:.\Generated_Source\PSoC5/USBFS_1_drv.c **** *
 555:.\Generated_Source\PSoC5/USBFS_1_drv.c **** * Summary:
 556:.\Generated_Source\PSoC5/USBFS_1_drv.c **** *  Handle the Data Stage of a control write transfer
 557:.\Generated_Source\PSoC5/USBFS_1_drv.c **** *       1. Get the data (We assume the destination was validated previously)
 558:.\Generated_Source\PSoC5/USBFS_1_drv.c **** *       2. Update the count and data toggle
 559:.\Generated_Source\PSoC5/USBFS_1_drv.c **** *       3. Update the mode register for the next transaction
 560:.\Generated_Source\PSoC5/USBFS_1_drv.c **** *
 561:.\Generated_Source\PSoC5/USBFS_1_drv.c **** * Parameters:
 562:.\Generated_Source\PSoC5/USBFS_1_drv.c **** *  None.
 563:.\Generated_Source\PSoC5/USBFS_1_drv.c **** *
 564:.\Generated_Source\PSoC5/USBFS_1_drv.c **** * Return:
 565:.\Generated_Source\PSoC5/USBFS_1_drv.c **** *  None.
 566:.\Generated_Source\PSoC5/USBFS_1_drv.c **** *
 567:.\Generated_Source\PSoC5/USBFS_1_drv.c **** * Global variables:
 568:.\Generated_Source\PSoC5/USBFS_1_drv.c **** *  USBFS_1_transferByteCount - Update the transfer byte count from the
 569:.\Generated_Source\PSoC5/USBFS_1_drv.c **** *    last transaction.
 570:.\Generated_Source\PSoC5/USBFS_1_drv.c **** *  USBFS_1_ep0Count - counts the data loaded from the SIE memory
 571:.\Generated_Source\PSoC5/USBFS_1_drv.c **** *    in current packet.
 572:.\Generated_Source\PSoC5/USBFS_1_drv.c **** *  USBFS_1_transferByteCount - sum of the previous bytes transferred
 573:.\Generated_Source\PSoC5/USBFS_1_drv.c **** *    on previous packets(sum of USBFS_lastPacketSize)
 574:.\Generated_Source\PSoC5/USBFS_1_drv.c **** *  USBFS_1_ep0Toggle - inverted
 575:.\Generated_Source\PSoC5/USBFS_1_drv.c **** *  USBFS_1_ep0Mode  - set to MODE_ACK_OUT_STATUS_IN.
 576:.\Generated_Source\PSoC5/USBFS_1_drv.c **** *
 577:.\Generated_Source\PSoC5/USBFS_1_drv.c **** * Reentrant:
 578:.\Generated_Source\PSoC5/USBFS_1_drv.c **** *  No.
 579:.\Generated_Source\PSoC5/USBFS_1_drv.c **** *
 580:.\Generated_Source\PSoC5/USBFS_1_drv.c **** *******************************************************************************/
 581:.\Generated_Source\PSoC5/USBFS_1_drv.c **** void USBFS_1_ControlWriteDataStage(void) 
 582:.\Generated_Source\PSoC5/USBFS_1_drv.c **** {
 209              		.loc 1 582 0
 210              		.cfi_startproc
 211              		@ args = 0, pretend = 0, frame = 0
 212              		@ frame_needed = 0, uses_anonymous_args = 0
 213              		@ link register save eliminated.
ARM GAS  C:\Users\Ian\AppData\Local\Temp\ccURMmQY.s 			page 15


 214 0000 10B4     		push	{r4}
 215              		.cfi_def_cfa_offset 4
 216              		.cfi_offset 4, -4
 217              	.LVL6:
 583:.\Generated_Source\PSoC5/USBFS_1_drv.c ****     uint8 ep0Count;
 584:.\Generated_Source\PSoC5/USBFS_1_drv.c ****     uint8 regIndex = 0u;
 585:.\Generated_Source\PSoC5/USBFS_1_drv.c **** 
 586:.\Generated_Source\PSoC5/USBFS_1_drv.c ****     ep0Count = (CY_GET_REG8(USBFS_1_EP0_CNT_PTR) & USBFS_1_EPX_CNT0_MASK) -
 218              		.loc 1 586 0
 219 0002 1A4B     		ldr	r3, .L20
 220 0004 1978     		ldrb	r1, [r3]	@ zero_extendqisi2
 221 0006 01F00F01 		and	r1, r1, #15
 222 000a 0239     		subs	r1, r1, #2
 223 000c C9B2     		uxtb	r1, r1
 224              	.LVL7:
 587:.\Generated_Source\PSoC5/USBFS_1_drv.c ****                USBFS_1_EPX_CNTX_CRC_COUNT;
 588:.\Generated_Source\PSoC5/USBFS_1_drv.c **** 
 589:.\Generated_Source\PSoC5/USBFS_1_drv.c ****     USBFS_1_transferByteCount += ep0Count;
 225              		.loc 1 589 0
 226 000e 184A     		ldr	r2, .L20+4
 227 0010 1388     		ldrh	r3, [r2]
 228 0012 0B44     		add	r3, r3, r1
 229 0014 9BB2     		uxth	r3, r3
 230 0016 1380     		strh	r3, [r2]	@ movhi
 584:.\Generated_Source\PSoC5/USBFS_1_drv.c **** 
 231              		.loc 1 584 0
 232 0018 0020     		movs	r0, #0
 590:.\Generated_Source\PSoC5/USBFS_1_drv.c **** 
 591:.\Generated_Source\PSoC5/USBFS_1_drv.c ****     while ((USBFS_1_currentTD.count > 0u) && (ep0Count > 0u))
 233              		.loc 1 591 0
 234 001a 13E0     		b	.L16
 235              	.LVL8:
 236              	.L18:
 592:.\Generated_Source\PSoC5/USBFS_1_drv.c ****     {
 593:.\Generated_Source\PSoC5/USBFS_1_drv.c ****         *USBFS_1_currentTD.pData = CY_GET_REG8((reg8 *)(USBFS_1_EP0_DR0_IND + regIndex));
 237              		.loc 1 593 0
 238 001c 154B     		ldr	r3, .L20+8
 239 001e 5C68     		ldr	r4, [r3, #4]
 240 0020 00F18042 		add	r2, r0, #1073741824
 241 0024 02F5C042 		add	r2, r2, #24576
 242 0028 1278     		ldrb	r2, [r2]	@ zero_extendqisi2
 243 002a D2B2     		uxtb	r2, r2
 244 002c 2270     		strb	r2, [r4]
 594:.\Generated_Source\PSoC5/USBFS_1_drv.c ****         USBFS_1_currentTD.pData = &USBFS_1_currentTD.pData[1u];
 245              		.loc 1 594 0
 246 002e 5A68     		ldr	r2, [r3, #4]
 247 0030 0132     		adds	r2, r2, #1
 248 0032 5A60     		str	r2, [r3, #4]
 595:.\Generated_Source\PSoC5/USBFS_1_drv.c ****         regIndex++;
 249              		.loc 1 595 0
 250 0034 0130     		adds	r0, r0, #1
 251              	.LVL9:
 252 0036 C0B2     		uxtb	r0, r0
 253              	.LVL10:
 596:.\Generated_Source\PSoC5/USBFS_1_drv.c ****         ep0Count--;
 254              		.loc 1 596 0
 255 0038 0139     		subs	r1, r1, #1
ARM GAS  C:\Users\Ian\AppData\Local\Temp\ccURMmQY.s 			page 16


 256              	.LVL11:
 257 003a C9B2     		uxtb	r1, r1
 258              	.LVL12:
 597:.\Generated_Source\PSoC5/USBFS_1_drv.c ****         USBFS_1_currentTD.count--;
 259              		.loc 1 597 0
 260 003c 1A88     		ldrh	r2, [r3]
 261 003e 013A     		subs	r2, r2, #1
 262 0040 92B2     		uxth	r2, r2
 263 0042 1A80     		strh	r2, [r3]	@ movhi
 264              	.LVL13:
 265              	.L16:
 591:.\Generated_Source\PSoC5/USBFS_1_drv.c ****     {
 266              		.loc 1 591 0
 267 0044 0B4B     		ldr	r3, .L20+8
 268 0046 1B88     		ldrh	r3, [r3]
 269 0048 9BB2     		uxth	r3, r3
 270 004a 0BB1     		cbz	r3, .L17
 591:.\Generated_Source\PSoC5/USBFS_1_drv.c ****     {
 271              		.loc 1 591 0 is_stmt 0 discriminator 1
 272 004c 0029     		cmp	r1, #0
 273 004e E5D1     		bne	.L18
 274              	.L17:
 598:.\Generated_Source\PSoC5/USBFS_1_drv.c ****     }
 599:.\Generated_Source\PSoC5/USBFS_1_drv.c ****     USBFS_1_ep0Count = ep0Count;
 275              		.loc 1 599 0 is_stmt 1
 276 0050 094B     		ldr	r3, .L20+12
 277 0052 1970     		strb	r1, [r3]
 600:.\Generated_Source\PSoC5/USBFS_1_drv.c ****     /* Update the data toggle */
 601:.\Generated_Source\PSoC5/USBFS_1_drv.c ****     USBFS_1_ep0Toggle ^= USBFS_1_EP0_CNT_DATA_TOGGLE;
 278              		.loc 1 601 0
 279 0054 094A     		ldr	r2, .L20+16
 280 0056 1378     		ldrb	r3, [r2]	@ zero_extendqisi2
 281 0058 83F08003 		eor	r3, r3, #128
 282 005c 1370     		strb	r3, [r2]
 602:.\Generated_Source\PSoC5/USBFS_1_drv.c ****     /* Expect Data or Status Stage */
 603:.\Generated_Source\PSoC5/USBFS_1_drv.c ****     USBFS_1_ep0Mode = USBFS_1_MODE_ACK_OUT_STATUS_IN;
 283              		.loc 1 603 0
 284 005e 0B22     		movs	r2, #11
 285 0060 074B     		ldr	r3, .L20+20
 286 0062 1A70     		strb	r2, [r3]
 604:.\Generated_Source\PSoC5/USBFS_1_drv.c **** }
 287              		.loc 1 604 0
 288 0064 5DF8044B 		ldr	r4, [sp], #4
 289              		.cfi_restore 4
 290              		.cfi_def_cfa_offset 0
 291 0068 7047     		bx	lr
 292              	.L21:
 293 006a 00BF     		.align	2
 294              	.L20:
 295 006c 29600040 		.word	1073766441
 296 0070 00000000 		.word	USBFS_1_transferByteCount
 297 0074 00000000 		.word	USBFS_1_currentTD
 298 0078 00000000 		.word	USBFS_1_ep0Count
 299 007c 00000000 		.word	USBFS_1_ep0Toggle
 300 0080 00000000 		.word	USBFS_1_ep0Mode
 301              		.cfi_endproc
 302              	.LFE10:
ARM GAS  C:\Users\Ian\AppData\Local\Temp\ccURMmQY.s 			page 17


 303              		.size	USBFS_1_ControlWriteDataStage, .-USBFS_1_ControlWriteDataStage
 304              		.section	.text.USBFS_1_InitNoDataControlTransfer,"ax",%progbits
 305              		.align	2
 306              		.global	USBFS_1_InitNoDataControlTransfer
 307              		.thumb
 308              		.thumb_func
 309              		.type	USBFS_1_InitNoDataControlTransfer, %function
 310              	USBFS_1_InitNoDataControlTransfer:
 311              	.LFB12:
 605:.\Generated_Source\PSoC5/USBFS_1_drv.c **** 
 606:.\Generated_Source\PSoC5/USBFS_1_drv.c **** 
 607:.\Generated_Source\PSoC5/USBFS_1_drv.c **** /*******************************************************************************
 608:.\Generated_Source\PSoC5/USBFS_1_drv.c **** * Function Name: USBFS_1_ControlWriteStatusStage
 609:.\Generated_Source\PSoC5/USBFS_1_drv.c **** ********************************************************************************
 610:.\Generated_Source\PSoC5/USBFS_1_drv.c **** *
 611:.\Generated_Source\PSoC5/USBFS_1_drv.c **** * Summary:
 612:.\Generated_Source\PSoC5/USBFS_1_drv.c **** *  Handle the Status Stage of a control write transfer
 613:.\Generated_Source\PSoC5/USBFS_1_drv.c **** *
 614:.\Generated_Source\PSoC5/USBFS_1_drv.c **** * Parameters:
 615:.\Generated_Source\PSoC5/USBFS_1_drv.c **** *  None.
 616:.\Generated_Source\PSoC5/USBFS_1_drv.c **** *
 617:.\Generated_Source\PSoC5/USBFS_1_drv.c **** * Return:
 618:.\Generated_Source\PSoC5/USBFS_1_drv.c **** *  None.
 619:.\Generated_Source\PSoC5/USBFS_1_drv.c **** *
 620:.\Generated_Source\PSoC5/USBFS_1_drv.c **** * Global variables:
 621:.\Generated_Source\PSoC5/USBFS_1_drv.c **** *  USBFS_1_transferState - set to TRANS_STATE_IDLE.
 622:.\Generated_Source\PSoC5/USBFS_1_drv.c **** *  USBFS_1_USBFS_ep0Mode  - set to MODE_STALL_IN_OUT.
 623:.\Generated_Source\PSoC5/USBFS_1_drv.c **** *
 624:.\Generated_Source\PSoC5/USBFS_1_drv.c **** * Reentrant:
 625:.\Generated_Source\PSoC5/USBFS_1_drv.c **** *  No.
 626:.\Generated_Source\PSoC5/USBFS_1_drv.c **** *
 627:.\Generated_Source\PSoC5/USBFS_1_drv.c **** *******************************************************************************/
 628:.\Generated_Source\PSoC5/USBFS_1_drv.c **** void USBFS_1_ControlWriteStatusStage(void) 
 629:.\Generated_Source\PSoC5/USBFS_1_drv.c **** {
 630:.\Generated_Source\PSoC5/USBFS_1_drv.c ****     /* Go Idle */
 631:.\Generated_Source\PSoC5/USBFS_1_drv.c ****     USBFS_1_transferState = USBFS_1_TRANS_STATE_IDLE;
 632:.\Generated_Source\PSoC5/USBFS_1_drv.c ****     /* Update the completion block */
 633:.\Generated_Source\PSoC5/USBFS_1_drv.c ****     USBFS_1_UpdateStatusBlock(USBFS_1_XFER_STATUS_ACK);
 634:.\Generated_Source\PSoC5/USBFS_1_drv.c ****     /* We expect no more data, so stall INs and OUTs */
 635:.\Generated_Source\PSoC5/USBFS_1_drv.c ****     USBFS_1_ep0Mode = USBFS_1_MODE_STALL_IN_OUT;
 636:.\Generated_Source\PSoC5/USBFS_1_drv.c **** }
 637:.\Generated_Source\PSoC5/USBFS_1_drv.c **** 
 638:.\Generated_Source\PSoC5/USBFS_1_drv.c **** 
 639:.\Generated_Source\PSoC5/USBFS_1_drv.c **** /*******************************************************************************
 640:.\Generated_Source\PSoC5/USBFS_1_drv.c **** * Function Name: USBFS_1_InitNoDataControlTransfer
 641:.\Generated_Source\PSoC5/USBFS_1_drv.c **** ********************************************************************************
 642:.\Generated_Source\PSoC5/USBFS_1_drv.c **** *
 643:.\Generated_Source\PSoC5/USBFS_1_drv.c **** * Summary:
 644:.\Generated_Source\PSoC5/USBFS_1_drv.c **** *  Initialize a no data control transfer
 645:.\Generated_Source\PSoC5/USBFS_1_drv.c **** *
 646:.\Generated_Source\PSoC5/USBFS_1_drv.c **** * Parameters:
 647:.\Generated_Source\PSoC5/USBFS_1_drv.c **** *  None.
 648:.\Generated_Source\PSoC5/USBFS_1_drv.c **** *
 649:.\Generated_Source\PSoC5/USBFS_1_drv.c **** * Return:
 650:.\Generated_Source\PSoC5/USBFS_1_drv.c **** *  requestHandled state.
 651:.\Generated_Source\PSoC5/USBFS_1_drv.c **** *
 652:.\Generated_Source\PSoC5/USBFS_1_drv.c **** * Global variables:
ARM GAS  C:\Users\Ian\AppData\Local\Temp\ccURMmQY.s 			page 18


 653:.\Generated_Source\PSoC5/USBFS_1_drv.c **** *  USBFS_1_transferState - set to TRANS_STATE_NO_DATA_CONTROL.
 654:.\Generated_Source\PSoC5/USBFS_1_drv.c **** *  USBFS_1_ep0Mode  - set to MODE_STATUS_IN_ONLY.
 655:.\Generated_Source\PSoC5/USBFS_1_drv.c **** *  USBFS_1_ep0Count - cleared.
 656:.\Generated_Source\PSoC5/USBFS_1_drv.c **** *  USBFS_1_ep0Toggle - set to EP0_CNT_DATA_TOGGLE
 657:.\Generated_Source\PSoC5/USBFS_1_drv.c **** *
 658:.\Generated_Source\PSoC5/USBFS_1_drv.c **** * Reentrant:
 659:.\Generated_Source\PSoC5/USBFS_1_drv.c **** *  No.
 660:.\Generated_Source\PSoC5/USBFS_1_drv.c **** *
 661:.\Generated_Source\PSoC5/USBFS_1_drv.c **** *******************************************************************************/
 662:.\Generated_Source\PSoC5/USBFS_1_drv.c **** uint8 USBFS_1_InitNoDataControlTransfer(void) 
 663:.\Generated_Source\PSoC5/USBFS_1_drv.c **** {
 312              		.loc 1 663 0
 313              		.cfi_startproc
 314              		@ args = 0, pretend = 0, frame = 0
 315              		@ frame_needed = 0, uses_anonymous_args = 0
 316              		@ link register save eliminated.
 664:.\Generated_Source\PSoC5/USBFS_1_drv.c ****     USBFS_1_transferState = USBFS_1_TRANS_STATE_NO_DATA_CONTROL;
 317              		.loc 1 664 0
 318 0000 0623     		movs	r3, #6
 319 0002 064A     		ldr	r2, .L23
 320 0004 1370     		strb	r3, [r2]
 665:.\Generated_Source\PSoC5/USBFS_1_drv.c ****     USBFS_1_ep0Mode = USBFS_1_MODE_STATUS_IN_ONLY;
 321              		.loc 1 665 0
 322 0006 064A     		ldr	r2, .L23+4
 323 0008 1370     		strb	r3, [r2]
 666:.\Generated_Source\PSoC5/USBFS_1_drv.c ****     USBFS_1_ep0Toggle = USBFS_1_EP0_CNT_DATA_TOGGLE;
 324              		.loc 1 666 0
 325 000a 8022     		movs	r2, #128
 326 000c 054B     		ldr	r3, .L23+8
 327 000e 1A70     		strb	r2, [r3]
 667:.\Generated_Source\PSoC5/USBFS_1_drv.c ****     USBFS_1_ep0Count = 0u;
 328              		.loc 1 667 0
 329 0010 0022     		movs	r2, #0
 330 0012 054B     		ldr	r3, .L23+12
 331 0014 1A70     		strb	r2, [r3]
 668:.\Generated_Source\PSoC5/USBFS_1_drv.c **** 
 669:.\Generated_Source\PSoC5/USBFS_1_drv.c ****     return(USBFS_1_TRUE);
 670:.\Generated_Source\PSoC5/USBFS_1_drv.c **** }
 332              		.loc 1 670 0
 333 0016 0120     		movs	r0, #1
 334 0018 7047     		bx	lr
 335              	.L24:
 336 001a 00BF     		.align	2
 337              	.L23:
 338 001c 00000000 		.word	USBFS_1_transferState
 339 0020 00000000 		.word	USBFS_1_ep0Mode
 340 0024 00000000 		.word	USBFS_1_ep0Toggle
 341 0028 00000000 		.word	USBFS_1_ep0Count
 342              		.cfi_endproc
 343              	.LFE12:
 344              		.size	USBFS_1_InitNoDataControlTransfer, .-USBFS_1_InitNoDataControlTransfer
 345              		.section	.text.USBFS_1_UpdateStatusBlock,"ax",%progbits
 346              		.align	2
 347              		.global	USBFS_1_UpdateStatusBlock
 348              		.thumb
 349              		.thumb_func
 350              		.type	USBFS_1_UpdateStatusBlock, %function
ARM GAS  C:\Users\Ian\AppData\Local\Temp\ccURMmQY.s 			page 19


 351              	USBFS_1_UpdateStatusBlock:
 352              	.LFB14:
 671:.\Generated_Source\PSoC5/USBFS_1_drv.c **** 
 672:.\Generated_Source\PSoC5/USBFS_1_drv.c **** 
 673:.\Generated_Source\PSoC5/USBFS_1_drv.c **** /*******************************************************************************
 674:.\Generated_Source\PSoC5/USBFS_1_drv.c **** * Function Name: USBFS_1_NoDataControlStatusStage
 675:.\Generated_Source\PSoC5/USBFS_1_drv.c **** ********************************************************************************
 676:.\Generated_Source\PSoC5/USBFS_1_drv.c **** * Summary:
 677:.\Generated_Source\PSoC5/USBFS_1_drv.c **** *  Handle the Status Stage of a no data control transfer.
 678:.\Generated_Source\PSoC5/USBFS_1_drv.c **** *
 679:.\Generated_Source\PSoC5/USBFS_1_drv.c **** *  SET_ADDRESS is special, since we need to receive the status stage with
 680:.\Generated_Source\PSoC5/USBFS_1_drv.c **** *  the old address.
 681:.\Generated_Source\PSoC5/USBFS_1_drv.c **** *
 682:.\Generated_Source\PSoC5/USBFS_1_drv.c **** * Parameters:
 683:.\Generated_Source\PSoC5/USBFS_1_drv.c **** *  None.
 684:.\Generated_Source\PSoC5/USBFS_1_drv.c **** *
 685:.\Generated_Source\PSoC5/USBFS_1_drv.c **** * Return:
 686:.\Generated_Source\PSoC5/USBFS_1_drv.c **** *  None.
 687:.\Generated_Source\PSoC5/USBFS_1_drv.c **** *
 688:.\Generated_Source\PSoC5/USBFS_1_drv.c **** * Global variables:
 689:.\Generated_Source\PSoC5/USBFS_1_drv.c **** *  USBFS_1_transferState - set to TRANS_STATE_IDLE.
 690:.\Generated_Source\PSoC5/USBFS_1_drv.c **** *  USBFS_1_ep0Mode  - set to MODE_STALL_IN_OUT.
 691:.\Generated_Source\PSoC5/USBFS_1_drv.c **** *  USBFS_1_ep0Toggle - set to EP0_CNT_DATA_TOGGLE
 692:.\Generated_Source\PSoC5/USBFS_1_drv.c **** *  USBFS_1_deviceAddress - used to set new address and cleared
 693:.\Generated_Source\PSoC5/USBFS_1_drv.c **** *
 694:.\Generated_Source\PSoC5/USBFS_1_drv.c **** * Reentrant:
 695:.\Generated_Source\PSoC5/USBFS_1_drv.c **** *  No.
 696:.\Generated_Source\PSoC5/USBFS_1_drv.c **** *
 697:.\Generated_Source\PSoC5/USBFS_1_drv.c **** *******************************************************************************/
 698:.\Generated_Source\PSoC5/USBFS_1_drv.c **** void USBFS_1_NoDataControlStatusStage(void) 
 699:.\Generated_Source\PSoC5/USBFS_1_drv.c **** {
 700:.\Generated_Source\PSoC5/USBFS_1_drv.c ****     /* Change the USB address register if we got a SET_ADDRESS. */
 701:.\Generated_Source\PSoC5/USBFS_1_drv.c ****     if (USBFS_1_deviceAddress != 0u)
 702:.\Generated_Source\PSoC5/USBFS_1_drv.c ****     {
 703:.\Generated_Source\PSoC5/USBFS_1_drv.c ****         CY_SET_REG8(USBFS_1_CR0_PTR, USBFS_1_deviceAddress | USBFS_1_CR0_ENABLE);
 704:.\Generated_Source\PSoC5/USBFS_1_drv.c ****         USBFS_1_deviceAddress = 0u;
 705:.\Generated_Source\PSoC5/USBFS_1_drv.c ****     }
 706:.\Generated_Source\PSoC5/USBFS_1_drv.c ****     /* Go Idle */
 707:.\Generated_Source\PSoC5/USBFS_1_drv.c ****     USBFS_1_transferState = USBFS_1_TRANS_STATE_IDLE;
 708:.\Generated_Source\PSoC5/USBFS_1_drv.c ****     /* Update the completion block */
 709:.\Generated_Source\PSoC5/USBFS_1_drv.c ****     USBFS_1_UpdateStatusBlock(USBFS_1_XFER_STATUS_ACK);
 710:.\Generated_Source\PSoC5/USBFS_1_drv.c ****      /* We expect no more data, so stall INs and OUTs */
 711:.\Generated_Source\PSoC5/USBFS_1_drv.c ****     USBFS_1_ep0Mode = USBFS_1_MODE_STALL_IN_OUT;
 712:.\Generated_Source\PSoC5/USBFS_1_drv.c **** }
 713:.\Generated_Source\PSoC5/USBFS_1_drv.c **** 
 714:.\Generated_Source\PSoC5/USBFS_1_drv.c **** 
 715:.\Generated_Source\PSoC5/USBFS_1_drv.c **** /*******************************************************************************
 716:.\Generated_Source\PSoC5/USBFS_1_drv.c **** * Function Name: USBFS_1_UpdateStatusBlock
 717:.\Generated_Source\PSoC5/USBFS_1_drv.c **** ********************************************************************************
 718:.\Generated_Source\PSoC5/USBFS_1_drv.c **** *
 719:.\Generated_Source\PSoC5/USBFS_1_drv.c **** * Summary:
 720:.\Generated_Source\PSoC5/USBFS_1_drv.c **** *  Update the Completion Status Block for a Request.  The block is updated
 721:.\Generated_Source\PSoC5/USBFS_1_drv.c **** *  with the completion code the USBFS_1_transferByteCount.  The
 722:.\Generated_Source\PSoC5/USBFS_1_drv.c **** *  StatusBlock Pointer is set to NULL.
 723:.\Generated_Source\PSoC5/USBFS_1_drv.c **** *
 724:.\Generated_Source\PSoC5/USBFS_1_drv.c **** * Parameters:
 725:.\Generated_Source\PSoC5/USBFS_1_drv.c **** *  completionCode - status.
ARM GAS  C:\Users\Ian\AppData\Local\Temp\ccURMmQY.s 			page 20


 726:.\Generated_Source\PSoC5/USBFS_1_drv.c **** *
 727:.\Generated_Source\PSoC5/USBFS_1_drv.c **** * Return:
 728:.\Generated_Source\PSoC5/USBFS_1_drv.c **** *  None.
 729:.\Generated_Source\PSoC5/USBFS_1_drv.c **** *
 730:.\Generated_Source\PSoC5/USBFS_1_drv.c **** * Global variables:
 731:.\Generated_Source\PSoC5/USBFS_1_drv.c **** *  USBFS_1_currentTD.pStatusBlock->status - updated by the
 732:.\Generated_Source\PSoC5/USBFS_1_drv.c **** *    completionCode parameter.
 733:.\Generated_Source\PSoC5/USBFS_1_drv.c **** *  USBFS_1_currentTD.pStatusBlock->length - updated.
 734:.\Generated_Source\PSoC5/USBFS_1_drv.c **** *  USBFS_1_currentTD.pStatusBlock - cleared.
 735:.\Generated_Source\PSoC5/USBFS_1_drv.c **** *
 736:.\Generated_Source\PSoC5/USBFS_1_drv.c **** * Reentrant:
 737:.\Generated_Source\PSoC5/USBFS_1_drv.c **** *  No.
 738:.\Generated_Source\PSoC5/USBFS_1_drv.c **** *
 739:.\Generated_Source\PSoC5/USBFS_1_drv.c **** *******************************************************************************/
 740:.\Generated_Source\PSoC5/USBFS_1_drv.c **** void USBFS_1_UpdateStatusBlock(uint8 completionCode) 
 741:.\Generated_Source\PSoC5/USBFS_1_drv.c **** {
 353              		.loc 1 741 0
 354              		.cfi_startproc
 355              		@ args = 0, pretend = 0, frame = 0
 356              		@ frame_needed = 0, uses_anonymous_args = 0
 357              		@ link register save eliminated.
 358              	.LVL14:
 742:.\Generated_Source\PSoC5/USBFS_1_drv.c ****     if (USBFS_1_currentTD.pStatusBlock != NULL)
 359              		.loc 1 742 0
 360 0000 064B     		ldr	r3, .L27
 361 0002 9B68     		ldr	r3, [r3, #8]
 362 0004 43B1     		cbz	r3, .L25
 743:.\Generated_Source\PSoC5/USBFS_1_drv.c ****     {
 744:.\Generated_Source\PSoC5/USBFS_1_drv.c ****         USBFS_1_currentTD.pStatusBlock->status = completionCode;
 363              		.loc 1 744 0
 364 0006 054B     		ldr	r3, .L27
 365 0008 9A68     		ldr	r2, [r3, #8]
 366 000a 1070     		strb	r0, [r2]
 745:.\Generated_Source\PSoC5/USBFS_1_drv.c ****         USBFS_1_currentTD.pStatusBlock->length = USBFS_1_transferByteCount;
 367              		.loc 1 745 0
 368 000c 9A68     		ldr	r2, [r3, #8]
 369 000e 0449     		ldr	r1, .L27+4
 370 0010 0988     		ldrh	r1, [r1]
 371 0012 5180     		strh	r1, [r2, #2]	@ movhi
 746:.\Generated_Source\PSoC5/USBFS_1_drv.c ****         USBFS_1_currentTD.pStatusBlock = NULL;
 372              		.loc 1 746 0
 373 0014 0022     		movs	r2, #0
 374 0016 9A60     		str	r2, [r3, #8]
 375              	.L25:
 376 0018 7047     		bx	lr
 377              	.L28:
 378 001a 00BF     		.align	2
 379              	.L27:
 380 001c 00000000 		.word	USBFS_1_currentTD
 381 0020 00000000 		.word	USBFS_1_transferByteCount
 382              		.cfi_endproc
 383              	.LFE14:
 384              		.size	USBFS_1_UpdateStatusBlock, .-USBFS_1_UpdateStatusBlock
 385              		.section	.text.USBFS_1_HandleSetup,"ax",%progbits
 386              		.align	2
 387              		.global	USBFS_1_HandleSetup
 388              		.thumb
ARM GAS  C:\Users\Ian\AppData\Local\Temp\ccURMmQY.s 			page 21


 389              		.thumb_func
 390              		.type	USBFS_1_HandleSetup, %function
 391              	USBFS_1_HandleSetup:
 392              	.LFB1:
 159:.\Generated_Source\PSoC5/USBFS_1_drv.c ****     uint8 requestHandled;
 393              		.loc 1 159 0
 394              		.cfi_startproc
 395              		@ args = 0, pretend = 0, frame = 0
 396              		@ frame_needed = 0, uses_anonymous_args = 0
 397 0000 08B5     		push	{r3, lr}
 398              		.cfi_def_cfa_offset 8
 399              		.cfi_offset 3, -8
 400              		.cfi_offset 14, -4
 162:.\Generated_Source\PSoC5/USBFS_1_drv.c ****     CY_SET_REG8(USBFS_1_EP0_CR_PTR, requestHandled);       /* clear setup bit */
 401              		.loc 1 162 0
 402 0002 134B     		ldr	r3, .L39
 403 0004 1A78     		ldrb	r2, [r3]	@ zero_extendqisi2
 404 0006 D2B2     		uxtb	r2, r2
 405              	.LVL15:
 163:.\Generated_Source\PSoC5/USBFS_1_drv.c ****     requestHandled = CY_GET_REG8(USBFS_1_EP0_CR_PTR);      /* reread register */
 406              		.loc 1 163 0
 407 0008 1A70     		strb	r2, [r3]
 164:.\Generated_Source\PSoC5/USBFS_1_drv.c ****     if((requestHandled & USBFS_1_MODE_SETUP_RCVD) != 0u)
 408              		.loc 1 164 0
 409 000a 1B78     		ldrb	r3, [r3]	@ zero_extendqisi2
 410 000c DBB2     		uxtb	r3, r3
 411              	.LVL16:
 165:.\Generated_Source\PSoC5/USBFS_1_drv.c ****     {
 412              		.loc 1 165 0
 413 000e 13F0800F 		tst	r3, #128
 414 0012 02D0     		beq	.L30
 167:.\Generated_Source\PSoC5/USBFS_1_drv.c ****     }
 415              		.loc 1 167 0
 416 0014 0F4A     		ldr	r2, .L39+4
 417 0016 1370     		strb	r3, [r2]
 418 0018 08BD     		pop	{r3, pc}
 419              	.LVL17:
 420              	.L30:
 172:.\Generated_Source\PSoC5/USBFS_1_drv.c **** 
 421              		.loc 1 172 0
 422 001a 0220     		movs	r0, #2
 423 001c FFF7FEFF 		bl	USBFS_1_UpdateStatusBlock
 424              	.LVL18:
 174:.\Generated_Source\PSoC5/USBFS_1_drv.c ****         {
 425              		.loc 1 174 0
 426 0020 0D4B     		ldr	r3, .L39+8
 427 0022 1B78     		ldrb	r3, [r3]	@ zero_extendqisi2
 428 0024 03F06003 		and	r3, r3, #96
 429 0028 202B     		cmp	r3, #32
 430 002a 05D0     		beq	.L33
 431 002c 402B     		cmp	r3, #64
 432 002e 06D0     		beq	.L34
 433 0030 43B9     		cbnz	r3, .L37
 177:.\Generated_Source\PSoC5/USBFS_1_drv.c ****                 break;
 434              		.loc 1 177 0
 435 0032 FFF7FEFF 		bl	USBFS_1_HandleStandardRqst
 436              	.LVL19:
ARM GAS  C:\Users\Ian\AppData\Local\Temp\ccURMmQY.s 			page 22


 178:.\Generated_Source\PSoC5/USBFS_1_drv.c ****             case USBFS_1_RQST_TYPE_CLS:
 437              		.loc 1 178 0
 438 0036 06E0     		b	.L32
 439              	.LVL20:
 440              	.L33:
 180:.\Generated_Source\PSoC5/USBFS_1_drv.c ****                 break;
 441              		.loc 1 180 0
 442 0038 FFF7FEFF 		bl	USBFS_1_DispatchClassRqst
 443              	.LVL21:
 181:.\Generated_Source\PSoC5/USBFS_1_drv.c ****             case USBFS_1_RQST_TYPE_VND:
 444              		.loc 1 181 0
 445 003c 03E0     		b	.L32
 446              	.LVL22:
 447              	.L34:
 183:.\Generated_Source\PSoC5/USBFS_1_drv.c ****                 break;
 448              		.loc 1 183 0
 449 003e FFF7FEFF 		bl	USBFS_1_HandleVendorRqst
 450              	.LVL23:
 184:.\Generated_Source\PSoC5/USBFS_1_drv.c ****             default:
 451              		.loc 1 184 0
 452 0042 00E0     		b	.L32
 453              	.LVL24:
 454              	.L37:
 186:.\Generated_Source\PSoC5/USBFS_1_drv.c ****                 break;
 455              		.loc 1 186 0
 456 0044 0020     		movs	r0, #0
 457              	.L32:
 458              	.LVL25:
 189:.\Generated_Source\PSoC5/USBFS_1_drv.c ****         {
 459              		.loc 1 189 0
 460 0046 10B9     		cbnz	r0, .L29
 191:.\Generated_Source\PSoC5/USBFS_1_drv.c ****         }
 461              		.loc 1 191 0
 462 0048 0322     		movs	r2, #3
 463 004a 024B     		ldr	r3, .L39+4
 464 004c 1A70     		strb	r2, [r3]
 465              	.L29:
 466 004e 08BD     		pop	{r3, pc}
 467              	.L40:
 468              		.align	2
 469              	.L39:
 470 0050 28600040 		.word	1073766440
 471 0054 00000000 		.word	USBFS_1_ep0Mode
 472 0058 00600040 		.word	1073766400
 473              		.cfi_endproc
 474              	.LFE1:
 475              		.size	USBFS_1_HandleSetup, .-USBFS_1_HandleSetup
 476              		.section	.text.USBFS_1_ControlReadStatusStage,"ax",%progbits
 477              		.align	2
 478              		.global	USBFS_1_ControlReadStatusStage
 479              		.thumb
 480              		.thumb_func
 481              		.type	USBFS_1_ControlReadStatusStage, %function
 482              	USBFS_1_ControlReadStatusStage:
 483              	.LFB8:
 492:.\Generated_Source\PSoC5/USBFS_1_drv.c ****     /* Update the transfer byte count */
 484              		.loc 1 492 0
ARM GAS  C:\Users\Ian\AppData\Local\Temp\ccURMmQY.s 			page 23


 485              		.cfi_startproc
 486              		@ args = 0, pretend = 0, frame = 0
 487              		@ frame_needed = 0, uses_anonymous_args = 0
 488 0000 08B5     		push	{r3, lr}
 489              		.cfi_def_cfa_offset 8
 490              		.cfi_offset 3, -8
 491              		.cfi_offset 14, -4
 494:.\Generated_Source\PSoC5/USBFS_1_drv.c ****     /* Go Idle */
 492              		.loc 1 494 0
 493 0002 084B     		ldr	r3, .L43
 494 0004 1978     		ldrb	r1, [r3]	@ zero_extendqisi2
 495 0006 084A     		ldr	r2, .L43+4
 496 0008 1388     		ldrh	r3, [r2]
 497 000a 0B44     		add	r3, r3, r1
 498 000c 9BB2     		uxth	r3, r3
 499 000e 1380     		strh	r3, [r2]	@ movhi
 496:.\Generated_Source\PSoC5/USBFS_1_drv.c ****     /* Update the completion block */
 500              		.loc 1 496 0
 501 0010 0022     		movs	r2, #0
 502 0012 064B     		ldr	r3, .L43+8
 503 0014 1A70     		strb	r2, [r3]
 498:.\Generated_Source\PSoC5/USBFS_1_drv.c ****     /* We expect no more data, so stall INs and OUTs */
 504              		.loc 1 498 0
 505 0016 0120     		movs	r0, #1
 506 0018 FFF7FEFF 		bl	USBFS_1_UpdateStatusBlock
 507              	.LVL26:
 500:.\Generated_Source\PSoC5/USBFS_1_drv.c **** }
 508              		.loc 1 500 0
 509 001c 0322     		movs	r2, #3
 510 001e 044B     		ldr	r3, .L43+12
 511 0020 1A70     		strb	r2, [r3]
 512 0022 08BD     		pop	{r3, pc}
 513              	.L44:
 514              		.align	2
 515              	.L43:
 516 0024 00000000 		.word	USBFS_1_lastPacketSize
 517 0028 00000000 		.word	USBFS_1_transferByteCount
 518 002c 00000000 		.word	USBFS_1_transferState
 519 0030 00000000 		.word	USBFS_1_ep0Mode
 520              		.cfi_endproc
 521              	.LFE8:
 522              		.size	USBFS_1_ControlReadStatusStage, .-USBFS_1_ControlReadStatusStage
 523              		.section	.text.USBFS_1_HandleOUT,"ax",%progbits
 524              		.align	2
 525              		.global	USBFS_1_HandleOUT
 526              		.thumb
 527              		.thumb_func
 528              		.type	USBFS_1_HandleOUT, %function
 529              	USBFS_1_HandleOUT:
 530              	.LFB3:
 253:.\Generated_Source\PSoC5/USBFS_1_drv.c ****     switch (USBFS_1_transferState)
 531              		.loc 1 253 0
 532              		.cfi_startproc
 533              		@ args = 0, pretend = 0, frame = 0
 534              		@ frame_needed = 0, uses_anonymous_args = 0
 535 0000 08B5     		push	{r3, lr}
 536              		.cfi_def_cfa_offset 8
ARM GAS  C:\Users\Ian\AppData\Local\Temp\ccURMmQY.s 			page 24


 537              		.cfi_offset 3, -8
 538              		.cfi_offset 14, -4
 254:.\Generated_Source\PSoC5/USBFS_1_drv.c ****     {
 539              		.loc 1 254 0
 540 0002 0B4B     		ldr	r3, .L51
 541 0004 1B78     		ldrb	r3, [r3]	@ zero_extendqisi2
 542 0006 DBB2     		uxtb	r3, r3
 543 0008 042B     		cmp	r3, #4
 544 000a 06D0     		beq	.L47
 545 000c 062B     		cmp	r3, #6
 546 000e 07D0     		beq	.L48
 547 0010 022B     		cmp	r3, #2
 548 0012 0BD1     		bne	.L45
 259:.\Generated_Source\PSoC5/USBFS_1_drv.c ****             break;
 549              		.loc 1 259 0
 550 0014 FFF7FEFF 		bl	USBFS_1_ControlReadStatusStage
 551              	.LVL27:
 260:.\Generated_Source\PSoC5/USBFS_1_drv.c ****         case USBFS_1_TRANS_STATE_CONTROL_WRITE:
 552              		.loc 1 260 0
 553 0018 08BD     		pop	{r3, pc}
 554              	.L47:
 262:.\Generated_Source\PSoC5/USBFS_1_drv.c ****             break;
 555              		.loc 1 262 0
 556 001a FFF7FEFF 		bl	USBFS_1_ControlWriteDataStage
 557              	.LVL28:
 263:.\Generated_Source\PSoC5/USBFS_1_drv.c ****         case USBFS_1_TRANS_STATE_NO_DATA_CONTROL:
 558              		.loc 1 263 0
 559 001e 08BD     		pop	{r3, pc}
 560              	.L48:
 266:.\Generated_Source\PSoC5/USBFS_1_drv.c ****             /* We expect no more data, so stall INs and OUTs */
 561              		.loc 1 266 0
 562 0020 0320     		movs	r0, #3
 563 0022 FFF7FEFF 		bl	USBFS_1_UpdateStatusBlock
 564              	.LVL29:
 268:.\Generated_Source\PSoC5/USBFS_1_drv.c ****             break;
 565              		.loc 1 268 0
 566 0026 0322     		movs	r2, #3
 567 0028 024B     		ldr	r3, .L51+4
 568 002a 1A70     		strb	r2, [r3]
 569              	.L45:
 570 002c 08BD     		pop	{r3, pc}
 571              	.L52:
 572 002e 00BF     		.align	2
 573              	.L51:
 574 0030 00000000 		.word	USBFS_1_transferState
 575 0034 00000000 		.word	USBFS_1_ep0Mode
 576              		.cfi_endproc
 577              	.LFE3:
 578              		.size	USBFS_1_HandleOUT, .-USBFS_1_HandleOUT
 579              		.section	.text.USBFS_1_ControlWriteStatusStage,"ax",%progbits
 580              		.align	2
 581              		.global	USBFS_1_ControlWriteStatusStage
 582              		.thumb
 583              		.thumb_func
 584              		.type	USBFS_1_ControlWriteStatusStage, %function
 585              	USBFS_1_ControlWriteStatusStage:
 586              	.LFB11:
ARM GAS  C:\Users\Ian\AppData\Local\Temp\ccURMmQY.s 			page 25


 629:.\Generated_Source\PSoC5/USBFS_1_drv.c ****     /* Go Idle */
 587              		.loc 1 629 0
 588              		.cfi_startproc
 589              		@ args = 0, pretend = 0, frame = 0
 590              		@ frame_needed = 0, uses_anonymous_args = 0
 591 0000 08B5     		push	{r3, lr}
 592              		.cfi_def_cfa_offset 8
 593              		.cfi_offset 3, -8
 594              		.cfi_offset 14, -4
 631:.\Generated_Source\PSoC5/USBFS_1_drv.c ****     /* Update the completion block */
 595              		.loc 1 631 0
 596 0002 0022     		movs	r2, #0
 597 0004 044B     		ldr	r3, .L55
 598 0006 1A70     		strb	r2, [r3]
 633:.\Generated_Source\PSoC5/USBFS_1_drv.c ****     /* We expect no more data, so stall INs and OUTs */
 599              		.loc 1 633 0
 600 0008 0120     		movs	r0, #1
 601 000a FFF7FEFF 		bl	USBFS_1_UpdateStatusBlock
 602              	.LVL30:
 635:.\Generated_Source\PSoC5/USBFS_1_drv.c **** }
 603              		.loc 1 635 0
 604 000e 0322     		movs	r2, #3
 605 0010 024B     		ldr	r3, .L55+4
 606 0012 1A70     		strb	r2, [r3]
 607 0014 08BD     		pop	{r3, pc}
 608              	.L56:
 609 0016 00BF     		.align	2
 610              	.L55:
 611 0018 00000000 		.word	USBFS_1_transferState
 612 001c 00000000 		.word	USBFS_1_ep0Mode
 613              		.cfi_endproc
 614              	.LFE11:
 615              		.size	USBFS_1_ControlWriteStatusStage, .-USBFS_1_ControlWriteStatusStage
 616              		.section	.text.USBFS_1_NoDataControlStatusStage,"ax",%progbits
 617              		.align	2
 618              		.global	USBFS_1_NoDataControlStatusStage
 619              		.thumb
 620              		.thumb_func
 621              		.type	USBFS_1_NoDataControlStatusStage, %function
 622              	USBFS_1_NoDataControlStatusStage:
 623              	.LFB13:
 699:.\Generated_Source\PSoC5/USBFS_1_drv.c ****     /* Change the USB address register if we got a SET_ADDRESS. */
 624              		.loc 1 699 0
 625              		.cfi_startproc
 626              		@ args = 0, pretend = 0, frame = 0
 627              		@ frame_needed = 0, uses_anonymous_args = 0
 628 0000 08B5     		push	{r3, lr}
 629              		.cfi_def_cfa_offset 8
 630              		.cfi_offset 3, -8
 631              		.cfi_offset 14, -4
 701:.\Generated_Source\PSoC5/USBFS_1_drv.c ****     {
 632              		.loc 1 701 0
 633 0002 0B4B     		ldr	r3, .L60
 634 0004 1B78     		ldrb	r3, [r3]	@ zero_extendqisi2
 635 0006 13F0FF0F 		tst	r3, #255
 636 000a 07D0     		beq	.L58
 703:.\Generated_Source\PSoC5/USBFS_1_drv.c ****         USBFS_1_deviceAddress = 0u;
ARM GAS  C:\Users\Ian\AppData\Local\Temp\ccURMmQY.s 			page 26


 637              		.loc 1 703 0
 638 000c 084A     		ldr	r2, .L60
 639 000e 1378     		ldrb	r3, [r2]	@ zero_extendqisi2
 640 0010 43F08003 		orr	r3, r3, #128
 641 0014 0749     		ldr	r1, .L60+4
 642 0016 0B70     		strb	r3, [r1]
 704:.\Generated_Source\PSoC5/USBFS_1_drv.c ****     }
 643              		.loc 1 704 0
 644 0018 0023     		movs	r3, #0
 645 001a 1370     		strb	r3, [r2]
 646              	.L58:
 707:.\Generated_Source\PSoC5/USBFS_1_drv.c ****     /* Update the completion block */
 647              		.loc 1 707 0
 648 001c 0022     		movs	r2, #0
 649 001e 064B     		ldr	r3, .L60+8
 650 0020 1A70     		strb	r2, [r3]
 709:.\Generated_Source\PSoC5/USBFS_1_drv.c ****      /* We expect no more data, so stall INs and OUTs */
 651              		.loc 1 709 0
 652 0022 0120     		movs	r0, #1
 653 0024 FFF7FEFF 		bl	USBFS_1_UpdateStatusBlock
 654              	.LVL31:
 711:.\Generated_Source\PSoC5/USBFS_1_drv.c **** }
 655              		.loc 1 711 0
 656 0028 0322     		movs	r2, #3
 657 002a 044B     		ldr	r3, .L60+12
 658 002c 1A70     		strb	r2, [r3]
 659 002e 08BD     		pop	{r3, pc}
 660              	.L61:
 661              		.align	2
 662              	.L60:
 663 0030 00000000 		.word	USBFS_1_deviceAddress
 664 0034 08600040 		.word	1073766408
 665 0038 00000000 		.word	USBFS_1_transferState
 666 003c 00000000 		.word	USBFS_1_ep0Mode
 667              		.cfi_endproc
 668              	.LFE13:
 669              		.size	USBFS_1_NoDataControlStatusStage, .-USBFS_1_NoDataControlStatusStage
 670              		.section	.text.USBFS_1_HandleIN,"ax",%progbits
 671              		.align	2
 672              		.global	USBFS_1_HandleIN
 673              		.thumb
 674              		.thumb_func
 675              		.type	USBFS_1_HandleIN, %function
 676              	USBFS_1_HandleIN:
 677              	.LFB2:
 215:.\Generated_Source\PSoC5/USBFS_1_drv.c ****     switch (USBFS_1_transferState)
 678              		.loc 1 215 0
 679              		.cfi_startproc
 680              		@ args = 0, pretend = 0, frame = 0
 681              		@ frame_needed = 0, uses_anonymous_args = 0
 682 0000 08B5     		push	{r3, lr}
 683              		.cfi_def_cfa_offset 8
 684              		.cfi_offset 3, -8
 685              		.cfi_offset 14, -4
 216:.\Generated_Source\PSoC5/USBFS_1_drv.c ****     {
 686              		.loc 1 216 0
 687 0002 094B     		ldr	r3, .L68
ARM GAS  C:\Users\Ian\AppData\Local\Temp\ccURMmQY.s 			page 27


 688 0004 1B78     		ldrb	r3, [r3]	@ zero_extendqisi2
 689 0006 DBB2     		uxtb	r3, r3
 690 0008 042B     		cmp	r3, #4
 691 000a 06D0     		beq	.L64
 692 000c 062B     		cmp	r3, #6
 693 000e 07D0     		beq	.L65
 694 0010 022B     		cmp	r3, #2
 695 0012 07D1     		bne	.L62
 221:.\Generated_Source\PSoC5/USBFS_1_drv.c ****             break;
 696              		.loc 1 221 0
 697 0014 FFF7FEFF 		bl	USBFS_1_ControlReadDataStage
 698              	.LVL32:
 222:.\Generated_Source\PSoC5/USBFS_1_drv.c ****         case USBFS_1_TRANS_STATE_CONTROL_WRITE:
 699              		.loc 1 222 0
 700 0018 08BD     		pop	{r3, pc}
 701              	.L64:
 224:.\Generated_Source\PSoC5/USBFS_1_drv.c ****             break;
 702              		.loc 1 224 0
 703 001a FFF7FEFF 		bl	USBFS_1_ControlWriteStatusStage
 704              	.LVL33:
 225:.\Generated_Source\PSoC5/USBFS_1_drv.c ****         case USBFS_1_TRANS_STATE_NO_DATA_CONTROL:
 705              		.loc 1 225 0
 706 001e 08BD     		pop	{r3, pc}
 707              	.L65:
 227:.\Generated_Source\PSoC5/USBFS_1_drv.c ****             break;
 708              		.loc 1 227 0
 709 0020 FFF7FEFF 		bl	USBFS_1_NoDataControlStatusStage
 710              	.LVL34:
 711              	.L62:
 712 0024 08BD     		pop	{r3, pc}
 713              	.L69:
 714 0026 00BF     		.align	2
 715              	.L68:
 716 0028 00000000 		.word	USBFS_1_transferState
 717              		.cfi_endproc
 718              	.LFE2:
 719              		.size	USBFS_1_HandleIN, .-USBFS_1_HandleIN
 720              		.section	.text.USBFS_1_EP_0_ISR,"ax",%progbits
 721              		.align	2
 722              		.global	USBFS_1_EP_0_ISR
 723              		.thumb
 724              		.thumb_func
 725              		.type	USBFS_1_EP_0_ISR, %function
 726              	USBFS_1_EP_0_ISR:
 727              	.LFB0:
  68:.\Generated_Source\PSoC5/USBFS_1_drv.c ****     uint8 bRegTemp;
 728              		.loc 1 68 0
 729              		.cfi_startproc
 730              		@ args = 0, pretend = 0, frame = 0
 731              		@ frame_needed = 0, uses_anonymous_args = 0
 732 0000 08B5     		push	{r3, lr}
 733              		.cfi_def_cfa_offset 8
 734              		.cfi_offset 3, -8
 735              		.cfi_offset 14, -4
  76:.\Generated_Source\PSoC5/USBFS_1_drv.c ****     if ((bRegTemp & USBFS_1_MODE_ACKD) != 0u)
 736              		.loc 1 76 0
 737 0002 284B     		ldr	r3, .L81
ARM GAS  C:\Users\Ian\AppData\Local\Temp\ccURMmQY.s 			page 28


 738 0004 1B78     		ldrb	r3, [r3]	@ zero_extendqisi2
 739 0006 DBB2     		uxtb	r3, r3
 740              	.LVL35:
  77:.\Generated_Source\PSoC5/USBFS_1_drv.c ****     {
 741              		.loc 1 77 0
 742 0008 13F0100F 		tst	r3, #16
 743 000c 48D0     		beq	.L70
 744              	.LVL36:
  80:.\Generated_Source\PSoC5/USBFS_1_drv.c ****         {
 745              		.loc 1 80 0
 746 000e 13F0800F 		tst	r3, #128
 747 0012 0CD0     		beq	.L72
  82:.\Generated_Source\PSoC5/USBFS_1_drv.c ****             {
 748              		.loc 1 82 0
 749 0014 03F00F03 		and	r3, r3, #15
 750              	.LVL37:
 751 0018 012B     		cmp	r3, #1
 752 001a 16D1     		bne	.L77
  88:.\Generated_Source\PSoC5/USBFS_1_drv.c ****                 if((USBFS_1_ep0Mode & USBFS_1_MODE_SETUP_RCVD) != 0u)
 753              		.loc 1 88 0
 754 001c FFF7FEFF 		bl	USBFS_1_HandleSetup
 755              	.LVL38:
  89:.\Generated_Source\PSoC5/USBFS_1_drv.c ****                 {
 756              		.loc 1 89 0
 757 0020 214B     		ldr	r3, .L81+4
 758 0022 1B78     		ldrb	r3, [r3]	@ zero_extendqisi2
 759 0024 13F0800F 		tst	r3, #128
 760 0028 11D1     		bne	.L78
  79:.\Generated_Source\PSoC5/USBFS_1_drv.c ****         if ((bRegTemp & USBFS_1_MODE_SETUP_RCVD) != 0u)
 761              		.loc 1 79 0
 762 002a 0123     		movs	r3, #1
 763 002c 12E0     		b	.L73
 764              	.LVL39:
 765              	.L72:
  96:.\Generated_Source\PSoC5/USBFS_1_drv.c ****         {
 766              		.loc 1 96 0
 767 002e 13F0400F 		tst	r3, #64
 768 0032 03D0     		beq	.L74
  98:.\Generated_Source\PSoC5/USBFS_1_drv.c ****         }
 769              		.loc 1 98 0
 770 0034 FFF7FEFF 		bl	USBFS_1_HandleIN
 771              	.LVL40:
  79:.\Generated_Source\PSoC5/USBFS_1_drv.c ****         if ((bRegTemp & USBFS_1_MODE_SETUP_RCVD) != 0u)
 772              		.loc 1 79 0
 773 0038 0123     		movs	r3, #1
 774 003a 0BE0     		b	.L73
 775              	.LVL41:
 776              	.L74:
 100:.\Generated_Source\PSoC5/USBFS_1_drv.c ****         {
 777              		.loc 1 100 0
 778 003c 13F0200F 		tst	r3, #32
 779 0040 07D0     		beq	.L79
 102:.\Generated_Source\PSoC5/USBFS_1_drv.c ****         }
 780              		.loc 1 102 0
 781 0042 FFF7FEFF 		bl	USBFS_1_HandleOUT
 782              	.LVL42:
  79:.\Generated_Source\PSoC5/USBFS_1_drv.c ****         if ((bRegTemp & USBFS_1_MODE_SETUP_RCVD) != 0u)
ARM GAS  C:\Users\Ian\AppData\Local\Temp\ccURMmQY.s 			page 29


 783              		.loc 1 79 0
 784 0046 0123     		movs	r3, #1
 785 0048 04E0     		b	.L73
 786              	.L77:
  84:.\Generated_Source\PSoC5/USBFS_1_drv.c ****             }
 787              		.loc 1 84 0
 788 004a 0023     		movs	r3, #0
 789 004c 02E0     		b	.L73
 790              	.L78:
  91:.\Generated_Source\PSoC5/USBFS_1_drv.c ****                 }
 791              		.loc 1 91 0
 792 004e 0023     		movs	r3, #0
 793 0050 00E0     		b	.L73
 794              	.LVL43:
 795              	.L79:
 106:.\Generated_Source\PSoC5/USBFS_1_drv.c ****         }
 796              		.loc 1 106 0
 797 0052 0023     		movs	r3, #0
 798              	.LVL44:
 799              	.L73:
 108:.\Generated_Source\PSoC5/USBFS_1_drv.c ****         {
 800              		.loc 1 108 0
 801 0054 23B3     		cbz	r3, .L70
 110:.\Generated_Source\PSoC5/USBFS_1_drv.c ****             if((bRegTemp & USBFS_1_MODE_SETUP_RCVD) == 0u)  /* Check if SETUP bit is not set, other
 802              		.loc 1 110 0
 803 0056 134B     		ldr	r3, .L81
 804              	.LVL45:
 805 0058 1B78     		ldrb	r3, [r3]	@ zero_extendqisi2
 806              	.LVL46:
 111:.\Generated_Source\PSoC5/USBFS_1_drv.c ****             {
 807              		.loc 1 111 0
 808 005a 13F0800F 		tst	r3, #128
 809 005e 1FD1     		bne	.L70
 114:.\Generated_Source\PSoC5/USBFS_1_drv.c ****                 CY_SET_REG8(USBFS_1_EP0_CNT_PTR, bRegTemp);
 810              		.loc 1 114 0
 811 0060 124B     		ldr	r3, .L81+8
 812              	.LVL47:
 813 0062 1B78     		ldrb	r3, [r3]	@ zero_extendqisi2
 814 0064 124A     		ldr	r2, .L81+12
 815 0066 1278     		ldrb	r2, [r2]	@ zero_extendqisi2
 816 0068 1343     		orrs	r3, r3, r2
 817              	.LVL48:
 115:.\Generated_Source\PSoC5/USBFS_1_drv.c ****                 if(bRegTemp == CY_GET_REG8(USBFS_1_EP0_CNT_PTR))   /* continue if writing was succe
 818              		.loc 1 115 0
 819 006a 124A     		ldr	r2, .L81+16
 820 006c 1370     		strb	r3, [r2]
 116:.\Generated_Source\PSoC5/USBFS_1_drv.c ****                 {
 821              		.loc 1 116 0
 822 006e 1278     		ldrb	r2, [r2]	@ zero_extendqisi2
 823 0070 D2B2     		uxtb	r2, r2
 824 0072 9A42     		cmp	r2, r3
 825 0074 14D1     		bne	.L70
 826              	.LVL49:
 827              	.L76:
 120:.\Generated_Source\PSoC5/USBFS_1_drv.c ****                         /* Unlock registers */
 828              		.loc 1 120 0
 829 0076 0C4B     		ldr	r3, .L81+4
ARM GAS  C:\Users\Ian\AppData\Local\Temp\ccURMmQY.s 			page 30


 830 0078 1B78     		ldrb	r3, [r3]	@ zero_extendqisi2
 831 007a DBB2     		uxtb	r3, r3
 832              	.LVL50:
 122:.\Generated_Source\PSoC5/USBFS_1_drv.c ****                         if(bRegTemp == 0u)                          /* Check if SETUP bit is not se
 833              		.loc 1 122 0
 834 007c 094A     		ldr	r2, .L81
 835 007e 1278     		ldrb	r2, [r2]	@ zero_extendqisi2
 836              	.LVL51:
 123:.\Generated_Source\PSoC5/USBFS_1_drv.c ****                         {
 837              		.loc 1 123 0
 838 0080 12F0800F 		tst	r2, #128
 839 0084 07D1     		bne	.L75
 126:.\Generated_Source\PSoC5/USBFS_1_drv.c ****                             /* Writing check */
 840              		.loc 1 126 0
 841 0086 084B     		ldr	r3, .L81+4
 842              	.LVL52:
 843 0088 1B78     		ldrb	r3, [r3]	@ zero_extendqisi2
 844 008a DBB2     		uxtb	r3, r3
 845 008c 054A     		ldr	r2, .L81
 846              	.LVL53:
 847 008e 1370     		strb	r3, [r2]
 128:.\Generated_Source\PSoC5/USBFS_1_drv.c ****                         }
 848              		.loc 1 128 0
 849 0090 1378     		ldrb	r3, [r2]	@ zero_extendqisi2
 850 0092 03F00F03 		and	r3, r3, #15
 851              	.LVL54:
 852              	.L75:
 130:.\Generated_Source\PSoC5/USBFS_1_drv.c ****                 }
 853              		.loc 1 130 0
 854 0096 044A     		ldr	r2, .L81+4
 855 0098 1278     		ldrb	r2, [r2]	@ zero_extendqisi2
 856 009a D2B2     		uxtb	r2, r2
 857 009c 9342     		cmp	r3, r2
 858 009e EAD1     		bne	.L76
 859              	.LVL55:
 860              	.L70:
 861 00a0 08BD     		pop	{r3, pc}
 862              	.L82:
 863 00a2 00BF     		.align	2
 864              	.L81:
 865 00a4 28600040 		.word	1073766440
 866 00a8 00000000 		.word	USBFS_1_ep0Mode
 867 00ac 00000000 		.word	USBFS_1_ep0Toggle
 868 00b0 00000000 		.word	USBFS_1_ep0Count
 869 00b4 29600040 		.word	1073766441
 870              		.cfi_endproc
 871              	.LFE0:
 872              		.size	USBFS_1_EP_0_ISR, .-USBFS_1_EP_0_ISR
 873              		.section	.text.USBFS_1_InitializeStatusBlock,"ax",%progbits
 874              		.align	2
 875              		.global	USBFS_1_InitializeStatusBlock
 876              		.thumb
 877              		.thumb_func
 878              		.type	USBFS_1_InitializeStatusBlock, %function
 879              	USBFS_1_InitializeStatusBlock:
 880              	.LFB15:
 747:.\Generated_Source\PSoC5/USBFS_1_drv.c ****     }
ARM GAS  C:\Users\Ian\AppData\Local\Temp\ccURMmQY.s 			page 31


 748:.\Generated_Source\PSoC5/USBFS_1_drv.c **** }
 749:.\Generated_Source\PSoC5/USBFS_1_drv.c **** 
 750:.\Generated_Source\PSoC5/USBFS_1_drv.c **** 
 751:.\Generated_Source\PSoC5/USBFS_1_drv.c **** /*******************************************************************************
 752:.\Generated_Source\PSoC5/USBFS_1_drv.c **** * Function Name: USBFS_1_InitializeStatusBlock
 753:.\Generated_Source\PSoC5/USBFS_1_drv.c **** ********************************************************************************
 754:.\Generated_Source\PSoC5/USBFS_1_drv.c **** *
 755:.\Generated_Source\PSoC5/USBFS_1_drv.c **** * Summary:
 756:.\Generated_Source\PSoC5/USBFS_1_drv.c **** *  Initialize the Completion Status Block for a Request.  The completion
 757:.\Generated_Source\PSoC5/USBFS_1_drv.c **** *  code is set to USB_XFER_IDLE.
 758:.\Generated_Source\PSoC5/USBFS_1_drv.c **** *
 759:.\Generated_Source\PSoC5/USBFS_1_drv.c **** *  Also, initializes USBFS_1_transferByteCount.  Save some space,
 760:.\Generated_Source\PSoC5/USBFS_1_drv.c **** *  this is the only consumer.
 761:.\Generated_Source\PSoC5/USBFS_1_drv.c **** *
 762:.\Generated_Source\PSoC5/USBFS_1_drv.c **** * Parameters:
 763:.\Generated_Source\PSoC5/USBFS_1_drv.c **** *  None.
 764:.\Generated_Source\PSoC5/USBFS_1_drv.c **** *
 765:.\Generated_Source\PSoC5/USBFS_1_drv.c **** * Return:
 766:.\Generated_Source\PSoC5/USBFS_1_drv.c **** *  None.
 767:.\Generated_Source\PSoC5/USBFS_1_drv.c **** *
 768:.\Generated_Source\PSoC5/USBFS_1_drv.c **** * Global variables:
 769:.\Generated_Source\PSoC5/USBFS_1_drv.c **** *  USBFS_1_currentTD.pStatusBlock->status - set to XFER_IDLE.
 770:.\Generated_Source\PSoC5/USBFS_1_drv.c **** *  USBFS_1_currentTD.pStatusBlock->length - cleared.
 771:.\Generated_Source\PSoC5/USBFS_1_drv.c **** *  USBFS_1_transferByteCount - cleared.
 772:.\Generated_Source\PSoC5/USBFS_1_drv.c **** *
 773:.\Generated_Source\PSoC5/USBFS_1_drv.c **** * Reentrant:
 774:.\Generated_Source\PSoC5/USBFS_1_drv.c **** *  No.
 775:.\Generated_Source\PSoC5/USBFS_1_drv.c **** *
 776:.\Generated_Source\PSoC5/USBFS_1_drv.c **** *******************************************************************************/
 777:.\Generated_Source\PSoC5/USBFS_1_drv.c **** void USBFS_1_InitializeStatusBlock(void) 
 778:.\Generated_Source\PSoC5/USBFS_1_drv.c **** {
 881              		.loc 1 778 0
 882              		.cfi_startproc
 883              		@ args = 0, pretend = 0, frame = 0
 884              		@ frame_needed = 0, uses_anonymous_args = 0
 885              		@ link register save eliminated.
 779:.\Generated_Source\PSoC5/USBFS_1_drv.c ****     USBFS_1_transferByteCount = 0u;
 886              		.loc 1 779 0
 887 0000 0022     		movs	r2, #0
 888 0002 064B     		ldr	r3, .L85
 889 0004 1A80     		strh	r2, [r3]	@ movhi
 780:.\Generated_Source\PSoC5/USBFS_1_drv.c ****     if(USBFS_1_currentTD.pStatusBlock != NULL)
 890              		.loc 1 780 0
 891 0006 064B     		ldr	r3, .L85+4
 892 0008 9B68     		ldr	r3, [r3, #8]
 893 000a 2BB1     		cbz	r3, .L83
 781:.\Generated_Source\PSoC5/USBFS_1_drv.c ****     {
 782:.\Generated_Source\PSoC5/USBFS_1_drv.c ****         USBFS_1_currentTD.pStatusBlock->status = USBFS_1_XFER_IDLE;
 894              		.loc 1 782 0
 895 000c 044A     		ldr	r2, .L85+4
 896 000e 9168     		ldr	r1, [r2, #8]
 897 0010 0023     		movs	r3, #0
 898 0012 0B70     		strb	r3, [r1]
 783:.\Generated_Source\PSoC5/USBFS_1_drv.c ****         USBFS_1_currentTD.pStatusBlock->length = 0u;
 899              		.loc 1 783 0
 900 0014 9268     		ldr	r2, [r2, #8]
 901 0016 5380     		strh	r3, [r2, #2]	@ movhi
ARM GAS  C:\Users\Ian\AppData\Local\Temp\ccURMmQY.s 			page 32


 902              	.L83:
 903 0018 7047     		bx	lr
 904              	.L86:
 905 001a 00BF     		.align	2
 906              	.L85:
 907 001c 00000000 		.word	USBFS_1_transferByteCount
 908 0020 00000000 		.word	USBFS_1_currentTD
 909              		.cfi_endproc
 910              	.LFE15:
 911              		.size	USBFS_1_InitializeStatusBlock, .-USBFS_1_InitializeStatusBlock
 912              		.section	.text.USBFS_1_InitControlRead,"ax",%progbits
 913              		.align	2
 914              		.global	USBFS_1_InitControlRead
 915              		.thumb
 916              		.thumb_func
 917              		.type	USBFS_1_InitControlRead, %function
 918              	USBFS_1_InitControlRead:
 919              	.LFB5:
 377:.\Generated_Source\PSoC5/USBFS_1_drv.c ****     uint16 xferCount;
 920              		.loc 1 377 0
 921              		.cfi_startproc
 922              		@ args = 0, pretend = 0, frame = 0
 923              		@ frame_needed = 0, uses_anonymous_args = 0
 924 0000 08B5     		push	{r3, lr}
 925              		.cfi_def_cfa_offset 8
 926              		.cfi_offset 3, -8
 927              		.cfi_offset 14, -4
 379:.\Generated_Source\PSoC5/USBFS_1_drv.c ****     {
 928              		.loc 1 379 0
 929 0002 104B     		ldr	r3, .L92
 930 0004 1B88     		ldrh	r3, [r3]
 931 0006 9BB2     		uxth	r3, r3
 932 0008 13B9     		cbnz	r3, .L88
 381:.\Generated_Source\PSoC5/USBFS_1_drv.c ****     }
 933              		.loc 1 381 0
 934 000a FFF7FEFF 		bl	USBFS_1_InitZeroLengthControlTransfer
 935              	.LVL56:
 936 000e 16E0     		b	.L89
 937              	.L88:
 386:.\Generated_Source\PSoC5/USBFS_1_drv.c ****         /* Set the toggle, it gets updated in LoadEP */
 938              		.loc 1 386 0
 939 0010 0222     		movs	r2, #2
 940 0012 0D4B     		ldr	r3, .L92+4
 941 0014 1A70     		strb	r2, [r3]
 388:.\Generated_Source\PSoC5/USBFS_1_drv.c ****         /* Initialize the Status Block */
 942              		.loc 1 388 0
 943 0016 0022     		movs	r2, #0
 944 0018 0C4B     		ldr	r3, .L92+8
 945 001a 1A70     		strb	r2, [r3]
 390:.\Generated_Source\PSoC5/USBFS_1_drv.c ****         xferCount = (((uint16)CY_GET_REG8(USBFS_1_lengthHi) << 8u) | (CY_GET_REG8(USBFS_1_lengthLo)
 946              		.loc 1 390 0
 947 001c FFF7FEFF 		bl	USBFS_1_InitializeStatusBlock
 948              	.LVL57:
 391:.\Generated_Source\PSoC5/USBFS_1_drv.c **** 
 949              		.loc 1 391 0
 950 0020 0B4B     		ldr	r3, .L92+12
 951 0022 1A78     		ldrb	r2, [r3]	@ zero_extendqisi2
ARM GAS  C:\Users\Ian\AppData\Local\Temp\ccURMmQY.s 			page 33


 952 0024 013B     		subs	r3, r3, #1
 953 0026 1B78     		ldrb	r3, [r3]	@ zero_extendqisi2
 954 0028 43EA0223 		orr	r3, r3, r2, lsl #8
 955              	.LVL58:
 393:.\Generated_Source\PSoC5/USBFS_1_drv.c ****         {
 956              		.loc 1 393 0
 957 002c 054A     		ldr	r2, .L92
 958 002e 1288     		ldrh	r2, [r2]
 959 0030 92B2     		uxth	r2, r2
 960 0032 9A42     		cmp	r2, r3
 961 0034 01D9     		bls	.L90
 395:.\Generated_Source\PSoC5/USBFS_1_drv.c ****         }
 962              		.loc 1 395 0
 963 0036 034A     		ldr	r2, .L92
 964 0038 1380     		strh	r3, [r2]	@ movhi
 965              	.L90:
 397:.\Generated_Source\PSoC5/USBFS_1_drv.c ****     }
 966              		.loc 1 397 0
 967 003a FFF7FEFF 		bl	USBFS_1_LoadEP0
 968              	.LVL59:
 969              	.L89:
 401:.\Generated_Source\PSoC5/USBFS_1_drv.c **** 
 970              		.loc 1 401 0
 971 003e 0120     		movs	r0, #1
 972 0040 08BD     		pop	{r3, pc}
 973              	.L93:
 974 0042 00BF     		.align	2
 975              	.L92:
 976 0044 00000000 		.word	USBFS_1_currentTD
 977 0048 00000000 		.word	USBFS_1_transferState
 978 004c 00000000 		.word	USBFS_1_ep0Toggle
 979 0050 07600040 		.word	1073766407
 980              		.cfi_endproc
 981              	.LFE5:
 982              		.size	USBFS_1_InitControlRead, .-USBFS_1_InitControlRead
 983              		.section	.text.USBFS_1_InitControlWrite,"ax",%progbits
 984              		.align	2
 985              		.global	USBFS_1_InitControlWrite
 986              		.thumb
 987              		.thumb_func
 988              		.type	USBFS_1_InitControlWrite, %function
 989              	USBFS_1_InitControlWrite:
 990              	.LFB9:
 527:.\Generated_Source\PSoC5/USBFS_1_drv.c ****     uint16 xferCount;
 991              		.loc 1 527 0
 992              		.cfi_startproc
 993              		@ args = 0, pretend = 0, frame = 0
 994              		@ frame_needed = 0, uses_anonymous_args = 0
 995 0000 08B5     		push	{r3, lr}
 996              		.cfi_def_cfa_offset 8
 997              		.cfi_offset 3, -8
 998              		.cfi_offset 14, -4
 531:.\Generated_Source\PSoC5/USBFS_1_drv.c ****     /* This might not be necessary */
 999              		.loc 1 531 0
 1000 0002 0422     		movs	r2, #4
 1001 0004 0C4B     		ldr	r3, .L97
 1002 0006 1A70     		strb	r2, [r3]
ARM GAS  C:\Users\Ian\AppData\Local\Temp\ccURMmQY.s 			page 34


 533:.\Generated_Source\PSoC5/USBFS_1_drv.c ****     /* Initialize the Status Block */
 1003              		.loc 1 533 0
 1004 0008 8022     		movs	r2, #128
 1005 000a 0C4B     		ldr	r3, .L97+4
 1006 000c 1A70     		strb	r2, [r3]
 535:.\Generated_Source\PSoC5/USBFS_1_drv.c **** 
 1007              		.loc 1 535 0
 1008 000e FFF7FEFF 		bl	USBFS_1_InitializeStatusBlock
 1009              	.LVL60:
 537:.\Generated_Source\PSoC5/USBFS_1_drv.c **** 
 1010              		.loc 1 537 0
 1011 0012 0B4B     		ldr	r3, .L97+8
 1012 0014 1A78     		ldrb	r2, [r3]	@ zero_extendqisi2
 1013 0016 013B     		subs	r3, r3, #1
 1014 0018 1B78     		ldrb	r3, [r3]	@ zero_extendqisi2
 1015 001a 43EA0223 		orr	r3, r3, r2, lsl #8
 1016              	.LVL61:
 539:.\Generated_Source\PSoC5/USBFS_1_drv.c ****     {
 1017              		.loc 1 539 0
 1018 001e 094A     		ldr	r2, .L97+12
 1019 0020 1288     		ldrh	r2, [r2]
 1020 0022 92B2     		uxth	r2, r2
 1021 0024 9A42     		cmp	r2, r3
 1022 0026 01D9     		bls	.L95
 541:.\Generated_Source\PSoC5/USBFS_1_drv.c ****     }
 1023              		.loc 1 541 0
 1024 0028 064A     		ldr	r2, .L97+12
 1025 002a 1380     		strh	r3, [r2]	@ movhi
 1026              	.L95:
 545:.\Generated_Source\PSoC5/USBFS_1_drv.c **** 
 1027              		.loc 1 545 0
 1028 002c 0B22     		movs	r2, #11
 1029 002e 064B     		ldr	r3, .L97+16
 1030              	.LVL62:
 1031 0030 1A70     		strb	r2, [r3]
 548:.\Generated_Source\PSoC5/USBFS_1_drv.c **** 
 1032              		.loc 1 548 0
 1033 0032 0120     		movs	r0, #1
 1034 0034 08BD     		pop	{r3, pc}
 1035              	.L98:
 1036 0036 00BF     		.align	2
 1037              	.L97:
 1038 0038 00000000 		.word	USBFS_1_transferState
 1039 003c 00000000 		.word	USBFS_1_ep0Toggle
 1040 0040 07600040 		.word	1073766407
 1041 0044 00000000 		.word	USBFS_1_currentTD
 1042 0048 00000000 		.word	USBFS_1_ep0Mode
 1043              		.cfi_endproc
 1044              	.LFE9:
 1045              		.size	USBFS_1_InitControlWrite, .-USBFS_1_InitControlWrite
 1046              		.comm	USBFS_1_transferByteCount,2,2
 1047              		.comm	USBFS_1_ep0Count,1,1
 1048              		.comm	USBFS_1_ep0Mode,1,1
 1049              		.comm	USBFS_1_currentTD,12,4
 1050              		.comm	USBFS_1_transferState,1,1
 1051              		.comm	USBFS_1_lastPacketSize,1,1
 1052              		.comm	USBFS_1_ep0Toggle,1,1
ARM GAS  C:\Users\Ian\AppData\Local\Temp\ccURMmQY.s 			page 35


 1053              		.comm	USBFS_1_interfaceClass,4,4
 1054              		.comm	USBFS_1_device,1,1
 1055              		.comm	USBFS_1_interfaceStatus,1,4
 1056              		.comm	USBFS_1_interfaceSetting_last,1,4
 1057              		.comm	USBFS_1_interfaceSetting,1,4
 1058              		.comm	USBFS_1_deviceStatus,1,1
 1059              		.comm	USBFS_1_deviceAddress,1,1
 1060              		.comm	USBFS_1_configurationChanged,1,1
 1061              		.comm	USBFS_1_interfaceNumber,1,1
 1062              		.comm	USBFS_1_configuration,1,1
 1063              		.comm	USBFS_1_EP,108,4
 1064              		.text
 1065              	.Letext0:
 1066              		.file 2 ".\\Generated_Source\\PSoC5\\cytypes.h"
 1067              		.file 3 ".\\Generated_Source\\PSoC5\\USBFS_1.h"
 1068              		.file 4 ".\\Generated_Source\\PSoC5\\USBFS_1_pvt.h"