ARM GAS  C:\Users\Ian\AppData\Local\Temp\cc8r3dgT.s 			page 1


   1              		.syntax unified
   2              		.cpu cortex-m3
   3              		.fpu softvfp
   4              		.eabi_attribute 20, 1
   5              		.eabi_attribute 21, 1
   6              		.eabi_attribute 23, 3
   7              		.eabi_attribute 24, 1
   8              		.eabi_attribute 25, 1
   9              		.eabi_attribute 26, 1
  10              		.eabi_attribute 30, 1
  11              		.eabi_attribute 34, 1
  12              		.eabi_attribute 18, 4
  13              		.thumb
  14              		.file	"USBFS_1_Dp.c"
  15              		.text
  16              	.Ltext0:
  17              		.cfi_sections	.debug_frame
  18              		.section	.text.USBFS_1_Dp_Write,"ax",%progbits
  19              		.align	2
  20              		.global	USBFS_1_Dp_Write
  21              		.thumb
  22              		.thumb_func
  23              		.type	USBFS_1_Dp_Write, %function
  24              	USBFS_1_Dp_Write:
  25              	.LFB0:
  26              		.file 1 ".\\Generated_Source\\PSoC5\\USBFS_1_Dp.c"
   1:.\Generated_Source\PSoC5/USBFS_1_Dp.c **** /*******************************************************************************
   2:.\Generated_Source\PSoC5/USBFS_1_Dp.c **** * File Name: USBFS_1_Dp.c  
   3:.\Generated_Source\PSoC5/USBFS_1_Dp.c **** * Version 2.10
   4:.\Generated_Source\PSoC5/USBFS_1_Dp.c **** *
   5:.\Generated_Source\PSoC5/USBFS_1_Dp.c **** * Description:
   6:.\Generated_Source\PSoC5/USBFS_1_Dp.c **** *  This file contains API to enable firmware control of a Pins component.
   7:.\Generated_Source\PSoC5/USBFS_1_Dp.c **** *
   8:.\Generated_Source\PSoC5/USBFS_1_Dp.c **** * Note:
   9:.\Generated_Source\PSoC5/USBFS_1_Dp.c **** *
  10:.\Generated_Source\PSoC5/USBFS_1_Dp.c **** ********************************************************************************
  11:.\Generated_Source\PSoC5/USBFS_1_Dp.c **** * Copyright 2008-2014, Cypress Semiconductor Corporation.  All rights reserved.
  12:.\Generated_Source\PSoC5/USBFS_1_Dp.c **** * You may use this file only in accordance with the license, terms, conditions, 
  13:.\Generated_Source\PSoC5/USBFS_1_Dp.c **** * disclaimers, and limitations in the end user license agreement accompanying 
  14:.\Generated_Source\PSoC5/USBFS_1_Dp.c **** * the software package with which this file was provided.
  15:.\Generated_Source\PSoC5/USBFS_1_Dp.c **** *******************************************************************************/
  16:.\Generated_Source\PSoC5/USBFS_1_Dp.c **** 
  17:.\Generated_Source\PSoC5/USBFS_1_Dp.c **** #include "cytypes.h"
  18:.\Generated_Source\PSoC5/USBFS_1_Dp.c **** #include "USBFS_1_Dp.h"
  19:.\Generated_Source\PSoC5/USBFS_1_Dp.c **** 
  20:.\Generated_Source\PSoC5/USBFS_1_Dp.c **** /* APIs are not generated for P15[7:6] on PSoC 5 */
  21:.\Generated_Source\PSoC5/USBFS_1_Dp.c **** #if !(CY_PSOC5A &&\
  22:.\Generated_Source\PSoC5/USBFS_1_Dp.c **** 	 USBFS_1_Dp__PORT == 15 && ((USBFS_1_Dp__MASK & 0xC0) != 0))
  23:.\Generated_Source\PSoC5/USBFS_1_Dp.c **** 
  24:.\Generated_Source\PSoC5/USBFS_1_Dp.c **** 
  25:.\Generated_Source\PSoC5/USBFS_1_Dp.c **** /*******************************************************************************
  26:.\Generated_Source\PSoC5/USBFS_1_Dp.c **** * Function Name: USBFS_1_Dp_Write
  27:.\Generated_Source\PSoC5/USBFS_1_Dp.c **** ********************************************************************************
  28:.\Generated_Source\PSoC5/USBFS_1_Dp.c **** *
  29:.\Generated_Source\PSoC5/USBFS_1_Dp.c **** * Summary:
  30:.\Generated_Source\PSoC5/USBFS_1_Dp.c **** *  Assign a new value to the digital port's data output register.  
  31:.\Generated_Source\PSoC5/USBFS_1_Dp.c **** *
ARM GAS  C:\Users\Ian\AppData\Local\Temp\cc8r3dgT.s 			page 2


  32:.\Generated_Source\PSoC5/USBFS_1_Dp.c **** * Parameters:  
  33:.\Generated_Source\PSoC5/USBFS_1_Dp.c **** *  prtValue:  The value to be assigned to the Digital Port. 
  34:.\Generated_Source\PSoC5/USBFS_1_Dp.c **** *
  35:.\Generated_Source\PSoC5/USBFS_1_Dp.c **** * Return: 
  36:.\Generated_Source\PSoC5/USBFS_1_Dp.c **** *  None
  37:.\Generated_Source\PSoC5/USBFS_1_Dp.c **** *  
  38:.\Generated_Source\PSoC5/USBFS_1_Dp.c **** *******************************************************************************/
  39:.\Generated_Source\PSoC5/USBFS_1_Dp.c **** void USBFS_1_Dp_Write(uint8 value) 
  40:.\Generated_Source\PSoC5/USBFS_1_Dp.c **** {
  27              		.loc 1 40 0
  28              		.cfi_startproc
  29              		@ args = 0, pretend = 0, frame = 0
  30              		@ frame_needed = 0, uses_anonymous_args = 0
  31              		@ link register save eliminated.
  32              	.LVL0:
  41:.\Generated_Source\PSoC5/USBFS_1_Dp.c ****     uint8 staticBits = (USBFS_1_Dp_DR & (uint8)(~USBFS_1_Dp_MASK));
  33              		.loc 1 41 0
  34 0000 044A     		ldr	r2, .L2
  35 0002 1378     		ldrb	r3, [r2]	@ zero_extendqisi2
  36 0004 03F0BF03 		and	r3, r3, #191
  37              	.LVL1:
  42:.\Generated_Source\PSoC5/USBFS_1_Dp.c ****     USBFS_1_Dp_DR = staticBits | ((uint8)(value << USBFS_1_Dp_SHIFT) & USBFS_1_Dp_MASK);
  38              		.loc 1 42 0
  39 0008 8001     		lsls	r0, r0, #6
  40              	.LVL2:
  41 000a 00F04000 		and	r0, r0, #64
  42 000e 1843     		orrs	r0, r0, r3
  43 0010 1070     		strb	r0, [r2]
  44 0012 7047     		bx	lr
  45              	.L3:
  46              		.align	2
  47              	.L2:
  48 0014 F0510040 		.word	1073762800
  49              		.cfi_endproc
  50              	.LFE0:
  51              		.size	USBFS_1_Dp_Write, .-USBFS_1_Dp_Write
  52              		.section	.text.USBFS_1_Dp_SetDriveMode,"ax",%progbits
  53              		.align	2
  54              		.global	USBFS_1_Dp_SetDriveMode
  55              		.thumb
  56              		.thumb_func
  57              		.type	USBFS_1_Dp_SetDriveMode, %function
  58              	USBFS_1_Dp_SetDriveMode:
  59              	.LFB1:
  43:.\Generated_Source\PSoC5/USBFS_1_Dp.c **** }
  44:.\Generated_Source\PSoC5/USBFS_1_Dp.c **** 
  45:.\Generated_Source\PSoC5/USBFS_1_Dp.c **** 
  46:.\Generated_Source\PSoC5/USBFS_1_Dp.c **** /*******************************************************************************
  47:.\Generated_Source\PSoC5/USBFS_1_Dp.c **** * Function Name: USBFS_1_Dp_SetDriveMode
  48:.\Generated_Source\PSoC5/USBFS_1_Dp.c **** ********************************************************************************
  49:.\Generated_Source\PSoC5/USBFS_1_Dp.c **** *
  50:.\Generated_Source\PSoC5/USBFS_1_Dp.c **** * Summary:
  51:.\Generated_Source\PSoC5/USBFS_1_Dp.c **** *  Change the drive mode on the pins of the port.
  52:.\Generated_Source\PSoC5/USBFS_1_Dp.c **** * 
  53:.\Generated_Source\PSoC5/USBFS_1_Dp.c **** * Parameters:  
  54:.\Generated_Source\PSoC5/USBFS_1_Dp.c **** *  mode:  Change the pins to one of the following drive modes.
  55:.\Generated_Source\PSoC5/USBFS_1_Dp.c **** *
ARM GAS  C:\Users\Ian\AppData\Local\Temp\cc8r3dgT.s 			page 3


  56:.\Generated_Source\PSoC5/USBFS_1_Dp.c **** *  USBFS_1_Dp_DM_STRONG     Strong Drive 
  57:.\Generated_Source\PSoC5/USBFS_1_Dp.c **** *  USBFS_1_Dp_DM_OD_HI      Open Drain, Drives High 
  58:.\Generated_Source\PSoC5/USBFS_1_Dp.c **** *  USBFS_1_Dp_DM_OD_LO      Open Drain, Drives Low 
  59:.\Generated_Source\PSoC5/USBFS_1_Dp.c **** *  USBFS_1_Dp_DM_RES_UP     Resistive Pull Up 
  60:.\Generated_Source\PSoC5/USBFS_1_Dp.c **** *  USBFS_1_Dp_DM_RES_DWN    Resistive Pull Down 
  61:.\Generated_Source\PSoC5/USBFS_1_Dp.c **** *  USBFS_1_Dp_DM_RES_UPDWN  Resistive Pull Up/Down 
  62:.\Generated_Source\PSoC5/USBFS_1_Dp.c **** *  USBFS_1_Dp_DM_DIG_HIZ    High Impedance Digital 
  63:.\Generated_Source\PSoC5/USBFS_1_Dp.c **** *  USBFS_1_Dp_DM_ALG_HIZ    High Impedance Analog 
  64:.\Generated_Source\PSoC5/USBFS_1_Dp.c **** *
  65:.\Generated_Source\PSoC5/USBFS_1_Dp.c **** * Return: 
  66:.\Generated_Source\PSoC5/USBFS_1_Dp.c **** *  None
  67:.\Generated_Source\PSoC5/USBFS_1_Dp.c **** *
  68:.\Generated_Source\PSoC5/USBFS_1_Dp.c **** *******************************************************************************/
  69:.\Generated_Source\PSoC5/USBFS_1_Dp.c **** void USBFS_1_Dp_SetDriveMode(uint8 mode) 
  70:.\Generated_Source\PSoC5/USBFS_1_Dp.c **** {
  60              		.loc 1 70 0
  61              		.cfi_startproc
  62              		@ args = 0, pretend = 0, frame = 0
  63              		@ frame_needed = 0, uses_anonymous_args = 0
  64              		@ link register save eliminated.
  65              	.LVL3:
  71:.\Generated_Source\PSoC5/USBFS_1_Dp.c **** 	CyPins_SetPinDriveMode(USBFS_1_Dp_0, mode);
  66              		.loc 1 71 0
  67 0000 044A     		ldr	r2, .L5
  68 0002 1378     		ldrb	r3, [r2]	@ zero_extendqisi2
  69 0004 03F0F103 		and	r3, r3, #241
  70 0008 00F00E00 		and	r0, r0, #14
  71              	.LVL4:
  72 000c 1843     		orrs	r0, r0, r3
  73 000e 1070     		strb	r0, [r2]
  74 0010 7047     		bx	lr
  75              	.L6:
  76 0012 00BF     		.align	2
  77              	.L5:
  78 0014 7E500040 		.word	1073762430
  79              		.cfi_endproc
  80              	.LFE1:
  81              		.size	USBFS_1_Dp_SetDriveMode, .-USBFS_1_Dp_SetDriveMode
  82              		.section	.text.USBFS_1_Dp_Read,"ax",%progbits
  83              		.align	2
  84              		.global	USBFS_1_Dp_Read
  85              		.thumb
  86              		.thumb_func
  87              		.type	USBFS_1_Dp_Read, %function
  88              	USBFS_1_Dp_Read:
  89              	.LFB2:
  72:.\Generated_Source\PSoC5/USBFS_1_Dp.c **** }
  73:.\Generated_Source\PSoC5/USBFS_1_Dp.c **** 
  74:.\Generated_Source\PSoC5/USBFS_1_Dp.c **** 
  75:.\Generated_Source\PSoC5/USBFS_1_Dp.c **** /*******************************************************************************
  76:.\Generated_Source\PSoC5/USBFS_1_Dp.c **** * Function Name: USBFS_1_Dp_Read
  77:.\Generated_Source\PSoC5/USBFS_1_Dp.c **** ********************************************************************************
  78:.\Generated_Source\PSoC5/USBFS_1_Dp.c **** *
  79:.\Generated_Source\PSoC5/USBFS_1_Dp.c **** * Summary:
  80:.\Generated_Source\PSoC5/USBFS_1_Dp.c **** *  Read the current value on the pins of the Digital Port in right justified 
  81:.\Generated_Source\PSoC5/USBFS_1_Dp.c **** *  form.
  82:.\Generated_Source\PSoC5/USBFS_1_Dp.c **** *
ARM GAS  C:\Users\Ian\AppData\Local\Temp\cc8r3dgT.s 			page 4


  83:.\Generated_Source\PSoC5/USBFS_1_Dp.c **** * Parameters:  
  84:.\Generated_Source\PSoC5/USBFS_1_Dp.c **** *  None
  85:.\Generated_Source\PSoC5/USBFS_1_Dp.c **** *
  86:.\Generated_Source\PSoC5/USBFS_1_Dp.c **** * Return: 
  87:.\Generated_Source\PSoC5/USBFS_1_Dp.c **** *  Returns the current value of the Digital Port as a right justified number
  88:.\Generated_Source\PSoC5/USBFS_1_Dp.c **** *  
  89:.\Generated_Source\PSoC5/USBFS_1_Dp.c **** * Note:
  90:.\Generated_Source\PSoC5/USBFS_1_Dp.c **** *  Macro USBFS_1_Dp_ReadPS calls this function. 
  91:.\Generated_Source\PSoC5/USBFS_1_Dp.c **** *  
  92:.\Generated_Source\PSoC5/USBFS_1_Dp.c **** *******************************************************************************/
  93:.\Generated_Source\PSoC5/USBFS_1_Dp.c **** uint8 USBFS_1_Dp_Read(void) 
  94:.\Generated_Source\PSoC5/USBFS_1_Dp.c **** {
  90              		.loc 1 94 0
  91              		.cfi_startproc
  92              		@ args = 0, pretend = 0, frame = 0
  93              		@ frame_needed = 0, uses_anonymous_args = 0
  94              		@ link register save eliminated.
  95:.\Generated_Source\PSoC5/USBFS_1_Dp.c ****     return (USBFS_1_Dp_PS & USBFS_1_Dp_MASK) >> USBFS_1_Dp_SHIFT;
  95              		.loc 1 95 0
  96 0000 024B     		ldr	r3, .L8
  97 0002 1878     		ldrb	r0, [r3]	@ zero_extendqisi2
  96:.\Generated_Source\PSoC5/USBFS_1_Dp.c **** }
  98              		.loc 1 96 0
  99 0004 C0F38010 		ubfx	r0, r0, #6, #1
 100 0008 7047     		bx	lr
 101              	.L9:
 102 000a 00BF     		.align	2
 103              	.L8:
 104 000c F1510040 		.word	1073762801
 105              		.cfi_endproc
 106              	.LFE2:
 107              		.size	USBFS_1_Dp_Read, .-USBFS_1_Dp_Read
 108              		.section	.text.USBFS_1_Dp_ReadDataReg,"ax",%progbits
 109              		.align	2
 110              		.global	USBFS_1_Dp_ReadDataReg
 111              		.thumb
 112              		.thumb_func
 113              		.type	USBFS_1_Dp_ReadDataReg, %function
 114              	USBFS_1_Dp_ReadDataReg:
 115              	.LFB3:
  97:.\Generated_Source\PSoC5/USBFS_1_Dp.c **** 
  98:.\Generated_Source\PSoC5/USBFS_1_Dp.c **** 
  99:.\Generated_Source\PSoC5/USBFS_1_Dp.c **** /*******************************************************************************
 100:.\Generated_Source\PSoC5/USBFS_1_Dp.c **** * Function Name: USBFS_1_Dp_ReadDataReg
 101:.\Generated_Source\PSoC5/USBFS_1_Dp.c **** ********************************************************************************
 102:.\Generated_Source\PSoC5/USBFS_1_Dp.c **** *
 103:.\Generated_Source\PSoC5/USBFS_1_Dp.c **** * Summary:
 104:.\Generated_Source\PSoC5/USBFS_1_Dp.c **** *  Read the current value assigned to a Digital Port's data output register
 105:.\Generated_Source\PSoC5/USBFS_1_Dp.c **** *
 106:.\Generated_Source\PSoC5/USBFS_1_Dp.c **** * Parameters:  
 107:.\Generated_Source\PSoC5/USBFS_1_Dp.c **** *  None 
 108:.\Generated_Source\PSoC5/USBFS_1_Dp.c **** *
 109:.\Generated_Source\PSoC5/USBFS_1_Dp.c **** * Return: 
 110:.\Generated_Source\PSoC5/USBFS_1_Dp.c **** *  Returns the current value assigned to the Digital Port's data output register
 111:.\Generated_Source\PSoC5/USBFS_1_Dp.c **** *  
 112:.\Generated_Source\PSoC5/USBFS_1_Dp.c **** *******************************************************************************/
 113:.\Generated_Source\PSoC5/USBFS_1_Dp.c **** uint8 USBFS_1_Dp_ReadDataReg(void) 
ARM GAS  C:\Users\Ian\AppData\Local\Temp\cc8r3dgT.s 			page 5


 114:.\Generated_Source\PSoC5/USBFS_1_Dp.c **** {
 116              		.loc 1 114 0
 117              		.cfi_startproc
 118              		@ args = 0, pretend = 0, frame = 0
 119              		@ frame_needed = 0, uses_anonymous_args = 0
 120              		@ link register save eliminated.
 115:.\Generated_Source\PSoC5/USBFS_1_Dp.c ****     return (USBFS_1_Dp_DR & USBFS_1_Dp_MASK) >> USBFS_1_Dp_SHIFT;
 121              		.loc 1 115 0
 122 0000 024B     		ldr	r3, .L11
 123 0002 1878     		ldrb	r0, [r3]	@ zero_extendqisi2
 116:.\Generated_Source\PSoC5/USBFS_1_Dp.c **** }
 124              		.loc 1 116 0
 125 0004 C0F38010 		ubfx	r0, r0, #6, #1
 126 0008 7047     		bx	lr
 127              	.L12:
 128 000a 00BF     		.align	2
 129              	.L11:
 130 000c F0510040 		.word	1073762800
 131              		.cfi_endproc
 132              	.LFE3:
 133              		.size	USBFS_1_Dp_ReadDataReg, .-USBFS_1_Dp_ReadDataReg
 134              		.section	.text.USBFS_1_Dp_ClearInterrupt,"ax",%progbits
 135              		.align	2
 136              		.global	USBFS_1_Dp_ClearInterrupt
 137              		.thumb
 138              		.thumb_func
 139              		.type	USBFS_1_Dp_ClearInterrupt, %function
 140              	USBFS_1_Dp_ClearInterrupt:
 141              	.LFB4:
 117:.\Generated_Source\PSoC5/USBFS_1_Dp.c **** 
 118:.\Generated_Source\PSoC5/USBFS_1_Dp.c **** 
 119:.\Generated_Source\PSoC5/USBFS_1_Dp.c **** /* If Interrupts Are Enabled for this Pins component */ 
 120:.\Generated_Source\PSoC5/USBFS_1_Dp.c **** #if defined(USBFS_1_Dp_INTSTAT) 
 121:.\Generated_Source\PSoC5/USBFS_1_Dp.c **** 
 122:.\Generated_Source\PSoC5/USBFS_1_Dp.c ****     /*******************************************************************************
 123:.\Generated_Source\PSoC5/USBFS_1_Dp.c ****     * Function Name: USBFS_1_Dp_ClearInterrupt
 124:.\Generated_Source\PSoC5/USBFS_1_Dp.c ****     ********************************************************************************
 125:.\Generated_Source\PSoC5/USBFS_1_Dp.c ****     * Summary:
 126:.\Generated_Source\PSoC5/USBFS_1_Dp.c ****     *  Clears any active interrupts attached to port and returns the value of the 
 127:.\Generated_Source\PSoC5/USBFS_1_Dp.c ****     *  interrupt status register.
 128:.\Generated_Source\PSoC5/USBFS_1_Dp.c ****     *
 129:.\Generated_Source\PSoC5/USBFS_1_Dp.c ****     * Parameters:  
 130:.\Generated_Source\PSoC5/USBFS_1_Dp.c ****     *  None 
 131:.\Generated_Source\PSoC5/USBFS_1_Dp.c ****     *
 132:.\Generated_Source\PSoC5/USBFS_1_Dp.c ****     * Return: 
 133:.\Generated_Source\PSoC5/USBFS_1_Dp.c ****     *  Returns the value of the interrupt status register
 134:.\Generated_Source\PSoC5/USBFS_1_Dp.c ****     *  
 135:.\Generated_Source\PSoC5/USBFS_1_Dp.c ****     *******************************************************************************/
 136:.\Generated_Source\PSoC5/USBFS_1_Dp.c ****     uint8 USBFS_1_Dp_ClearInterrupt(void) 
 137:.\Generated_Source\PSoC5/USBFS_1_Dp.c ****     {
 142              		.loc 1 137 0
 143              		.cfi_startproc
 144              		@ args = 0, pretend = 0, frame = 0
 145              		@ frame_needed = 0, uses_anonymous_args = 0
 146              		@ link register save eliminated.
 138:.\Generated_Source\PSoC5/USBFS_1_Dp.c ****         return (USBFS_1_Dp_INTSTAT & USBFS_1_Dp_MASK) >> USBFS_1_Dp_SHIFT;
 147              		.loc 1 138 0
ARM GAS  C:\Users\Ian\AppData\Local\Temp\cc8r3dgT.s 			page 6


 148 0000 024B     		ldr	r3, .L14
 149 0002 1878     		ldrb	r0, [r3]	@ zero_extendqisi2
 139:.\Generated_Source\PSoC5/USBFS_1_Dp.c ****     }
 150              		.loc 1 139 0
 151 0004 C0F38010 		ubfx	r0, r0, #6, #1
 152 0008 7047     		bx	lr
 153              	.L15:
 154 000a 00BF     		.align	2
 155              	.L14:
 156 000c 8F450040 		.word	1073759631
 157              		.cfi_endproc
 158              	.LFE4:
 159              		.size	USBFS_1_Dp_ClearInterrupt, .-USBFS_1_Dp_ClearInterrupt
 160              		.text
 161              	.Letext0:
 162              		.file 2 ".\\Generated_Source\\PSoC5\\cytypes.h"